
stm32f769i-distro-demo.elf:     file format elf32-littlearm

Sections:
Idx Name          Size      VMA       LMA       File off  Algn
  0 .isr_vector   000001f8  08000000  08000000  00010000  2**0
                  CONTENTS, ALLOC, LOAD, READONLY, DATA
  1 .text         00009384  08000200  08000200  00010200  2**4
                  CONTENTS, ALLOC, LOAD, READONLY, CODE
  2 .rodata       000f2f94  08009584  08009584  00019584  2**2
                  CONTENTS, ALLOC, LOAD, READONLY, DATA
  3 .ARM.extab    00000000  080fc518  080fc518  001100f0  2**0
                  CONTENTS
  4 .ARM          00000008  080fc518  080fc518  0010c518  2**2
                  CONTENTS, ALLOC, LOAD, READONLY, DATA
  5 .preinit_array 00000000  080fc520  080fc520  001100f0  2**0
                  CONTENTS, ALLOC, LOAD, DATA
  6 .init_array   00000004  080fc520  080fc520  0010c520  2**2
                  CONTENTS, ALLOC, LOAD, DATA
  7 .fini_array   00000004  080fc524  080fc524  0010c524  2**2
                  CONTENTS, ALLOC, LOAD, DATA
  8 .data         000000f0  20000000  080fc528  00110000  2**2
                  CONTENTS, ALLOC, LOAD, DATA
  9 .bss          0000ddf4  20000100  080fc618  00110100  2**5
                  ALLOC
 10 ._user_heap_stack 00000604  2000def4  080fc618  0011def4  2**0
                  ALLOC
 11 .ARM.attributes 0000002e  00000000  00000000  001100f0  2**0
                  CONTENTS, READONLY
 12 .comment      0000007b  00000000  00000000  0011011e  2**0
                  CONTENTS, READONLY
 13 .debug_line   0000007e  00000000  00000000  00110199  2**0
                  CONTENTS, READONLY, DEBUGGING
 14 .debug_info   00000022  00000000  00000000  00110217  2**0
                  CONTENTS, READONLY, DEBUGGING
 15 .debug_abbrev 00000012  00000000  00000000  00110239  2**0
                  CONTENTS, READONLY, DEBUGGING
 16 .debug_aranges 00000028  00000000  00000000  00110250  2**3
                  CONTENTS, READONLY, DEBUGGING
 17 .debug_str    00000091  00000000  00000000  00110278  2**0
                  CONTENTS, READONLY, DEBUGGING
 18 .debug_ranges 00000020  00000000  00000000  00110310  2**3
                  CONTENTS, READONLY, DEBUGGING
 19 .debug_frame  000009c4  00000000  00000000  00110330  2**2
                  CONTENTS, READONLY, DEBUGGING

Disassembly of section .text:

08000200 <__do_global_dtors_aux>:
 8000200:	b510      	push	{r4, lr}
 8000202:	4c05      	ldr	r4, [pc, #20]	; (8000218 <__do_global_dtors_aux+0x18>)
 8000204:	7823      	ldrb	r3, [r4, #0]
 8000206:	b933      	cbnz	r3, 8000216 <__do_global_dtors_aux+0x16>
 8000208:	4b04      	ldr	r3, [pc, #16]	; (800021c <__do_global_dtors_aux+0x1c>)
 800020a:	b113      	cbz	r3, 8000212 <__do_global_dtors_aux+0x12>
 800020c:	4804      	ldr	r0, [pc, #16]	; (8000220 <__do_global_dtors_aux+0x20>)
 800020e:	f3af 8000 	nop.w
 8000212:	2301      	movs	r3, #1
 8000214:	7023      	strb	r3, [r4, #0]
 8000216:	bd10      	pop	{r4, pc}
 8000218:	20000100 	.word	0x20000100
 800021c:	00000000 	.word	0x00000000
 8000220:	0800956c 	.word	0x0800956c

08000224 <frame_dummy>:
 8000224:	b508      	push	{r3, lr}
 8000226:	4b03      	ldr	r3, [pc, #12]	; (8000234 <frame_dummy+0x10>)
 8000228:	b11b      	cbz	r3, 8000232 <frame_dummy+0xe>
 800022a:	4903      	ldr	r1, [pc, #12]	; (8000238 <frame_dummy+0x14>)
 800022c:	4803      	ldr	r0, [pc, #12]	; (800023c <frame_dummy+0x18>)
 800022e:	f3af 8000 	nop.w
 8000232:	bd08      	pop	{r3, pc}
 8000234:	00000000 	.word	0x00000000
 8000238:	20000104 	.word	0x20000104
 800023c:	0800956c 	.word	0x0800956c

08000240 <memchr>:
 8000240:	f001 01ff 	and.w	r1, r1, #255	; 0xff
 8000244:	2a10      	cmp	r2, #16
 8000246:	db2b      	blt.n	80002a0 <memchr+0x60>
 8000248:	f010 0f07 	tst.w	r0, #7
 800024c:	d008      	beq.n	8000260 <memchr+0x20>
 800024e:	f810 3b01 	ldrb.w	r3, [r0], #1
 8000252:	3a01      	subs	r2, #1
 8000254:	428b      	cmp	r3, r1
 8000256:	d02d      	beq.n	80002b4 <memchr+0x74>
 8000258:	f010 0f07 	tst.w	r0, #7
 800025c:	b342      	cbz	r2, 80002b0 <memchr+0x70>
 800025e:	d1f6      	bne.n	800024e <memchr+0xe>
 8000260:	b4f0      	push	{r4, r5, r6, r7}
 8000262:	ea41 2101 	orr.w	r1, r1, r1, lsl #8
 8000266:	ea41 4101 	orr.w	r1, r1, r1, lsl #16
 800026a:	f022 0407 	bic.w	r4, r2, #7
 800026e:	f07f 0700 	mvns.w	r7, #0
 8000272:	2300      	movs	r3, #0
 8000274:	e8f0 5602 	ldrd	r5, r6, [r0], #8
 8000278:	3c08      	subs	r4, #8
 800027a:	ea85 0501 	eor.w	r5, r5, r1
 800027e:	ea86 0601 	eor.w	r6, r6, r1
 8000282:	fa85 f547 	uadd8	r5, r5, r7
 8000286:	faa3 f587 	sel	r5, r3, r7
 800028a:	fa86 f647 	uadd8	r6, r6, r7
 800028e:	faa5 f687 	sel	r6, r5, r7
 8000292:	b98e      	cbnz	r6, 80002b8 <memchr+0x78>
 8000294:	d1ee      	bne.n	8000274 <memchr+0x34>
 8000296:	bcf0      	pop	{r4, r5, r6, r7}
 8000298:	f001 01ff 	and.w	r1, r1, #255	; 0xff
 800029c:	f002 0207 	and.w	r2, r2, #7
 80002a0:	b132      	cbz	r2, 80002b0 <memchr+0x70>
 80002a2:	f810 3b01 	ldrb.w	r3, [r0], #1
 80002a6:	3a01      	subs	r2, #1
 80002a8:	ea83 0301 	eor.w	r3, r3, r1
 80002ac:	b113      	cbz	r3, 80002b4 <memchr+0x74>
 80002ae:	d1f8      	bne.n	80002a2 <memchr+0x62>
 80002b0:	2000      	movs	r0, #0
 80002b2:	4770      	bx	lr
 80002b4:	3801      	subs	r0, #1
 80002b6:	4770      	bx	lr
 80002b8:	2d00      	cmp	r5, #0
 80002ba:	bf06      	itte	eq
 80002bc:	4635      	moveq	r5, r6
 80002be:	3803      	subeq	r0, #3
 80002c0:	3807      	subne	r0, #7
 80002c2:	f015 0f01 	tst.w	r5, #1
 80002c6:	d107      	bne.n	80002d8 <memchr+0x98>
 80002c8:	3001      	adds	r0, #1
 80002ca:	f415 7f80 	tst.w	r5, #256	; 0x100
 80002ce:	bf02      	ittt	eq
 80002d0:	3001      	addeq	r0, #1
 80002d2:	f415 3fc0 	tsteq.w	r5, #98304	; 0x18000
 80002d6:	3001      	addeq	r0, #1
 80002d8:	bcf0      	pop	{r4, r5, r6, r7}
 80002da:	3801      	subs	r0, #1
 80002dc:	4770      	bx	lr
 80002de:	bf00      	nop

080002e0 <__aeabi_drsub>:
 80002e0:	f081 4100 	eor.w	r1, r1, #2147483648	; 0x80000000
 80002e4:	e002      	b.n	80002ec <__adddf3>
 80002e6:	bf00      	nop

080002e8 <__aeabi_dsub>:
 80002e8:	f083 4300 	eor.w	r3, r3, #2147483648	; 0x80000000

080002ec <__adddf3>:
 80002ec:	b530      	push	{r4, r5, lr}
 80002ee:	ea4f 0441 	mov.w	r4, r1, lsl #1
 80002f2:	ea4f 0543 	mov.w	r5, r3, lsl #1
 80002f6:	ea94 0f05 	teq	r4, r5
 80002fa:	bf08      	it	eq
 80002fc:	ea90 0f02 	teqeq	r0, r2
 8000300:	bf1f      	itttt	ne
 8000302:	ea54 0c00 	orrsne.w	ip, r4, r0
 8000306:	ea55 0c02 	orrsne.w	ip, r5, r2
 800030a:	ea7f 5c64 	mvnsne.w	ip, r4, asr #21
 800030e:	ea7f 5c65 	mvnsne.w	ip, r5, asr #21
 8000312:	f000 80e2 	beq.w	80004da <__adddf3+0x1ee>
 8000316:	ea4f 5454 	mov.w	r4, r4, lsr #21
 800031a:	ebd4 5555 	rsbs	r5, r4, r5, lsr #21
 800031e:	bfb8      	it	lt
 8000320:	426d      	neglt	r5, r5
 8000322:	dd0c      	ble.n	800033e <__adddf3+0x52>
 8000324:	442c      	add	r4, r5
 8000326:	ea80 0202 	eor.w	r2, r0, r2
 800032a:	ea81 0303 	eor.w	r3, r1, r3
 800032e:	ea82 0000 	eor.w	r0, r2, r0
 8000332:	ea83 0101 	eor.w	r1, r3, r1
 8000336:	ea80 0202 	eor.w	r2, r0, r2
 800033a:	ea81 0303 	eor.w	r3, r1, r3
 800033e:	2d36      	cmp	r5, #54	; 0x36
 8000340:	bf88      	it	hi
 8000342:	bd30      	pophi	{r4, r5, pc}
 8000344:	f011 4f00 	tst.w	r1, #2147483648	; 0x80000000
 8000348:	ea4f 3101 	mov.w	r1, r1, lsl #12
 800034c:	f44f 1c80 	mov.w	ip, #1048576	; 0x100000
 8000350:	ea4c 3111 	orr.w	r1, ip, r1, lsr #12
 8000354:	d002      	beq.n	800035c <__adddf3+0x70>
 8000356:	4240      	negs	r0, r0
 8000358:	eb61 0141 	sbc.w	r1, r1, r1, lsl #1
 800035c:	f013 4f00 	tst.w	r3, #2147483648	; 0x80000000
 8000360:	ea4f 3303 	mov.w	r3, r3, lsl #12
 8000364:	ea4c 3313 	orr.w	r3, ip, r3, lsr #12
 8000368:	d002      	beq.n	8000370 <__adddf3+0x84>
 800036a:	4252      	negs	r2, r2
 800036c:	eb63 0343 	sbc.w	r3, r3, r3, lsl #1
 8000370:	ea94 0f05 	teq	r4, r5
 8000374:	f000 80a7 	beq.w	80004c6 <__adddf3+0x1da>
 8000378:	f1a4 0401 	sub.w	r4, r4, #1
 800037c:	f1d5 0e20 	rsbs	lr, r5, #32
 8000380:	db0d      	blt.n	800039e <__adddf3+0xb2>
 8000382:	fa02 fc0e 	lsl.w	ip, r2, lr
 8000386:	fa22 f205 	lsr.w	r2, r2, r5
 800038a:	1880      	adds	r0, r0, r2
 800038c:	f141 0100 	adc.w	r1, r1, #0
 8000390:	fa03 f20e 	lsl.w	r2, r3, lr
 8000394:	1880      	adds	r0, r0, r2
 8000396:	fa43 f305 	asr.w	r3, r3, r5
 800039a:	4159      	adcs	r1, r3
 800039c:	e00e      	b.n	80003bc <__adddf3+0xd0>
 800039e:	f1a5 0520 	sub.w	r5, r5, #32
 80003a2:	f10e 0e20 	add.w	lr, lr, #32
 80003a6:	2a01      	cmp	r2, #1
 80003a8:	fa03 fc0e 	lsl.w	ip, r3, lr
 80003ac:	bf28      	it	cs
 80003ae:	f04c 0c02 	orrcs.w	ip, ip, #2
 80003b2:	fa43 f305 	asr.w	r3, r3, r5
 80003b6:	18c0      	adds	r0, r0, r3
 80003b8:	eb51 71e3 	adcs.w	r1, r1, r3, asr #31
 80003bc:	f001 4500 	and.w	r5, r1, #2147483648	; 0x80000000
 80003c0:	d507      	bpl.n	80003d2 <__adddf3+0xe6>
 80003c2:	f04f 0e00 	mov.w	lr, #0
 80003c6:	f1dc 0c00 	rsbs	ip, ip, #0
 80003ca:	eb7e 0000 	sbcs.w	r0, lr, r0
 80003ce:	eb6e 0101 	sbc.w	r1, lr, r1
 80003d2:	f5b1 1f80 	cmp.w	r1, #1048576	; 0x100000
 80003d6:	d31b      	bcc.n	8000410 <__adddf3+0x124>
 80003d8:	f5b1 1f00 	cmp.w	r1, #2097152	; 0x200000
 80003dc:	d30c      	bcc.n	80003f8 <__adddf3+0x10c>
 80003de:	0849      	lsrs	r1, r1, #1
 80003e0:	ea5f 0030 	movs.w	r0, r0, rrx
 80003e4:	ea4f 0c3c 	mov.w	ip, ip, rrx
 80003e8:	f104 0401 	add.w	r4, r4, #1
 80003ec:	ea4f 5244 	mov.w	r2, r4, lsl #21
 80003f0:	f512 0f80 	cmn.w	r2, #4194304	; 0x400000
 80003f4:	f080 809a 	bcs.w	800052c <__adddf3+0x240>
 80003f8:	f1bc 4f00 	cmp.w	ip, #2147483648	; 0x80000000
 80003fc:	bf08      	it	eq
 80003fe:	ea5f 0c50 	movseq.w	ip, r0, lsr #1
 8000402:	f150 0000 	adcs.w	r0, r0, #0
 8000406:	eb41 5104 	adc.w	r1, r1, r4, lsl #20
 800040a:	ea41 0105 	orr.w	r1, r1, r5
 800040e:	bd30      	pop	{r4, r5, pc}
 8000410:	ea5f 0c4c 	movs.w	ip, ip, lsl #1
 8000414:	4140      	adcs	r0, r0
 8000416:	eb41 0101 	adc.w	r1, r1, r1
 800041a:	f411 1f80 	tst.w	r1, #1048576	; 0x100000
 800041e:	f1a4 0401 	sub.w	r4, r4, #1
 8000422:	d1e9      	bne.n	80003f8 <__adddf3+0x10c>
 8000424:	f091 0f00 	teq	r1, #0
 8000428:	bf04      	itt	eq
 800042a:	4601      	moveq	r1, r0
 800042c:	2000      	moveq	r0, #0
 800042e:	fab1 f381 	clz	r3, r1
 8000432:	bf08      	it	eq
 8000434:	3320      	addeq	r3, #32
 8000436:	f1a3 030b 	sub.w	r3, r3, #11
 800043a:	f1b3 0220 	subs.w	r2, r3, #32
 800043e:	da0c      	bge.n	800045a <__adddf3+0x16e>
 8000440:	320c      	adds	r2, #12
 8000442:	dd08      	ble.n	8000456 <__adddf3+0x16a>
 8000444:	f102 0c14 	add.w	ip, r2, #20
 8000448:	f1c2 020c 	rsb	r2, r2, #12
 800044c:	fa01 f00c 	lsl.w	r0, r1, ip
 8000450:	fa21 f102 	lsr.w	r1, r1, r2
 8000454:	e00c      	b.n	8000470 <__adddf3+0x184>
 8000456:	f102 0214 	add.w	r2, r2, #20
 800045a:	bfd8      	it	le
 800045c:	f1c2 0c20 	rsble	ip, r2, #32
 8000460:	fa01 f102 	lsl.w	r1, r1, r2
 8000464:	fa20 fc0c 	lsr.w	ip, r0, ip
 8000468:	bfdc      	itt	le
 800046a:	ea41 010c 	orrle.w	r1, r1, ip
 800046e:	4090      	lslle	r0, r2
 8000470:	1ae4      	subs	r4, r4, r3
 8000472:	bfa2      	ittt	ge
 8000474:	eb01 5104 	addge.w	r1, r1, r4, lsl #20
 8000478:	4329      	orrge	r1, r5
 800047a:	bd30      	popge	{r4, r5, pc}
 800047c:	ea6f 0404 	mvn.w	r4, r4
 8000480:	3c1f      	subs	r4, #31
 8000482:	da1c      	bge.n	80004be <__adddf3+0x1d2>
 8000484:	340c      	adds	r4, #12
 8000486:	dc0e      	bgt.n	80004a6 <__adddf3+0x1ba>
 8000488:	f104 0414 	add.w	r4, r4, #20
 800048c:	f1c4 0220 	rsb	r2, r4, #32
 8000490:	fa20 f004 	lsr.w	r0, r0, r4
 8000494:	fa01 f302 	lsl.w	r3, r1, r2
 8000498:	ea40 0003 	orr.w	r0, r0, r3
 800049c:	fa21 f304 	lsr.w	r3, r1, r4
 80004a0:	ea45 0103 	orr.w	r1, r5, r3
 80004a4:	bd30      	pop	{r4, r5, pc}
 80004a6:	f1c4 040c 	rsb	r4, r4, #12
 80004aa:	f1c4 0220 	rsb	r2, r4, #32
 80004ae:	fa20 f002 	lsr.w	r0, r0, r2
 80004b2:	fa01 f304 	lsl.w	r3, r1, r4
 80004b6:	ea40 0003 	orr.w	r0, r0, r3
 80004ba:	4629      	mov	r1, r5
 80004bc:	bd30      	pop	{r4, r5, pc}
 80004be:	fa21 f004 	lsr.w	r0, r1, r4
 80004c2:	4629      	mov	r1, r5
 80004c4:	bd30      	pop	{r4, r5, pc}
 80004c6:	f094 0f00 	teq	r4, #0
 80004ca:	f483 1380 	eor.w	r3, r3, #1048576	; 0x100000
 80004ce:	bf06      	itte	eq
 80004d0:	f481 1180 	eoreq.w	r1, r1, #1048576	; 0x100000
 80004d4:	3401      	addeq	r4, #1
 80004d6:	3d01      	subne	r5, #1
 80004d8:	e74e      	b.n	8000378 <__adddf3+0x8c>
 80004da:	ea7f 5c64 	mvns.w	ip, r4, asr #21
 80004de:	bf18      	it	ne
 80004e0:	ea7f 5c65 	mvnsne.w	ip, r5, asr #21
 80004e4:	d029      	beq.n	800053a <__adddf3+0x24e>
 80004e6:	ea94 0f05 	teq	r4, r5
 80004ea:	bf08      	it	eq
 80004ec:	ea90 0f02 	teqeq	r0, r2
 80004f0:	d005      	beq.n	80004fe <__adddf3+0x212>
 80004f2:	ea54 0c00 	orrs.w	ip, r4, r0
 80004f6:	bf04      	itt	eq
 80004f8:	4619      	moveq	r1, r3
 80004fa:	4610      	moveq	r0, r2
 80004fc:	bd30      	pop	{r4, r5, pc}
 80004fe:	ea91 0f03 	teq	r1, r3
 8000502:	bf1e      	ittt	ne
 8000504:	2100      	movne	r1, #0
 8000506:	2000      	movne	r0, #0
 8000508:	bd30      	popne	{r4, r5, pc}
 800050a:	ea5f 5c54 	movs.w	ip, r4, lsr #21
 800050e:	d105      	bne.n	800051c <__adddf3+0x230>
 8000510:	0040      	lsls	r0, r0, #1
 8000512:	4149      	adcs	r1, r1
 8000514:	bf28      	it	cs
 8000516:	f041 4100 	orrcs.w	r1, r1, #2147483648	; 0x80000000
 800051a:	bd30      	pop	{r4, r5, pc}
 800051c:	f514 0480 	adds.w	r4, r4, #4194304	; 0x400000
 8000520:	bf3c      	itt	cc
 8000522:	f501 1180 	addcc.w	r1, r1, #1048576	; 0x100000
 8000526:	bd30      	popcc	{r4, r5, pc}
 8000528:	f001 4500 	and.w	r5, r1, #2147483648	; 0x80000000
 800052c:	f045 41fe 	orr.w	r1, r5, #2130706432	; 0x7f000000
 8000530:	f441 0170 	orr.w	r1, r1, #15728640	; 0xf00000
 8000534:	f04f 0000 	mov.w	r0, #0
 8000538:	bd30      	pop	{r4, r5, pc}
 800053a:	ea7f 5c64 	mvns.w	ip, r4, asr #21
 800053e:	bf1a      	itte	ne
 8000540:	4619      	movne	r1, r3
 8000542:	4610      	movne	r0, r2
 8000544:	ea7f 5c65 	mvnseq.w	ip, r5, asr #21
 8000548:	bf1c      	itt	ne
 800054a:	460b      	movne	r3, r1
 800054c:	4602      	movne	r2, r0
 800054e:	ea50 3401 	orrs.w	r4, r0, r1, lsl #12
 8000552:	bf06      	itte	eq
 8000554:	ea52 3503 	orrseq.w	r5, r2, r3, lsl #12
 8000558:	ea91 0f03 	teqeq	r1, r3
 800055c:	f441 2100 	orrne.w	r1, r1, #524288	; 0x80000
 8000560:	bd30      	pop	{r4, r5, pc}
 8000562:	bf00      	nop

08000564 <__aeabi_ui2d>:
 8000564:	f090 0f00 	teq	r0, #0
 8000568:	bf04      	itt	eq
 800056a:	2100      	moveq	r1, #0
 800056c:	4770      	bxeq	lr
 800056e:	b530      	push	{r4, r5, lr}
 8000570:	f44f 6480 	mov.w	r4, #1024	; 0x400
 8000574:	f104 0432 	add.w	r4, r4, #50	; 0x32
 8000578:	f04f 0500 	mov.w	r5, #0
 800057c:	f04f 0100 	mov.w	r1, #0
 8000580:	e750      	b.n	8000424 <__adddf3+0x138>
 8000582:	bf00      	nop

08000584 <__aeabi_i2d>:
 8000584:	f090 0f00 	teq	r0, #0
 8000588:	bf04      	itt	eq
 800058a:	2100      	moveq	r1, #0
 800058c:	4770      	bxeq	lr
 800058e:	b530      	push	{r4, r5, lr}
 8000590:	f44f 6480 	mov.w	r4, #1024	; 0x400
 8000594:	f104 0432 	add.w	r4, r4, #50	; 0x32
 8000598:	f010 4500 	ands.w	r5, r0, #2147483648	; 0x80000000
 800059c:	bf48      	it	mi
 800059e:	4240      	negmi	r0, r0
 80005a0:	f04f 0100 	mov.w	r1, #0
 80005a4:	e73e      	b.n	8000424 <__adddf3+0x138>
 80005a6:	bf00      	nop

080005a8 <__aeabi_f2d>:
 80005a8:	0042      	lsls	r2, r0, #1
 80005aa:	ea4f 01e2 	mov.w	r1, r2, asr #3
 80005ae:	ea4f 0131 	mov.w	r1, r1, rrx
 80005b2:	ea4f 7002 	mov.w	r0, r2, lsl #28
 80005b6:	bf1f      	itttt	ne
 80005b8:	f012 437f 	andsne.w	r3, r2, #4278190080	; 0xff000000
 80005bc:	f093 4f7f 	teqne	r3, #4278190080	; 0xff000000
 80005c0:	f081 5160 	eorne.w	r1, r1, #939524096	; 0x38000000
 80005c4:	4770      	bxne	lr
 80005c6:	f032 427f 	bics.w	r2, r2, #4278190080	; 0xff000000
 80005ca:	bf08      	it	eq
 80005cc:	4770      	bxeq	lr
 80005ce:	f093 4f7f 	teq	r3, #4278190080	; 0xff000000
 80005d2:	bf04      	itt	eq
 80005d4:	f441 2100 	orreq.w	r1, r1, #524288	; 0x80000
 80005d8:	4770      	bxeq	lr
 80005da:	b530      	push	{r4, r5, lr}
 80005dc:	f44f 7460 	mov.w	r4, #896	; 0x380
 80005e0:	f001 4500 	and.w	r5, r1, #2147483648	; 0x80000000
 80005e4:	f021 4100 	bic.w	r1, r1, #2147483648	; 0x80000000
 80005e8:	e71c      	b.n	8000424 <__adddf3+0x138>
 80005ea:	bf00      	nop

080005ec <__aeabi_ul2d>:
 80005ec:	ea50 0201 	orrs.w	r2, r0, r1
 80005f0:	bf08      	it	eq
 80005f2:	4770      	bxeq	lr
 80005f4:	b530      	push	{r4, r5, lr}
 80005f6:	f04f 0500 	mov.w	r5, #0
 80005fa:	e00a      	b.n	8000612 <__aeabi_l2d+0x16>

080005fc <__aeabi_l2d>:
 80005fc:	ea50 0201 	orrs.w	r2, r0, r1
 8000600:	bf08      	it	eq
 8000602:	4770      	bxeq	lr
 8000604:	b530      	push	{r4, r5, lr}
 8000606:	f011 4500 	ands.w	r5, r1, #2147483648	; 0x80000000
 800060a:	d502      	bpl.n	8000612 <__aeabi_l2d+0x16>
 800060c:	4240      	negs	r0, r0
 800060e:	eb61 0141 	sbc.w	r1, r1, r1, lsl #1
 8000612:	f44f 6480 	mov.w	r4, #1024	; 0x400
 8000616:	f104 0432 	add.w	r4, r4, #50	; 0x32
 800061a:	ea5f 5c91 	movs.w	ip, r1, lsr #22
 800061e:	f43f aed8 	beq.w	80003d2 <__adddf3+0xe6>
 8000622:	f04f 0203 	mov.w	r2, #3
 8000626:	ea5f 0cdc 	movs.w	ip, ip, lsr #3
 800062a:	bf18      	it	ne
 800062c:	3203      	addne	r2, #3
 800062e:	ea5f 0cdc 	movs.w	ip, ip, lsr #3
 8000632:	bf18      	it	ne
 8000634:	3203      	addne	r2, #3
 8000636:	eb02 02dc 	add.w	r2, r2, ip, lsr #3
 800063a:	f1c2 0320 	rsb	r3, r2, #32
 800063e:	fa00 fc03 	lsl.w	ip, r0, r3
 8000642:	fa20 f002 	lsr.w	r0, r0, r2
 8000646:	fa01 fe03 	lsl.w	lr, r1, r3
 800064a:	ea40 000e 	orr.w	r0, r0, lr
 800064e:	fa21 f102 	lsr.w	r1, r1, r2
 8000652:	4414      	add	r4, r2
 8000654:	e6bd      	b.n	80003d2 <__adddf3+0xe6>
 8000656:	bf00      	nop

08000658 <__aeabi_ldivmod>:
 8000658:	b97b      	cbnz	r3, 800067a <__aeabi_ldivmod+0x22>
 800065a:	b972      	cbnz	r2, 800067a <__aeabi_ldivmod+0x22>
 800065c:	2900      	cmp	r1, #0
 800065e:	bfbe      	ittt	lt
 8000660:	2000      	movlt	r0, #0
 8000662:	f04f 4100 	movlt.w	r1, #2147483648	; 0x80000000
 8000666:	e006      	blt.n	8000676 <__aeabi_ldivmod+0x1e>
 8000668:	bf08      	it	eq
 800066a:	2800      	cmpeq	r0, #0
 800066c:	bf1c      	itt	ne
 800066e:	f06f 4100 	mvnne.w	r1, #2147483648	; 0x80000000
 8000672:	f04f 30ff 	movne.w	r0, #4294967295	; 0xffffffff
 8000676:	f000 b9f9 	b.w	8000a6c <__aeabi_idiv0>
 800067a:	f1ad 0c08 	sub.w	ip, sp, #8
 800067e:	e96d ce04 	strd	ip, lr, [sp, #-16]!
 8000682:	2900      	cmp	r1, #0
 8000684:	db09      	blt.n	800069a <__aeabi_ldivmod+0x42>
 8000686:	2b00      	cmp	r3, #0
 8000688:	db1a      	blt.n	80006c0 <__aeabi_ldivmod+0x68>
 800068a:	f000 f889 	bl	80007a0 <__udivmoddi4>
 800068e:	f8dd e004 	ldr.w	lr, [sp, #4]
 8000692:	e9dd 2302 	ldrd	r2, r3, [sp, #8]
 8000696:	b004      	add	sp, #16
 8000698:	4770      	bx	lr
 800069a:	4240      	negs	r0, r0
 800069c:	eb61 0141 	sbc.w	r1, r1, r1, lsl #1
 80006a0:	2b00      	cmp	r3, #0
 80006a2:	db1b      	blt.n	80006dc <__aeabi_ldivmod+0x84>
 80006a4:	f000 f87c 	bl	80007a0 <__udivmoddi4>
 80006a8:	f8dd e004 	ldr.w	lr, [sp, #4]
 80006ac:	e9dd 2302 	ldrd	r2, r3, [sp, #8]
 80006b0:	b004      	add	sp, #16
 80006b2:	4240      	negs	r0, r0
 80006b4:	eb61 0141 	sbc.w	r1, r1, r1, lsl #1
 80006b8:	4252      	negs	r2, r2
 80006ba:	eb63 0343 	sbc.w	r3, r3, r3, lsl #1
 80006be:	4770      	bx	lr
 80006c0:	4252      	negs	r2, r2
 80006c2:	eb63 0343 	sbc.w	r3, r3, r3, lsl #1
 80006c6:	f000 f86b 	bl	80007a0 <__udivmoddi4>
 80006ca:	f8dd e004 	ldr.w	lr, [sp, #4]
 80006ce:	e9dd 2302 	ldrd	r2, r3, [sp, #8]
 80006d2:	b004      	add	sp, #16
 80006d4:	4240      	negs	r0, r0
 80006d6:	eb61 0141 	sbc.w	r1, r1, r1, lsl #1
 80006da:	4770      	bx	lr
 80006dc:	4252      	negs	r2, r2
 80006de:	eb63 0343 	sbc.w	r3, r3, r3, lsl #1
 80006e2:	f000 f85d 	bl	80007a0 <__udivmoddi4>
 80006e6:	f8dd e004 	ldr.w	lr, [sp, #4]
 80006ea:	e9dd 2302 	ldrd	r2, r3, [sp, #8]
 80006ee:	b004      	add	sp, #16
 80006f0:	4252      	negs	r2, r2
 80006f2:	eb63 0343 	sbc.w	r3, r3, r3, lsl #1
 80006f6:	4770      	bx	lr

080006f8 <__aeabi_uldivmod>:
 80006f8:	b953      	cbnz	r3, 8000710 <__aeabi_uldivmod+0x18>
 80006fa:	b94a      	cbnz	r2, 8000710 <__aeabi_uldivmod+0x18>
 80006fc:	2900      	cmp	r1, #0
 80006fe:	bf08      	it	eq
 8000700:	2800      	cmpeq	r0, #0
 8000702:	bf1c      	itt	ne
 8000704:	f04f 31ff 	movne.w	r1, #4294967295	; 0xffffffff
 8000708:	f04f 30ff 	movne.w	r0, #4294967295	; 0xffffffff
 800070c:	f000 b9ae 	b.w	8000a6c <__aeabi_idiv0>
 8000710:	f1ad 0c08 	sub.w	ip, sp, #8
 8000714:	e96d ce04 	strd	ip, lr, [sp, #-16]!
 8000718:	f000 f842 	bl	80007a0 <__udivmoddi4>
 800071c:	f8dd e004 	ldr.w	lr, [sp, #4]
 8000720:	e9dd 2302 	ldrd	r2, r3, [sp, #8]
 8000724:	b004      	add	sp, #16
 8000726:	4770      	bx	lr

08000728 <__aeabi_f2lz>:
 8000728:	ee07 0a90 	vmov	s15, r0
 800072c:	eef5 7ac0 	vcmpe.f32	s15, #0.0
 8000730:	eef1 fa10 	vmrs	APSR_nzcv, fpscr
 8000734:	d401      	bmi.n	800073a <__aeabi_f2lz+0x12>
 8000736:	f000 b80b 	b.w	8000750 <__aeabi_f2ulz>
 800073a:	b508      	push	{r3, lr}
 800073c:	f080 4000 	eor.w	r0, r0, #2147483648	; 0x80000000
 8000740:	f000 f806 	bl	8000750 <__aeabi_f2ulz>
 8000744:	4240      	negs	r0, r0
 8000746:	eb61 0141 	sbc.w	r1, r1, r1, lsl #1
 800074a:	bd08      	pop	{r3, pc}
 800074c:	0000      	movs	r0, r0
	...

08000750 <__aeabi_f2ulz>:
 8000750:	ed9f 6b0f 	vldr	d6, [pc, #60]	; 8000790 <__aeabi_f2ulz+0x40>
 8000754:	ee07 0a90 	vmov	s15, r0
 8000758:	ed9f 5b0f 	vldr	d5, [pc, #60]	; 8000798 <__aeabi_f2ulz+0x48>
 800075c:	eeb7 7ae7 	vcvt.f64.f32	d7, s15
 8000760:	ee27 6b06 	vmul.f64	d6, d7, d6
 8000764:	eebc 6bc6 	vcvt.u32.f64	s12, d6
 8000768:	f84d bd04 	str.w	fp, [sp, #-4]!
 800076c:	eeb8 4b46 	vcvt.f64.u32	d4, s12
 8000770:	eea4 7b45 	vfms.f64	d7, d4, d5
 8000774:	eebc 7bc7 	vcvt.u32.f64	s14, d7
 8000778:	f04f 0b00 	mov.w	fp, #0
 800077c:	ee17 3a10 	vmov	r3, s14
 8000780:	ee16 1a10 	vmov	r1, s12
 8000784:	ea4b 0003 	orr.w	r0, fp, r3
 8000788:	f85d bb04 	ldr.w	fp, [sp], #4
 800078c:	4770      	bx	lr
 800078e:	bf00      	nop
 8000790:	00000000 	.word	0x00000000
 8000794:	3df00000 	.word	0x3df00000
 8000798:	00000000 	.word	0x00000000
 800079c:	41f00000 	.word	0x41f00000

080007a0 <__udivmoddi4>:
 80007a0:	e92d 47f0 	stmdb	sp!, {r4, r5, r6, r7, r8, r9, sl, lr}
 80007a4:	9e08      	ldr	r6, [sp, #32]
 80007a6:	4604      	mov	r4, r0
 80007a8:	4688      	mov	r8, r1
 80007aa:	2b00      	cmp	r3, #0
 80007ac:	d14b      	bne.n	8000846 <__udivmoddi4+0xa6>
 80007ae:	428a      	cmp	r2, r1
 80007b0:	4615      	mov	r5, r2
 80007b2:	d967      	bls.n	8000884 <__udivmoddi4+0xe4>
 80007b4:	fab2 f282 	clz	r2, r2
 80007b8:	b14a      	cbz	r2, 80007ce <__udivmoddi4+0x2e>
 80007ba:	f1c2 0720 	rsb	r7, r2, #32
 80007be:	fa01 f302 	lsl.w	r3, r1, r2
 80007c2:	fa20 f707 	lsr.w	r7, r0, r7
 80007c6:	4095      	lsls	r5, r2
 80007c8:	ea47 0803 	orr.w	r8, r7, r3
 80007cc:	4094      	lsls	r4, r2
 80007ce:	ea4f 4e15 	mov.w	lr, r5, lsr #16
 80007d2:	0c23      	lsrs	r3, r4, #16
 80007d4:	fbb8 f7fe 	udiv	r7, r8, lr
 80007d8:	fa1f fc85 	uxth.w	ip, r5
 80007dc:	fb0e 8817 	mls	r8, lr, r7, r8
 80007e0:	ea43 4308 	orr.w	r3, r3, r8, lsl #16
 80007e4:	fb07 f10c 	mul.w	r1, r7, ip
 80007e8:	4299      	cmp	r1, r3
 80007ea:	d909      	bls.n	8000800 <__udivmoddi4+0x60>
 80007ec:	18eb      	adds	r3, r5, r3
 80007ee:	f107 30ff 	add.w	r0, r7, #4294967295	; 0xffffffff
 80007f2:	f080 811b 	bcs.w	8000a2c <__udivmoddi4+0x28c>
 80007f6:	4299      	cmp	r1, r3
 80007f8:	f240 8118 	bls.w	8000a2c <__udivmoddi4+0x28c>
 80007fc:	3f02      	subs	r7, #2
 80007fe:	442b      	add	r3, r5
 8000800:	1a5b      	subs	r3, r3, r1
 8000802:	b2a4      	uxth	r4, r4
 8000804:	fbb3 f0fe 	udiv	r0, r3, lr
 8000808:	fb0e 3310 	mls	r3, lr, r0, r3
 800080c:	ea44 4403 	orr.w	r4, r4, r3, lsl #16
 8000810:	fb00 fc0c 	mul.w	ip, r0, ip
 8000814:	45a4      	cmp	ip, r4
 8000816:	d909      	bls.n	800082c <__udivmoddi4+0x8c>
 8000818:	192c      	adds	r4, r5, r4
 800081a:	f100 33ff 	add.w	r3, r0, #4294967295	; 0xffffffff
 800081e:	f080 8107 	bcs.w	8000a30 <__udivmoddi4+0x290>
 8000822:	45a4      	cmp	ip, r4
 8000824:	f240 8104 	bls.w	8000a30 <__udivmoddi4+0x290>
 8000828:	3802      	subs	r0, #2
 800082a:	442c      	add	r4, r5
 800082c:	ea40 4007 	orr.w	r0, r0, r7, lsl #16
 8000830:	eba4 040c 	sub.w	r4, r4, ip
 8000834:	2700      	movs	r7, #0
 8000836:	b11e      	cbz	r6, 8000840 <__udivmoddi4+0xa0>
 8000838:	40d4      	lsrs	r4, r2
 800083a:	2300      	movs	r3, #0
 800083c:	e9c6 4300 	strd	r4, r3, [r6]
 8000840:	4639      	mov	r1, r7
 8000842:	e8bd 87f0 	ldmia.w	sp!, {r4, r5, r6, r7, r8, r9, sl, pc}
 8000846:	428b      	cmp	r3, r1
 8000848:	d909      	bls.n	800085e <__udivmoddi4+0xbe>
 800084a:	2e00      	cmp	r6, #0
 800084c:	f000 80eb 	beq.w	8000a26 <__udivmoddi4+0x286>
 8000850:	2700      	movs	r7, #0
 8000852:	e9c6 0100 	strd	r0, r1, [r6]
 8000856:	4638      	mov	r0, r7
 8000858:	4639      	mov	r1, r7
 800085a:	e8bd 87f0 	ldmia.w	sp!, {r4, r5, r6, r7, r8, r9, sl, pc}
 800085e:	fab3 f783 	clz	r7, r3
 8000862:	2f00      	cmp	r7, #0
 8000864:	d147      	bne.n	80008f6 <__udivmoddi4+0x156>
 8000866:	428b      	cmp	r3, r1
 8000868:	d302      	bcc.n	8000870 <__udivmoddi4+0xd0>
 800086a:	4282      	cmp	r2, r0
 800086c:	f200 80fa 	bhi.w	8000a64 <__udivmoddi4+0x2c4>
 8000870:	1a84      	subs	r4, r0, r2
 8000872:	eb61 0303 	sbc.w	r3, r1, r3
 8000876:	2001      	movs	r0, #1
 8000878:	4698      	mov	r8, r3
 800087a:	2e00      	cmp	r6, #0
 800087c:	d0e0      	beq.n	8000840 <__udivmoddi4+0xa0>
 800087e:	e9c6 4800 	strd	r4, r8, [r6]
 8000882:	e7dd      	b.n	8000840 <__udivmoddi4+0xa0>
 8000884:	b902      	cbnz	r2, 8000888 <__udivmoddi4+0xe8>
 8000886:	deff      	udf	#255	; 0xff
 8000888:	fab2 f282 	clz	r2, r2
 800088c:	2a00      	cmp	r2, #0
 800088e:	f040 808f 	bne.w	80009b0 <__udivmoddi4+0x210>
 8000892:	1b49      	subs	r1, r1, r5
 8000894:	ea4f 4e15 	mov.w	lr, r5, lsr #16
 8000898:	fa1f f885 	uxth.w	r8, r5
 800089c:	2701      	movs	r7, #1
 800089e:	fbb1 fcfe 	udiv	ip, r1, lr
 80008a2:	0c23      	lsrs	r3, r4, #16
 80008a4:	fb0e 111c 	mls	r1, lr, ip, r1
 80008a8:	ea43 4301 	orr.w	r3, r3, r1, lsl #16
 80008ac:	fb08 f10c 	mul.w	r1, r8, ip
 80008b0:	4299      	cmp	r1, r3
 80008b2:	d907      	bls.n	80008c4 <__udivmoddi4+0x124>
 80008b4:	18eb      	adds	r3, r5, r3
 80008b6:	f10c 30ff 	add.w	r0, ip, #4294967295	; 0xffffffff
 80008ba:	d202      	bcs.n	80008c2 <__udivmoddi4+0x122>
 80008bc:	4299      	cmp	r1, r3
 80008be:	f200 80cd 	bhi.w	8000a5c <__udivmoddi4+0x2bc>
 80008c2:	4684      	mov	ip, r0
 80008c4:	1a59      	subs	r1, r3, r1
 80008c6:	b2a3      	uxth	r3, r4
 80008c8:	fbb1 f0fe 	udiv	r0, r1, lr
 80008cc:	fb0e 1410 	mls	r4, lr, r0, r1
 80008d0:	ea43 4404 	orr.w	r4, r3, r4, lsl #16
 80008d4:	fb08 f800 	mul.w	r8, r8, r0
 80008d8:	45a0      	cmp	r8, r4
 80008da:	d907      	bls.n	80008ec <__udivmoddi4+0x14c>
 80008dc:	192c      	adds	r4, r5, r4
 80008de:	f100 33ff 	add.w	r3, r0, #4294967295	; 0xffffffff
 80008e2:	d202      	bcs.n	80008ea <__udivmoddi4+0x14a>
 80008e4:	45a0      	cmp	r8, r4
 80008e6:	f200 80b6 	bhi.w	8000a56 <__udivmoddi4+0x2b6>
 80008ea:	4618      	mov	r0, r3
 80008ec:	eba4 0408 	sub.w	r4, r4, r8
 80008f0:	ea40 400c 	orr.w	r0, r0, ip, lsl #16
 80008f4:	e79f      	b.n	8000836 <__udivmoddi4+0x96>
 80008f6:	f1c7 0c20 	rsb	ip, r7, #32
 80008fa:	40bb      	lsls	r3, r7
 80008fc:	fa22 fe0c 	lsr.w	lr, r2, ip
 8000900:	ea4e 0e03 	orr.w	lr, lr, r3
 8000904:	fa01 f407 	lsl.w	r4, r1, r7
 8000908:	fa20 f50c 	lsr.w	r5, r0, ip
 800090c:	fa21 f30c 	lsr.w	r3, r1, ip
 8000910:	ea4f 481e 	mov.w	r8, lr, lsr #16
 8000914:	4325      	orrs	r5, r4
 8000916:	fbb3 f9f8 	udiv	r9, r3, r8
 800091a:	0c2c      	lsrs	r4, r5, #16
 800091c:	fb08 3319 	mls	r3, r8, r9, r3
 8000920:	fa1f fa8e 	uxth.w	sl, lr
 8000924:	ea44 4303 	orr.w	r3, r4, r3, lsl #16
 8000928:	fb09 f40a 	mul.w	r4, r9, sl
 800092c:	429c      	cmp	r4, r3
 800092e:	fa02 f207 	lsl.w	r2, r2, r7
 8000932:	fa00 f107 	lsl.w	r1, r0, r7
 8000936:	d90b      	bls.n	8000950 <__udivmoddi4+0x1b0>
 8000938:	eb1e 0303 	adds.w	r3, lr, r3
 800093c:	f109 30ff 	add.w	r0, r9, #4294967295	; 0xffffffff
 8000940:	f080 8087 	bcs.w	8000a52 <__udivmoddi4+0x2b2>
 8000944:	429c      	cmp	r4, r3
 8000946:	f240 8084 	bls.w	8000a52 <__udivmoddi4+0x2b2>
 800094a:	f1a9 0902 	sub.w	r9, r9, #2
 800094e:	4473      	add	r3, lr
 8000950:	1b1b      	subs	r3, r3, r4
 8000952:	b2ad      	uxth	r5, r5
 8000954:	fbb3 f0f8 	udiv	r0, r3, r8
 8000958:	fb08 3310 	mls	r3, r8, r0, r3
 800095c:	ea45 4403 	orr.w	r4, r5, r3, lsl #16
 8000960:	fb00 fa0a 	mul.w	sl, r0, sl
 8000964:	45a2      	cmp	sl, r4
 8000966:	d908      	bls.n	800097a <__udivmoddi4+0x1da>
 8000968:	eb1e 0404 	adds.w	r4, lr, r4
 800096c:	f100 33ff 	add.w	r3, r0, #4294967295	; 0xffffffff
 8000970:	d26b      	bcs.n	8000a4a <__udivmoddi4+0x2aa>
 8000972:	45a2      	cmp	sl, r4
 8000974:	d969      	bls.n	8000a4a <__udivmoddi4+0x2aa>
 8000976:	3802      	subs	r0, #2
 8000978:	4474      	add	r4, lr
 800097a:	ea40 4009 	orr.w	r0, r0, r9, lsl #16
 800097e:	fba0 8902 	umull	r8, r9, r0, r2
 8000982:	eba4 040a 	sub.w	r4, r4, sl
 8000986:	454c      	cmp	r4, r9
 8000988:	46c2      	mov	sl, r8
 800098a:	464b      	mov	r3, r9
 800098c:	d354      	bcc.n	8000a38 <__udivmoddi4+0x298>
 800098e:	d051      	beq.n	8000a34 <__udivmoddi4+0x294>
 8000990:	2e00      	cmp	r6, #0
 8000992:	d069      	beq.n	8000a68 <__udivmoddi4+0x2c8>
 8000994:	ebb1 050a 	subs.w	r5, r1, sl
 8000998:	eb64 0403 	sbc.w	r4, r4, r3
 800099c:	fa04 fc0c 	lsl.w	ip, r4, ip
 80009a0:	40fd      	lsrs	r5, r7
 80009a2:	40fc      	lsrs	r4, r7
 80009a4:	ea4c 0505 	orr.w	r5, ip, r5
 80009a8:	e9c6 5400 	strd	r5, r4, [r6]
 80009ac:	2700      	movs	r7, #0
 80009ae:	e747      	b.n	8000840 <__udivmoddi4+0xa0>
 80009b0:	f1c2 0320 	rsb	r3, r2, #32
 80009b4:	fa20 f703 	lsr.w	r7, r0, r3
 80009b8:	4095      	lsls	r5, r2
 80009ba:	fa01 f002 	lsl.w	r0, r1, r2
 80009be:	fa21 f303 	lsr.w	r3, r1, r3
 80009c2:	ea4f 4e15 	mov.w	lr, r5, lsr #16
 80009c6:	4338      	orrs	r0, r7
 80009c8:	0c01      	lsrs	r1, r0, #16
 80009ca:	fbb3 f7fe 	udiv	r7, r3, lr
 80009ce:	fa1f f885 	uxth.w	r8, r5
 80009d2:	fb0e 3317 	mls	r3, lr, r7, r3
 80009d6:	ea41 4103 	orr.w	r1, r1, r3, lsl #16
 80009da:	fb07 f308 	mul.w	r3, r7, r8
 80009de:	428b      	cmp	r3, r1
 80009e0:	fa04 f402 	lsl.w	r4, r4, r2
 80009e4:	d907      	bls.n	80009f6 <__udivmoddi4+0x256>
 80009e6:	1869      	adds	r1, r5, r1
 80009e8:	f107 3cff 	add.w	ip, r7, #4294967295	; 0xffffffff
 80009ec:	d22f      	bcs.n	8000a4e <__udivmoddi4+0x2ae>
 80009ee:	428b      	cmp	r3, r1
 80009f0:	d92d      	bls.n	8000a4e <__udivmoddi4+0x2ae>
 80009f2:	3f02      	subs	r7, #2
 80009f4:	4429      	add	r1, r5
 80009f6:	1acb      	subs	r3, r1, r3
 80009f8:	b281      	uxth	r1, r0
 80009fa:	fbb3 f0fe 	udiv	r0, r3, lr
 80009fe:	fb0e 3310 	mls	r3, lr, r0, r3
 8000a02:	ea41 4103 	orr.w	r1, r1, r3, lsl #16
 8000a06:	fb00 f308 	mul.w	r3, r0, r8
 8000a0a:	428b      	cmp	r3, r1
 8000a0c:	d907      	bls.n	8000a1e <__udivmoddi4+0x27e>
 8000a0e:	1869      	adds	r1, r5, r1
 8000a10:	f100 3cff 	add.w	ip, r0, #4294967295	; 0xffffffff
 8000a14:	d217      	bcs.n	8000a46 <__udivmoddi4+0x2a6>
 8000a16:	428b      	cmp	r3, r1
 8000a18:	d915      	bls.n	8000a46 <__udivmoddi4+0x2a6>
 8000a1a:	3802      	subs	r0, #2
 8000a1c:	4429      	add	r1, r5
 8000a1e:	1ac9      	subs	r1, r1, r3
 8000a20:	ea40 4707 	orr.w	r7, r0, r7, lsl #16
 8000a24:	e73b      	b.n	800089e <__udivmoddi4+0xfe>
 8000a26:	4637      	mov	r7, r6
 8000a28:	4630      	mov	r0, r6
 8000a2a:	e709      	b.n	8000840 <__udivmoddi4+0xa0>
 8000a2c:	4607      	mov	r7, r0
 8000a2e:	e6e7      	b.n	8000800 <__udivmoddi4+0x60>
 8000a30:	4618      	mov	r0, r3
 8000a32:	e6fb      	b.n	800082c <__udivmoddi4+0x8c>
 8000a34:	4541      	cmp	r1, r8
 8000a36:	d2ab      	bcs.n	8000990 <__udivmoddi4+0x1f0>
 8000a38:	ebb8 0a02 	subs.w	sl, r8, r2
 8000a3c:	eb69 020e 	sbc.w	r2, r9, lr
 8000a40:	3801      	subs	r0, #1
 8000a42:	4613      	mov	r3, r2
 8000a44:	e7a4      	b.n	8000990 <__udivmoddi4+0x1f0>
 8000a46:	4660      	mov	r0, ip
 8000a48:	e7e9      	b.n	8000a1e <__udivmoddi4+0x27e>
 8000a4a:	4618      	mov	r0, r3
 8000a4c:	e795      	b.n	800097a <__udivmoddi4+0x1da>
 8000a4e:	4667      	mov	r7, ip
 8000a50:	e7d1      	b.n	80009f6 <__udivmoddi4+0x256>
 8000a52:	4681      	mov	r9, r0
 8000a54:	e77c      	b.n	8000950 <__udivmoddi4+0x1b0>
 8000a56:	3802      	subs	r0, #2
 8000a58:	442c      	add	r4, r5
 8000a5a:	e747      	b.n	80008ec <__udivmoddi4+0x14c>
 8000a5c:	f1ac 0c02 	sub.w	ip, ip, #2
 8000a60:	442b      	add	r3, r5
 8000a62:	e72f      	b.n	80008c4 <__udivmoddi4+0x124>
 8000a64:	4638      	mov	r0, r7
 8000a66:	e708      	b.n	800087a <__udivmoddi4+0xda>
 8000a68:	4637      	mov	r7, r6
 8000a6a:	e6e9      	b.n	8000840 <__udivmoddi4+0xa0>

08000a6c <__aeabi_idiv0>:
 8000a6c:	4770      	bx	lr
 8000a6e:	bf00      	nop

08000a70 <wm8994_SetOutputMode>:
 8000a70:	2901      	cmp	r1, #1
 8000a72:	b510      	push	{r4, lr}
 8000a74:	b2c4      	uxtb	r4, r0
 8000a76:	d021      	beq.n	8000abc <wm8994_SetOutputMode+0x4c>
 8000a78:	2903      	cmp	r1, #3
 8000a7a:	d03f      	beq.n	8000afc <wm8994_SetOutputMode+0x8c>
 8000a7c:	4620      	mov	r0, r4
 8000a7e:	f240 3203 	movw	r2, #771	; 0x303
 8000a82:	2105      	movs	r1, #5
 8000a84:	f000 fe66 	bl	8001754 <AUDIO_IO_Write>
 8000a88:	4620      	mov	r0, r4
 8000a8a:	2201      	movs	r2, #1
 8000a8c:	f240 6101 	movw	r1, #1537	; 0x601
 8000a90:	f000 fe60 	bl	8001754 <AUDIO_IO_Write>
 8000a94:	4620      	mov	r0, r4
 8000a96:	2201      	movs	r2, #1
 8000a98:	f240 6102 	movw	r1, #1538	; 0x602
 8000a9c:	f000 fe5a 	bl	8001754 <AUDIO_IO_Write>
 8000aa0:	4620      	mov	r0, r4
 8000aa2:	2200      	movs	r2, #0
 8000aa4:	f240 6104 	movw	r1, #1540	; 0x604
 8000aa8:	f000 fe54 	bl	8001754 <AUDIO_IO_Write>
 8000aac:	4620      	mov	r0, r4
 8000aae:	2200      	movs	r2, #0
 8000ab0:	f240 6105 	movw	r1, #1541	; 0x605
 8000ab4:	f000 fe4e 	bl	8001754 <AUDIO_IO_Write>
 8000ab8:	2000      	movs	r0, #0
 8000aba:	bd10      	pop	{r4, pc}
 8000abc:	f640 420c 	movw	r2, #3084	; 0xc0c
 8000ac0:	2105      	movs	r1, #5
 8000ac2:	4620      	mov	r0, r4
 8000ac4:	f000 fe46 	bl	8001754 <AUDIO_IO_Write>
 8000ac8:	2200      	movs	r2, #0
 8000aca:	f240 6101 	movw	r1, #1537	; 0x601
 8000ace:	4620      	mov	r0, r4
 8000ad0:	f000 fe40 	bl	8001754 <AUDIO_IO_Write>
 8000ad4:	2200      	movs	r2, #0
 8000ad6:	4620      	mov	r0, r4
 8000ad8:	f240 6102 	movw	r1, #1538	; 0x602
 8000adc:	f000 fe3a 	bl	8001754 <AUDIO_IO_Write>
 8000ae0:	4620      	mov	r0, r4
 8000ae2:	2202      	movs	r2, #2
 8000ae4:	f240 6104 	movw	r1, #1540	; 0x604
 8000ae8:	f000 fe34 	bl	8001754 <AUDIO_IO_Write>
 8000aec:	4620      	mov	r0, r4
 8000aee:	2202      	movs	r2, #2
 8000af0:	f240 6105 	movw	r1, #1541	; 0x605
 8000af4:	f000 fe2e 	bl	8001754 <AUDIO_IO_Write>
 8000af8:	2000      	movs	r0, #0
 8000afa:	bd10      	pop	{r4, pc}
 8000afc:	f640 720f 	movw	r2, #3855	; 0xf0f
 8000b00:	2105      	movs	r1, #5
 8000b02:	4620      	mov	r0, r4
 8000b04:	f000 fe26 	bl	8001754 <AUDIO_IO_Write>
 8000b08:	2201      	movs	r2, #1
 8000b0a:	f240 6101 	movw	r1, #1537	; 0x601
 8000b0e:	4620      	mov	r0, r4
 8000b10:	f000 fe20 	bl	8001754 <AUDIO_IO_Write>
 8000b14:	2201      	movs	r2, #1
 8000b16:	e7de      	b.n	8000ad6 <wm8994_SetOutputMode+0x66>

08000b18 <wm8994_SetFrequency>:
 8000b18:	b508      	push	{r3, lr}
 8000b1a:	f245 6322 	movw	r3, #22050	; 0x5622
 8000b1e:	b2c0      	uxtb	r0, r0
 8000b20:	4299      	cmp	r1, r3
 8000b22:	d045      	beq.n	8000bb0 <wm8994_SetFrequency+0x98>
 8000b24:	d910      	bls.n	8000b48 <wm8994_SetFrequency+0x30>
 8000b26:	f64a 4344 	movw	r3, #44100	; 0xac44
 8000b2a:	4299      	cmp	r1, r3
 8000b2c:	d032      	beq.n	8000b94 <wm8994_SetFrequency+0x7c>
 8000b2e:	4b24      	ldr	r3, [pc, #144]	; (8000bc0 <wm8994_SetFrequency+0xa8>)
 8000b30:	4299      	cmp	r1, r3
 8000b32:	d028      	beq.n	8000b86 <wm8994_SetFrequency+0x6e>
 8000b34:	f5b1 4ffa 	cmp.w	r1, #32000	; 0x7d00
 8000b38:	d017      	beq.n	8000b6a <wm8994_SetFrequency+0x52>
 8000b3a:	2283      	movs	r2, #131	; 0x83
 8000b3c:	f44f 7104 	mov.w	r1, #528	; 0x210
 8000b40:	f000 fe08 	bl	8001754 <AUDIO_IO_Write>
 8000b44:	2000      	movs	r0, #0
 8000b46:	bd08      	pop	{r3, pc}
 8000b48:	f642 3311 	movw	r3, #11025	; 0x2b11
 8000b4c:	4299      	cmp	r1, r3
 8000b4e:	d028      	beq.n	8000ba2 <wm8994_SetFrequency+0x8a>
 8000b50:	f5b1 5f7a 	cmp.w	r1, #16000	; 0x3e80
 8000b54:	d010      	beq.n	8000b78 <wm8994_SetFrequency+0x60>
 8000b56:	f5b1 5ffa 	cmp.w	r1, #8000	; 0x1f40
 8000b5a:	d1ee      	bne.n	8000b3a <wm8994_SetFrequency+0x22>
 8000b5c:	2203      	movs	r2, #3
 8000b5e:	f44f 7104 	mov.w	r1, #528	; 0x210
 8000b62:	f000 fdf7 	bl	8001754 <AUDIO_IO_Write>
 8000b66:	2000      	movs	r0, #0
 8000b68:	bd08      	pop	{r3, pc}
 8000b6a:	2263      	movs	r2, #99	; 0x63
 8000b6c:	f44f 7104 	mov.w	r1, #528	; 0x210
 8000b70:	f000 fdf0 	bl	8001754 <AUDIO_IO_Write>
 8000b74:	2000      	movs	r0, #0
 8000b76:	bd08      	pop	{r3, pc}
 8000b78:	2233      	movs	r2, #51	; 0x33
 8000b7a:	f44f 7104 	mov.w	r1, #528	; 0x210
 8000b7e:	f000 fde9 	bl	8001754 <AUDIO_IO_Write>
 8000b82:	2000      	movs	r0, #0
 8000b84:	bd08      	pop	{r3, pc}
 8000b86:	22a3      	movs	r2, #163	; 0xa3
 8000b88:	f44f 7104 	mov.w	r1, #528	; 0x210
 8000b8c:	f000 fde2 	bl	8001754 <AUDIO_IO_Write>
 8000b90:	2000      	movs	r0, #0
 8000b92:	bd08      	pop	{r3, pc}
 8000b94:	2273      	movs	r2, #115	; 0x73
 8000b96:	f44f 7104 	mov.w	r1, #528	; 0x210
 8000b9a:	f000 fddb 	bl	8001754 <AUDIO_IO_Write>
 8000b9e:	2000      	movs	r0, #0
 8000ba0:	bd08      	pop	{r3, pc}
 8000ba2:	2213      	movs	r2, #19
 8000ba4:	f44f 7104 	mov.w	r1, #528	; 0x210
 8000ba8:	f000 fdd4 	bl	8001754 <AUDIO_IO_Write>
 8000bac:	2000      	movs	r0, #0
 8000bae:	bd08      	pop	{r3, pc}
 8000bb0:	2243      	movs	r2, #67	; 0x43
 8000bb2:	f44f 7104 	mov.w	r1, #528	; 0x210
 8000bb6:	f000 fdcd 	bl	8001754 <AUDIO_IO_Write>
 8000bba:	2000      	movs	r0, #0
 8000bbc:	bd08      	pop	{r3, pc}
 8000bbe:	bf00      	nop
 8000bc0:	00017700 	.word	0x00017700

08000bc4 <wm8994_Reset>:
 8000bc4:	2200      	movs	r2, #0
 8000bc6:	b2c0      	uxtb	r0, r0
 8000bc8:	b508      	push	{r3, lr}
 8000bca:	4611      	mov	r1, r2
 8000bcc:	f000 fdc2 	bl	8001754 <AUDIO_IO_Write>
 8000bd0:	2300      	movs	r3, #0
 8000bd2:	4903      	ldr	r1, [pc, #12]	; (8000be0 <wm8994_Reset+0x1c>)
 8000bd4:	4a03      	ldr	r2, [pc, #12]	; (8000be4 <wm8994_Reset+0x20>)
 8000bd6:	4618      	mov	r0, r3
 8000bd8:	600b      	str	r3, [r1, #0]
 8000bda:	6013      	str	r3, [r2, #0]
 8000bdc:	bd08      	pop	{r3, pc}
 8000bde:	bf00      	nop
 8000be0:	20000120 	.word	0x20000120
 8000be4:	2000011c 	.word	0x2000011c

08000be8 <wm8994_DeInit>:
 8000be8:	f000 bdb2 	b.w	8001750 <AUDIO_IO_DeInit>

08000bec <wm8994_ReadID>:
 8000bec:	b510      	push	{r4, lr}
 8000bee:	4604      	mov	r4, r0
 8000bf0:	f000 fda8 	bl	8001744 <AUDIO_IO_Init>
 8000bf4:	2100      	movs	r1, #0
 8000bf6:	b2e0      	uxtb	r0, r4
 8000bf8:	f000 fdc0 	bl	800177c <AUDIO_IO_Read>
 8000bfc:	bd10      	pop	{r4, pc}
 8000bfe:	bf00      	nop

08000c00 <wm8994_SetMute.part.0>:
 8000c00:	b510      	push	{r4, lr}
 8000c02:	b2c4      	uxtb	r4, r0
 8000c04:	f44f 7200 	mov.w	r2, #512	; 0x200
 8000c08:	f44f 6184 	mov.w	r1, #1056	; 0x420
 8000c0c:	4620      	mov	r0, r4
 8000c0e:	f000 fda1 	bl	8001754 <AUDIO_IO_Write>
 8000c12:	4620      	mov	r0, r4
 8000c14:	f44f 7200 	mov.w	r2, #512	; 0x200
 8000c18:	f240 4122 	movw	r1, #1058	; 0x422
 8000c1c:	e8bd 4010 	ldmia.w	sp!, {r4, lr}
 8000c20:	f000 bd98 	b.w	8001754 <AUDIO_IO_Write>

08000c24 <wm8994_SetMute>:
 8000c24:	4a0d      	ldr	r2, [pc, #52]	; (8000c5c <wm8994_SetMute+0x38>)
 8000c26:	6812      	ldr	r2, [r2, #0]
 8000c28:	b18a      	cbz	r2, 8000c4e <wm8994_SetMute+0x2a>
 8000c2a:	2901      	cmp	r1, #1
 8000c2c:	b510      	push	{r4, lr}
 8000c2e:	d010      	beq.n	8000c52 <wm8994_SetMute+0x2e>
 8000c30:	b2c4      	uxtb	r4, r0
 8000c32:	2210      	movs	r2, #16
 8000c34:	f44f 6184 	mov.w	r1, #1056	; 0x420
 8000c38:	4620      	mov	r0, r4
 8000c3a:	f000 fd8b 	bl	8001754 <AUDIO_IO_Write>
 8000c3e:	4620      	mov	r0, r4
 8000c40:	2210      	movs	r2, #16
 8000c42:	f240 4122 	movw	r1, #1058	; 0x422
 8000c46:	f000 fd85 	bl	8001754 <AUDIO_IO_Write>
 8000c4a:	2000      	movs	r0, #0
 8000c4c:	bd10      	pop	{r4, pc}
 8000c4e:	2000      	movs	r0, #0
 8000c50:	4770      	bx	lr
 8000c52:	f7ff ffd5 	bl	8000c00 <wm8994_SetMute.part.0>
 8000c56:	2000      	movs	r0, #0
 8000c58:	bd10      	pop	{r4, pc}
 8000c5a:	bf00      	nop
 8000c5c:	20000120 	.word	0x20000120

08000c60 <wm8994_Play>:
 8000c60:	2100      	movs	r1, #0
 8000c62:	f7ff bfdf 	b.w	8000c24 <wm8994_SetMute>
 8000c66:	bf00      	nop

08000c68 <wm8994_Resume>:
 8000c68:	2100      	movs	r1, #0
 8000c6a:	f7ff bfdb 	b.w	8000c24 <wm8994_SetMute>
 8000c6e:	bf00      	nop

08000c70 <wm8994_Pause>:
 8000c70:	4b06      	ldr	r3, [pc, #24]	; (8000c8c <wm8994_Pause+0x1c>)
 8000c72:	681b      	ldr	r3, [r3, #0]
 8000c74:	b510      	push	{r4, lr}
 8000c76:	4604      	mov	r4, r0
 8000c78:	b10b      	cbz	r3, 8000c7e <wm8994_Pause+0xe>
 8000c7a:	f7ff ffc1 	bl	8000c00 <wm8994_SetMute.part.0>
 8000c7e:	b2e0      	uxtb	r0, r4
 8000c80:	2201      	movs	r2, #1
 8000c82:	2102      	movs	r1, #2
 8000c84:	f000 fd66 	bl	8001754 <AUDIO_IO_Write>
 8000c88:	2000      	movs	r0, #0
 8000c8a:	bd10      	pop	{r4, pc}
 8000c8c:	20000120 	.word	0x20000120

08000c90 <wm8994_SetVolume>:
 8000c90:	4b44      	ldr	r3, [pc, #272]	; (8000da4 <wm8994_SetVolume+0x114>)
 8000c92:	2964      	cmp	r1, #100	; 0x64
 8000c94:	e92d 41f0 	stmdb	sp!, {r4, r5, r6, r7, r8, lr}
 8000c98:	460c      	mov	r4, r1
 8000c9a:	4605      	mov	r5, r0
 8000c9c:	681e      	ldr	r6, [r3, #0]
 8000c9e:	d941      	bls.n	8000d24 <wm8994_SetVolume+0x94>
 8000ca0:	b1ee      	cbz	r6, 8000cde <wm8994_SetVolume+0x4e>
 8000ca2:	b2ef      	uxtb	r7, r5
 8000ca4:	2100      	movs	r1, #0
 8000ca6:	4628      	mov	r0, r5
 8000ca8:	f7ff ffbc 	bl	8000c24 <wm8994_SetMute>
 8000cac:	f240 127f 	movw	r2, #383	; 0x17f
 8000cb0:	211c      	movs	r1, #28
 8000cb2:	4606      	mov	r6, r0
 8000cb4:	4638      	mov	r0, r7
 8000cb6:	f000 fd4d 	bl	8001754 <AUDIO_IO_Write>
 8000cba:	4638      	mov	r0, r7
 8000cbc:	f240 127f 	movw	r2, #383	; 0x17f
 8000cc0:	211d      	movs	r1, #29
 8000cc2:	f000 fd47 	bl	8001754 <AUDIO_IO_Write>
 8000cc6:	4638      	mov	r0, r7
 8000cc8:	f240 127f 	movw	r2, #383	; 0x17f
 8000ccc:	2126      	movs	r1, #38	; 0x26
 8000cce:	f000 fd41 	bl	8001754 <AUDIO_IO_Write>
 8000cd2:	4638      	mov	r0, r7
 8000cd4:	f240 127f 	movw	r2, #383	; 0x17f
 8000cd8:	2127      	movs	r1, #39	; 0x27
 8000cda:	f000 fd3b 	bl	8001754 <AUDIO_IO_Write>
 8000cde:	4b32      	ldr	r3, [pc, #200]	; (8000da8 <wm8994_SetVolume+0x118>)
 8000ce0:	681b      	ldr	r3, [r3, #0]
 8000ce2:	b1e3      	cbz	r3, 8000d1e <wm8994_SetVolume+0x8e>
 8000ce4:	2c63      	cmp	r4, #99	; 0x63
 8000ce6:	d930      	bls.n	8000d4a <wm8994_SetVolume+0xba>
 8000ce8:	f240 14ef 	movw	r4, #495	; 0x1ef
 8000cec:	b2ed      	uxtb	r5, r5
 8000cee:	4622      	mov	r2, r4
 8000cf0:	f44f 6180 	mov.w	r1, #1024	; 0x400
 8000cf4:	4628      	mov	r0, r5
 8000cf6:	f000 fd2d 	bl	8001754 <AUDIO_IO_Write>
 8000cfa:	4622      	mov	r2, r4
 8000cfc:	4628      	mov	r0, r5
 8000cfe:	f240 4101 	movw	r1, #1025	; 0x401
 8000d02:	f000 fd27 	bl	8001754 <AUDIO_IO_Write>
 8000d06:	4622      	mov	r2, r4
 8000d08:	4628      	mov	r0, r5
 8000d0a:	f240 4104 	movw	r1, #1028	; 0x404
 8000d0e:	f000 fd21 	bl	8001754 <AUDIO_IO_Write>
 8000d12:	4622      	mov	r2, r4
 8000d14:	4628      	mov	r0, r5
 8000d16:	f240 4105 	movw	r1, #1029	; 0x405
 8000d1a:	f000 fd1b 	bl	8001754 <AUDIO_IO_Write>
 8000d1e:	4630      	mov	r0, r6
 8000d20:	e8bd 81f0 	ldmia.w	sp!, {r4, r5, r6, r7, r8, pc}
 8000d24:	2e00      	cmp	r6, #0
 8000d26:	d0da      	beq.n	8000cde <wm8994_SetVolume+0x4e>
 8000d28:	ebc1 1381 	rsb	r3, r1, r1, lsl #6
 8000d2c:	4a1f      	ldr	r2, [pc, #124]	; (8000dac <wm8994_SetVolume+0x11c>)
 8000d2e:	fba2 2303 	umull	r2, r3, r2, r3
 8000d32:	095b      	lsrs	r3, r3, #5
 8000d34:	2b3f      	cmp	r3, #63	; 0x3f
 8000d36:	b2df      	uxtb	r7, r3
 8000d38:	d0b3      	beq.n	8000ca2 <wm8994_SetVolume+0x12>
 8000d3a:	b989      	cbnz	r1, 8000d60 <wm8994_SetVolume+0xd0>
 8000d3c:	f7ff ff60 	bl	8000c00 <wm8994_SetMute.part.0>
 8000d40:	4b19      	ldr	r3, [pc, #100]	; (8000da8 <wm8994_SetVolume+0x118>)
 8000d42:	681e      	ldr	r6, [r3, #0]
 8000d44:	2e00      	cmp	r6, #0
 8000d46:	d0ea      	beq.n	8000d1e <wm8994_SetVolume+0x8e>
 8000d48:	4626      	mov	r6, r4
 8000d4a:	ebc4 1404 	rsb	r4, r4, r4, lsl #4
 8000d4e:	4b17      	ldr	r3, [pc, #92]	; (8000dac <wm8994_SetVolume+0x11c>)
 8000d50:	0124      	lsls	r4, r4, #4
 8000d52:	fba3 3404 	umull	r3, r4, r3, r4
 8000d56:	0964      	lsrs	r4, r4, #5
 8000d58:	f444 7480 	orr.w	r4, r4, #256	; 0x100
 8000d5c:	b2a4      	uxth	r4, r4
 8000d5e:	e7c5      	b.n	8000cec <wm8994_SetVolume+0x5c>
 8000d60:	fa5f f880 	uxtb.w	r8, r0
 8000d64:	f447 77a0 	orr.w	r7, r7, #320	; 0x140
 8000d68:	2100      	movs	r1, #0
 8000d6a:	f7ff ff5b 	bl	8000c24 <wm8994_SetMute>
 8000d6e:	463a      	mov	r2, r7
 8000d70:	211c      	movs	r1, #28
 8000d72:	4606      	mov	r6, r0
 8000d74:	4640      	mov	r0, r8
 8000d76:	f000 fced 	bl	8001754 <AUDIO_IO_Write>
 8000d7a:	463a      	mov	r2, r7
 8000d7c:	4640      	mov	r0, r8
 8000d7e:	211d      	movs	r1, #29
 8000d80:	f000 fce8 	bl	8001754 <AUDIO_IO_Write>
 8000d84:	463a      	mov	r2, r7
 8000d86:	4640      	mov	r0, r8
 8000d88:	2126      	movs	r1, #38	; 0x26
 8000d8a:	f000 fce3 	bl	8001754 <AUDIO_IO_Write>
 8000d8e:	463a      	mov	r2, r7
 8000d90:	4640      	mov	r0, r8
 8000d92:	2127      	movs	r1, #39	; 0x27
 8000d94:	f000 fcde 	bl	8001754 <AUDIO_IO_Write>
 8000d98:	4b03      	ldr	r3, [pc, #12]	; (8000da8 <wm8994_SetVolume+0x118>)
 8000d9a:	681b      	ldr	r3, [r3, #0]
 8000d9c:	2b00      	cmp	r3, #0
 8000d9e:	d1a1      	bne.n	8000ce4 <wm8994_SetVolume+0x54>
 8000da0:	e7bd      	b.n	8000d1e <wm8994_SetVolume+0x8e>
 8000da2:	bf00      	nop
 8000da4:	20000120 	.word	0x20000120
 8000da8:	2000011c 	.word	0x2000011c
 8000dac:	51eb851f 	.word	0x51eb851f

08000db0 <wm8994_Init>:
 8000db0:	e92d 47f0 	stmdb	sp!, {r4, r5, r6, r7, r8, r9, sl, lr}
 8000db4:	b2c4      	uxtb	r4, r0
 8000db6:	461f      	mov	r7, r3
 8000db8:	f401 467f 	and.w	r6, r1, #65280	; 0xff00
 8000dbc:	4680      	mov	r8, r0
 8000dbe:	4691      	mov	r9, r2
 8000dc0:	b2cd      	uxtb	r5, r1
 8000dc2:	f000 fcbf 	bl	8001744 <AUDIO_IO_Init>
 8000dc6:	4620      	mov	r0, r4
 8000dc8:	2203      	movs	r2, #3
 8000dca:	f44f 7181 	mov.w	r1, #258	; 0x102
 8000dce:	f000 fcc1 	bl	8001754 <AUDIO_IO_Write>
 8000dd2:	4620      	mov	r0, r4
 8000dd4:	2200      	movs	r2, #0
 8000dd6:	f640 0117 	movw	r1, #2071	; 0x817
 8000dda:	f000 fcbb 	bl	8001754 <AUDIO_IO_Write>
 8000dde:	4620      	mov	r0, r4
 8000de0:	2200      	movs	r2, #0
 8000de2:	f44f 7181 	mov.w	r1, #258	; 0x102
 8000de6:	f000 fcb5 	bl	8001754 <AUDIO_IO_Write>
 8000dea:	4620      	mov	r0, r4
 8000dec:	226c      	movs	r2, #108	; 0x6c
 8000dee:	2139      	movs	r1, #57	; 0x39
 8000df0:	f000 fcb0 	bl	8001754 <AUDIO_IO_Write>
 8000df4:	2e00      	cmp	r6, #0
 8000df6:	f000 80fb 	beq.w	8000ff0 <wm8994_Init+0x240>
 8000dfa:	2213      	movs	r2, #19
 8000dfc:	2101      	movs	r1, #1
 8000dfe:	4620      	mov	r0, r4
 8000e00:	f000 fca8 	bl	8001754 <AUDIO_IO_Write>
 8000e04:	2032      	movs	r0, #50	; 0x32
 8000e06:	f000 fcd1 	bl	80017ac <AUDIO_IO_Delay>
 8000e0a:	4bee      	ldr	r3, [pc, #952]	; (80011c4 <wm8994_Init+0x414>)
 8000e0c:	2d00      	cmp	r5, #0
 8000e0e:	f000 80fb 	beq.w	8001008 <wm8994_Init+0x258>
 8000e12:	f04f 0a01 	mov.w	sl, #1
 8000e16:	2d02      	cmp	r5, #2
 8000e18:	f8c3 a000 	str.w	sl, [r3]
 8000e1c:	d005      	beq.n	8000e2a <wm8994_Init+0x7a>
 8000e1e:	2d03      	cmp	r5, #3
 8000e20:	f000 829d 	beq.w	800135e <wm8994_Init+0x5ae>
 8000e24:	4555      	cmp	r5, sl
 8000e26:	f000 823c 	beq.w	80012a2 <wm8994_Init+0x4f2>
 8000e2a:	f240 3203 	movw	r2, #771	; 0x303
 8000e2e:	2105      	movs	r1, #5
 8000e30:	4620      	mov	r0, r4
 8000e32:	f000 fc8f 	bl	8001754 <AUDIO_IO_Write>
 8000e36:	4652      	mov	r2, sl
 8000e38:	f240 6101 	movw	r1, #1537	; 0x601
 8000e3c:	4620      	mov	r0, r4
 8000e3e:	f000 fc89 	bl	8001754 <AUDIO_IO_Write>
 8000e42:	4652      	mov	r2, sl
 8000e44:	f240 6102 	movw	r1, #1538	; 0x602
 8000e48:	4620      	mov	r0, r4
 8000e4a:	f000 fc83 	bl	8001754 <AUDIO_IO_Write>
 8000e4e:	2200      	movs	r2, #0
 8000e50:	f240 6104 	movw	r1, #1540	; 0x604
 8000e54:	4620      	mov	r0, r4
 8000e56:	f000 fc7d 	bl	8001754 <AUDIO_IO_Write>
 8000e5a:	2200      	movs	r2, #0
 8000e5c:	f240 6105 	movw	r1, #1541	; 0x605
 8000e60:	4620      	mov	r0, r4
 8000e62:	f000 fc77 	bl	8001754 <AUDIO_IO_Write>
 8000e66:	4bd8      	ldr	r3, [pc, #864]	; (80011c8 <wm8994_Init+0x418>)
 8000e68:	2e00      	cmp	r6, #0
 8000e6a:	f000 80d2 	beq.w	8001012 <wm8994_Init+0x262>
 8000e6e:	2201      	movs	r2, #1
 8000e70:	f5b6 7f00 	cmp.w	r6, #512	; 0x200
 8000e74:	601a      	str	r2, [r3, #0]
 8000e76:	f000 8292 	beq.w	800139e <wm8994_Init+0x5ee>
 8000e7a:	f240 825b 	bls.w	8001334 <wm8994_Init+0x584>
 8000e7e:	f5b6 7f40 	cmp.w	r6, #768	; 0x300
 8000e82:	f000 81e1 	beq.w	8001248 <wm8994_Init+0x498>
 8000e86:	f5b6 6f00 	cmp.w	r6, #2048	; 0x800
 8000e8a:	f040 82af 	bne.w	80013ec <wm8994_Init+0x63c>
 8000e8e:	f640 723c 	movw	r2, #3900	; 0xf3c
 8000e92:	2104      	movs	r1, #4
 8000e94:	4620      	mov	r0, r4
 8000e96:	f04f 0a00 	mov.w	sl, #0
 8000e9a:	f000 fc5b 	bl	8001754 <AUDIO_IO_Write>
 8000e9e:	22db      	movs	r2, #219	; 0xdb
 8000ea0:	f44f 618a 	mov.w	r1, #1104	; 0x450
 8000ea4:	4620      	mov	r0, r4
 8000ea6:	f000 fc55 	bl	8001754 <AUDIO_IO_Write>
 8000eaa:	22db      	movs	r2, #219	; 0xdb
 8000eac:	f44f 6188 	mov.w	r1, #1088	; 0x440
 8000eb0:	4620      	mov	r0, r4
 8000eb2:	f000 fc4f 	bl	8001754 <AUDIO_IO_Write>
 8000eb6:	f246 32a0 	movw	r2, #25504	; 0x63a0
 8000eba:	2102      	movs	r1, #2
 8000ebc:	4620      	mov	r0, r4
 8000ebe:	f000 fc49 	bl	8001754 <AUDIO_IO_Write>
 8000ec2:	2202      	movs	r2, #2
 8000ec4:	f240 6106 	movw	r1, #1542	; 0x606
 8000ec8:	4620      	mov	r0, r4
 8000eca:	f000 fc43 	bl	8001754 <AUDIO_IO_Write>
 8000ece:	2202      	movs	r2, #2
 8000ed0:	f240 6107 	movw	r1, #1543	; 0x607
 8000ed4:	4620      	mov	r0, r4
 8000ed6:	f000 fc3d 	bl	8001754 <AUDIO_IO_Write>
 8000eda:	2202      	movs	r2, #2
 8000edc:	f44f 61c1 	mov.w	r1, #1544	; 0x608
 8000ee0:	4620      	mov	r0, r4
 8000ee2:	f000 fc37 	bl	8001754 <AUDIO_IO_Write>
 8000ee6:	2202      	movs	r2, #2
 8000ee8:	f240 6109 	movw	r1, #1545	; 0x609
 8000eec:	4620      	mov	r0, r4
 8000eee:	f000 fc31 	bl	8001754 <AUDIO_IO_Write>
 8000ef2:	220d      	movs	r2, #13
 8000ef4:	f44f 61e0 	mov.w	r1, #1792	; 0x700
 8000ef8:	4620      	mov	r0, r4
 8000efa:	f000 fc2b 	bl	8001754 <AUDIO_IO_Write>
 8000efe:	f245 6322 	movw	r3, #22050	; 0x5622
 8000f02:	429f      	cmp	r7, r3
 8000f04:	f040 808c 	bne.w	8001020 <wm8994_Init+0x270>
 8000f08:	2243      	movs	r2, #67	; 0x43
 8000f0a:	f44f 7104 	mov.w	r1, #528	; 0x210
 8000f0e:	4620      	mov	r0, r4
 8000f10:	f000 fc20 	bl	8001754 <AUDIO_IO_Write>
 8000f14:	f5b6 6f00 	cmp.w	r6, #2048	; 0x800
 8000f18:	f040 80b5 	bne.w	8001086 <wm8994_Init+0x2d6>
 8000f1c:	f244 0218 	movw	r2, #16408	; 0x4018
 8000f20:	f44f 7140 	mov.w	r1, #768	; 0x300
 8000f24:	4620      	mov	r0, r4
 8000f26:	f000 fc15 	bl	8001754 <AUDIO_IO_Write>
 8000f2a:	2200      	movs	r2, #0
 8000f2c:	f240 3102 	movw	r1, #770	; 0x302
 8000f30:	4620      	mov	r0, r4
 8000f32:	f000 fc0f 	bl	8001754 <AUDIO_IO_Write>
 8000f36:	220a      	movs	r2, #10
 8000f38:	f44f 7102 	mov.w	r1, #520	; 0x208
 8000f3c:	4620      	mov	r0, r4
 8000f3e:	f000 fc09 	bl	8001754 <AUDIO_IO_Write>
 8000f42:	2201      	movs	r2, #1
 8000f44:	f44f 7100 	mov.w	r1, #512	; 0x200
 8000f48:	4620      	mov	r0, r4
 8000f4a:	f000 fc03 	bl	8001754 <AUDIO_IO_Write>
 8000f4e:	2d00      	cmp	r5, #0
 8000f50:	f000 8158 	beq.w	8001204 <wm8994_Init+0x454>
 8000f54:	2d02      	cmp	r5, #2
 8000f56:	f040 824c 	bne.w	80013f2 <wm8994_Init+0x642>
 8000f5a:	f44f 7280 	mov.w	r2, #256	; 0x100
 8000f5e:	212d      	movs	r1, #45	; 0x2d
 8000f60:	4620      	mov	r0, r4
 8000f62:	4d9a      	ldr	r5, [pc, #616]	; (80011cc <wm8994_Init+0x41c>)
 8000f64:	f000 fbf6 	bl	8001754 <AUDIO_IO_Write>
 8000f68:	f44f 7280 	mov.w	r2, #256	; 0x100
 8000f6c:	212e      	movs	r1, #46	; 0x2e
 8000f6e:	4620      	mov	r0, r4
 8000f70:	f000 fbf0 	bl	8001754 <AUDIO_IO_Write>
 8000f74:	782b      	ldrb	r3, [r5, #0]
 8000f76:	2b00      	cmp	r3, #0
 8000f78:	f000 8258 	beq.w	800142c <wm8994_Init+0x67c>
 8000f7c:	4620      	mov	r0, r4
 8000f7e:	f44f 4201 	mov.w	r2, #33024	; 0x8100
 8000f82:	f44f 7188 	mov.w	r1, #272	; 0x110
 8000f86:	f000 fbe5 	bl	8001754 <AUDIO_IO_Write>
 8000f8a:	2300      	movs	r3, #0
 8000f8c:	f44f 7096 	mov.w	r0, #300	; 0x12c
 8000f90:	702b      	strb	r3, [r5, #0]
 8000f92:	f000 fc0b 	bl	80017ac <AUDIO_IO_Delay>
 8000f96:	2200      	movs	r2, #0
 8000f98:	f44f 6184 	mov.w	r1, #1056	; 0x420
 8000f9c:	4620      	mov	r0, r4
 8000f9e:	f000 fbd9 	bl	8001754 <AUDIO_IO_Write>
 8000fa2:	f44f 7240 	mov.w	r2, #768	; 0x300
 8000fa6:	2103      	movs	r1, #3
 8000fa8:	4620      	mov	r0, r4
 8000faa:	f000 fbd3 	bl	8001754 <AUDIO_IO_Write>
 8000fae:	2200      	movs	r2, #0
 8000fb0:	2122      	movs	r1, #34	; 0x22
 8000fb2:	4620      	mov	r0, r4
 8000fb4:	f000 fbce 	bl	8001754 <AUDIO_IO_Write>
 8000fb8:	2200      	movs	r2, #0
 8000fba:	2123      	movs	r1, #35	; 0x23
 8000fbc:	4620      	mov	r0, r4
 8000fbe:	f000 fbc9 	bl	8001754 <AUDIO_IO_Write>
 8000fc2:	f44f 7240 	mov.w	r2, #768	; 0x300
 8000fc6:	2136      	movs	r1, #54	; 0x36
 8000fc8:	4620      	mov	r0, r4
 8000fca:	f000 fbc3 	bl	8001754 <AUDIO_IO_Write>
 8000fce:	f243 0203 	movw	r2, #12291	; 0x3003
 8000fd2:	2101      	movs	r1, #1
 8000fd4:	4620      	mov	r0, r4
 8000fd6:	f000 fbbd 	bl	8001754 <AUDIO_IO_Write>
 8000fda:	f5b6 6f00 	cmp.w	r6, #2048	; 0x800
 8000fde:	f040 808c 	bne.w	80010fa <wm8994_Init+0x34a>
 8000fe2:	f240 2205 	movw	r2, #517	; 0x205
 8000fe6:	2151      	movs	r1, #81	; 0x51
 8000fe8:	4620      	mov	r0, r4
 8000fea:	f000 fbb3 	bl	8001754 <AUDIO_IO_Write>
 8000fee:	e089      	b.n	8001104 <wm8994_Init+0x354>
 8000ff0:	2203      	movs	r2, #3
 8000ff2:	2101      	movs	r1, #1
 8000ff4:	4620      	mov	r0, r4
 8000ff6:	f000 fbad 	bl	8001754 <AUDIO_IO_Write>
 8000ffa:	2032      	movs	r0, #50	; 0x32
 8000ffc:	f000 fbd6 	bl	80017ac <AUDIO_IO_Delay>
 8001000:	4b70      	ldr	r3, [pc, #448]	; (80011c4 <wm8994_Init+0x414>)
 8001002:	2d00      	cmp	r5, #0
 8001004:	f47f af05 	bne.w	8000e12 <wm8994_Init+0x62>
 8001008:	601d      	str	r5, [r3, #0]
 800100a:	4b6f      	ldr	r3, [pc, #444]	; (80011c8 <wm8994_Init+0x418>)
 800100c:	2e00      	cmp	r6, #0
 800100e:	f47f af2e 	bne.w	8000e6e <wm8994_Init+0xbe>
 8001012:	46b2      	mov	sl, r6
 8001014:	601e      	str	r6, [r3, #0]
 8001016:	f245 6322 	movw	r3, #22050	; 0x5622
 800101a:	429f      	cmp	r7, r3
 800101c:	f43f af74 	beq.w	8000f08 <wm8994_Init+0x158>
 8001020:	d914      	bls.n	800104c <wm8994_Init+0x29c>
 8001022:	f64a 4344 	movw	r3, #44100	; 0xac44
 8001026:	429f      	cmp	r7, r3
 8001028:	f000 81ab 	beq.w	8001382 <wm8994_Init+0x5d2>
 800102c:	f240 818c 	bls.w	8001348 <wm8994_Init+0x598>
 8001030:	f64b 3380 	movw	r3, #48000	; 0xbb80
 8001034:	429f      	cmp	r7, r3
 8001036:	d01c      	beq.n	8001072 <wm8994_Init+0x2c2>
 8001038:	4b65      	ldr	r3, [pc, #404]	; (80011d0 <wm8994_Init+0x420>)
 800103a:	429f      	cmp	r7, r3
 800103c:	d119      	bne.n	8001072 <wm8994_Init+0x2c2>
 800103e:	22a3      	movs	r2, #163	; 0xa3
 8001040:	f44f 7104 	mov.w	r1, #528	; 0x210
 8001044:	4620      	mov	r0, r4
 8001046:	f000 fb85 	bl	8001754 <AUDIO_IO_Write>
 800104a:	e018      	b.n	800107e <wm8994_Init+0x2ce>
 800104c:	f642 3311 	movw	r3, #11025	; 0x2b11
 8001050:	429f      	cmp	r7, r3
 8001052:	f000 819d 	beq.w	8001390 <wm8994_Init+0x5e0>
 8001056:	f5b7 5f7a 	cmp.w	r7, #16000	; 0x3e80
 800105a:	f000 80ee 	beq.w	800123a <wm8994_Init+0x48a>
 800105e:	f5b7 5ffa 	cmp.w	r7, #8000	; 0x1f40
 8001062:	d106      	bne.n	8001072 <wm8994_Init+0x2c2>
 8001064:	2203      	movs	r2, #3
 8001066:	f44f 7104 	mov.w	r1, #528	; 0x210
 800106a:	4620      	mov	r0, r4
 800106c:	f000 fb72 	bl	8001754 <AUDIO_IO_Write>
 8001070:	e005      	b.n	800107e <wm8994_Init+0x2ce>
 8001072:	2283      	movs	r2, #131	; 0x83
 8001074:	f44f 7104 	mov.w	r1, #528	; 0x210
 8001078:	4620      	mov	r0, r4
 800107a:	f000 fb6b 	bl	8001754 <AUDIO_IO_Write>
 800107e:	f5b6 6f00 	cmp.w	r6, #2048	; 0x800
 8001082:	f43f af4b 	beq.w	8000f1c <wm8994_Init+0x16c>
 8001086:	f244 0210 	movw	r2, #16400	; 0x4010
 800108a:	f44f 7140 	mov.w	r1, #768	; 0x300
 800108e:	4620      	mov	r0, r4
 8001090:	f000 fb60 	bl	8001754 <AUDIO_IO_Write>
 8001094:	2200      	movs	r2, #0
 8001096:	f240 3102 	movw	r1, #770	; 0x302
 800109a:	4620      	mov	r0, r4
 800109c:	f000 fb5a 	bl	8001754 <AUDIO_IO_Write>
 80010a0:	220a      	movs	r2, #10
 80010a2:	f44f 7102 	mov.w	r1, #520	; 0x208
 80010a6:	4620      	mov	r0, r4
 80010a8:	f000 fb54 	bl	8001754 <AUDIO_IO_Write>
 80010ac:	2201      	movs	r2, #1
 80010ae:	f44f 7100 	mov.w	r1, #512	; 0x200
 80010b2:	4620      	mov	r0, r4
 80010b4:	f000 fb4e 	bl	8001754 <AUDIO_IO_Write>
 80010b8:	2d00      	cmp	r5, #0
 80010ba:	d07e      	beq.n	80011ba <wm8994_Init+0x40a>
 80010bc:	2d02      	cmp	r5, #2
 80010be:	f43f af4c 	beq.w	8000f5a <wm8994_Init+0x1aa>
 80010c2:	f44f 7240 	mov.w	r2, #768	; 0x300
 80010c6:	2103      	movs	r1, #3
 80010c8:	4620      	mov	r0, r4
 80010ca:	f000 fb43 	bl	8001754 <AUDIO_IO_Write>
 80010ce:	2200      	movs	r2, #0
 80010d0:	2122      	movs	r1, #34	; 0x22
 80010d2:	4620      	mov	r0, r4
 80010d4:	f000 fb3e 	bl	8001754 <AUDIO_IO_Write>
 80010d8:	2200      	movs	r2, #0
 80010da:	2123      	movs	r1, #35	; 0x23
 80010dc:	4620      	mov	r0, r4
 80010de:	f000 fb39 	bl	8001754 <AUDIO_IO_Write>
 80010e2:	f44f 7240 	mov.w	r2, #768	; 0x300
 80010e6:	2136      	movs	r1, #54	; 0x36
 80010e8:	4620      	mov	r0, r4
 80010ea:	f000 fb33 	bl	8001754 <AUDIO_IO_Write>
 80010ee:	f243 0203 	movw	r2, #12291	; 0x3003
 80010f2:	2101      	movs	r1, #1
 80010f4:	4620      	mov	r0, r4
 80010f6:	f000 fb2d 	bl	8001754 <AUDIO_IO_Write>
 80010fa:	2205      	movs	r2, #5
 80010fc:	2151      	movs	r1, #81	; 0x51
 80010fe:	4620      	mov	r0, r4
 8001100:	f000 fb28 	bl	8001754 <AUDIO_IO_Write>
 8001104:	f243 3203 	movw	r2, #13059	; 0x3303
 8001108:	2101      	movs	r1, #1
 800110a:	4620      	mov	r0, r4
 800110c:	4615      	mov	r5, r2
 800110e:	f000 fb21 	bl	8001754 <AUDIO_IO_Write>
 8001112:	2222      	movs	r2, #34	; 0x22
 8001114:	2160      	movs	r1, #96	; 0x60
 8001116:	4620      	mov	r0, r4
 8001118:	f000 fb1c 	bl	8001754 <AUDIO_IO_Write>
 800111c:	f649 7225 	movw	r2, #40741	; 0x9f25
 8001120:	214c      	movs	r1, #76	; 0x4c
 8001122:	4620      	mov	r0, r4
 8001124:	f000 fb16 	bl	8001754 <AUDIO_IO_Write>
 8001128:	200f      	movs	r0, #15
 800112a:	f000 fb3f 	bl	80017ac <AUDIO_IO_Delay>
 800112e:	2201      	movs	r2, #1
 8001130:	212d      	movs	r1, #45	; 0x2d
 8001132:	4620      	mov	r0, r4
 8001134:	f000 fb0e 	bl	8001754 <AUDIO_IO_Write>
 8001138:	2201      	movs	r2, #1
 800113a:	212e      	movs	r1, #46	; 0x2e
 800113c:	4620      	mov	r0, r4
 800113e:	f000 fb09 	bl	8001754 <AUDIO_IO_Write>
 8001142:	f44f 724c 	mov.w	r2, #816	; 0x330
 8001146:	2103      	movs	r1, #3
 8001148:	4620      	mov	r0, r4
 800114a:	f000 fb03 	bl	8001754 <AUDIO_IO_Write>
 800114e:	2233      	movs	r2, #51	; 0x33
 8001150:	2154      	movs	r1, #84	; 0x54
 8001152:	4620      	mov	r0, r4
 8001154:	f000 fafe 	bl	8001754 <AUDIO_IO_Write>
 8001158:	f240 1001 	movw	r0, #257	; 0x101
 800115c:	f000 fb26 	bl	80017ac <AUDIO_IO_Delay>
 8001160:	22ee      	movs	r2, #238	; 0xee
 8001162:	2160      	movs	r1, #96	; 0x60
 8001164:	4620      	mov	r0, r4
 8001166:	f000 faf5 	bl	8001754 <AUDIO_IO_Write>
 800116a:	22c0      	movs	r2, #192	; 0xc0
 800116c:	f44f 61c2 	mov.w	r1, #1552	; 0x610
 8001170:	4620      	mov	r0, r4
 8001172:	f000 faef 	bl	8001754 <AUDIO_IO_Write>
 8001176:	22c0      	movs	r2, #192	; 0xc0
 8001178:	f240 6111 	movw	r1, #1553	; 0x611
 800117c:	4620      	mov	r0, r4
 800117e:	f000 fae9 	bl	8001754 <AUDIO_IO_Write>
 8001182:	2210      	movs	r2, #16
 8001184:	f44f 6184 	mov.w	r1, #1056	; 0x420
 8001188:	4620      	mov	r0, r4
 800118a:	f000 fae3 	bl	8001754 <AUDIO_IO_Write>
 800118e:	22c0      	movs	r2, #192	; 0xc0
 8001190:	f240 6112 	movw	r1, #1554	; 0x612
 8001194:	4620      	mov	r0, r4
 8001196:	f000 fadd 	bl	8001754 <AUDIO_IO_Write>
 800119a:	22c0      	movs	r2, #192	; 0xc0
 800119c:	f240 6113 	movw	r1, #1555	; 0x613
 80011a0:	4620      	mov	r0, r4
 80011a2:	f000 fad7 	bl	8001754 <AUDIO_IO_Write>
 80011a6:	f240 4122 	movw	r1, #1058	; 0x422
 80011aa:	4620      	mov	r0, r4
 80011ac:	2210      	movs	r2, #16
 80011ae:	f000 fad1 	bl	8001754 <AUDIO_IO_Write>
 80011b2:	4649      	mov	r1, r9
 80011b4:	4640      	mov	r0, r8
 80011b6:	f7ff fd6b 	bl	8000c90 <wm8994_SetVolume>
 80011ba:	b95e      	cbnz	r6, 80011d4 <wm8994_Init+0x424>
 80011bc:	4650      	mov	r0, sl
 80011be:	e8bd 87f0 	ldmia.w	sp!, {r4, r5, r6, r7, r8, r9, sl, pc}
 80011c2:	bf00      	nop
 80011c4:	20000120 	.word	0x20000120
 80011c8:	2000011c 	.word	0x2000011c
 80011cc:	20000000 	.word	0x20000000
 80011d0:	00017700 	.word	0x00017700
 80011d4:	f5b6 7f80 	cmp.w	r6, #256	; 0x100
 80011d8:	f000 8094 	beq.w	8001304 <wm8994_Init+0x554>
 80011dc:	f5b6 7f00 	cmp.w	r6, #512	; 0x200
 80011e0:	f000 8090 	beq.w	8001304 <wm8994_Init+0x554>
 80011e4:	f5b6 6f00 	cmp.w	r6, #2048	; 0x800
 80011e8:	d00c      	beq.n	8001204 <wm8994_Init+0x454>
 80011ea:	f5b6 7f40 	cmp.w	r6, #768	; 0x300
 80011ee:	d077      	beq.n	80012e0 <wm8994_Init+0x530>
 80011f0:	f5b6 6f80 	cmp.w	r6, #1024	; 0x400
 80011f4:	d074      	beq.n	80012e0 <wm8994_Init+0x530>
 80011f6:	4649      	mov	r1, r9
 80011f8:	4640      	mov	r0, r8
 80011fa:	f7ff fd49 	bl	8000c90 <wm8994_SetVolume>
 80011fe:	4650      	mov	r0, sl
 8001200:	e8bd 87f0 	ldmia.w	sp!, {r4, r5, r6, r7, r8, r9, sl, pc}
 8001204:	f045 0213 	orr.w	r2, r5, #19
 8001208:	4620      	mov	r0, r4
 800120a:	2101      	movs	r1, #1
 800120c:	f000 faa2 	bl	8001754 <AUDIO_IO_Write>
 8001210:	4620      	mov	r0, r4
 8001212:	2202      	movs	r2, #2
 8001214:	f44f 61c4 	mov.w	r1, #1568	; 0x620
 8001218:	f000 fa9c 	bl	8001754 <AUDIO_IO_Write>
 800121c:	4620      	mov	r0, r4
 800121e:	f44f 52c0 	mov.w	r2, #6144	; 0x1800
 8001222:	f44f 6182 	mov.w	r1, #1040	; 0x410
 8001226:	f000 fa95 	bl	8001754 <AUDIO_IO_Write>
 800122a:	4620      	mov	r0, r4
 800122c:	f44f 52c0 	mov.w	r2, #6144	; 0x1800
 8001230:	f240 4111 	movw	r1, #1041	; 0x411
 8001234:	f000 fa8e 	bl	8001754 <AUDIO_IO_Write>
 8001238:	e7dd      	b.n	80011f6 <wm8994_Init+0x446>
 800123a:	2233      	movs	r2, #51	; 0x33
 800123c:	f44f 7104 	mov.w	r1, #528	; 0x210
 8001240:	4620      	mov	r0, r4
 8001242:	f000 fa87 	bl	8001754 <AUDIO_IO_Write>
 8001246:	e71a      	b.n	800107e <wm8994_Init+0x2ce>
 8001248:	2211      	movs	r2, #17
 800124a:	2128      	movs	r1, #40	; 0x28
 800124c:	4620      	mov	r0, r4
 800124e:	f04f 0a00 	mov.w	sl, #0
 8001252:	f000 fa7f 	bl	8001754 <AUDIO_IO_Write>
 8001256:	2235      	movs	r2, #53	; 0x35
 8001258:	2129      	movs	r1, #41	; 0x29
 800125a:	4620      	mov	r0, r4
 800125c:	f000 fa7a 	bl	8001754 <AUDIO_IO_Write>
 8001260:	2235      	movs	r2, #53	; 0x35
 8001262:	212a      	movs	r1, #42	; 0x2a
 8001264:	4620      	mov	r0, r4
 8001266:	f000 fa75 	bl	8001754 <AUDIO_IO_Write>
 800126a:	f240 3203 	movw	r2, #771	; 0x303
 800126e:	2104      	movs	r1, #4
 8001270:	4620      	mov	r0, r4
 8001272:	f000 fa6f 	bl	8001754 <AUDIO_IO_Write>
 8001276:	22db      	movs	r2, #219	; 0xdb
 8001278:	f44f 6188 	mov.w	r1, #1088	; 0x440
 800127c:	4620      	mov	r0, r4
 800127e:	f000 fa69 	bl	8001754 <AUDIO_IO_Write>
 8001282:	f246 3250 	movw	r2, #25424	; 0x6350
 8001286:	2102      	movs	r1, #2
 8001288:	4620      	mov	r0, r4
 800128a:	f000 fa63 	bl	8001754 <AUDIO_IO_Write>
 800128e:	2202      	movs	r2, #2
 8001290:	f240 6106 	movw	r1, #1542	; 0x606
 8001294:	4620      	mov	r0, r4
 8001296:	f000 fa5d 	bl	8001754 <AUDIO_IO_Write>
 800129a:	2202      	movs	r2, #2
 800129c:	f240 6107 	movw	r1, #1543	; 0x607
 80012a0:	e624      	b.n	8000eec <wm8994_Init+0x13c>
 80012a2:	f640 420c 	movw	r2, #3084	; 0xc0c
 80012a6:	2105      	movs	r1, #5
 80012a8:	4620      	mov	r0, r4
 80012aa:	f000 fa53 	bl	8001754 <AUDIO_IO_Write>
 80012ae:	2200      	movs	r2, #0
 80012b0:	f240 6101 	movw	r1, #1537	; 0x601
 80012b4:	4620      	mov	r0, r4
 80012b6:	f000 fa4d 	bl	8001754 <AUDIO_IO_Write>
 80012ba:	2200      	movs	r2, #0
 80012bc:	4620      	mov	r0, r4
 80012be:	f240 6102 	movw	r1, #1538	; 0x602
 80012c2:	f000 fa47 	bl	8001754 <AUDIO_IO_Write>
 80012c6:	4620      	mov	r0, r4
 80012c8:	2202      	movs	r2, #2
 80012ca:	f240 6104 	movw	r1, #1540	; 0x604
 80012ce:	f000 fa41 	bl	8001754 <AUDIO_IO_Write>
 80012d2:	2202      	movs	r2, #2
 80012d4:	f240 6105 	movw	r1, #1541	; 0x605
 80012d8:	4620      	mov	r0, r4
 80012da:	f000 fa3b 	bl	8001754 <AUDIO_IO_Write>
 80012de:	e694      	b.n	800100a <wm8994_Init+0x25a>
 80012e0:	4620      	mov	r0, r4
 80012e2:	220b      	movs	r2, #11
 80012e4:	2118      	movs	r1, #24
 80012e6:	f000 fa35 	bl	8001754 <AUDIO_IO_Write>
 80012ea:	4620      	mov	r0, r4
 80012ec:	220b      	movs	r2, #11
 80012ee:	211a      	movs	r1, #26
 80012f0:	f000 fa30 	bl	8001754 <AUDIO_IO_Write>
 80012f4:	4620      	mov	r0, r4
 80012f6:	f44f 52c0 	mov.w	r2, #6144	; 0x1800
 80012fa:	f44f 6182 	mov.w	r1, #1040	; 0x410
 80012fe:	f000 fa29 	bl	8001754 <AUDIO_IO_Write>
 8001302:	e778      	b.n	80011f6 <wm8994_Init+0x446>
 8001304:	f045 0213 	orr.w	r2, r5, #19
 8001308:	4620      	mov	r0, r4
 800130a:	2101      	movs	r1, #1
 800130c:	f000 fa22 	bl	8001754 <AUDIO_IO_Write>
 8001310:	4620      	mov	r0, r4
 8001312:	2202      	movs	r2, #2
 8001314:	f44f 61c4 	mov.w	r1, #1568	; 0x620
 8001318:	f000 fa1c 	bl	8001754 <AUDIO_IO_Write>
 800131c:	4620      	mov	r0, r4
 800131e:	f44f 5260 	mov.w	r2, #14336	; 0x3800
 8001322:	f240 4111 	movw	r1, #1041	; 0x411
 8001326:	f000 fa15 	bl	8001754 <AUDIO_IO_Write>
 800132a:	4649      	mov	r1, r9
 800132c:	4640      	mov	r0, r8
 800132e:	f7ff fcaf 	bl	8000c90 <wm8994_SetVolume>
 8001332:	e764      	b.n	80011fe <wm8994_Init+0x44e>
 8001334:	f5b6 7f80 	cmp.w	r6, #256	; 0x100
 8001338:	d158      	bne.n	80013ec <wm8994_Init+0x63c>
 800133a:	f44f 7243 	mov.w	r2, #780	; 0x30c
 800133e:	2104      	movs	r1, #4
 8001340:	4620      	mov	r0, r4
 8001342:	f04f 0a00 	mov.w	sl, #0
 8001346:	e794      	b.n	8001272 <wm8994_Init+0x4c2>
 8001348:	f5b7 4ffa 	cmp.w	r7, #32000	; 0x7d00
 800134c:	f47f ae91 	bne.w	8001072 <wm8994_Init+0x2c2>
 8001350:	2263      	movs	r2, #99	; 0x63
 8001352:	f44f 7104 	mov.w	r1, #528	; 0x210
 8001356:	4620      	mov	r0, r4
 8001358:	f000 f9fc 	bl	8001754 <AUDIO_IO_Write>
 800135c:	e68f      	b.n	800107e <wm8994_Init+0x2ce>
 800135e:	f5b6 6f00 	cmp.w	r6, #2048	; 0x800
 8001362:	f640 720f 	movw	r2, #3855	; 0xf0f
 8001366:	f04f 0105 	mov.w	r1, #5
 800136a:	4620      	mov	r0, r4
 800136c:	d069      	beq.n	8001442 <wm8994_Init+0x692>
 800136e:	f000 f9f1 	bl	8001754 <AUDIO_IO_Write>
 8001372:	4652      	mov	r2, sl
 8001374:	f240 6101 	movw	r1, #1537	; 0x601
 8001378:	4620      	mov	r0, r4
 800137a:	f000 f9eb 	bl	8001754 <AUDIO_IO_Write>
 800137e:	4652      	mov	r2, sl
 8001380:	e79c      	b.n	80012bc <wm8994_Init+0x50c>
 8001382:	2273      	movs	r2, #115	; 0x73
 8001384:	f44f 7104 	mov.w	r1, #528	; 0x210
 8001388:	4620      	mov	r0, r4
 800138a:	f000 f9e3 	bl	8001754 <AUDIO_IO_Write>
 800138e:	e676      	b.n	800107e <wm8994_Init+0x2ce>
 8001390:	2213      	movs	r2, #19
 8001392:	f44f 7104 	mov.w	r1, #528	; 0x210
 8001396:	4620      	mov	r0, r4
 8001398:	f000 f9dc 	bl	8001754 <AUDIO_IO_Write>
 800139c:	e66f      	b.n	800107e <wm8994_Init+0x2ce>
 800139e:	4620      	mov	r0, r4
 80013a0:	f44f 6243 	mov.w	r2, #3120	; 0xc30
 80013a4:	2104      	movs	r1, #4
 80013a6:	f04f 0a00 	mov.w	sl, #0
 80013aa:	f000 f9d3 	bl	8001754 <AUDIO_IO_Write>
 80013ae:	4620      	mov	r0, r4
 80013b0:	22db      	movs	r2, #219	; 0xdb
 80013b2:	f44f 618a 	mov.w	r1, #1104	; 0x450
 80013b6:	f000 f9cd 	bl	8001754 <AUDIO_IO_Write>
 80013ba:	4620      	mov	r0, r4
 80013bc:	f44f 42c0 	mov.w	r2, #24576	; 0x6000
 80013c0:	2102      	movs	r1, #2
 80013c2:	f000 f9c7 	bl	8001754 <AUDIO_IO_Write>
 80013c6:	4620      	mov	r0, r4
 80013c8:	2202      	movs	r2, #2
 80013ca:	f44f 61c1 	mov.w	r1, #1544	; 0x608
 80013ce:	f000 f9c1 	bl	8001754 <AUDIO_IO_Write>
 80013d2:	4620      	mov	r0, r4
 80013d4:	2202      	movs	r2, #2
 80013d6:	f240 6109 	movw	r1, #1545	; 0x609
 80013da:	f000 f9bb 	bl	8001754 <AUDIO_IO_Write>
 80013de:	220e      	movs	r2, #14
 80013e0:	f44f 61e0 	mov.w	r1, #1792	; 0x700
 80013e4:	4620      	mov	r0, r4
 80013e6:	f000 f9b5 	bl	8001754 <AUDIO_IO_Write>
 80013ea:	e614      	b.n	8001016 <wm8994_Init+0x266>
 80013ec:	f04f 0a01 	mov.w	sl, #1
 80013f0:	e611      	b.n	8001016 <wm8994_Init+0x266>
 80013f2:	4620      	mov	r0, r4
 80013f4:	f44f 7240 	mov.w	r2, #768	; 0x300
 80013f8:	2103      	movs	r1, #3
 80013fa:	f000 f9ab 	bl	8001754 <AUDIO_IO_Write>
 80013fe:	4620      	mov	r0, r4
 8001400:	2200      	movs	r2, #0
 8001402:	2122      	movs	r1, #34	; 0x22
 8001404:	f000 f9a6 	bl	8001754 <AUDIO_IO_Write>
 8001408:	4620      	mov	r0, r4
 800140a:	2200      	movs	r2, #0
 800140c:	2123      	movs	r1, #35	; 0x23
 800140e:	f000 f9a1 	bl	8001754 <AUDIO_IO_Write>
 8001412:	4620      	mov	r0, r4
 8001414:	f44f 7240 	mov.w	r2, #768	; 0x300
 8001418:	2136      	movs	r1, #54	; 0x36
 800141a:	f000 f99b 	bl	8001754 <AUDIO_IO_Write>
 800141e:	f243 0203 	movw	r2, #12291	; 0x3003
 8001422:	2101      	movs	r1, #1
 8001424:	4620      	mov	r0, r4
 8001426:	f000 f995 	bl	8001754 <AUDIO_IO_Write>
 800142a:	e5da      	b.n	8000fe2 <wm8994_Init+0x232>
 800142c:	4620      	mov	r0, r4
 800142e:	f248 1208 	movw	r2, #33032	; 0x8108
 8001432:	f44f 7188 	mov.w	r1, #272	; 0x110
 8001436:	f000 f98d 	bl	8001754 <AUDIO_IO_Write>
 800143a:	2032      	movs	r0, #50	; 0x32
 800143c:	f000 f9b6 	bl	80017ac <AUDIO_IO_Delay>
 8001440:	e5a9      	b.n	8000f96 <wm8994_Init+0x1e6>
 8001442:	f000 f987 	bl	8001754 <AUDIO_IO_Write>
 8001446:	462a      	mov	r2, r5
 8001448:	f240 6101 	movw	r1, #1537	; 0x601
 800144c:	4620      	mov	r0, r4
 800144e:	f000 f981 	bl	8001754 <AUDIO_IO_Write>
 8001452:	462a      	mov	r2, r5
 8001454:	f240 6102 	movw	r1, #1538	; 0x602
 8001458:	4620      	mov	r0, r4
 800145a:	f000 f97b 	bl	8001754 <AUDIO_IO_Write>
 800145e:	462a      	mov	r2, r5
 8001460:	f240 6104 	movw	r1, #1540	; 0x604
 8001464:	4620      	mov	r0, r4
 8001466:	f000 f975 	bl	8001754 <AUDIO_IO_Write>
 800146a:	462a      	mov	r2, r5
 800146c:	f240 6105 	movw	r1, #1541	; 0x605
 8001470:	4620      	mov	r0, r4
 8001472:	f000 f96f 	bl	8001754 <AUDIO_IO_Write>
 8001476:	4b02      	ldr	r3, [pc, #8]	; (8001480 <wm8994_Init+0x6d0>)
 8001478:	f8c3 a000 	str.w	sl, [r3]
 800147c:	e507      	b.n	8000e8e <wm8994_Init+0xde>
 800147e:	bf00      	nop
 8001480:	2000011c 	.word	0x2000011c

08001484 <wm8994_Stop>:
 8001484:	b570      	push	{r4, r5, r6, lr}
 8001486:	4d19      	ldr	r5, [pc, #100]	; (80014ec <wm8994_Stop+0x68>)
 8001488:	682a      	ldr	r2, [r5, #0]
 800148a:	b90a      	cbnz	r2, 8001490 <wm8994_Stop+0xc>
 800148c:	2000      	movs	r0, #0
 800148e:	bd70      	pop	{r4, r5, r6, pc}
 8001490:	460e      	mov	r6, r1
 8001492:	4604      	mov	r4, r0
 8001494:	f7ff fbb4 	bl	8000c00 <wm8994_SetMute.part.0>
 8001498:	2e02      	cmp	r6, #2
 800149a:	d0f7      	beq.n	800148c <wm8994_Stop+0x8>
 800149c:	b2e4      	uxtb	r4, r4
 800149e:	f44f 7200 	mov.w	r2, #512	; 0x200
 80014a2:	f44f 6184 	mov.w	r1, #1056	; 0x420
 80014a6:	4620      	mov	r0, r4
 80014a8:	f000 f954 	bl	8001754 <AUDIO_IO_Write>
 80014ac:	4620      	mov	r0, r4
 80014ae:	f44f 7200 	mov.w	r2, #512	; 0x200
 80014b2:	f240 4122 	movw	r1, #1058	; 0x422
 80014b6:	f000 f94d 	bl	8001754 <AUDIO_IO_Write>
 80014ba:	4620      	mov	r0, r4
 80014bc:	2200      	movs	r2, #0
 80014be:	212d      	movs	r1, #45	; 0x2d
 80014c0:	f000 f948 	bl	8001754 <AUDIO_IO_Write>
 80014c4:	4620      	mov	r0, r4
 80014c6:	2200      	movs	r2, #0
 80014c8:	212e      	movs	r1, #46	; 0x2e
 80014ca:	f000 f943 	bl	8001754 <AUDIO_IO_Write>
 80014ce:	4620      	mov	r0, r4
 80014d0:	2200      	movs	r2, #0
 80014d2:	2105      	movs	r1, #5
 80014d4:	f000 f93e 	bl	8001754 <AUDIO_IO_Write>
 80014d8:	2200      	movs	r2, #0
 80014da:	4620      	mov	r0, r4
 80014dc:	4611      	mov	r1, r2
 80014de:	f000 f939 	bl	8001754 <AUDIO_IO_Write>
 80014e2:	2300      	movs	r3, #0
 80014e4:	2000      	movs	r0, #0
 80014e6:	602b      	str	r3, [r5, #0]
 80014e8:	bd70      	pop	{r4, r5, r6, pc}
 80014ea:	bf00      	nop
 80014ec:	20000120 	.word	0x20000120

080014f0 <I2Cx_Init>:
 80014f0:	b570      	push	{r4, r5, r6, lr}
 80014f2:	b08a      	sub	sp, #40	; 0x28
 80014f4:	4604      	mov	r4, r0
 80014f6:	f002 fb19 	bl	8003b2c <HAL_I2C_GetState>
 80014fa:	2800      	cmp	r0, #0
 80014fc:	d151      	bne.n	80015a2 <I2Cx_Init+0xb2>
 80014fe:	4b52      	ldr	r3, [pc, #328]	; (8001648 <I2Cx_Init+0x158>)
 8001500:	4605      	mov	r5, r0
 8001502:	4a52      	ldr	r2, [pc, #328]	; (800164c <I2Cx_Init+0x15c>)
 8001504:	429c      	cmp	r4, r3
 8001506:	4e52      	ldr	r6, [pc, #328]	; (8001650 <I2Cx_Init+0x160>)
 8001508:	f04f 0301 	mov.w	r3, #1
 800150c:	60a0      	str	r0, [r4, #8]
 800150e:	d04a      	beq.n	80015a6 <I2Cx_Init+0xb6>
 8001510:	6062      	str	r2, [r4, #4]
 8001512:	f44f 7180 	mov.w	r1, #256	; 0x100
 8001516:	60e3      	str	r3, [r4, #12]
 8001518:	4a4e      	ldr	r2, [pc, #312]	; (8001654 <I2Cx_Init+0x164>)
 800151a:	e9c4 0004 	strd	r0, r0, [r4, #16]
 800151e:	e9c4 0007 	strd	r0, r0, [r4, #28]
 8001522:	6b33      	ldr	r3, [r6, #48]	; 0x30
 8001524:	2002      	movs	r0, #2
 8001526:	6022      	str	r2, [r4, #0]
 8001528:	2212      	movs	r2, #18
 800152a:	f043 0302 	orr.w	r3, r3, #2
 800152e:	6333      	str	r3, [r6, #48]	; 0x30
 8001530:	6b33      	ldr	r3, [r6, #48]	; 0x30
 8001532:	9008      	str	r0, [sp, #32]
 8001534:	4003      	ands	r3, r0
 8001536:	4848      	ldr	r0, [pc, #288]	; (8001658 <I2Cx_Init+0x168>)
 8001538:	9507      	str	r5, [sp, #28]
 800153a:	9303      	str	r3, [sp, #12]
 800153c:	9b03      	ldr	r3, [sp, #12]
 800153e:	e9cd 1205 	strd	r1, r2, [sp, #20]
 8001542:	2204      	movs	r2, #4
 8001544:	a905      	add	r1, sp, #20
 8001546:	9209      	str	r2, [sp, #36]	; 0x24
 8001548:	f001 fe74 	bl	8003234 <HAL_GPIO_Init>
 800154c:	f44f 7300 	mov.w	r3, #512	; 0x200
 8001550:	a905      	add	r1, sp, #20
 8001552:	4841      	ldr	r0, [pc, #260]	; (8001658 <I2Cx_Init+0x168>)
 8001554:	9305      	str	r3, [sp, #20]
 8001556:	f001 fe6d 	bl	8003234 <HAL_GPIO_Init>
 800155a:	6c33      	ldr	r3, [r6, #64]	; 0x40
 800155c:	462a      	mov	r2, r5
 800155e:	210f      	movs	r1, #15
 8001560:	201f      	movs	r0, #31
 8001562:	f443 1300 	orr.w	r3, r3, #2097152	; 0x200000
 8001566:	6433      	str	r3, [r6, #64]	; 0x40
 8001568:	6c33      	ldr	r3, [r6, #64]	; 0x40
 800156a:	f403 1300 	and.w	r3, r3, #2097152	; 0x200000
 800156e:	9304      	str	r3, [sp, #16]
 8001570:	9b04      	ldr	r3, [sp, #16]
 8001572:	6a33      	ldr	r3, [r6, #32]
 8001574:	f443 1300 	orr.w	r3, r3, #2097152	; 0x200000
 8001578:	6233      	str	r3, [r6, #32]
 800157a:	6a33      	ldr	r3, [r6, #32]
 800157c:	f423 1300 	bic.w	r3, r3, #2097152	; 0x200000
 8001580:	6233      	str	r3, [r6, #32]
 8001582:	f001 fa19 	bl	80029b8 <HAL_NVIC_SetPriority>
 8001586:	201f      	movs	r0, #31
 8001588:	f001 fa4c 	bl	8002a24 <HAL_NVIC_EnableIRQ>
 800158c:	2020      	movs	r0, #32
 800158e:	462a      	mov	r2, r5
 8001590:	210f      	movs	r1, #15
 8001592:	f001 fa11 	bl	80029b8 <HAL_NVIC_SetPriority>
 8001596:	2020      	movs	r0, #32
 8001598:	f001 fa44 	bl	8002a24 <HAL_NVIC_EnableIRQ>
 800159c:	4620      	mov	r0, r4
 800159e:	f002 f8a3 	bl	80036e8 <HAL_I2C_Init>
 80015a2:	b00a      	add	sp, #40	; 0x28
 80015a4:	bd70      	pop	{r4, r5, r6, pc}
 80015a6:	e9c4 0004 	strd	r0, r0, [r4, #16]
 80015aa:	e9c4 0007 	strd	r0, r0, [r4, #28]
 80015ae:	6062      	str	r2, [r4, #4]
 80015b0:	2002      	movs	r0, #2
 80015b2:	60e3      	str	r3, [r4, #12]
 80015b4:	f44f 5180 	mov.w	r1, #4096	; 0x1000
 80015b8:	6b33      	ldr	r3, [r6, #48]	; 0x30
 80015ba:	4a28      	ldr	r2, [pc, #160]	; (800165c <I2Cx_Init+0x16c>)
 80015bc:	f043 0308 	orr.w	r3, r3, #8
 80015c0:	6022      	str	r2, [r4, #0]
 80015c2:	2212      	movs	r2, #18
 80015c4:	6333      	str	r3, [r6, #48]	; 0x30
 80015c6:	6b33      	ldr	r3, [r6, #48]	; 0x30
 80015c8:	f003 0308 	and.w	r3, r3, #8
 80015cc:	9300      	str	r3, [sp, #0]
 80015ce:	9b00      	ldr	r3, [sp, #0]
 80015d0:	6b33      	ldr	r3, [r6, #48]	; 0x30
 80015d2:	4303      	orrs	r3, r0
 80015d4:	6333      	str	r3, [r6, #48]	; 0x30
 80015d6:	6b33      	ldr	r3, [r6, #48]	; 0x30
 80015d8:	9008      	str	r0, [sp, #32]
 80015da:	4003      	ands	r3, r0
 80015dc:	4820      	ldr	r0, [pc, #128]	; (8001660 <I2Cx_Init+0x170>)
 80015de:	9507      	str	r5, [sp, #28]
 80015e0:	9301      	str	r3, [sp, #4]
 80015e2:	9b01      	ldr	r3, [sp, #4]
 80015e4:	e9cd 1205 	strd	r1, r2, [sp, #20]
 80015e8:	2204      	movs	r2, #4
 80015ea:	a905      	add	r1, sp, #20
 80015ec:	9209      	str	r2, [sp, #36]	; 0x24
 80015ee:	f001 fe21 	bl	8003234 <HAL_GPIO_Init>
 80015f2:	2280      	movs	r2, #128	; 0x80
 80015f4:	230b      	movs	r3, #11
 80015f6:	a905      	add	r1, sp, #20
 80015f8:	4817      	ldr	r0, [pc, #92]	; (8001658 <I2Cx_Init+0x168>)
 80015fa:	9205      	str	r2, [sp, #20]
 80015fc:	9309      	str	r3, [sp, #36]	; 0x24
 80015fe:	f001 fe19 	bl	8003234 <HAL_GPIO_Init>
 8001602:	6c33      	ldr	r3, [r6, #64]	; 0x40
 8001604:	462a      	mov	r2, r5
 8001606:	210f      	movs	r1, #15
 8001608:	205f      	movs	r0, #95	; 0x5f
 800160a:	f043 7380 	orr.w	r3, r3, #16777216	; 0x1000000
 800160e:	6433      	str	r3, [r6, #64]	; 0x40
 8001610:	6c33      	ldr	r3, [r6, #64]	; 0x40
 8001612:	f003 7380 	and.w	r3, r3, #16777216	; 0x1000000
 8001616:	9302      	str	r3, [sp, #8]
 8001618:	9b02      	ldr	r3, [sp, #8]
 800161a:	6a33      	ldr	r3, [r6, #32]
 800161c:	f043 7380 	orr.w	r3, r3, #16777216	; 0x1000000
 8001620:	6233      	str	r3, [r6, #32]
 8001622:	6a33      	ldr	r3, [r6, #32]
 8001624:	f023 7380 	bic.w	r3, r3, #16777216	; 0x1000000
 8001628:	6233      	str	r3, [r6, #32]
 800162a:	f001 f9c5 	bl	80029b8 <HAL_NVIC_SetPriority>
 800162e:	205f      	movs	r0, #95	; 0x5f
 8001630:	f001 f9f8 	bl	8002a24 <HAL_NVIC_EnableIRQ>
 8001634:	462a      	mov	r2, r5
 8001636:	210f      	movs	r1, #15
 8001638:	2060      	movs	r0, #96	; 0x60
 800163a:	f001 f9bd 	bl	80029b8 <HAL_NVIC_SetPriority>
 800163e:	2060      	movs	r0, #96	; 0x60
 8001640:	f001 f9f0 	bl	8002a24 <HAL_NVIC_EnableIRQ>
 8001644:	e7aa      	b.n	800159c <I2Cx_Init+0xac>
 8001646:	bf00      	nop
 8001648:	20000124 	.word	0x20000124
 800164c:	40912732 	.word	0x40912732
 8001650:	40023800 	.word	0x40023800
 8001654:	40005400 	.word	0x40005400
 8001658:	40020400 	.word	0x40020400
 800165c:	40006000 	.word	0x40006000
 8001660:	40020c00 	.word	0x40020c00

08001664 <I2Cx_WriteMultiple>:
 8001664:	b570      	push	{r4, r5, r6, lr}
 8001666:	b084      	sub	sp, #16
 8001668:	f44f 747a 	mov.w	r4, #1000	; 0x3e8
 800166c:	f8bd 5024 	ldrh.w	r5, [sp, #36]	; 0x24
 8001670:	9e08      	ldr	r6, [sp, #32]
 8001672:	9402      	str	r4, [sp, #8]
 8001674:	e9cd 6500 	strd	r6, r5, [sp]
 8001678:	4605      	mov	r5, r0
 800167a:	f002 f8a5 	bl	80037c8 <HAL_I2C_Mem_Write>
 800167e:	4604      	mov	r4, r0
 8001680:	b128      	cbz	r0, 800168e <I2Cx_WriteMultiple+0x2a>
 8001682:	4628      	mov	r0, r5
 8001684:	f002 f886 	bl	8003794 <HAL_I2C_DeInit>
 8001688:	4628      	mov	r0, r5
 800168a:	f7ff ff31 	bl	80014f0 <I2Cx_Init>
 800168e:	4620      	mov	r0, r4
 8001690:	b004      	add	sp, #16
 8001692:	bd70      	pop	{r4, r5, r6, pc}

08001694 <I2Cx_ReadMultiple>:
 8001694:	b570      	push	{r4, r5, r6, lr}
 8001696:	b084      	sub	sp, #16
 8001698:	f44f 747a 	mov.w	r4, #1000	; 0x3e8
 800169c:	f8bd 5024 	ldrh.w	r5, [sp, #36]	; 0x24
 80016a0:	9e08      	ldr	r6, [sp, #32]
 80016a2:	9402      	str	r4, [sp, #8]
 80016a4:	e9cd 6500 	strd	r6, r5, [sp]
 80016a8:	4605      	mov	r5, r0
 80016aa:	f002 f963 	bl	8003974 <HAL_I2C_Mem_Read>
 80016ae:	4604      	mov	r4, r0
 80016b0:	b128      	cbz	r0, 80016be <I2Cx_ReadMultiple+0x2a>
 80016b2:	4628      	mov	r0, r5
 80016b4:	f002 f86e 	bl	8003794 <HAL_I2C_DeInit>
 80016b8:	4628      	mov	r0, r5
 80016ba:	f7ff ff19 	bl	80014f0 <I2Cx_Init>
 80016be:	4620      	mov	r0, r4
 80016c0:	b004      	add	sp, #16
 80016c2:	bd70      	pop	{r4, r5, r6, pc}

080016c4 <BSP_LED_Init>:
 80016c4:	4b0e      	ldr	r3, [pc, #56]	; (8001700 <BSP_LED_Init+0x3c>)
 80016c6:	490f      	ldr	r1, [pc, #60]	; (8001704 <BSP_LED_Init+0x40>)
 80016c8:	6b1a      	ldr	r2, [r3, #48]	; 0x30
 80016ca:	f442 7200 	orr.w	r2, r2, #512	; 0x200
 80016ce:	b570      	push	{r4, r5, r6, lr}
 80016d0:	631a      	str	r2, [r3, #48]	; 0x30
 80016d2:	b086      	sub	sp, #24
 80016d4:	6b1b      	ldr	r3, [r3, #48]	; 0x30
 80016d6:	2401      	movs	r4, #1
 80016d8:	4e0b      	ldr	r6, [pc, #44]	; (8001708 <BSP_LED_Init+0x44>)
 80016da:	2503      	movs	r5, #3
 80016dc:	f403 7300 	and.w	r3, r3, #512	; 0x200
 80016e0:	f856 2020 	ldr.w	r2, [r6, r0, lsl #2]
 80016e4:	9300      	str	r3, [sp, #0]
 80016e6:	f851 0020 	ldr.w	r0, [r1, r0, lsl #2]
 80016ea:	a901      	add	r1, sp, #4
 80016ec:	9b00      	ldr	r3, [sp, #0]
 80016ee:	9201      	str	r2, [sp, #4]
 80016f0:	9504      	str	r5, [sp, #16]
 80016f2:	e9cd 4402 	strd	r4, r4, [sp, #8]
 80016f6:	f001 fd9d 	bl	8003234 <HAL_GPIO_Init>
 80016fa:	b006      	add	sp, #24
 80016fc:	bd70      	pop	{r4, r5, r6, pc}
 80016fe:	bf00      	nop
 8001700:	40023800 	.word	0x40023800
 8001704:	2000003c 	.word	0x2000003c
 8001708:	20000034 	.word	0x20000034

0800170c <BSP_LED_On>:
 800170c:	4904      	ldr	r1, [pc, #16]	; (8001720 <BSP_LED_On+0x14>)
 800170e:	2201      	movs	r2, #1
 8001710:	4b04      	ldr	r3, [pc, #16]	; (8001724 <BSP_LED_On+0x18>)
 8001712:	f831 1020 	ldrh.w	r1, [r1, r0, lsl #2]
 8001716:	f853 0020 	ldr.w	r0, [r3, r0, lsl #2]
 800171a:	f001 be91 	b.w	8003440 <HAL_GPIO_WritePin>
 800171e:	bf00      	nop
 8001720:	20000034 	.word	0x20000034
 8001724:	2000003c 	.word	0x2000003c

08001728 <BSP_LED_Off>:
 8001728:	4904      	ldr	r1, [pc, #16]	; (800173c <BSP_LED_Off+0x14>)
 800172a:	2200      	movs	r2, #0
 800172c:	4b04      	ldr	r3, [pc, #16]	; (8001740 <BSP_LED_Off+0x18>)
 800172e:	f831 1020 	ldrh.w	r1, [r1, r0, lsl #2]
 8001732:	f853 0020 	ldr.w	r0, [r3, r0, lsl #2]
 8001736:	f001 be83 	b.w	8003440 <HAL_GPIO_WritePin>
 800173a:	bf00      	nop
 800173c:	20000034 	.word	0x20000034
 8001740:	2000003c 	.word	0x2000003c

08001744 <AUDIO_IO_Init>:
 8001744:	4801      	ldr	r0, [pc, #4]	; (800174c <AUDIO_IO_Init+0x8>)
 8001746:	f7ff bed3 	b.w	80014f0 <I2Cx_Init>
 800174a:	bf00      	nop
 800174c:	20000124 	.word	0x20000124

08001750 <AUDIO_IO_DeInit>:
 8001750:	4770      	bx	lr
 8001752:	bf00      	nop

08001754 <AUDIO_IO_Write>:
 8001754:	b530      	push	{r4, r5, lr}
 8001756:	b085      	sub	sp, #20
 8001758:	ba55      	rev16	r5, r2
 800175a:	2402      	movs	r4, #2
 800175c:	460a      	mov	r2, r1
 800175e:	ab04      	add	r3, sp, #16
 8001760:	4601      	mov	r1, r0
 8001762:	4805      	ldr	r0, [pc, #20]	; (8001778 <AUDIO_IO_Write+0x24>)
 8001764:	f823 5d02 	strh.w	r5, [r3, #-2]!
 8001768:	9300      	str	r3, [sp, #0]
 800176a:	4623      	mov	r3, r4
 800176c:	9401      	str	r4, [sp, #4]
 800176e:	f7ff ff79 	bl	8001664 <I2Cx_WriteMultiple>
 8001772:	b005      	add	sp, #20
 8001774:	bd30      	pop	{r4, r5, pc}
 8001776:	bf00      	nop
 8001778:	20000124 	.word	0x20000124

0800177c <AUDIO_IO_Read>:
 800177c:	b530      	push	{r4, r5, lr}
 800177e:	b085      	sub	sp, #20
 8001780:	2402      	movs	r4, #2
 8001782:	2500      	movs	r5, #0
 8001784:	460a      	mov	r2, r1
 8001786:	ab04      	add	r3, sp, #16
 8001788:	4601      	mov	r1, r0
 800178a:	4807      	ldr	r0, [pc, #28]	; (80017a8 <AUDIO_IO_Read+0x2c>)
 800178c:	f823 5d02 	strh.w	r5, [r3, #-2]!
 8001790:	9401      	str	r4, [sp, #4]
 8001792:	9300      	str	r3, [sp, #0]
 8001794:	4623      	mov	r3, r4
 8001796:	f7ff ff7d 	bl	8001694 <I2Cx_ReadMultiple>
 800179a:	f8bd 000e 	ldrh.w	r0, [sp, #14]
 800179e:	ba40      	rev16	r0, r0
 80017a0:	b280      	uxth	r0, r0
 80017a2:	b005      	add	sp, #20
 80017a4:	bd30      	pop	{r4, r5, pc}
 80017a6:	bf00      	nop
 80017a8:	20000124 	.word	0x20000124

080017ac <AUDIO_IO_Delay>:
 80017ac:	f001 b8de 	b.w	800296c <HAL_Delay>

080017b0 <SAIx_In_DeInit>:
 80017b0:	4b09      	ldr	r3, [pc, #36]	; (80017d8 <SAIx_In_DeInit+0x28>)
 80017b2:	4a0a      	ldr	r2, [pc, #40]	; (80017dc <SAIx_In_DeInit+0x2c>)
 80017b4:	490a      	ldr	r1, [pc, #40]	; (80017e0 <SAIx_In_DeInit+0x30>)
 80017b6:	4610      	mov	r0, r2
 80017b8:	b510      	push	{r4, lr}
 80017ba:	6013      	str	r3, [r2, #0]
 80017bc:	681a      	ldr	r2, [r3, #0]
 80017be:	4c09      	ldr	r4, [pc, #36]	; (80017e4 <SAIx_In_DeInit+0x34>)
 80017c0:	f422 3280 	bic.w	r2, r2, #65536	; 0x10000
 80017c4:	6021      	str	r1, [r4, #0]
 80017c6:	601a      	str	r2, [r3, #0]
 80017c8:	f003 fa04 	bl	8004bd4 <HAL_SAI_DeInit>
 80017cc:	4620      	mov	r0, r4
 80017ce:	e8bd 4010 	ldmia.w	sp!, {r4, lr}
 80017d2:	f003 b9ff 	b.w	8004bd4 <HAL_SAI_DeInit>
 80017d6:	bf00      	nop
 80017d8:	40015824 	.word	0x40015824
 80017dc:	2000d930 	.word	0x2000d930
 80017e0:	40015804 	.word	0x40015804
 80017e4:	2000da14 	.word	0x2000da14

080017e8 <BSP_AUDIO_OUT_Error_CallBack>:
 80017e8:	4770      	bx	lr
 80017ea:	bf00      	nop

080017ec <BSP_AUDIO_OUT_MspInit>:
 80017ec:	b5f0      	push	{r4, r5, r6, r7, lr}
 80017ee:	4c38      	ldr	r4, [pc, #224]	; (80018d0 <BSP_AUDIO_OUT_MspInit+0xe4>)
 80017f0:	b08b      	sub	sp, #44	; 0x2c
 80017f2:	2102      	movs	r1, #2
 80017f4:	2206      	movs	r2, #6
 80017f6:	6c63      	ldr	r3, [r4, #68]	; 0x44
 80017f8:	f04f 0c70 	mov.w	ip, #112	; 0x70
 80017fc:	2500      	movs	r5, #0
 80017fe:	2703      	movs	r7, #3
 8001800:	f443 0380 	orr.w	r3, r3, #4194304	; 0x400000
 8001804:	4606      	mov	r6, r0
 8001806:	4833      	ldr	r0, [pc, #204]	; (80018d4 <BSP_AUDIO_OUT_MspInit+0xe8>)
 8001808:	6463      	str	r3, [r4, #68]	; 0x44
 800180a:	6c63      	ldr	r3, [r4, #68]	; 0x44
 800180c:	f403 0380 	and.w	r3, r3, #4194304	; 0x400000
 8001810:	9301      	str	r3, [sp, #4]
 8001812:	9b01      	ldr	r3, [sp, #4]
 8001814:	6b23      	ldr	r3, [r4, #48]	; 0x30
 8001816:	f043 0340 	orr.w	r3, r3, #64	; 0x40
 800181a:	6323      	str	r3, [r4, #48]	; 0x30
 800181c:	6b23      	ldr	r3, [r4, #48]	; 0x30
 800181e:	f003 0340 	and.w	r3, r3, #64	; 0x40
 8001822:	9302      	str	r3, [sp, #8]
 8001824:	9b02      	ldr	r3, [sp, #8]
 8001826:	6b23      	ldr	r3, [r4, #48]	; 0x30
 8001828:	f043 0310 	orr.w	r3, r3, #16
 800182c:	6323      	str	r3, [r4, #48]	; 0x30
 800182e:	6b23      	ldr	r3, [r4, #48]	; 0x30
 8001830:	9106      	str	r1, [sp, #24]
 8001832:	a905      	add	r1, sp, #20
 8001834:	f003 0310 	and.w	r3, r3, #16
 8001838:	f8cd c014 	str.w	ip, [sp, #20]
 800183c:	9507      	str	r5, [sp, #28]
 800183e:	9303      	str	r3, [sp, #12]
 8001840:	9b03      	ldr	r3, [sp, #12]
 8001842:	e9cd 7208 	strd	r7, r2, [sp, #32]
 8001846:	f001 fcf5 	bl	8003234 <HAL_GPIO_Init>
 800184a:	2380      	movs	r3, #128	; 0x80
 800184c:	a905      	add	r1, sp, #20
 800184e:	4822      	ldr	r0, [pc, #136]	; (80018d8 <BSP_AUDIO_OUT_MspInit+0xec>)
 8001850:	9305      	str	r3, [sp, #20]
 8001852:	f001 fcef 	bl	8003234 <HAL_GPIO_Init>
 8001856:	6b23      	ldr	r3, [r4, #48]	; 0x30
 8001858:	6831      	ldr	r1, [r6, #0]
 800185a:	f443 0380 	orr.w	r3, r3, #4194304	; 0x400000
 800185e:	4a1f      	ldr	r2, [pc, #124]	; (80018dc <BSP_AUDIO_OUT_MspInit+0xf0>)
 8001860:	6323      	str	r3, [r4, #48]	; 0x30
 8001862:	4291      	cmp	r1, r2
 8001864:	6b23      	ldr	r3, [r4, #48]	; 0x30
 8001866:	f403 0380 	and.w	r3, r3, #4194304	; 0x400000
 800186a:	9304      	str	r3, [sp, #16]
 800186c:	9b04      	ldr	r3, [sp, #16]
 800186e:	d009      	beq.n	8001884 <BSP_AUDIO_OUT_MspInit+0x98>
 8001870:	2200      	movs	r2, #0
 8001872:	210e      	movs	r1, #14
 8001874:	2039      	movs	r0, #57	; 0x39
 8001876:	f001 f89f 	bl	80029b8 <HAL_NVIC_SetPriority>
 800187a:	2039      	movs	r0, #57	; 0x39
 800187c:	f001 f8d2 	bl	8002a24 <HAL_NVIC_EnableIRQ>
 8001880:	b00b      	add	sp, #44	; 0x2c
 8001882:	bdf0      	pop	{r4, r5, r6, r7, pc}
 8001884:	4c16      	ldr	r4, [pc, #88]	; (80018e0 <BSP_AUDIO_OUT_MspInit+0xf4>)
 8001886:	f44f 6c00 	mov.w	ip, #2048	; 0x800
 800188a:	f44f 5300 	mov.w	r3, #8192	; 0x2000
 800188e:	f44f 6080 	mov.w	r0, #1024	; 0x400
 8001892:	f04f 0e40 	mov.w	lr, #64	; 0x40
 8001896:	62a7      	str	r7, [r4, #40]	; 0x28
 8001898:	f44f 3100 	mov.w	r1, #131072	; 0x20000
 800189c:	2204      	movs	r2, #4
 800189e:	f44f 7780 	mov.w	r7, #256	; 0x100
 80018a2:	6120      	str	r0, [r4, #16]
 80018a4:	66f4      	str	r4, [r6, #108]	; 0x6c
 80018a6:	4620      	mov	r0, r4
 80018a8:	6065      	str	r5, [r4, #4]
 80018aa:	60e5      	str	r5, [r4, #12]
 80018ac:	63a6      	str	r6, [r4, #56]	; 0x38
 80018ae:	f8c4 e008 	str.w	lr, [r4, #8]
 80018b2:	6262      	str	r2, [r4, #36]	; 0x24
 80018b4:	e9c4 c305 	strd	ip, r3, [r4, #20]
 80018b8:	4b0a      	ldr	r3, [pc, #40]	; (80018e4 <BSP_AUDIO_OUT_MspInit+0xf8>)
 80018ba:	e9c4 550b 	strd	r5, r5, [r4, #44]	; 0x2c
 80018be:	e9c4 7107 	strd	r7, r1, [r4, #28]
 80018c2:	6023      	str	r3, [r4, #0]
 80018c4:	f001 fb44 	bl	8002f50 <HAL_DMA_DeInit>
 80018c8:	4620      	mov	r0, r4
 80018ca:	f001 faa5 	bl	8002e18 <HAL_DMA_Init>
 80018ce:	e7cf      	b.n	8001870 <BSP_AUDIO_OUT_MspInit+0x84>
 80018d0:	40023800 	.word	0x40023800
 80018d4:	40021000 	.word	0x40021000
 80018d8:	40021800 	.word	0x40021800
 80018dc:	40015804 	.word	0x40015804
 80018e0:	20000200 	.word	0x20000200
 80018e4:	40026428 	.word	0x40026428

080018e8 <BSP_AUDIO_OUT_ClockConfig>:
 80018e8:	b530      	push	{r4, r5, lr}
 80018ea:	b0a5      	sub	sp, #148	; 0x94
 80018ec:	460c      	mov	r4, r1
 80018ee:	f44f 2500 	mov.w	r5, #524288	; 0x80000
 80018f2:	4668      	mov	r0, sp
 80018f4:	f002 ff14 	bl	8004720 <HAL_RCCEx_GetPeriphCLKConfig>
 80018f8:	f642 3211 	movw	r2, #11025	; 0x2b11
 80018fc:	f245 6322 	movw	r3, #22050	; 0x5622
 8001900:	429c      	cmp	r4, r3
 8001902:	bf18      	it	ne
 8001904:	4294      	cmpne	r4, r2
 8001906:	d00a      	beq.n	800191e <BSP_AUDIO_OUT_ClockConfig+0x36>
 8001908:	f64a 4344 	movw	r3, #44100	; 0xac44
 800190c:	429c      	cmp	r4, r3
 800190e:	d006      	beq.n	800191e <BSP_AUDIO_OUT_ClockConfig+0x36>
 8001910:	f44f 1480 	mov.w	r4, #1048576	; 0x100000
 8001914:	f44f 71ac 	mov.w	r1, #344	; 0x158
 8001918:	2207      	movs	r2, #7
 800191a:	2301      	movs	r3, #1
 800191c:	e005      	b.n	800192a <BSP_AUDIO_OUT_ClockConfig+0x42>
 800191e:	f44f 1480 	mov.w	r4, #1048576	; 0x100000
 8001922:	f240 11ad 	movw	r1, #429	; 0x1ad
 8001926:	2202      	movs	r2, #2
 8001928:	2313      	movs	r3, #19
 800192a:	4668      	mov	r0, sp
 800192c:	9500      	str	r5, [sp, #0]
 800192e:	940f      	str	r4, [sp, #60]	; 0x3c
 8001930:	9101      	str	r1, [sp, #4]
 8001932:	9203      	str	r2, [sp, #12]
 8001934:	9309      	str	r3, [sp, #36]	; 0x24
 8001936:	f002 fc2f 	bl	8004198 <HAL_RCCEx_PeriphCLKConfig>
 800193a:	b025      	add	sp, #148	; 0x94
 800193c:	bd30      	pop	{r4, r5, pc}
 800193e:	bf00      	nop

08001940 <BSP_AUDIO_IN_AllocScratch>:
 8001940:	4b0a      	ldr	r3, [pc, #40]	; (800196c <BSP_AUDIO_IN_AllocScratch+0x2c>)
 8001942:	b430      	push	{r4, r5}
 8001944:	781c      	ldrb	r4, [r3, #0]
 8001946:	4d0a      	ldr	r5, [pc, #40]	; (8001970 <BSP_AUDIO_IN_AllocScratch+0x30>)
 8001948:	fbb1 f1f4 	udiv	r1, r1, r4
 800194c:	6029      	str	r1, [r5, #0]
 800194e:	b154      	cbz	r4, 8001966 <BSP_AUDIO_IN_AllocScratch+0x26>
 8001950:	4908      	ldr	r1, [pc, #32]	; (8001974 <BSP_AUDIO_IN_AllocScratch+0x34>)
 8001952:	2200      	movs	r2, #0
 8001954:	682b      	ldr	r3, [r5, #0]
 8001956:	009b      	lsls	r3, r3, #2
 8001958:	fb02 0303 	mla	r3, r2, r3, r0
 800195c:	3201      	adds	r2, #1
 800195e:	4294      	cmp	r4, r2
 8001960:	f841 3b04 	str.w	r3, [r1], #4
 8001964:	d1f6      	bne.n	8001954 <BSP_AUDIO_IN_AllocScratch+0x14>
 8001966:	2000      	movs	r0, #0
 8001968:	bc30      	pop	{r4, r5}
 800196a:	4770      	bx	lr
 800196c:	20000044 	.word	0x20000044
 8001970:	2000019c 	.word	0x2000019c
 8001974:	20000260 	.word	0x20000260

08001978 <BSP_AUDIO_IN_Record>:
 8001978:	b538      	push	{r3, r4, r5, lr}
 800197a:	4b1c      	ldr	r3, [pc, #112]	; (80019ec <BSP_AUDIO_IN_Record+0x74>)
 800197c:	881b      	ldrh	r3, [r3, #0]
 800197e:	bb1b      	cbnz	r3, 80019c8 <BSP_AUDIO_IN_Record+0x50>
 8001980:	4a1b      	ldr	r2, [pc, #108]	; (80019f0 <BSP_AUDIO_IN_Record+0x78>)
 8001982:	4d1c      	ldr	r5, [pc, #112]	; (80019f4 <BSP_AUDIO_IN_Record+0x7c>)
 8001984:	7812      	ldrb	r2, [r2, #0]
 8001986:	4c1c      	ldr	r4, [pc, #112]	; (80019f8 <BSP_AUDIO_IN_Record+0x80>)
 8001988:	602b      	str	r3, [r5, #0]
 800198a:	2a02      	cmp	r2, #2
 800198c:	4d1b      	ldr	r5, [pc, #108]	; (80019fc <BSP_AUDIO_IN_Record+0x84>)
 800198e:	e9c4 0100 	strd	r0, r1, [r4]
 8001992:	602b      	str	r3, [r5, #0]
 8001994:	4c1a      	ldr	r4, [pc, #104]	; (8001a00 <BSP_AUDIO_IN_Record+0x88>)
 8001996:	4d1b      	ldr	r5, [pc, #108]	; (8001a04 <BSP_AUDIO_IN_Record+0x8c>)
 8001998:	d807      	bhi.n	80019aa <BSP_AUDIO_IN_Record+0x32>
 800199a:	682a      	ldr	r2, [r5, #0]
 800199c:	6821      	ldr	r1, [r4, #0]
 800199e:	481a      	ldr	r0, [pc, #104]	; (8001a08 <BSP_AUDIO_IN_Record+0x90>)
 80019a0:	f001 f9d6 	bl	8002d50 <HAL_DFSDM_FilterRegularStart_DMA>
 80019a4:	b1c8      	cbz	r0, 80019da <BSP_AUDIO_IN_Record+0x62>
 80019a6:	2001      	movs	r0, #1
 80019a8:	bd38      	pop	{r3, r4, r5, pc}
 80019aa:	682a      	ldr	r2, [r5, #0]
 80019ac:	68a1      	ldr	r1, [r4, #8]
 80019ae:	4817      	ldr	r0, [pc, #92]	; (8001a0c <BSP_AUDIO_IN_Record+0x94>)
 80019b0:	f001 f9ce 	bl	8002d50 <HAL_DFSDM_FilterRegularStart_DMA>
 80019b4:	2800      	cmp	r0, #0
 80019b6:	d1f6      	bne.n	80019a6 <BSP_AUDIO_IN_Record+0x2e>
 80019b8:	682a      	ldr	r2, [r5, #0]
 80019ba:	68e1      	ldr	r1, [r4, #12]
 80019bc:	4814      	ldr	r0, [pc, #80]	; (8001a10 <BSP_AUDIO_IN_Record+0x98>)
 80019be:	f001 f9c7 	bl	8002d50 <HAL_DFSDM_FilterRegularStart_DMA>
 80019c2:	2800      	cmp	r0, #0
 80019c4:	d0e9      	beq.n	800199a <BSP_AUDIO_IN_Record+0x22>
 80019c6:	e7ee      	b.n	80019a6 <BSP_AUDIO_IN_Record+0x2e>
 80019c8:	b28a      	uxth	r2, r1
 80019ca:	4601      	mov	r1, r0
 80019cc:	4811      	ldr	r0, [pc, #68]	; (8001a14 <BSP_AUDIO_IN_Record+0x9c>)
 80019ce:	f003 f93b 	bl	8004c48 <HAL_SAI_Receive_DMA>
 80019d2:	3000      	adds	r0, #0
 80019d4:	bf18      	it	ne
 80019d6:	2001      	movne	r0, #1
 80019d8:	bd38      	pop	{r3, r4, r5, pc}
 80019da:	682a      	ldr	r2, [r5, #0]
 80019dc:	6861      	ldr	r1, [r4, #4]
 80019de:	480e      	ldr	r0, [pc, #56]	; (8001a18 <BSP_AUDIO_IN_Record+0xa0>)
 80019e0:	f001 f9b6 	bl	8002d50 <HAL_DFSDM_FilterRegularStart_DMA>
 80019e4:	3000      	adds	r0, #0
 80019e6:	bf18      	it	ne
 80019e8:	2001      	movne	r0, #1
 80019ea:	bd38      	pop	{r3, r4, r5, pc}
 80019ec:	20000178 	.word	0x20000178
 80019f0:	20000044 	.word	0x20000044
 80019f4:	20000174 	.word	0x20000174
 80019f8:	2000daec 	.word	0x2000daec
 80019fc:	20000170 	.word	0x20000170
 8001a00:	20000260 	.word	0x20000260
 8001a04:	2000019c 	.word	0x2000019c
 8001a08:	2000dcb4 	.word	0x2000dcb4
 8001a0c:	2000d8dc 	.word	0x2000d8dc
 8001a10:	2000dc28 	.word	0x2000dc28
 8001a14:	2000d930 	.word	0x2000d930
 8001a18:	2000da98 	.word	0x2000da98

08001a1c <HAL_SAI_RxCpltCallback>:
 8001a1c:	b508      	push	{r3, lr}
 8001a1e:	f004 f8d1 	bl	8005bc4 <BSP_AUDIO_IN_TransferComplete_CallBack>
 8001a22:	bd08      	pop	{r3, pc}

08001a24 <HAL_DFSDM_FilterRegConvCpltCallback>:
 8001a24:	4b9e      	ldr	r3, [pc, #632]	; (8001ca0 <HAL_DFSDM_FilterRegConvCpltCallback+0x27c>)
 8001a26:	4a9f      	ldr	r2, [pc, #636]	; (8001ca4 <HAL_DFSDM_FilterRegConvCpltCallback+0x280>)
 8001a28:	4298      	cmp	r0, r3
 8001a2a:	e92d 4ff0 	stmdb	sp!, {r4, r5, r6, r7, r8, r9, sl, fp, lr}
 8001a2e:	b083      	sub	sp, #12
 8001a30:	7812      	ldrb	r2, [r2, #0]
 8001a32:	f000 8083 	beq.w	8001b3c <HAL_DFSDM_FilterRegConvCpltCallback+0x118>
 8001a36:	4b9c      	ldr	r3, [pc, #624]	; (8001ca8 <HAL_DFSDM_FilterRegConvCpltCallback+0x284>)
 8001a38:	4298      	cmp	r0, r3
 8001a3a:	d019      	beq.n	8001a70 <HAL_DFSDM_FilterRegConvCpltCallback+0x4c>
 8001a3c:	4b9b      	ldr	r3, [pc, #620]	; (8001cac <HAL_DFSDM_FilterRegConvCpltCallback+0x288>)
 8001a3e:	2101      	movs	r1, #1
 8001a40:	4298      	cmp	r0, r3
 8001a42:	bf0c      	ite	eq
 8001a44:	4b9a      	ldreq	r3, [pc, #616]	; (8001cb0 <HAL_DFSDM_FilterRegConvCpltCallback+0x28c>)
 8001a46:	4b9b      	ldrne	r3, [pc, #620]	; (8001cb4 <HAL_DFSDM_FilterRegConvCpltCallback+0x290>)
 8001a48:	2a02      	cmp	r2, #2
 8001a4a:	6019      	str	r1, [r3, #0]
 8001a4c:	4b9a      	ldr	r3, [pc, #616]	; (8001cb8 <HAL_DFSDM_FilterRegConvCpltCallback+0x294>)
 8001a4e:	6819      	ldr	r1, [r3, #0]
 8001a50:	d915      	bls.n	8001a7e <HAL_DFSDM_FilterRegConvCpltCallback+0x5a>
 8001a52:	2901      	cmp	r1, #1
 8001a54:	d077      	beq.n	8001b46 <HAL_DFSDM_FilterRegConvCpltCallback+0x122>
 8001a56:	4d99      	ldr	r5, [pc, #612]	; (8001cbc <HAL_DFSDM_FilterRegConvCpltCallback+0x298>)
 8001a58:	4c99      	ldr	r4, [pc, #612]	; (8001cc0 <HAL_DFSDM_FilterRegConvCpltCallback+0x29c>)
 8001a5a:	686b      	ldr	r3, [r5, #4]
 8001a5c:	6822      	ldr	r2, [r4, #0]
 8001a5e:	ebb2 0f53 	cmp.w	r2, r3, lsr #1
 8001a62:	d056      	beq.n	8001b12 <HAL_DFSDM_FilterRegConvCpltCallback+0xee>
 8001a64:	6822      	ldr	r2, [r4, #0]
 8001a66:	429a      	cmp	r2, r3
 8001a68:	d05f      	beq.n	8001b2a <HAL_DFSDM_FilterRegConvCpltCallback+0x106>
 8001a6a:	b003      	add	sp, #12
 8001a6c:	e8bd 8ff0 	ldmia.w	sp!, {r4, r5, r6, r7, r8, r9, sl, fp, pc}
 8001a70:	4b94      	ldr	r3, [pc, #592]	; (8001cc4 <HAL_DFSDM_FilterRegConvCpltCallback+0x2a0>)
 8001a72:	2101      	movs	r1, #1
 8001a74:	2a02      	cmp	r2, #2
 8001a76:	6019      	str	r1, [r3, #0]
 8001a78:	4b8f      	ldr	r3, [pc, #572]	; (8001cb8 <HAL_DFSDM_FilterRegConvCpltCallback+0x294>)
 8001a7a:	6819      	ldr	r1, [r3, #0]
 8001a7c:	d8e9      	bhi.n	8001a52 <HAL_DFSDM_FilterRegConvCpltCallback+0x2e>
 8001a7e:	2901      	cmp	r1, #1
 8001a80:	d1e9      	bne.n	8001a56 <HAL_DFSDM_FilterRegConvCpltCallback+0x32>
 8001a82:	4a90      	ldr	r2, [pc, #576]	; (8001cc4 <HAL_DFSDM_FilterRegConvCpltCallback+0x2a0>)
 8001a84:	6811      	ldr	r1, [r2, #0]
 8001a86:	2901      	cmp	r1, #1
 8001a88:	d1e5      	bne.n	8001a56 <HAL_DFSDM_FilterRegConvCpltCallback+0x32>
 8001a8a:	498f      	ldr	r1, [pc, #572]	; (8001cc8 <HAL_DFSDM_FilterRegConvCpltCallback+0x2a4>)
 8001a8c:	680f      	ldr	r7, [r1, #0]
 8001a8e:	6808      	ldr	r0, [r1, #0]
 8001a90:	2f00      	cmp	r7, #0
 8001a92:	bfb8      	it	lt
 8001a94:	3701      	addlt	r7, #1
 8001a96:	107f      	asrs	r7, r7, #1
 8001a98:	4287      	cmp	r7, r0
 8001a9a:	f080 80cf 	bcs.w	8001c3c <HAL_DFSDM_FilterRegConvCpltCallback+0x218>
 8001a9e:	f06f 4040 	mvn.w	r0, #3221225472	; 0xc0000000
 8001aa2:	4c8a      	ldr	r4, [pc, #552]	; (8001ccc <HAL_DFSDM_FilterRegConvCpltCallback+0x2a8>)
 8001aa4:	4d85      	ldr	r5, [pc, #532]	; (8001cbc <HAL_DFSDM_FilterRegConvCpltCallback+0x298>)
 8001aa6:	f647 7bf8 	movw	fp, #32760	; 0x7ff8
 8001aaa:	4438      	add	r0, r7
 8001aac:	f8df 8224 	ldr.w	r8, [pc, #548]	; 8001cd4 <HAL_DFSDM_FilterRegConvCpltCallback+0x2b0>
 8001ab0:	f8d5 9000 	ldr.w	r9, [r5]
 8001ab4:	468a      	mov	sl, r1
 8001ab6:	0080      	lsls	r0, r0, #2
 8001ab8:	e9d4 6e00 	ldrd	r6, lr, [r4]
 8001abc:	4c80      	ldr	r4, [pc, #512]	; (8001cc0 <HAL_DFSDM_FilterRegConvCpltCallback+0x29c>)
 8001abe:	4486      	add	lr, r0
 8001ac0:	eb06 0c00 	add.w	ip, r6, r0
 8001ac4:	e01d      	b.n	8001b02 <HAL_DFSDM_FilterRegConvCpltCallback+0xde>
 8001ac6:	455e      	cmp	r6, fp
 8001ac8:	f300 80c4 	bgt.w	8001c54 <HAL_DFSDM_FilterRegConvCpltCallback+0x230>
 8001acc:	b2b6      	uxth	r6, r6
 8001ace:	f85c 0f04 	ldr.w	r0, [ip, #4]!
 8001ad2:	6821      	ldr	r1, [r4, #0]
 8001ad4:	1200      	asrs	r0, r0, #8
 8001ad6:	f829 6011 	strh.w	r6, [r9, r1, lsl #1]
 8001ada:	4540      	cmp	r0, r8
 8001adc:	f2c0 80b4 	blt.w	8001c48 <HAL_DFSDM_FilterRegConvCpltCallback+0x224>
 8001ae0:	4558      	cmp	r0, fp
 8001ae2:	f300 80b4 	bgt.w	8001c4e <HAL_DFSDM_FilterRegConvCpltCallback+0x22a>
 8001ae6:	b280      	uxth	r0, r0
 8001ae8:	6826      	ldr	r6, [r4, #0]
 8001aea:	3701      	adds	r7, #1
 8001aec:	6821      	ldr	r1, [r4, #0]
 8001aee:	3601      	adds	r6, #1
 8001af0:	3102      	adds	r1, #2
 8001af2:	f829 0016 	strh.w	r0, [r9, r6, lsl #1]
 8001af6:	6021      	str	r1, [r4, #0]
 8001af8:	f8da 1000 	ldr.w	r1, [sl]
 8001afc:	42b9      	cmp	r1, r7
 8001afe:	f240 809f 	bls.w	8001c40 <HAL_DFSDM_FilterRegConvCpltCallback+0x21c>
 8001b02:	f85e 6f04 	ldr.w	r6, [lr, #4]!
 8001b06:	1236      	asrs	r6, r6, #8
 8001b08:	4546      	cmp	r6, r8
 8001b0a:	dadc      	bge.n	8001ac6 <HAL_DFSDM_FilterRegConvCpltCallback+0xa2>
 8001b0c:	f248 0608 	movw	r6, #32776	; 0x8008
 8001b10:	e7dd      	b.n	8001ace <HAL_DFSDM_FilterRegConvCpltCallback+0xaa>
 8001b12:	4a6f      	ldr	r2, [pc, #444]	; (8001cd0 <HAL_DFSDM_FilterRegConvCpltCallback+0x2ac>)
 8001b14:	6811      	ldr	r1, [r2, #0]
 8001b16:	2900      	cmp	r1, #0
 8001b18:	d1a4      	bne.n	8001a64 <HAL_DFSDM_FilterRegConvCpltCallback+0x40>
 8001b1a:	2301      	movs	r3, #1
 8001b1c:	6013      	str	r3, [r2, #0]
 8001b1e:	f004 f87f 	bl	8005c20 <BSP_AUDIO_IN_HalfTransfer_CallBack>
 8001b22:	686b      	ldr	r3, [r5, #4]
 8001b24:	6822      	ldr	r2, [r4, #0]
 8001b26:	429a      	cmp	r2, r3
 8001b28:	d19f      	bne.n	8001a6a <HAL_DFSDM_FilterRegConvCpltCallback+0x46>
 8001b2a:	2300      	movs	r3, #0
 8001b2c:	4a68      	ldr	r2, [pc, #416]	; (8001cd0 <HAL_DFSDM_FilterRegConvCpltCallback+0x2ac>)
 8001b2e:	6023      	str	r3, [r4, #0]
 8001b30:	6013      	str	r3, [r2, #0]
 8001b32:	f004 f847 	bl	8005bc4 <BSP_AUDIO_IN_TransferComplete_CallBack>
 8001b36:	b003      	add	sp, #12
 8001b38:	e8bd 8ff0 	ldmia.w	sp!, {r4, r5, r6, r7, r8, r9, sl, fp, pc}
 8001b3c:	4b5e      	ldr	r3, [pc, #376]	; (8001cb8 <HAL_DFSDM_FilterRegConvCpltCallback+0x294>)
 8001b3e:	2101      	movs	r1, #1
 8001b40:	2a02      	cmp	r2, #2
 8001b42:	6019      	str	r1, [r3, #0]
 8001b44:	d99d      	bls.n	8001a82 <HAL_DFSDM_FilterRegConvCpltCallback+0x5e>
 8001b46:	4a5f      	ldr	r2, [pc, #380]	; (8001cc4 <HAL_DFSDM_FilterRegConvCpltCallback+0x2a0>)
 8001b48:	6811      	ldr	r1, [r2, #0]
 8001b4a:	2901      	cmp	r1, #1
 8001b4c:	d183      	bne.n	8001a56 <HAL_DFSDM_FilterRegConvCpltCallback+0x32>
 8001b4e:	f8df 8160 	ldr.w	r8, [pc, #352]	; 8001cb0 <HAL_DFSDM_FilterRegConvCpltCallback+0x28c>
 8001b52:	f8d8 1000 	ldr.w	r1, [r8]
 8001b56:	2901      	cmp	r1, #1
 8001b58:	f47f af7d 	bne.w	8001a56 <HAL_DFSDM_FilterRegConvCpltCallback+0x32>
 8001b5c:	4955      	ldr	r1, [pc, #340]	; (8001cb4 <HAL_DFSDM_FilterRegConvCpltCallback+0x290>)
 8001b5e:	6809      	ldr	r1, [r1, #0]
 8001b60:	2901      	cmp	r1, #1
 8001b62:	f47f af78 	bne.w	8001a56 <HAL_DFSDM_FilterRegConvCpltCallback+0x32>
 8001b66:	4958      	ldr	r1, [pc, #352]	; (8001cc8 <HAL_DFSDM_FilterRegConvCpltCallback+0x2a4>)
 8001b68:	6808      	ldr	r0, [r1, #0]
 8001b6a:	2800      	cmp	r0, #0
 8001b6c:	bfb8      	it	lt
 8001b6e:	3001      	addlt	r0, #1
 8001b70:	ea4f 0e60 	mov.w	lr, r0, asr #1
 8001b74:	6808      	ldr	r0, [r1, #0]
 8001b76:	4586      	cmp	lr, r0
 8001b78:	f080 808e 	bcs.w	8001c98 <HAL_DFSDM_FilterRegConvCpltCallback+0x274>
 8001b7c:	f06f 4040 	mvn.w	r0, #3221225472	; 0xc0000000
 8001b80:	4c52      	ldr	r4, [pc, #328]	; (8001ccc <HAL_DFSDM_FilterRegConvCpltCallback+0x2a8>)
 8001b82:	4d4e      	ldr	r5, [pc, #312]	; (8001cbc <HAL_DFSDM_FilterRegConvCpltCallback+0x298>)
 8001b84:	4470      	add	r0, lr
 8001b86:	68e6      	ldr	r6, [r4, #12]
 8001b88:	f8d5 c000 	ldr.w	ip, [r5]
 8001b8c:	0080      	lsls	r0, r0, #2
 8001b8e:	9500      	str	r5, [sp, #0]
 8001b90:	9301      	str	r3, [sp, #4]
 8001b92:	4406      	add	r6, r0
 8001b94:	e9d4 a701 	ldrd	sl, r7, [r4, #4]
 8001b98:	6824      	ldr	r4, [r4, #0]
 8001b9a:	eb07 0900 	add.w	r9, r7, r0
 8001b9e:	4482      	add	sl, r0
 8001ba0:	1820      	adds	r0, r4, r0
 8001ba2:	4f4c      	ldr	r7, [pc, #304]	; (8001cd4 <HAL_DFSDM_FilterRegConvCpltCallback+0x2b0>)
 8001ba4:	4c46      	ldr	r4, [pc, #280]	; (8001cc0 <HAL_DFSDM_FilterRegConvCpltCallback+0x29c>)
 8001ba6:	4605      	mov	r5, r0
 8001ba8:	e040      	b.n	8001c2c <HAL_DFSDM_FilterRegConvCpltCallback+0x208>
 8001baa:	f647 73f8 	movw	r3, #32760	; 0x7ff8
 8001bae:	4298      	cmp	r0, r3
 8001bb0:	dc5f      	bgt.n	8001c72 <HAL_DFSDM_FilterRegConvCpltCallback+0x24e>
 8001bb2:	b280      	uxth	r0, r0
 8001bb4:	f855 3f04 	ldr.w	r3, [r5, #4]!
 8001bb8:	f8d4 b000 	ldr.w	fp, [r4]
 8001bbc:	121b      	asrs	r3, r3, #8
 8001bbe:	f82c 001b 	strh.w	r0, [ip, fp, lsl #1]
 8001bc2:	42bb      	cmp	r3, r7
 8001bc4:	db4f      	blt.n	8001c66 <HAL_DFSDM_FilterRegConvCpltCallback+0x242>
 8001bc6:	f647 70f8 	movw	r0, #32760	; 0x7ff8
 8001bca:	4283      	cmp	r3, r0
 8001bcc:	dc4e      	bgt.n	8001c6c <HAL_DFSDM_FilterRegConvCpltCallback+0x248>
 8001bce:	b29b      	uxth	r3, r3
 8001bd0:	f856 0f04 	ldr.w	r0, [r6, #4]!
 8001bd4:	f8d4 b000 	ldr.w	fp, [r4]
 8001bd8:	1200      	asrs	r0, r0, #8
 8001bda:	f10b 0b01 	add.w	fp, fp, #1
 8001bde:	42b8      	cmp	r0, r7
 8001be0:	f82c 301b 	strh.w	r3, [ip, fp, lsl #1]
 8001be4:	db3c      	blt.n	8001c60 <HAL_DFSDM_FilterRegConvCpltCallback+0x23c>
 8001be6:	f647 73f8 	movw	r3, #32760	; 0x7ff8
 8001bea:	4298      	cmp	r0, r3
 8001bec:	dc44      	bgt.n	8001c78 <HAL_DFSDM_FilterRegConvCpltCallback+0x254>
 8001bee:	b280      	uxth	r0, r0
 8001bf0:	f859 3f04 	ldr.w	r3, [r9, #4]!
 8001bf4:	f8d4 b000 	ldr.w	fp, [r4]
 8001bf8:	121b      	asrs	r3, r3, #8
 8001bfa:	f10b 0b02 	add.w	fp, fp, #2
 8001bfe:	42bb      	cmp	r3, r7
 8001c00:	f82c 001b 	strh.w	r0, [ip, fp, lsl #1]
 8001c04:	db29      	blt.n	8001c5a <HAL_DFSDM_FilterRegConvCpltCallback+0x236>
 8001c06:	f647 70f8 	movw	r0, #32760	; 0x7ff8
 8001c0a:	4283      	cmp	r3, r0
 8001c0c:	dc37      	bgt.n	8001c7e <HAL_DFSDM_FilterRegConvCpltCallback+0x25a>
 8001c0e:	b29b      	uxth	r3, r3
 8001c10:	f8d4 b000 	ldr.w	fp, [r4]
 8001c14:	f10e 0e01 	add.w	lr, lr, #1
 8001c18:	6820      	ldr	r0, [r4, #0]
 8001c1a:	f10b 0b03 	add.w	fp, fp, #3
 8001c1e:	3004      	adds	r0, #4
 8001c20:	f82c 301b 	strh.w	r3, [ip, fp, lsl #1]
 8001c24:	6020      	str	r0, [r4, #0]
 8001c26:	680b      	ldr	r3, [r1, #0]
 8001c28:	4573      	cmp	r3, lr
 8001c2a:	d92b      	bls.n	8001c84 <HAL_DFSDM_FilterRegConvCpltCallback+0x260>
 8001c2c:	f85a 0f04 	ldr.w	r0, [sl, #4]!
 8001c30:	1200      	asrs	r0, r0, #8
 8001c32:	42b8      	cmp	r0, r7
 8001c34:	dab9      	bge.n	8001baa <HAL_DFSDM_FilterRegConvCpltCallback+0x186>
 8001c36:	f248 0008 	movw	r0, #32776	; 0x8008
 8001c3a:	e7bb      	b.n	8001bb4 <HAL_DFSDM_FilterRegConvCpltCallback+0x190>
 8001c3c:	4d1f      	ldr	r5, [pc, #124]	; (8001cbc <HAL_DFSDM_FilterRegConvCpltCallback+0x298>)
 8001c3e:	4c20      	ldr	r4, [pc, #128]	; (8001cc0 <HAL_DFSDM_FilterRegConvCpltCallback+0x29c>)
 8001c40:	2100      	movs	r1, #0
 8001c42:	6019      	str	r1, [r3, #0]
 8001c44:	6011      	str	r1, [r2, #0]
 8001c46:	e708      	b.n	8001a5a <HAL_DFSDM_FilterRegConvCpltCallback+0x36>
 8001c48:	f248 0008 	movw	r0, #32776	; 0x8008
 8001c4c:	e74c      	b.n	8001ae8 <HAL_DFSDM_FilterRegConvCpltCallback+0xc4>
 8001c4e:	f647 70f8 	movw	r0, #32760	; 0x7ff8
 8001c52:	e749      	b.n	8001ae8 <HAL_DFSDM_FilterRegConvCpltCallback+0xc4>
 8001c54:	f647 76f8 	movw	r6, #32760	; 0x7ff8
 8001c58:	e739      	b.n	8001ace <HAL_DFSDM_FilterRegConvCpltCallback+0xaa>
 8001c5a:	f248 0308 	movw	r3, #32776	; 0x8008
 8001c5e:	e7d7      	b.n	8001c10 <HAL_DFSDM_FilterRegConvCpltCallback+0x1ec>
 8001c60:	f248 0008 	movw	r0, #32776	; 0x8008
 8001c64:	e7c4      	b.n	8001bf0 <HAL_DFSDM_FilterRegConvCpltCallback+0x1cc>
 8001c66:	f248 0308 	movw	r3, #32776	; 0x8008
 8001c6a:	e7b1      	b.n	8001bd0 <HAL_DFSDM_FilterRegConvCpltCallback+0x1ac>
 8001c6c:	f647 73f8 	movw	r3, #32760	; 0x7ff8
 8001c70:	e7ae      	b.n	8001bd0 <HAL_DFSDM_FilterRegConvCpltCallback+0x1ac>
 8001c72:	f647 70f8 	movw	r0, #32760	; 0x7ff8
 8001c76:	e79d      	b.n	8001bb4 <HAL_DFSDM_FilterRegConvCpltCallback+0x190>
 8001c78:	f647 70f8 	movw	r0, #32760	; 0x7ff8
 8001c7c:	e7b8      	b.n	8001bf0 <HAL_DFSDM_FilterRegConvCpltCallback+0x1cc>
 8001c7e:	f647 73f8 	movw	r3, #32760	; 0x7ff8
 8001c82:	e7c5      	b.n	8001c10 <HAL_DFSDM_FilterRegConvCpltCallback+0x1ec>
 8001c84:	e9dd 5300 	ldrd	r5, r3, [sp]
 8001c88:	2100      	movs	r1, #0
 8001c8a:	6019      	str	r1, [r3, #0]
 8001c8c:	4b09      	ldr	r3, [pc, #36]	; (8001cb4 <HAL_DFSDM_FilterRegConvCpltCallback+0x290>)
 8001c8e:	6011      	str	r1, [r2, #0]
 8001c90:	f8c8 1000 	str.w	r1, [r8]
 8001c94:	6019      	str	r1, [r3, #0]
 8001c96:	e6e0      	b.n	8001a5a <HAL_DFSDM_FilterRegConvCpltCallback+0x36>
 8001c98:	4d08      	ldr	r5, [pc, #32]	; (8001cbc <HAL_DFSDM_FilterRegConvCpltCallback+0x298>)
 8001c9a:	4c09      	ldr	r4, [pc, #36]	; (8001cc0 <HAL_DFSDM_FilterRegConvCpltCallback+0x29c>)
 8001c9c:	e7f4      	b.n	8001c88 <HAL_DFSDM_FilterRegConvCpltCallback+0x264>
 8001c9e:	bf00      	nop
 8001ca0:	2000da98 	.word	0x2000da98
 8001ca4:	20000044 	.word	0x20000044
 8001ca8:	2000dcb4 	.word	0x2000dcb4
 8001cac:	2000dc28 	.word	0x2000dc28
 8001cb0:	2000017c 	.word	0x2000017c
 8001cb4:	20000184 	.word	0x20000184
 8001cb8:	2000018c 	.word	0x2000018c
 8001cbc:	2000daec 	.word	0x2000daec
 8001cc0:	20000174 	.word	0x20000174
 8001cc4:	20000194 	.word	0x20000194
 8001cc8:	2000019c 	.word	0x2000019c
 8001ccc:	20000260 	.word	0x20000260
 8001cd0:	20000170 	.word	0x20000170
 8001cd4:	ffff8008 	.word	0xffff8008

08001cd8 <HAL_DFSDM_FilterRegConvHalfCpltCallback>:
 8001cd8:	4b9d      	ldr	r3, [pc, #628]	; (8001f50 <HAL_DFSDM_FilterRegConvHalfCpltCallback+0x278>)
 8001cda:	4a9e      	ldr	r2, [pc, #632]	; (8001f54 <HAL_DFSDM_FilterRegConvHalfCpltCallback+0x27c>)
 8001cdc:	4298      	cmp	r0, r3
 8001cde:	e92d 4ff0 	stmdb	sp!, {r4, r5, r6, r7, r8, r9, sl, fp, lr}
 8001ce2:	b083      	sub	sp, #12
 8001ce4:	7812      	ldrb	r2, [r2, #0]
 8001ce6:	f000 8083 	beq.w	8001df0 <HAL_DFSDM_FilterRegConvHalfCpltCallback+0x118>
 8001cea:	4b9b      	ldr	r3, [pc, #620]	; (8001f58 <HAL_DFSDM_FilterRegConvHalfCpltCallback+0x280>)
 8001cec:	4298      	cmp	r0, r3
 8001cee:	d019      	beq.n	8001d24 <HAL_DFSDM_FilterRegConvHalfCpltCallback+0x4c>
 8001cf0:	4b9a      	ldr	r3, [pc, #616]	; (8001f5c <HAL_DFSDM_FilterRegConvHalfCpltCallback+0x284>)
 8001cf2:	2101      	movs	r1, #1
 8001cf4:	4298      	cmp	r0, r3
 8001cf6:	bf0c      	ite	eq
 8001cf8:	4b99      	ldreq	r3, [pc, #612]	; (8001f60 <HAL_DFSDM_FilterRegConvHalfCpltCallback+0x288>)
 8001cfa:	4b9a      	ldrne	r3, [pc, #616]	; (8001f64 <HAL_DFSDM_FilterRegConvHalfCpltCallback+0x28c>)
 8001cfc:	2a02      	cmp	r2, #2
 8001cfe:	6019      	str	r1, [r3, #0]
 8001d00:	4b99      	ldr	r3, [pc, #612]	; (8001f68 <HAL_DFSDM_FilterRegConvHalfCpltCallback+0x290>)
 8001d02:	6819      	ldr	r1, [r3, #0]
 8001d04:	d915      	bls.n	8001d32 <HAL_DFSDM_FilterRegConvHalfCpltCallback+0x5a>
 8001d06:	2901      	cmp	r1, #1
 8001d08:	d077      	beq.n	8001dfa <HAL_DFSDM_FilterRegConvHalfCpltCallback+0x122>
 8001d0a:	4d98      	ldr	r5, [pc, #608]	; (8001f6c <HAL_DFSDM_FilterRegConvHalfCpltCallback+0x294>)
 8001d0c:	4c98      	ldr	r4, [pc, #608]	; (8001f70 <HAL_DFSDM_FilterRegConvHalfCpltCallback+0x298>)
 8001d0e:	686b      	ldr	r3, [r5, #4]
 8001d10:	6822      	ldr	r2, [r4, #0]
 8001d12:	ebb2 0f53 	cmp.w	r2, r3, lsr #1
 8001d16:	d056      	beq.n	8001dc6 <HAL_DFSDM_FilterRegConvHalfCpltCallback+0xee>
 8001d18:	6822      	ldr	r2, [r4, #0]
 8001d1a:	429a      	cmp	r2, r3
 8001d1c:	d05f      	beq.n	8001dde <HAL_DFSDM_FilterRegConvHalfCpltCallback+0x106>
 8001d1e:	b003      	add	sp, #12
 8001d20:	e8bd 8ff0 	ldmia.w	sp!, {r4, r5, r6, r7, r8, r9, sl, fp, pc}
 8001d24:	4b93      	ldr	r3, [pc, #588]	; (8001f74 <HAL_DFSDM_FilterRegConvHalfCpltCallback+0x29c>)
 8001d26:	2101      	movs	r1, #1
 8001d28:	2a02      	cmp	r2, #2
 8001d2a:	6019      	str	r1, [r3, #0]
 8001d2c:	4b8e      	ldr	r3, [pc, #568]	; (8001f68 <HAL_DFSDM_FilterRegConvHalfCpltCallback+0x290>)
 8001d2e:	6819      	ldr	r1, [r3, #0]
 8001d30:	d8e9      	bhi.n	8001d06 <HAL_DFSDM_FilterRegConvHalfCpltCallback+0x2e>
 8001d32:	2901      	cmp	r1, #1
 8001d34:	d1e9      	bne.n	8001d0a <HAL_DFSDM_FilterRegConvHalfCpltCallback+0x32>
 8001d36:	4a8f      	ldr	r2, [pc, #572]	; (8001f74 <HAL_DFSDM_FilterRegConvHalfCpltCallback+0x29c>)
 8001d38:	6811      	ldr	r1, [r2, #0]
 8001d3a:	2901      	cmp	r1, #1
 8001d3c:	d1e5      	bne.n	8001d0a <HAL_DFSDM_FilterRegConvHalfCpltCallback+0x32>
 8001d3e:	498e      	ldr	r1, [pc, #568]	; (8001f78 <HAL_DFSDM_FilterRegConvHalfCpltCallback+0x2a0>)
 8001d40:	6808      	ldr	r0, [r1, #0]
 8001d42:	2800      	cmp	r0, #0
 8001d44:	bfb8      	it	lt
 8001d46:	3001      	addlt	r0, #1
 8001d48:	0840      	lsrs	r0, r0, #1
 8001d4a:	f000 80d0 	beq.w	8001eee <HAL_DFSDM_FilterRegConvHalfCpltCallback+0x216>
 8001d4e:	488b      	ldr	r0, [pc, #556]	; (8001f7c <HAL_DFSDM_FilterRegConvHalfCpltCallback+0x2a4>)
 8001d50:	2700      	movs	r7, #0
 8001d52:	4d86      	ldr	r5, [pc, #536]	; (8001f6c <HAL_DFSDM_FilterRegConvHalfCpltCallback+0x294>)
 8001d54:	f647 7bf8 	movw	fp, #32760	; 0x7ff8
 8001d58:	f8df 8228 	ldr.w	r8, [pc, #552]	; 8001f84 <HAL_DFSDM_FilterRegConvHalfCpltCallback+0x2ac>
 8001d5c:	468a      	mov	sl, r1
 8001d5e:	f8d5 9000 	ldr.w	r9, [r5]
 8001d62:	e9d0 0400 	ldrd	r0, r4, [r0]
 8001d66:	f1a4 0e04 	sub.w	lr, r4, #4
 8001d6a:	f1a0 0c04 	sub.w	ip, r0, #4
 8001d6e:	4c80      	ldr	r4, [pc, #512]	; (8001f70 <HAL_DFSDM_FilterRegConvHalfCpltCallback+0x298>)
 8001d70:	e021      	b.n	8001db6 <HAL_DFSDM_FilterRegConvHalfCpltCallback+0xde>
 8001d72:	455e      	cmp	r6, fp
 8001d74:	f300 80c7 	bgt.w	8001f06 <HAL_DFSDM_FilterRegConvHalfCpltCallback+0x22e>
 8001d78:	b2b6      	uxth	r6, r6
 8001d7a:	f85c 0f04 	ldr.w	r0, [ip, #4]!
 8001d7e:	6821      	ldr	r1, [r4, #0]
 8001d80:	1200      	asrs	r0, r0, #8
 8001d82:	f829 6011 	strh.w	r6, [r9, r1, lsl #1]
 8001d86:	4540      	cmp	r0, r8
 8001d88:	f2c0 80b7 	blt.w	8001efa <HAL_DFSDM_FilterRegConvHalfCpltCallback+0x222>
 8001d8c:	4558      	cmp	r0, fp
 8001d8e:	f300 80b7 	bgt.w	8001f00 <HAL_DFSDM_FilterRegConvHalfCpltCallback+0x228>
 8001d92:	b280      	uxth	r0, r0
 8001d94:	6826      	ldr	r6, [r4, #0]
 8001d96:	3701      	adds	r7, #1
 8001d98:	6821      	ldr	r1, [r4, #0]
 8001d9a:	3601      	adds	r6, #1
 8001d9c:	3102      	adds	r1, #2
 8001d9e:	f829 0016 	strh.w	r0, [r9, r6, lsl #1]
 8001da2:	6021      	str	r1, [r4, #0]
 8001da4:	f8da 1000 	ldr.w	r1, [sl]
 8001da8:	2900      	cmp	r1, #0
 8001daa:	bfb8      	it	lt
 8001dac:	3101      	addlt	r1, #1
 8001dae:	ebb7 0f61 	cmp.w	r7, r1, asr #1
 8001db2:	f080 809e 	bcs.w	8001ef2 <HAL_DFSDM_FilterRegConvHalfCpltCallback+0x21a>
 8001db6:	f85e 6f04 	ldr.w	r6, [lr, #4]!
 8001dba:	1236      	asrs	r6, r6, #8
 8001dbc:	4546      	cmp	r6, r8
 8001dbe:	dad8      	bge.n	8001d72 <HAL_DFSDM_FilterRegConvHalfCpltCallback+0x9a>
 8001dc0:	f248 0608 	movw	r6, #32776	; 0x8008
 8001dc4:	e7d9      	b.n	8001d7a <HAL_DFSDM_FilterRegConvHalfCpltCallback+0xa2>
 8001dc6:	4a6e      	ldr	r2, [pc, #440]	; (8001f80 <HAL_DFSDM_FilterRegConvHalfCpltCallback+0x2a8>)
 8001dc8:	6811      	ldr	r1, [r2, #0]
 8001dca:	2900      	cmp	r1, #0
 8001dcc:	d1a4      	bne.n	8001d18 <HAL_DFSDM_FilterRegConvHalfCpltCallback+0x40>
 8001dce:	2301      	movs	r3, #1
 8001dd0:	6013      	str	r3, [r2, #0]
 8001dd2:	f003 ff25 	bl	8005c20 <BSP_AUDIO_IN_HalfTransfer_CallBack>
 8001dd6:	686b      	ldr	r3, [r5, #4]
 8001dd8:	6822      	ldr	r2, [r4, #0]
 8001dda:	429a      	cmp	r2, r3
 8001ddc:	d19f      	bne.n	8001d1e <HAL_DFSDM_FilterRegConvHalfCpltCallback+0x46>
 8001dde:	2300      	movs	r3, #0
 8001de0:	4a67      	ldr	r2, [pc, #412]	; (8001f80 <HAL_DFSDM_FilterRegConvHalfCpltCallback+0x2a8>)
 8001de2:	6023      	str	r3, [r4, #0]
 8001de4:	6013      	str	r3, [r2, #0]
 8001de6:	f003 feed 	bl	8005bc4 <BSP_AUDIO_IN_TransferComplete_CallBack>
 8001dea:	b003      	add	sp, #12
 8001dec:	e8bd 8ff0 	ldmia.w	sp!, {r4, r5, r6, r7, r8, r9, sl, fp, pc}
 8001df0:	4b5d      	ldr	r3, [pc, #372]	; (8001f68 <HAL_DFSDM_FilterRegConvHalfCpltCallback+0x290>)
 8001df2:	2101      	movs	r1, #1
 8001df4:	2a02      	cmp	r2, #2
 8001df6:	6019      	str	r1, [r3, #0]
 8001df8:	d99d      	bls.n	8001d36 <HAL_DFSDM_FilterRegConvHalfCpltCallback+0x5e>
 8001dfa:	4a5e      	ldr	r2, [pc, #376]	; (8001f74 <HAL_DFSDM_FilterRegConvHalfCpltCallback+0x29c>)
 8001dfc:	6811      	ldr	r1, [r2, #0]
 8001dfe:	2901      	cmp	r1, #1
 8001e00:	d183      	bne.n	8001d0a <HAL_DFSDM_FilterRegConvHalfCpltCallback+0x32>
 8001e02:	f8df e15c 	ldr.w	lr, [pc, #348]	; 8001f60 <HAL_DFSDM_FilterRegConvHalfCpltCallback+0x288>
 8001e06:	f8de 1000 	ldr.w	r1, [lr]
 8001e0a:	2901      	cmp	r1, #1
 8001e0c:	f47f af7d 	bne.w	8001d0a <HAL_DFSDM_FilterRegConvHalfCpltCallback+0x32>
 8001e10:	4954      	ldr	r1, [pc, #336]	; (8001f64 <HAL_DFSDM_FilterRegConvHalfCpltCallback+0x28c>)
 8001e12:	6809      	ldr	r1, [r1, #0]
 8001e14:	2901      	cmp	r1, #1
 8001e16:	f47f af78 	bne.w	8001d0a <HAL_DFSDM_FilterRegConvHalfCpltCallback+0x32>
 8001e1a:	4957      	ldr	r1, [pc, #348]	; (8001f78 <HAL_DFSDM_FilterRegConvHalfCpltCallback+0x2a0>)
 8001e1c:	6808      	ldr	r0, [r1, #0]
 8001e1e:	2800      	cmp	r0, #0
 8001e20:	bfb8      	it	lt
 8001e22:	3001      	addlt	r0, #1
 8001e24:	0840      	lsrs	r0, r0, #1
 8001e26:	f000 8090 	beq.w	8001f4a <HAL_DFSDM_FilterRegConvHalfCpltCallback+0x272>
 8001e2a:	4c54      	ldr	r4, [pc, #336]	; (8001f7c <HAL_DFSDM_FilterRegConvHalfCpltCallback+0x2a4>)
 8001e2c:	f04f 0800 	mov.w	r8, #0
 8001e30:	4d4e      	ldr	r5, [pc, #312]	; (8001f6c <HAL_DFSDM_FilterRegConvHalfCpltCallback+0x294>)
 8001e32:	68e6      	ldr	r6, [r4, #12]
 8001e34:	f8d5 c000 	ldr.w	ip, [r5]
 8001e38:	3e04      	subs	r6, #4
 8001e3a:	e9d4 0701 	ldrd	r0, r7, [r4, #4]
 8001e3e:	e9cd 3200 	strd	r3, r2, [sp]
 8001e42:	f1a0 0a04 	sub.w	sl, r0, #4
 8001e46:	6820      	ldr	r0, [r4, #0]
 8001e48:	f1a7 0904 	sub.w	r9, r7, #4
 8001e4c:	4c48      	ldr	r4, [pc, #288]	; (8001f70 <HAL_DFSDM_FilterRegConvHalfCpltCallback+0x298>)
 8001e4e:	3804      	subs	r0, #4
 8001e50:	4f4c      	ldr	r7, [pc, #304]	; (8001f84 <HAL_DFSDM_FilterRegConvHalfCpltCallback+0x2ac>)
 8001e52:	e044      	b.n	8001ede <HAL_DFSDM_FilterRegConvHalfCpltCallback+0x206>
 8001e54:	f647 73f8 	movw	r3, #32760	; 0x7ff8
 8001e58:	429a      	cmp	r2, r3
 8001e5a:	dc63      	bgt.n	8001f24 <HAL_DFSDM_FilterRegConvHalfCpltCallback+0x24c>
 8001e5c:	b292      	uxth	r2, r2
 8001e5e:	f850 3f04 	ldr.w	r3, [r0, #4]!
 8001e62:	f8d4 b000 	ldr.w	fp, [r4]
 8001e66:	121b      	asrs	r3, r3, #8
 8001e68:	f82c 201b 	strh.w	r2, [ip, fp, lsl #1]
 8001e6c:	42bb      	cmp	r3, r7
 8001e6e:	db53      	blt.n	8001f18 <HAL_DFSDM_FilterRegConvHalfCpltCallback+0x240>
 8001e70:	f647 72f8 	movw	r2, #32760	; 0x7ff8
 8001e74:	4293      	cmp	r3, r2
 8001e76:	dc52      	bgt.n	8001f1e <HAL_DFSDM_FilterRegConvHalfCpltCallback+0x246>
 8001e78:	b29b      	uxth	r3, r3
 8001e7a:	f856 2f04 	ldr.w	r2, [r6, #4]!
 8001e7e:	f8d4 b000 	ldr.w	fp, [r4]
 8001e82:	1212      	asrs	r2, r2, #8
 8001e84:	f10b 0b01 	add.w	fp, fp, #1
 8001e88:	42ba      	cmp	r2, r7
 8001e8a:	f82c 301b 	strh.w	r3, [ip, fp, lsl #1]
 8001e8e:	db40      	blt.n	8001f12 <HAL_DFSDM_FilterRegConvHalfCpltCallback+0x23a>
 8001e90:	f647 73f8 	movw	r3, #32760	; 0x7ff8
 8001e94:	429a      	cmp	r2, r3
 8001e96:	dc48      	bgt.n	8001f2a <HAL_DFSDM_FilterRegConvHalfCpltCallback+0x252>
 8001e98:	b292      	uxth	r2, r2
 8001e9a:	f859 3f04 	ldr.w	r3, [r9, #4]!
 8001e9e:	f8d4 b000 	ldr.w	fp, [r4]
 8001ea2:	121b      	asrs	r3, r3, #8
 8001ea4:	f10b 0b02 	add.w	fp, fp, #2
 8001ea8:	42bb      	cmp	r3, r7
 8001eaa:	f82c 201b 	strh.w	r2, [ip, fp, lsl #1]
 8001eae:	db2d      	blt.n	8001f0c <HAL_DFSDM_FilterRegConvHalfCpltCallback+0x234>
 8001eb0:	f647 72f8 	movw	r2, #32760	; 0x7ff8
 8001eb4:	4293      	cmp	r3, r2
 8001eb6:	dc3b      	bgt.n	8001f30 <HAL_DFSDM_FilterRegConvHalfCpltCallback+0x258>
 8001eb8:	b29b      	uxth	r3, r3
 8001eba:	f8d4 b000 	ldr.w	fp, [r4]
 8001ebe:	f108 0801 	add.w	r8, r8, #1
 8001ec2:	6822      	ldr	r2, [r4, #0]
 8001ec4:	f10b 0b03 	add.w	fp, fp, #3
 8001ec8:	3204      	adds	r2, #4
 8001eca:	f82c 301b 	strh.w	r3, [ip, fp, lsl #1]
 8001ece:	6022      	str	r2, [r4, #0]
 8001ed0:	680b      	ldr	r3, [r1, #0]
 8001ed2:	2b00      	cmp	r3, #0
 8001ed4:	bfb8      	it	lt
 8001ed6:	3301      	addlt	r3, #1
 8001ed8:	ebb8 0f63 	cmp.w	r8, r3, asr #1
 8001edc:	d22b      	bcs.n	8001f36 <HAL_DFSDM_FilterRegConvHalfCpltCallback+0x25e>
 8001ede:	f85a 2f04 	ldr.w	r2, [sl, #4]!
 8001ee2:	1212      	asrs	r2, r2, #8
 8001ee4:	42ba      	cmp	r2, r7
 8001ee6:	dab5      	bge.n	8001e54 <HAL_DFSDM_FilterRegConvHalfCpltCallback+0x17c>
 8001ee8:	f248 0208 	movw	r2, #32776	; 0x8008
 8001eec:	e7b7      	b.n	8001e5e <HAL_DFSDM_FilterRegConvHalfCpltCallback+0x186>
 8001eee:	4d1f      	ldr	r5, [pc, #124]	; (8001f6c <HAL_DFSDM_FilterRegConvHalfCpltCallback+0x294>)
 8001ef0:	4c1f      	ldr	r4, [pc, #124]	; (8001f70 <HAL_DFSDM_FilterRegConvHalfCpltCallback+0x298>)
 8001ef2:	2100      	movs	r1, #0
 8001ef4:	6019      	str	r1, [r3, #0]
 8001ef6:	6011      	str	r1, [r2, #0]
 8001ef8:	e709      	b.n	8001d0e <HAL_DFSDM_FilterRegConvHalfCpltCallback+0x36>
 8001efa:	f248 0008 	movw	r0, #32776	; 0x8008
 8001efe:	e749      	b.n	8001d94 <HAL_DFSDM_FilterRegConvHalfCpltCallback+0xbc>
 8001f00:	f647 70f8 	movw	r0, #32760	; 0x7ff8
 8001f04:	e746      	b.n	8001d94 <HAL_DFSDM_FilterRegConvHalfCpltCallback+0xbc>
 8001f06:	f647 76f8 	movw	r6, #32760	; 0x7ff8
 8001f0a:	e736      	b.n	8001d7a <HAL_DFSDM_FilterRegConvHalfCpltCallback+0xa2>
 8001f0c:	f248 0308 	movw	r3, #32776	; 0x8008
 8001f10:	e7d3      	b.n	8001eba <HAL_DFSDM_FilterRegConvHalfCpltCallback+0x1e2>
 8001f12:	f248 0208 	movw	r2, #32776	; 0x8008
 8001f16:	e7c0      	b.n	8001e9a <HAL_DFSDM_FilterRegConvHalfCpltCallback+0x1c2>
 8001f18:	f248 0308 	movw	r3, #32776	; 0x8008
 8001f1c:	e7ad      	b.n	8001e7a <HAL_DFSDM_FilterRegConvHalfCpltCallback+0x1a2>
 8001f1e:	f647 73f8 	movw	r3, #32760	; 0x7ff8
 8001f22:	e7aa      	b.n	8001e7a <HAL_DFSDM_FilterRegConvHalfCpltCallback+0x1a2>
 8001f24:	f647 72f8 	movw	r2, #32760	; 0x7ff8
 8001f28:	e799      	b.n	8001e5e <HAL_DFSDM_FilterRegConvHalfCpltCallback+0x186>
 8001f2a:	f647 72f8 	movw	r2, #32760	; 0x7ff8
 8001f2e:	e7b4      	b.n	8001e9a <HAL_DFSDM_FilterRegConvHalfCpltCallback+0x1c2>
 8001f30:	f647 73f8 	movw	r3, #32760	; 0x7ff8
 8001f34:	e7c1      	b.n	8001eba <HAL_DFSDM_FilterRegConvHalfCpltCallback+0x1e2>
 8001f36:	e9dd 3200 	ldrd	r3, r2, [sp]
 8001f3a:	2100      	movs	r1, #0
 8001f3c:	6019      	str	r1, [r3, #0]
 8001f3e:	4b09      	ldr	r3, [pc, #36]	; (8001f64 <HAL_DFSDM_FilterRegConvHalfCpltCallback+0x28c>)
 8001f40:	6011      	str	r1, [r2, #0]
 8001f42:	f8ce 1000 	str.w	r1, [lr]
 8001f46:	6019      	str	r1, [r3, #0]
 8001f48:	e6e1      	b.n	8001d0e <HAL_DFSDM_FilterRegConvHalfCpltCallback+0x36>
 8001f4a:	4d08      	ldr	r5, [pc, #32]	; (8001f6c <HAL_DFSDM_FilterRegConvHalfCpltCallback+0x294>)
 8001f4c:	4c08      	ldr	r4, [pc, #32]	; (8001f70 <HAL_DFSDM_FilterRegConvHalfCpltCallback+0x298>)
 8001f4e:	e7f4      	b.n	8001f3a <HAL_DFSDM_FilterRegConvHalfCpltCallback+0x262>
 8001f50:	2000da98 	.word	0x2000da98
 8001f54:	20000044 	.word	0x20000044
 8001f58:	2000dcb4 	.word	0x2000dcb4
 8001f5c:	2000dc28 	.word	0x2000dc28
 8001f60:	20000180 	.word	0x20000180
 8001f64:	20000188 	.word	0x20000188
 8001f68:	20000190 	.word	0x20000190
 8001f6c:	2000daec 	.word	0x2000daec
 8001f70:	20000174 	.word	0x20000174
 8001f74:	20000198 	.word	0x20000198
 8001f78:	2000019c 	.word	0x2000019c
 8001f7c:	20000260 	.word	0x20000260
 8001f80:	20000170 	.word	0x20000170
 8001f84:	ffff8008 	.word	0xffff8008

08001f88 <HAL_SAI_RxHalfCpltCallback>:
 8001f88:	b508      	push	{r3, lr}
 8001f8a:	f003 fe49 	bl	8005c20 <BSP_AUDIO_IN_HalfTransfer_CallBack>
 8001f8e:	bd08      	pop	{r3, pc}

08001f90 <HAL_SAI_ErrorCallback>:
 8001f90:	b508      	push	{r3, lr}
 8001f92:	6802      	ldr	r2, [r0, #0]
 8001f94:	4b04      	ldr	r3, [pc, #16]	; (8001fa8 <HAL_SAI_ErrorCallback+0x18>)
 8001f96:	429a      	cmp	r2, r3
 8001f98:	d002      	beq.n	8001fa0 <HAL_SAI_ErrorCallback+0x10>
 8001f9a:	f003 fe6d 	bl	8005c78 <BSP_AUDIO_IN_Error_CallBack>
 8001f9e:	bd08      	pop	{r3, pc}
 8001fa0:	f7ff fc22 	bl	80017e8 <BSP_AUDIO_OUT_Error_CallBack>
 8001fa4:	bd08      	pop	{r3, pc}
 8001fa6:	bf00      	nop
 8001fa8:	40015804 	.word	0x40015804

08001fac <BSP_AUDIO_IN_MspInit>:
 8001fac:	4ba9      	ldr	r3, [pc, #676]	; (8002254 <BSP_AUDIO_IN_MspInit+0x2a8>)
 8001fae:	881a      	ldrh	r2, [r3, #0]
 8001fb0:	e92d 4ff0 	stmdb	sp!, {r4, r5, r6, r7, r8, r9, sl, fp, lr}
 8001fb4:	b08f      	sub	sp, #60	; 0x3c
 8001fb6:	2a00      	cmp	r2, #0
 8001fb8:	d054      	beq.n	8002064 <BSP_AUDIO_IN_MspInit+0xb8>
 8001fba:	4ca7      	ldr	r4, [pc, #668]	; (8002258 <BSP_AUDIO_IN_MspInit+0x2ac>)
 8001fbc:	2008      	movs	r0, #8
 8001fbe:	2602      	movs	r6, #2
 8001fc0:	2206      	movs	r2, #6
 8001fc2:	6c63      	ldr	r3, [r4, #68]	; 0x44
 8001fc4:	2500      	movs	r5, #0
 8001fc6:	a909      	add	r1, sp, #36	; 0x24
 8001fc8:	f443 0380 	orr.w	r3, r3, #4194304	; 0x400000
 8001fcc:	6463      	str	r3, [r4, #68]	; 0x44
 8001fce:	6c63      	ldr	r3, [r4, #68]	; 0x44
 8001fd0:	f403 0380 	and.w	r3, r3, #4194304	; 0x400000
 8001fd4:	9305      	str	r3, [sp, #20]
 8001fd6:	9b05      	ldr	r3, [sp, #20]
 8001fd8:	6b23      	ldr	r3, [r4, #48]	; 0x30
 8001fda:	f043 0310 	orr.w	r3, r3, #16
 8001fde:	6323      	str	r3, [r4, #48]	; 0x30
 8001fe0:	6b23      	ldr	r3, [r4, #48]	; 0x30
 8001fe2:	9009      	str	r0, [sp, #36]	; 0x24
 8001fe4:	f003 0310 	and.w	r3, r3, #16
 8001fe8:	489c      	ldr	r0, [pc, #624]	; (800225c <BSP_AUDIO_IN_MspInit+0x2b0>)
 8001fea:	920d      	str	r2, [sp, #52]	; 0x34
 8001fec:	9306      	str	r3, [sp, #24]
 8001fee:	9b06      	ldr	r3, [sp, #24]
 8001ff0:	960a      	str	r6, [sp, #40]	; 0x28
 8001ff2:	960c      	str	r6, [sp, #48]	; 0x30
 8001ff4:	950b      	str	r5, [sp, #44]	; 0x2c
 8001ff6:	f001 f91d 	bl	8003234 <HAL_GPIO_Init>
 8001ffa:	6b23      	ldr	r3, [r4, #48]	; 0x30
 8001ffc:	f44f 5280 	mov.w	r2, #4096	; 0x1000
 8002000:	a909      	add	r1, sp, #36	; 0x24
 8002002:	4897      	ldr	r0, [pc, #604]	; (8002260 <BSP_AUDIO_IN_MspInit+0x2b4>)
 8002004:	f443 7300 	orr.w	r3, r3, #512	; 0x200
 8002008:	6323      	str	r3, [r4, #48]	; 0x30
 800200a:	6b23      	ldr	r3, [r4, #48]	; 0x30
 800200c:	9209      	str	r2, [sp, #36]	; 0x24
 800200e:	f403 7300 	and.w	r3, r3, #512	; 0x200
 8002012:	960c      	str	r6, [sp, #48]	; 0x30
 8002014:	9307      	str	r3, [sp, #28]
 8002016:	9b07      	ldr	r3, [sp, #28]
 8002018:	e9cd 550a 	strd	r5, r5, [sp, #40]	; 0x28
 800201c:	f001 f90a 	bl	8003234 <HAL_GPIO_Init>
 8002020:	6b23      	ldr	r3, [r4, #48]	; 0x30
 8002022:	4a90      	ldr	r2, [pc, #576]	; (8002264 <BSP_AUDIO_IN_MspInit+0x2b8>)
 8002024:	f443 0380 	orr.w	r3, r3, #4194304	; 0x400000
 8002028:	498f      	ldr	r1, [pc, #572]	; (8002268 <BSP_AUDIO_IN_MspInit+0x2bc>)
 800202a:	6810      	ldr	r0, [r2, #0]
 800202c:	6323      	str	r3, [r4, #48]	; 0x30
 800202e:	6b23      	ldr	r3, [r4, #48]	; 0x30
 8002030:	4288      	cmp	r0, r1
 8002032:	f403 0380 	and.w	r3, r3, #4194304	; 0x400000
 8002036:	9308      	str	r3, [sp, #32]
 8002038:	9b08      	ldr	r3, [sp, #32]
 800203a:	f000 80e4 	beq.w	8002206 <BSP_AUDIO_IN_MspInit+0x25a>
 800203e:	2200      	movs	r2, #0
 8002040:	210f      	movs	r1, #15
 8002042:	203c      	movs	r0, #60	; 0x3c
 8002044:	f000 fcb8 	bl	80029b8 <HAL_NVIC_SetPriority>
 8002048:	203c      	movs	r0, #60	; 0x3c
 800204a:	f000 fceb 	bl	8002a24 <HAL_NVIC_EnableIRQ>
 800204e:	2028      	movs	r0, #40	; 0x28
 8002050:	2200      	movs	r2, #0
 8002052:	210f      	movs	r1, #15
 8002054:	f000 fcb0 	bl	80029b8 <HAL_NVIC_SetPriority>
 8002058:	2028      	movs	r0, #40	; 0x28
 800205a:	f000 fce3 	bl	8002a24 <HAL_NVIC_EnableIRQ>
 800205e:	b00f      	add	sp, #60	; 0x3c
 8002060:	e8bd 8ff0 	ldmia.w	sp!, {r4, r5, r6, r7, r8, r9, sl, fp, pc}
 8002064:	4b7c      	ldr	r3, [pc, #496]	; (8002258 <BSP_AUDIO_IN_MspInit+0x2ac>)
 8002066:	2508      	movs	r5, #8
 8002068:	2002      	movs	r0, #2
 800206a:	2403      	movs	r4, #3
 800206c:	6c59      	ldr	r1, [r3, #68]	; 0x44
 800206e:	f8df a23c 	ldr.w	sl, [pc, #572]	; 80022ac <BSP_AUDIO_IN_MspInit+0x300>
 8002072:	f041 5100 	orr.w	r1, r1, #536870912	; 0x20000000
 8002076:	6459      	str	r1, [r3, #68]	; 0x44
 8002078:	6c59      	ldr	r1, [r3, #68]	; 0x44
 800207a:	f001 5100 	and.w	r1, r1, #536870912	; 0x20000000
 800207e:	9102      	str	r1, [sp, #8]
 8002080:	9902      	ldr	r1, [sp, #8]
 8002082:	6b19      	ldr	r1, [r3, #48]	; 0x30
 8002084:	f041 0104 	orr.w	r1, r1, #4
 8002088:	6319      	str	r1, [r3, #48]	; 0x30
 800208a:	6b19      	ldr	r1, [r3, #48]	; 0x30
 800208c:	f001 0104 	and.w	r1, r1, #4
 8002090:	9103      	str	r1, [sp, #12]
 8002092:	9903      	ldr	r1, [sp, #12]
 8002094:	6b19      	ldr	r1, [r3, #48]	; 0x30
 8002096:	4329      	orrs	r1, r5
 8002098:	6319      	str	r1, [r3, #48]	; 0x30
 800209a:	a909      	add	r1, sp, #36	; 0x24
 800209c:	6b1b      	ldr	r3, [r3, #48]	; 0x30
 800209e:	920b      	str	r2, [sp, #44]	; 0x2c
 80020a0:	402b      	ands	r3, r5
 80020a2:	e9cd 5009 	strd	r5, r0, [sp, #36]	; 0x24
 80020a6:	9304      	str	r3, [sp, #16]
 80020a8:	4870      	ldr	r0, [pc, #448]	; (800226c <BSP_AUDIO_IN_MspInit+0x2c0>)
 80020aa:	9b04      	ldr	r3, [sp, #16]
 80020ac:	e9cd 440c 	strd	r4, r4, [sp, #48]	; 0x30
 80020b0:	f001 f8c0 	bl	8003234 <HAL_GPIO_Init>
 80020b4:	a909      	add	r1, sp, #36	; 0x24
 80020b6:	486e      	ldr	r0, [pc, #440]	; (8002270 <BSP_AUDIO_IN_MspInit+0x2c4>)
 80020b8:	9509      	str	r5, [sp, #36]	; 0x24
 80020ba:	940d      	str	r4, [sp, #52]	; 0x34
 80020bc:	f001 f8ba 	bl	8003234 <HAL_GPIO_Init>
 80020c0:	f89a 3000 	ldrb.w	r3, [sl]
 80020c4:	2b02      	cmp	r3, #2
 80020c6:	d907      	bls.n	80020d8 <BSP_AUDIO_IN_MspInit+0x12c>
 80020c8:	f44f 6300 	mov.w	r3, #2048	; 0x800
 80020cc:	a909      	add	r1, sp, #36	; 0x24
 80020ce:	4868      	ldr	r0, [pc, #416]	; (8002270 <BSP_AUDIO_IN_MspInit+0x2c4>)
 80020d0:	940d      	str	r4, [sp, #52]	; 0x34
 80020d2:	9309      	str	r3, [sp, #36]	; 0x24
 80020d4:	f001 f8ae 	bl	8003234 <HAL_GPIO_Init>
 80020d8:	4a5f      	ldr	r2, [pc, #380]	; (8002258 <BSP_AUDIO_IN_MspInit+0x2ac>)
 80020da:	f04f 0b00 	mov.w	fp, #0
 80020de:	4b65      	ldr	r3, [pc, #404]	; (8002274 <BSP_AUDIO_IN_MspInit+0x2c8>)
 80020e0:	f44f 6980 	mov.w	r9, #1024	; 0x400
 80020e4:	6c50      	ldr	r0, [r2, #68]	; 0x44
 80020e6:	f44f 5880 	mov.w	r8, #4096	; 0x1000
 80020ea:	f8c3 b008 	str.w	fp, [r3, #8]
 80020ee:	f44f 4780 	mov.w	r7, #16384	; 0x4000
 80020f2:	f040 5000 	orr.w	r0, r0, #536870912	; 0x20000000
 80020f6:	f44f 7680 	mov.w	r6, #256	; 0x100
 80020fa:	f44f 3500 	mov.w	r5, #131072	; 0x20000
 80020fe:	495e      	ldr	r1, [pc, #376]	; (8002278 <BSP_AUDIO_IN_MspInit+0x2cc>)
 8002100:	6450      	str	r0, [r2, #68]	; 0x44
 8002102:	f04f 5480 	mov.w	r4, #268435456	; 0x10000000
 8002106:	6c50      	ldr	r0, [r2, #68]	; 0x44
 8002108:	f8c3 b00c 	str.w	fp, [r3, #12]
 800210c:	f000 5000 	and.w	r0, r0, #536870912	; 0x20000000
 8002110:	9001      	str	r0, [sp, #4]
 8002112:	9801      	ldr	r0, [sp, #4]
 8002114:	e9c3 9804 	strd	r9, r8, [r3, #16]
 8002118:	6b10      	ldr	r0, [r2, #48]	; 0x30
 800211a:	619f      	str	r7, [r3, #24]
 800211c:	f440 0080 	orr.w	r0, r0, #4194304	; 0x400000
 8002120:	e9c3 6507 	strd	r6, r5, [r3, #28]
 8002124:	6310      	str	r0, [r2, #48]	; 0x30
 8002126:	4618      	mov	r0, r3
 8002128:	6b12      	ldr	r2, [r2, #48]	; 0x30
 800212a:	6019      	str	r1, [r3, #0]
 800212c:	f402 0280 	and.w	r2, r2, #4194304	; 0x400000
 8002130:	4952      	ldr	r1, [pc, #328]	; (800227c <BSP_AUDIO_IN_MspInit+0x2d0>)
 8002132:	605c      	str	r4, [r3, #4]
 8002134:	9209      	str	r2, [sp, #36]	; 0x24
 8002136:	628b      	str	r3, [r1, #40]	; 0x28
 8002138:	6399      	str	r1, [r3, #56]	; 0x38
 800213a:	9a09      	ldr	r2, [sp, #36]	; 0x24
 800213c:	f883 b035 	strb.w	fp, [r3, #53]	; 0x35
 8002140:	f000 fe6a 	bl	8002e18 <HAL_DMA_Init>
 8002144:	465a      	mov	r2, fp
 8002146:	210e      	movs	r1, #14
 8002148:	2038      	movs	r0, #56	; 0x38
 800214a:	f000 fc35 	bl	80029b8 <HAL_NVIC_SetPriority>
 800214e:	2038      	movs	r0, #56	; 0x38
 8002150:	f000 fc68 	bl	8002a24 <HAL_NVIC_EnableIRQ>
 8002154:	4b4a      	ldr	r3, [pc, #296]	; (8002280 <BSP_AUDIO_IN_MspInit+0x2d4>)
 8002156:	4a4b      	ldr	r2, [pc, #300]	; (8002284 <BSP_AUDIO_IN_MspInit+0x2d8>)
 8002158:	494b      	ldr	r1, [pc, #300]	; (8002288 <BSP_AUDIO_IN_MspInit+0x2dc>)
 800215a:	4618      	mov	r0, r3
 800215c:	6293      	str	r3, [r2, #40]	; 0x28
 800215e:	6019      	str	r1, [r3, #0]
 8002160:	639a      	str	r2, [r3, #56]	; 0x38
 8002162:	621d      	str	r5, [r3, #32]
 8002164:	605c      	str	r4, [r3, #4]
 8002166:	f883 b035 	strb.w	fp, [r3, #53]	; 0x35
 800216a:	e9c3 bb02 	strd	fp, fp, [r3, #8]
 800216e:	e9c3 9804 	strd	r9, r8, [r3, #16]
 8002172:	e9c3 7606 	strd	r7, r6, [r3, #24]
 8002176:	f000 fe4f 	bl	8002e18 <HAL_DMA_Init>
 800217a:	465a      	mov	r2, fp
 800217c:	210e      	movs	r1, #14
 800217e:	2044      	movs	r0, #68	; 0x44
 8002180:	f000 fc1a 	bl	80029b8 <HAL_NVIC_SetPriority>
 8002184:	2044      	movs	r0, #68	; 0x44
 8002186:	f000 fc4d 	bl	8002a24 <HAL_NVIC_EnableIRQ>
 800218a:	f89a 3000 	ldrb.w	r3, [sl]
 800218e:	2b02      	cmp	r3, #2
 8002190:	f67f af65 	bls.w	800205e <BSP_AUDIO_IN_MspInit+0xb2>
 8002194:	4b3d      	ldr	r3, [pc, #244]	; (800228c <BSP_AUDIO_IN_MspInit+0x2e0>)
 8002196:	4a3e      	ldr	r2, [pc, #248]	; (8002290 <BSP_AUDIO_IN_MspInit+0x2e4>)
 8002198:	493e      	ldr	r1, [pc, #248]	; (8002294 <BSP_AUDIO_IN_MspInit+0x2e8>)
 800219a:	4618      	mov	r0, r3
 800219c:	621d      	str	r5, [r3, #32]
 800219e:	605c      	str	r4, [r3, #4]
 80021a0:	f883 b035 	strb.w	fp, [r3, #53]	; 0x35
 80021a4:	6019      	str	r1, [r3, #0]
 80021a6:	6293      	str	r3, [r2, #40]	; 0x28
 80021a8:	639a      	str	r2, [r3, #56]	; 0x38
 80021aa:	e9c3 bb02 	strd	fp, fp, [r3, #8]
 80021ae:	e9c3 9804 	strd	r9, r8, [r3, #16]
 80021b2:	e9c3 7606 	strd	r7, r6, [r3, #24]
 80021b6:	f000 fe2f 	bl	8002e18 <HAL_DMA_Init>
 80021ba:	465a      	mov	r2, fp
 80021bc:	210e      	movs	r1, #14
 80021be:	2045      	movs	r0, #69	; 0x45
 80021c0:	f000 fbfa 	bl	80029b8 <HAL_NVIC_SetPriority>
 80021c4:	2045      	movs	r0, #69	; 0x45
 80021c6:	f000 fc2d 	bl	8002a24 <HAL_NVIC_EnableIRQ>
 80021ca:	4b33      	ldr	r3, [pc, #204]	; (8002298 <BSP_AUDIO_IN_MspInit+0x2ec>)
 80021cc:	4a33      	ldr	r2, [pc, #204]	; (800229c <BSP_AUDIO_IN_MspInit+0x2f0>)
 80021ce:	4934      	ldr	r1, [pc, #208]	; (80022a0 <BSP_AUDIO_IN_MspInit+0x2f4>)
 80021d0:	4618      	mov	r0, r3
 80021d2:	6293      	str	r3, [r2, #40]	; 0x28
 80021d4:	6019      	str	r1, [r3, #0]
 80021d6:	639a      	str	r2, [r3, #56]	; 0x38
 80021d8:	621d      	str	r5, [r3, #32]
 80021da:	605c      	str	r4, [r3, #4]
 80021dc:	f883 b035 	strb.w	fp, [r3, #53]	; 0x35
 80021e0:	e9c3 bb02 	strd	fp, fp, [r3, #8]
 80021e4:	e9c3 9804 	strd	r9, r8, [r3, #16]
 80021e8:	e9c3 7606 	strd	r7, r6, [r3, #24]
 80021ec:	f000 fe14 	bl	8002e18 <HAL_DMA_Init>
 80021f0:	465a      	mov	r2, fp
 80021f2:	210e      	movs	r1, #14
 80021f4:	2046      	movs	r0, #70	; 0x46
 80021f6:	f000 fbdf 	bl	80029b8 <HAL_NVIC_SetPriority>
 80021fa:	2046      	movs	r0, #70	; 0x46
 80021fc:	f000 fc12 	bl	8002a24 <HAL_NVIC_EnableIRQ>
 8002200:	b00f      	add	sp, #60	; 0x3c
 8002202:	e8bd 8ff0 	ldmia.w	sp!, {r4, r5, r6, r7, r8, r9, sl, fp, pc}
 8002206:	4c27      	ldr	r4, [pc, #156]	; (80022a4 <BSP_AUDIO_IN_MspInit+0x2f8>)
 8002208:	f44f 6700 	mov.w	r7, #2048	; 0x800
 800220c:	f44f 5300 	mov.w	r3, #8192	; 0x2000
 8002210:	f44f 6080 	mov.w	r0, #1024	; 0x400
 8002214:	f04f 7c00 	mov.w	ip, #33554432	; 0x2000000
 8002218:	f44f 3100 	mov.w	r1, #131072	; 0x20000
 800221c:	6714      	str	r4, [r2, #112]	; 0x70
 800221e:	f44f 7680 	mov.w	r6, #256	; 0x100
 8002222:	63a2      	str	r2, [r4, #56]	; 0x38
 8002224:	2203      	movs	r2, #3
 8002226:	6120      	str	r0, [r4, #16]
 8002228:	4620      	mov	r0, r4
 800222a:	60a5      	str	r5, [r4, #8]
 800222c:	60e5      	str	r5, [r4, #12]
 800222e:	6265      	str	r5, [r4, #36]	; 0x24
 8002230:	f8c4 c004 	str.w	ip, [r4, #4]
 8002234:	62a2      	str	r2, [r4, #40]	; 0x28
 8002236:	e9c4 7305 	strd	r7, r3, [r4, #20]
 800223a:	4b1b      	ldr	r3, [pc, #108]	; (80022a8 <BSP_AUDIO_IN_MspInit+0x2fc>)
 800223c:	e9c4 550b 	strd	r5, r5, [r4, #44]	; 0x2c
 8002240:	e9c4 6107 	strd	r6, r1, [r4, #28]
 8002244:	6023      	str	r3, [r4, #0]
 8002246:	f000 fe83 	bl	8002f50 <HAL_DMA_DeInit>
 800224a:	4620      	mov	r0, r4
 800224c:	f000 fde4 	bl	8002e18 <HAL_DMA_Init>
 8002250:	e6f5      	b.n	800203e <BSP_AUDIO_IN_MspInit+0x92>
 8002252:	bf00      	nop
 8002254:	20000178 	.word	0x20000178
 8002258:	40023800 	.word	0x40023800
 800225c:	40021000 	.word	0x40021000
 8002260:	40022400 	.word	0x40022400
 8002264:	2000d930 	.word	0x2000d930
 8002268:	40015824 	.word	0x40015824
 800226c:	40020c00 	.word	0x40020c00
 8002270:	40020800 	.word	0x40020800
 8002274:	2000db58 	.word	0x2000db58
 8002278:	40026410 	.word	0x40026410
 800227c:	2000da98 	.word	0x2000da98
 8002280:	2000daf4 	.word	0x2000daf4
 8002284:	2000dcb4 	.word	0x2000dcb4
 8002288:	40026488 	.word	0x40026488
 800228c:	2000d9b4 	.word	0x2000d9b4
 8002290:	2000dc28 	.word	0x2000dc28
 8002294:	400264a0 	.word	0x400264a0
 8002298:	2000dd40 	.word	0x2000dd40
 800229c:	2000d8dc 	.word	0x2000d8dc
 80022a0:	400264b8 	.word	0x400264b8
 80022a4:	200001a0 	.word	0x200001a0
 80022a8:	40026470 	.word	0x40026470
 80022ac:	20000044 	.word	0x20000044

080022b0 <BSP_AUDIO_IN_ClockConfig>:
 80022b0:	b510      	push	{r4, lr}
 80022b2:	b0a4      	sub	sp, #144	; 0x90
 80022b4:	460c      	mov	r4, r1
 80022b6:	4668      	mov	r0, sp
 80022b8:	f002 fa32 	bl	8004720 <HAL_RCCEx_GetPeriphCLKConfig>
 80022bc:	f642 3211 	movw	r2, #11025	; 0x2b11
 80022c0:	f245 6322 	movw	r3, #22050	; 0x5622
 80022c4:	f44f 1080 	mov.w	r0, #1048576	; 0x100000
 80022c8:	429c      	cmp	r4, r3
 80022ca:	bf18      	it	ne
 80022cc:	4294      	cmpne	r4, r2
 80022ce:	d00a      	beq.n	80022e6 <BSP_AUDIO_IN_ClockConfig+0x36>
 80022d0:	f64a 4344 	movw	r3, #44100	; 0xac44
 80022d4:	429c      	cmp	r4, r3
 80022d6:	d006      	beq.n	80022e6 <BSP_AUDIO_IN_ClockConfig+0x36>
 80022d8:	f44f 0480 	mov.w	r4, #4194304	; 0x400000
 80022dc:	f44f 71ac 	mov.w	r1, #344	; 0x158
 80022e0:	2207      	movs	r2, #7
 80022e2:	2301      	movs	r3, #1
 80022e4:	e005      	b.n	80022f2 <BSP_AUDIO_IN_ClockConfig+0x42>
 80022e6:	f44f 0480 	mov.w	r4, #4194304	; 0x400000
 80022ea:	f240 11ad 	movw	r1, #429	; 0x1ad
 80022ee:	2202      	movs	r2, #2
 80022f0:	2313      	movs	r3, #19
 80022f2:	9000      	str	r0, [sp, #0]
 80022f4:	4668      	mov	r0, sp
 80022f6:	9101      	str	r1, [sp, #4]
 80022f8:	9203      	str	r2, [sp, #12]
 80022fa:	9309      	str	r3, [sp, #36]	; 0x24
 80022fc:	9410      	str	r4, [sp, #64]	; 0x40
 80022fe:	f001 ff4b 	bl	8004198 <HAL_RCCEx_PeriphCLKConfig>
 8002302:	f04f 5280 	mov.w	r2, #268435456	; 0x10000000
 8002306:	f04f 6380 	mov.w	r3, #67108864	; 0x4000000
 800230a:	4668      	mov	r0, sp
 800230c:	9200      	str	r2, [sp, #0]
 800230e:	9323      	str	r3, [sp, #140]	; 0x8c
 8002310:	f001 ff42 	bl	8004198 <HAL_RCCEx_PeriphCLKConfig>
 8002314:	b024      	add	sp, #144	; 0x90
 8002316:	bd10      	pop	{r4, pc}

08002318 <BSP_AUDIO_IN_InitEx>:
 8002318:	4a81      	ldr	r2, [pc, #516]	; (8002520 <BSP_AUDIO_IN_InitEx+0x208>)
 800231a:	e92d 4ff0 	stmdb	sp!, {r4, r5, r6, r7, r8, r9, sl, fp, lr}
 800231e:	4607      	mov	r7, r0
 8002320:	b083      	sub	sp, #12
 8002322:	4688      	mov	r8, r1
 8002324:	8010      	strh	r0, [r2, #0]
 8002326:	2800      	cmp	r0, #0
 8002328:	f000 8099 	beq.w	800245e <BSP_AUDIO_IN_InitEx+0x146>
 800232c:	4c7d      	ldr	r4, [pc, #500]	; (8002524 <BSP_AUDIO_IN_InitEx+0x20c>)
 800232e:	f7ff fa3f 	bl	80017b0 <SAIx_In_DeInit>
 8002332:	2200      	movs	r2, #0
 8002334:	4641      	mov	r1, r8
 8002336:	4620      	mov	r0, r4
 8002338:	f7ff fad6 	bl	80018e8 <BSP_AUDIO_OUT_ClockConfig>
 800233c:	4b7a      	ldr	r3, [pc, #488]	; (8002528 <BSP_AUDIO_IN_InitEx+0x210>)
 800233e:	4620      	mov	r0, r4
 8002340:	6023      	str	r3, [r4, #0]
 8002342:	f002 fd5d 	bl	8004e00 <HAL_SAI_GetState>
 8002346:	2800      	cmp	r0, #0
 8002348:	f000 80c8 	beq.w	80024dc <BSP_AUDIO_IN_InitEx+0x1c4>
 800234c:	4877      	ldr	r0, [pc, #476]	; (800252c <BSP_AUDIO_IN_InitEx+0x214>)
 800234e:	f44f 5300 	mov.w	r3, #8192	; 0x2000
 8002352:	4e77      	ldr	r6, [pc, #476]	; (8002530 <BSP_AUDIO_IN_InitEx+0x218>)
 8002354:	f44f 3b80 	mov.w	fp, #65536	; 0x10000
 8002358:	f8d0 e000 	ldr.w	lr, [r0]
 800235c:	2500      	movs	r5, #0
 800235e:	6030      	str	r0, [r6, #0]
 8002360:	f04f 0901 	mov.w	r9, #1
 8002364:	f42e 3e80 	bic.w	lr, lr, #65536	; 0x10000
 8002368:	f8c6 801c 	str.w	r8, [r6, #28]
 800236c:	2180      	movs	r1, #128	; 0x80
 800236e:	2240      	movs	r2, #64	; 0x40
 8002370:	f8c0 e000 	str.w	lr, [r0]
 8002374:	f04f 0a05 	mov.w	sl, #5
 8002378:	6133      	str	r3, [r6, #16]
 800237a:	2320      	movs	r3, #32
 800237c:	4630      	mov	r0, r6
 800237e:	6371      	str	r1, [r6, #52]	; 0x34
 8002380:	6432      	str	r2, [r6, #64]	; 0x40
 8002382:	6275      	str	r5, [r6, #36]	; 0x24
 8002384:	6175      	str	r5, [r6, #20]
 8002386:	6335      	str	r5, [r6, #48]	; 0x30
 8002388:	6235      	str	r5, [r6, #32]
 800238a:	64f5      	str	r5, [r6, #76]	; 0x4c
 800238c:	f8c6 9004 	str.w	r9, [r6, #4]
 8002390:	f8c6 9018 	str.w	r9, [r6, #24]
 8002394:	9101      	str	r1, [sp, #4]
 8002396:	9200      	str	r2, [sp, #0]
 8002398:	e9c6 3b11 	strd	r3, fp, [r6, #68]	; 0x44
 800239c:	f44f 2380 	mov.w	r3, #262144	; 0x40000
 80023a0:	6533      	str	r3, [r6, #80]	; 0x50
 80023a2:	2304      	movs	r3, #4
 80023a4:	e9c6 550e 	strd	r5, r5, [r6, #56]	; 0x38
 80023a8:	e9c6 3a17 	strd	r3, sl, [r6, #92]	; 0x5c
 80023ac:	e9c6 5502 	strd	r5, r5, [r6, #8]
 80023b0:	e9c6 550a 	strd	r5, r5, [r6, #40]	; 0x28
 80023b4:	e9c6 5515 	strd	r5, r5, [r6, #84]	; 0x54
 80023b8:	f002 faf0 	bl	800499c <HAL_SAI_Init>
 80023bc:	485a      	ldr	r0, [pc, #360]	; (8002528 <BSP_AUDIO_IN_InitEx+0x210>)
 80023be:	6265      	str	r5, [r4, #36]	; 0x24
 80023c0:	2303      	movs	r3, #3
 80023c2:	f8d0 e000 	ldr.w	lr, [r0]
 80023c6:	f04f 0c10 	mov.w	ip, #16
 80023ca:	9901      	ldr	r1, [sp, #4]
 80023cc:	f42e 3e80 	bic.w	lr, lr, #65536	; 0x10000
 80023d0:	9a00      	ldr	r2, [sp, #0]
 80023d2:	6020      	str	r0, [r4, #0]
 80023d4:	6361      	str	r1, [r4, #52]	; 0x34
 80023d6:	6165      	str	r5, [r4, #20]
 80023d8:	6325      	str	r5, [r4, #48]	; 0x30
 80023da:	f8c0 e000 	str.w	lr, [r0]
 80023de:	6422      	str	r2, [r4, #64]	; 0x40
 80023e0:	2220      	movs	r2, #32
 80023e2:	4850      	ldr	r0, [pc, #320]	; (8002524 <BSP_AUDIO_IN_InitEx+0x20c>)
 80023e4:	6063      	str	r3, [r4, #4]
 80023e6:	f8c4 c02c 	str.w	ip, [r4, #44]	; 0x2c
 80023ea:	f8c4 9008 	str.w	r9, [r4, #8]
 80023ee:	6125      	str	r5, [r4, #16]
 80023f0:	f8c4 9018 	str.w	r9, [r4, #24]
 80023f4:	60e5      	str	r5, [r4, #12]
 80023f6:	62a5      	str	r5, [r4, #40]	; 0x28
 80023f8:	6225      	str	r5, [r4, #32]
 80023fa:	64e5      	str	r5, [r4, #76]	; 0x4c
 80023fc:	65a5      	str	r5, [r4, #88]	; 0x58
 80023fe:	f8c4 801c 	str.w	r8, [r4, #28]
 8002402:	e9c4 2b11 	strd	r2, fp, [r4, #68]	; 0x44
 8002406:	f44f 2280 	mov.w	r2, #262144	; 0x40000
 800240a:	e9c4 2514 	strd	r2, r5, [r4, #80]	; 0x50
 800240e:	2204      	movs	r2, #4
 8002410:	e9c4 590e 	strd	r5, r9, [r4, #56]	; 0x38
 8002414:	e9c4 2a17 	strd	r2, sl, [r4, #92]	; 0x5c
 8002418:	f002 fac0 	bl	800499c <HAL_SAI_Init>
 800241c:	6821      	ldr	r1, [r4, #0]
 800241e:	6832      	ldr	r2, [r6, #0]
 8002420:	2034      	movs	r0, #52	; 0x34
 8002422:	680b      	ldr	r3, [r1, #0]
 8002424:	4c43      	ldr	r4, [pc, #268]	; (8002534 <BSP_AUDIO_IN_InitEx+0x21c>)
 8002426:	ea43 030b 	orr.w	r3, r3, fp
 800242a:	68a6      	ldr	r6, [r4, #8]
 800242c:	600b      	str	r3, [r1, #0]
 800242e:	6813      	ldr	r3, [r2, #0]
 8002430:	ea43 030b 	orr.w	r3, r3, fp
 8002434:	6013      	str	r3, [r2, #0]
 8002436:	47b0      	blx	r6
 8002438:	f648 1394 	movw	r3, #35220	; 0x8994
 800243c:	4298      	cmp	r0, r3
 800243e:	d154      	bne.n	80024ea <BSP_AUDIO_IN_InitEx+0x1d2>
 8002440:	6ae3      	ldr	r3, [r4, #44]	; 0x2c
 8002442:	2034      	movs	r0, #52	; 0x34
 8002444:	4798      	blx	r3
 8002446:	4a3c      	ldr	r2, [pc, #240]	; (8002538 <BSP_AUDIO_IN_InitEx+0x220>)
 8002448:	4643      	mov	r3, r8
 800244a:	4639      	mov	r1, r7
 800244c:	6014      	str	r4, [r2, #0]
 800244e:	2034      	movs	r0, #52	; 0x34
 8002450:	2264      	movs	r2, #100	; 0x64
 8002452:	6824      	ldr	r4, [r4, #0]
 8002454:	47a0      	blx	r4
 8002456:	4628      	mov	r0, r5
 8002458:	b003      	add	sp, #12
 800245a:	e8bd 8ff0 	ldmia.w	sp!, {r4, r5, r6, r7, r8, r9, sl, fp, pc}
 800245e:	4e37      	ldr	r6, [pc, #220]	; (800253c <BSP_AUDIO_IN_InitEx+0x224>)
 8002460:	4602      	mov	r2, r0
 8002462:	4837      	ldr	r0, [pc, #220]	; (8002540 <BSP_AUDIO_IN_InitEx+0x228>)
 8002464:	7033      	strb	r3, [r6, #0]
 8002466:	f7ff ff23 	bl	80022b0 <BSP_AUDIO_IN_ClockConfig>
 800246a:	f7ff fd9f 	bl	8001fac <BSP_AUDIO_IN_MspInit>
 800246e:	4b35      	ldr	r3, [pc, #212]	; (8002544 <BSP_AUDIO_IN_InitEx+0x22c>)
 8002470:	4835      	ldr	r0, [pc, #212]	; (8002548 <BSP_AUDIO_IN_InitEx+0x230>)
 8002472:	2101      	movs	r1, #1
 8002474:	f04f 4280 	mov.w	r2, #1073741824	; 0x40000000
 8002478:	f5b8 5ffa 	cmp.w	r8, #8000	; 0x1f40
 800247c:	f883 7034 	strb.w	r7, [r3, #52]	; 0x34
 8002480:	6018      	str	r0, [r3, #0]
 8002482:	7119      	strb	r1, [r3, #4]
 8002484:	609a      	str	r2, [r3, #8]
 8002486:	f000 814f 	beq.w	8002728 <BSP_AUDIO_IN_InitEx+0x410>
 800248a:	f642 3211 	movw	r2, #11025	; 0x2b11
 800248e:	4590      	cmp	r8, r2
 8002490:	f000 8158 	beq.w	8002744 <BSP_AUDIO_IN_InitEx+0x42c>
 8002494:	f5b8 5f7a 	cmp.w	r8, #16000	; 0x3e80
 8002498:	d02b      	beq.n	80024f2 <BSP_AUDIO_IN_InitEx+0x1da>
 800249a:	f245 6222 	movw	r2, #22050	; 0x5622
 800249e:	4590      	cmp	r8, r2
 80024a0:	f000 8172 	beq.w	8002788 <BSP_AUDIO_IN_InitEx+0x470>
 80024a4:	f5b8 4ffa 	cmp.w	r8, #32000	; 0x7d00
 80024a8:	f000 81b2 	beq.w	8002810 <BSP_AUDIO_IN_InitEx+0x4f8>
 80024ac:	f64a 4244 	movw	r2, #44100	; 0xac44
 80024b0:	4590      	cmp	r8, r2
 80024b2:	f000 815b 	beq.w	800276c <BSP_AUDIO_IN_InitEx+0x454>
 80024b6:	2104      	movs	r1, #4
 80024b8:	2419      	movs	r4, #25
 80024ba:	220a      	movs	r2, #10
 80024bc:	f64b 3580 	movw	r5, #48000	; 0xbb80
 80024c0:	625f      	str	r7, [r3, #36]	; 0x24
 80024c2:	45a8      	cmp	r8, r5
 80024c4:	bf14      	ite	ne
 80024c6:	460d      	movne	r5, r1
 80024c8:	2500      	moveq	r5, #0
 80024ca:	62df      	str	r7, [r3, #44]	; 0x2c
 80024cc:	60dc      	str	r4, [r3, #12]
 80024ce:	6219      	str	r1, [r3, #32]
 80024d0:	629a      	str	r2, [r3, #40]	; 0x28
 80024d2:	e9c3 7704 	strd	r7, r7, [r3, #16]
 80024d6:	e9c3 7706 	strd	r7, r7, [r3, #24]
 80024da:	e017      	b.n	800250c <BSP_AUDIO_IN_InitEx+0x1f4>
 80024dc:	4601      	mov	r1, r0
 80024de:	4620      	mov	r0, r4
 80024e0:	f7ff f984 	bl	80017ec <BSP_AUDIO_OUT_MspInit>
 80024e4:	f7ff fd62 	bl	8001fac <BSP_AUDIO_IN_MspInit>
 80024e8:	e730      	b.n	800234c <BSP_AUDIO_IN_InitEx+0x34>
 80024ea:	4648      	mov	r0, r9
 80024ec:	b003      	add	sp, #12
 80024ee:	e8bd 8ff0 	ldmia.w	sp!, {r4, r5, r6, r7, r8, r9, sl, fp, pc}
 80024f2:	2418      	movs	r4, #24
 80024f4:	2104      	movs	r1, #4
 80024f6:	220a      	movs	r2, #10
 80024f8:	2503      	movs	r5, #3
 80024fa:	625f      	str	r7, [r3, #36]	; 0x24
 80024fc:	62df      	str	r7, [r3, #44]	; 0x2c
 80024fe:	60dc      	str	r4, [r3, #12]
 8002500:	6219      	str	r1, [r3, #32]
 8002502:	629a      	str	r2, [r3, #40]	; 0x28
 8002504:	e9c3 7704 	strd	r7, r7, [r3, #16]
 8002508:	e9c3 7706 	strd	r7, r7, [r3, #24]
 800250c:	480d      	ldr	r0, [pc, #52]	; (8002544 <BSP_AUDIO_IN_InitEx+0x22c>)
 800250e:	631d      	str	r5, [r3, #48]	; 0x30
 8002510:	f000 fb0c 	bl	8002b2c <HAL_DFSDM_ChannelInit>
 8002514:	4602      	mov	r2, r0
 8002516:	b1c8      	cbz	r0, 800254c <BSP_AUDIO_IN_InitEx+0x234>
 8002518:	2000      	movs	r0, #0
 800251a:	b003      	add	sp, #12
 800251c:	e8bd 8ff0 	ldmia.w	sp!, {r4, r5, r6, r7, r8, r9, sl, fp, pc}
 8002520:	20000178 	.word	0x20000178
 8002524:	2000d930 	.word	0x2000d930
 8002528:	40015824 	.word	0x40015824
 800252c:	40015804 	.word	0x40015804
 8002530:	2000da14 	.word	0x2000da14
 8002534:	20000004 	.word	0x20000004
 8002538:	2000db54 	.word	0x2000db54
 800253c:	20000044 	.word	0x20000044
 8002540:	2000da98 	.word	0x2000da98
 8002544:	2000dbb8 	.word	0x2000dbb8
 8002548:	40017420 	.word	0x40017420
 800254c:	4bc5      	ldr	r3, [pc, #788]	; (8002864 <BSP_AUDIO_IN_InitEx+0x54c>)
 800254e:	f04f 0b01 	mov.w	fp, #1
 8002552:	49c5      	ldr	r1, [pc, #788]	; (8002868 <BSP_AUDIO_IN_InitEx+0x550>)
 8002554:	f04f 4a80 	mov.w	sl, #1073741824	; 0x40000000
 8002558:	625a      	str	r2, [r3, #36]	; 0x24
 800255a:	f04f 0904 	mov.w	r9, #4
 800255e:	270a      	movs	r7, #10
 8002560:	f883 0034 	strb.w	r0, [r3, #52]	; 0x34
 8002564:	4618      	mov	r0, r3
 8002566:	60dc      	str	r4, [r3, #12]
 8002568:	6019      	str	r1, [r3, #0]
 800256a:	f883 b004 	strb.w	fp, [r3, #4]
 800256e:	f8c3 b01c 	str.w	fp, [r3, #28]
 8002572:	f8c3 a008 	str.w	sl, [r3, #8]
 8002576:	f8c3 9020 	str.w	r9, [r3, #32]
 800257a:	629f      	str	r7, [r3, #40]	; 0x28
 800257c:	e9c3 2204 	strd	r2, r2, [r3, #16]
 8002580:	e9c3 250b 	strd	r2, r5, [r3, #44]	; 0x2c
 8002584:	f44f 7280 	mov.w	r2, #256	; 0x100
 8002588:	619a      	str	r2, [r3, #24]
 800258a:	f000 facf 	bl	8002b2c <HAL_DFSDM_ChannelInit>
 800258e:	4603      	mov	r3, r0
 8002590:	2800      	cmp	r0, #0
 8002592:	d1c1      	bne.n	8002518 <BSP_AUDIO_IN_InitEx+0x200>
 8002594:	7832      	ldrb	r2, [r6, #0]
 8002596:	2a02      	cmp	r2, #2
 8002598:	f200 8104 	bhi.w	80027a4 <BSP_AUDIO_IN_InitEx+0x48c>
 800259c:	4bb3      	ldr	r3, [pc, #716]	; (800286c <BSP_AUDIO_IN_InitEx+0x554>)
 800259e:	f44f 5100 	mov.w	r1, #8192	; 0x2000
 80025a2:	2200      	movs	r2, #0
 80025a4:	48b2      	ldr	r0, [pc, #712]	; (8002870 <BSP_AUDIO_IN_InitEx+0x558>)
 80025a6:	6199      	str	r1, [r3, #24]
 80025a8:	f5b8 5ffa 	cmp.w	r8, #8000	; 0x1f40
 80025ac:	f04f 0101 	mov.w	r1, #1
 80025b0:	6018      	str	r0, [r3, #0]
 80025b2:	f883 204c 	strb.w	r2, [r3, #76]	; 0x4c
 80025b6:	605a      	str	r2, [r3, #4]
 80025b8:	60da      	str	r2, [r3, #12]
 80025ba:	745a      	strb	r2, [r3, #17]
 80025bc:	615a      	str	r2, [r3, #20]
 80025be:	7219      	strb	r1, [r3, #8]
 80025c0:	7259      	strb	r1, [r3, #9]
 80025c2:	7419      	strb	r1, [r3, #16]
 80025c4:	f000 80cc 	beq.w	8002760 <BSP_AUDIO_IN_InitEx+0x448>
 80025c8:	f5b8 507a 	subs.w	r0, r8, #16000	; 0x3e80
 80025cc:	f245 6222 	movw	r2, #22050	; 0x5622
 80025d0:	f642 3111 	movw	r1, #11025	; 0x2b11
 80025d4:	bf18      	it	ne
 80025d6:	2001      	movne	r0, #1
 80025d8:	ebb8 0202 	subs.w	r2, r8, r2
 80025dc:	bf18      	it	ne
 80025de:	2201      	movne	r2, #1
 80025e0:	4588      	cmp	r8, r1
 80025e2:	bf18      	it	ne
 80025e4:	f5b8 5f7a 	cmpne.w	r8, #16000	; 0x3e80
 80025e8:	d002      	beq.n	80025f0 <BSP_AUDIO_IN_InitEx+0x2d8>
 80025ea:	2a00      	cmp	r2, #0
 80025ec:	f040 8123 	bne.w	8002836 <BSP_AUDIO_IN_InitEx+0x51e>
 80025f0:	f04f 45c0 	mov.w	r5, #1610612736	; 0x60000000
 80025f4:	f642 3111 	movw	r1, #11025	; 0x2b11
 80025f8:	61dd      	str	r5, [r3, #28]
 80025fa:	4588      	cmp	r8, r1
 80025fc:	f000 8118 	beq.w	8002830 <BSP_AUDIO_IN_InitEx+0x518>
 8002600:	2a00      	cmp	r2, #0
 8002602:	f000 8113 	beq.w	800282c <BSP_AUDIO_IN_InitEx+0x514>
 8002606:	2800      	cmp	r0, #0
 8002608:	f000 8110 	beq.w	800282c <BSP_AUDIO_IN_InitEx+0x514>
 800260c:	f64a 4244 	movw	r2, #44100	; 0xac44
 8002610:	4590      	cmp	r8, r2
 8002612:	f000 8120 	beq.w	8002856 <BSP_AUDIO_IN_InitEx+0x53e>
 8002616:	f5b8 4ffa 	cmp.w	r8, #32000	; 0x7d00
 800261a:	f000 811c 	beq.w	8002856 <BSP_AUDIO_IN_InitEx+0x53e>
 800261e:	f64b 3780 	movw	r7, #48000	; 0xbb80
 8002622:	45b8      	cmp	r8, r7
 8002624:	bf0c      	ite	eq
 8002626:	2728      	moveq	r7, #40	; 0x28
 8002628:	2714      	movne	r7, #20
 800262a:	2401      	movs	r4, #1
 800262c:	488f      	ldr	r0, [pc, #572]	; (800286c <BSP_AUDIO_IN_InitEx+0x554>)
 800262e:	e9c3 7408 	strd	r7, r4, [r3, #32]
 8002632:	f000 faf9 	bl	8002c28 <HAL_DFSDM_FilterInit>
 8002636:	2800      	cmp	r0, #0
 8002638:	f47f af6e 	bne.w	8002518 <BSP_AUDIO_IN_InitEx+0x200>
 800263c:	4622      	mov	r2, r4
 800263e:	498d      	ldr	r1, [pc, #564]	; (8002874 <BSP_AUDIO_IN_InitEx+0x55c>)
 8002640:	488a      	ldr	r0, [pc, #552]	; (800286c <BSP_AUDIO_IN_InitEx+0x554>)
 8002642:	f000 fb67 	bl	8002d14 <HAL_DFSDM_FilterConfigRegChannel>
 8002646:	4603      	mov	r3, r0
 8002648:	2800      	cmp	r0, #0
 800264a:	f47f af65 	bne.w	8002518 <BSP_AUDIO_IN_InitEx+0x200>
 800264e:	f8df 8250 	ldr.w	r8, [pc, #592]	; 80028a0 <BSP_AUDIO_IN_InitEx+0x588>
 8002652:	f44f 5900 	mov.w	r9, #8192	; 0x2000
 8002656:	4a88      	ldr	r2, [pc, #544]	; (8002878 <BSP_AUDIO_IN_InitEx+0x560>)
 8002658:	f888 004c 	strb.w	r0, [r8, #76]	; 0x4c
 800265c:	4640      	mov	r0, r8
 800265e:	f8c8 4004 	str.w	r4, [r8, #4]
 8002662:	f888 4008 	strb.w	r4, [r8, #8]
 8002666:	f888 4009 	strb.w	r4, [r8, #9]
 800266a:	f8c8 300c 	str.w	r3, [r8, #12]
 800266e:	f888 3010 	strb.w	r3, [r8, #16]
 8002672:	f888 3011 	strb.w	r3, [r8, #17]
 8002676:	f8c8 3014 	str.w	r3, [r8, #20]
 800267a:	f8c8 4024 	str.w	r4, [r8, #36]	; 0x24
 800267e:	f8c8 2000 	str.w	r2, [r8]
 8002682:	f8c8 9018 	str.w	r9, [r8, #24]
 8002686:	e9c8 5707 	strd	r5, r7, [r8, #28]
 800268a:	f000 facd 	bl	8002c28 <HAL_DFSDM_FilterInit>
 800268e:	2800      	cmp	r0, #0
 8002690:	f47f af42 	bne.w	8002518 <BSP_AUDIO_IN_InitEx+0x200>
 8002694:	4640      	mov	r0, r8
 8002696:	4622      	mov	r2, r4
 8002698:	4621      	mov	r1, r4
 800269a:	f000 fb3b 	bl	8002d14 <HAL_DFSDM_FilterConfigRegChannel>
 800269e:	4603      	mov	r3, r0
 80026a0:	2800      	cmp	r0, #0
 80026a2:	f47f af39 	bne.w	8002518 <BSP_AUDIO_IN_InitEx+0x200>
 80026a6:	7832      	ldrb	r2, [r6, #0]
 80026a8:	2a02      	cmp	r2, #2
 80026aa:	f67f af35 	bls.w	8002518 <BSP_AUDIO_IN_InitEx+0x200>
 80026ae:	4e73      	ldr	r6, [pc, #460]	; (800287c <BSP_AUDIO_IN_InitEx+0x564>)
 80026b0:	4a73      	ldr	r2, [pc, #460]	; (8002880 <BSP_AUDIO_IN_InitEx+0x568>)
 80026b2:	f886 004c 	strb.w	r0, [r6, #76]	; 0x4c
 80026b6:	4630      	mov	r0, r6
 80026b8:	6074      	str	r4, [r6, #4]
 80026ba:	7234      	strb	r4, [r6, #8]
 80026bc:	7274      	strb	r4, [r6, #9]
 80026be:	60f3      	str	r3, [r6, #12]
 80026c0:	7434      	strb	r4, [r6, #16]
 80026c2:	7473      	strb	r3, [r6, #17]
 80026c4:	6274      	str	r4, [r6, #36]	; 0x24
 80026c6:	6032      	str	r2, [r6, #0]
 80026c8:	e9c6 3905 	strd	r3, r9, [r6, #20]
 80026cc:	e9c6 5707 	strd	r5, r7, [r6, #28]
 80026d0:	f000 faaa 	bl	8002c28 <HAL_DFSDM_FilterInit>
 80026d4:	2800      	cmp	r0, #0
 80026d6:	f47f af1f 	bne.w	8002518 <BSP_AUDIO_IN_InitEx+0x200>
 80026da:	4630      	mov	r0, r6
 80026dc:	4622      	mov	r2, r4
 80026de:	4969      	ldr	r1, [pc, #420]	; (8002884 <BSP_AUDIO_IN_InitEx+0x56c>)
 80026e0:	f000 fb18 	bl	8002d14 <HAL_DFSDM_FilterConfigRegChannel>
 80026e4:	4603      	mov	r3, r0
 80026e6:	2800      	cmp	r0, #0
 80026e8:	f47f af16 	bne.w	8002518 <BSP_AUDIO_IN_InitEx+0x200>
 80026ec:	4e66      	ldr	r6, [pc, #408]	; (8002888 <BSP_AUDIO_IN_InitEx+0x570>)
 80026ee:	4a67      	ldr	r2, [pc, #412]	; (800288c <BSP_AUDIO_IN_InitEx+0x574>)
 80026f0:	f886 004c 	strb.w	r0, [r6, #76]	; 0x4c
 80026f4:	4630      	mov	r0, r6
 80026f6:	6074      	str	r4, [r6, #4]
 80026f8:	7234      	strb	r4, [r6, #8]
 80026fa:	7274      	strb	r4, [r6, #9]
 80026fc:	60f3      	str	r3, [r6, #12]
 80026fe:	7433      	strb	r3, [r6, #16]
 8002700:	7473      	strb	r3, [r6, #17]
 8002702:	6274      	str	r4, [r6, #36]	; 0x24
 8002704:	6032      	str	r2, [r6, #0]
 8002706:	e9c6 5707 	strd	r5, r7, [r6, #28]
 800270a:	e9c6 3905 	strd	r3, r9, [r6, #20]
 800270e:	f000 fa8b 	bl	8002c28 <HAL_DFSDM_FilterInit>
 8002712:	4605      	mov	r5, r0
 8002714:	2800      	cmp	r0, #0
 8002716:	f47f aeff 	bne.w	8002518 <BSP_AUDIO_IN_InitEx+0x200>
 800271a:	4622      	mov	r2, r4
 800271c:	4630      	mov	r0, r6
 800271e:	495c      	ldr	r1, [pc, #368]	; (8002890 <BSP_AUDIO_IN_InitEx+0x578>)
 8002720:	f000 faf8 	bl	8002d14 <HAL_DFSDM_FilterConfigRegChannel>
 8002724:	4628      	mov	r0, r5
 8002726:	e697      	b.n	8002458 <BSP_AUDIO_IN_InitEx+0x140>
 8002728:	2418      	movs	r4, #24
 800272a:	2104      	movs	r1, #4
 800272c:	220a      	movs	r2, #10
 800272e:	625f      	str	r7, [r3, #36]	; 0x24
 8002730:	62df      	str	r7, [r3, #44]	; 0x2c
 8002732:	2508      	movs	r5, #8
 8002734:	60dc      	str	r4, [r3, #12]
 8002736:	6219      	str	r1, [r3, #32]
 8002738:	629a      	str	r2, [r3, #40]	; 0x28
 800273a:	e9c3 7704 	strd	r7, r7, [r3, #16]
 800273e:	e9c3 7706 	strd	r7, r7, [r3, #24]
 8002742:	e6e3      	b.n	800250c <BSP_AUDIO_IN_InitEx+0x1f4>
 8002744:	2204      	movs	r2, #4
 8002746:	210a      	movs	r1, #10
 8002748:	625f      	str	r7, [r3, #36]	; 0x24
 800274a:	2508      	movs	r5, #8
 800274c:	62df      	str	r7, [r3, #44]	; 0x2c
 800274e:	4614      	mov	r4, r2
 8002750:	60da      	str	r2, [r3, #12]
 8002752:	621a      	str	r2, [r3, #32]
 8002754:	6299      	str	r1, [r3, #40]	; 0x28
 8002756:	e9c3 7704 	strd	r7, r7, [r3, #16]
 800275a:	e9c3 7706 	strd	r7, r7, [r3, #24]
 800275e:	e6d5      	b.n	800250c <BSP_AUDIO_IN_InitEx+0x1f4>
 8002760:	f04f 45c0 	mov.w	r5, #1610612736	; 0x60000000
 8002764:	f44f 7780 	mov.w	r7, #256	; 0x100
 8002768:	61dd      	str	r5, [r3, #28]
 800276a:	e75e      	b.n	800262a <BSP_AUDIO_IN_InitEx+0x312>
 800276c:	2204      	movs	r2, #4
 800276e:	210a      	movs	r1, #10
 8002770:	611f      	str	r7, [r3, #16]
 8002772:	463d      	mov	r5, r7
 8002774:	61df      	str	r7, [r3, #28]
 8002776:	4614      	mov	r4, r2
 8002778:	625f      	str	r7, [r3, #36]	; 0x24
 800277a:	62df      	str	r7, [r3, #44]	; 0x2c
 800277c:	60da      	str	r2, [r3, #12]
 800277e:	621a      	str	r2, [r3, #32]
 8002780:	6299      	str	r1, [r3, #40]	; 0x28
 8002782:	e9c3 7705 	strd	r7, r7, [r3, #20]
 8002786:	e6c1      	b.n	800250c <BSP_AUDIO_IN_InitEx+0x1f4>
 8002788:	2204      	movs	r2, #4
 800278a:	210a      	movs	r1, #10
 800278c:	611f      	str	r7, [r3, #16]
 800278e:	4614      	mov	r4, r2
 8002790:	61df      	str	r7, [r3, #28]
 8002792:	625f      	str	r7, [r3, #36]	; 0x24
 8002794:	4615      	mov	r5, r2
 8002796:	62df      	str	r7, [r3, #44]	; 0x2c
 8002798:	60da      	str	r2, [r3, #12]
 800279a:	621a      	str	r2, [r3, #32]
 800279c:	6299      	str	r1, [r3, #40]	; 0x28
 800279e:	e9c3 7705 	strd	r7, r7, [r3, #20]
 80027a2:	e6b3      	b.n	800250c <BSP_AUDIO_IN_InitEx+0x1f4>
 80027a4:	4a3b      	ldr	r2, [pc, #236]	; (8002894 <BSP_AUDIO_IN_InitEx+0x57c>)
 80027a6:	493c      	ldr	r1, [pc, #240]	; (8002898 <BSP_AUDIO_IN_InitEx+0x580>)
 80027a8:	f882 0034 	strb.w	r0, [r2, #52]	; 0x34
 80027ac:	4610      	mov	r0, r2
 80027ae:	f882 b004 	strb.w	fp, [r2, #4]
 80027b2:	6315      	str	r5, [r2, #48]	; 0x30
 80027b4:	6011      	str	r1, [r2, #0]
 80027b6:	e9c2 a402 	strd	sl, r4, [r2, #8]
 80027ba:	e9c2 3304 	strd	r3, r3, [r2, #16]
 80027be:	e9c2 3306 	strd	r3, r3, [r2, #24]
 80027c2:	e9c2 9308 	strd	r9, r3, [r2, #32]
 80027c6:	e9c2 730a 	strd	r7, r3, [r2, #40]	; 0x28
 80027ca:	f000 f9af 	bl	8002b2c <HAL_DFSDM_ChannelInit>
 80027ce:	4602      	mov	r2, r0
 80027d0:	2800      	cmp	r0, #0
 80027d2:	f47f aea1 	bne.w	8002518 <BSP_AUDIO_IN_InitEx+0x200>
 80027d6:	4b31      	ldr	r3, [pc, #196]	; (800289c <BSP_AUDIO_IN_InitEx+0x584>)
 80027d8:	f44f 7180 	mov.w	r1, #256	; 0x100
 80027dc:	f8df c0c4 	ldr.w	ip, [pc, #196]	; 80028a4 <BSP_AUDIO_IN_InitEx+0x58c>
 80027e0:	f883 0034 	strb.w	r0, [r3, #52]	; 0x34
 80027e4:	4618      	mov	r0, r3
 80027e6:	f883 b004 	strb.w	fp, [r3, #4]
 80027ea:	631d      	str	r5, [r3, #48]	; 0x30
 80027ec:	f8c3 c000 	str.w	ip, [r3]
 80027f0:	e9c3 a402 	strd	sl, r4, [r3, #8]
 80027f4:	e9c3 2204 	strd	r2, r2, [r3, #16]
 80027f8:	e9c3 1b06 	strd	r1, fp, [r3, #24]
 80027fc:	e9c3 9208 	strd	r9, r2, [r3, #32]
 8002800:	e9c3 720a 	strd	r7, r2, [r3, #40]	; 0x28
 8002804:	f000 f992 	bl	8002b2c <HAL_DFSDM_ChannelInit>
 8002808:	2800      	cmp	r0, #0
 800280a:	f43f aec7 	beq.w	800259c <BSP_AUDIO_IN_InitEx+0x284>
 800280e:	e683      	b.n	8002518 <BSP_AUDIO_IN_InitEx+0x200>
 8002810:	2418      	movs	r4, #24
 8002812:	2104      	movs	r1, #4
 8002814:	220a      	movs	r2, #10
 8002816:	625f      	str	r7, [r3, #36]	; 0x24
 8002818:	62df      	str	r7, [r3, #44]	; 0x2c
 800281a:	2507      	movs	r5, #7
 800281c:	60dc      	str	r4, [r3, #12]
 800281e:	6219      	str	r1, [r3, #32]
 8002820:	629a      	str	r2, [r3, #40]	; 0x28
 8002822:	e9c3 7704 	strd	r7, r7, [r3, #16]
 8002826:	e9c3 7706 	strd	r7, r7, [r3, #24]
 800282a:	e66f      	b.n	800250c <BSP_AUDIO_IN_InitEx+0x1f4>
 800282c:	2780      	movs	r7, #128	; 0x80
 800282e:	e6fc      	b.n	800262a <BSP_AUDIO_IN_InitEx+0x312>
 8002830:	f44f 7780 	mov.w	r7, #256	; 0x100
 8002834:	e6f9      	b.n	800262a <BSP_AUDIO_IN_InitEx+0x312>
 8002836:	f5b8 4ffa 	cmp.w	r8, #32000	; 0x7d00
 800283a:	d00e      	beq.n	800285a <BSP_AUDIO_IN_InitEx+0x542>
 800283c:	f64a 4144 	movw	r1, #44100	; 0xac44
 8002840:	4588      	cmp	r8, r1
 8002842:	f43f aed5 	beq.w	80025f0 <BSP_AUDIO_IN_InitEx+0x2d8>
 8002846:	f64b 3180 	movw	r1, #48000	; 0xbb80
 800284a:	4588      	cmp	r8, r1
 800284c:	f43f aed0 	beq.w	80025f0 <BSP_AUDIO_IN_InitEx+0x2d8>
 8002850:	f04f 4520 	mov.w	r5, #2684354560	; 0xa0000000
 8002854:	e6ce      	b.n	80025f4 <BSP_AUDIO_IN_InitEx+0x2dc>
 8002856:	2740      	movs	r7, #64	; 0x40
 8002858:	e6e7      	b.n	800262a <BSP_AUDIO_IN_InitEx+0x312>
 800285a:	f04f 4500 	mov.w	r5, #2147483648	; 0x80000000
 800285e:	61dd      	str	r5, [r3, #28]
 8002860:	e6d4      	b.n	800260c <BSP_AUDIO_IN_InitEx+0x2f4>
 8002862:	bf00      	nop
 8002864:	2000dbf0 	.word	0x2000dbf0
 8002868:	40017400 	.word	0x40017400
 800286c:	2000da98 	.word	0x2000da98
 8002870:	40017500 	.word	0x40017500
 8002874:	00010002 	.word	0x00010002
 8002878:	40017580 	.word	0x40017580
 800287c:	2000dc28 	.word	0x2000dc28
 8002880:	40017600 	.word	0x40017600
 8002884:	00050020 	.word	0x00050020
 8002888:	2000d8dc 	.word	0x2000d8dc
 800288c:	40017680 	.word	0x40017680
 8002890:	00040010 	.word	0x00040010
 8002894:	2000dd08 	.word	0x2000dd08
 8002898:	400174a0 	.word	0x400174a0
 800289c:	2000dc7c 	.word	0x2000dc7c
 80028a0:	2000dcb4 	.word	0x2000dcb4
 80028a4:	40017480 	.word	0x40017480

080028a8 <BSP_AUDIO_IN_Init>:
 80028a8:	4613      	mov	r3, r2
 80028aa:	460a      	mov	r2, r1
 80028ac:	4601      	mov	r1, r0
 80028ae:	2000      	movs	r0, #0
 80028b0:	f7ff bd32 	b.w	8002318 <BSP_AUDIO_IN_InitEx>

080028b4 <BSP_SD_AbortCallback>:
 80028b4:	4770      	bx	lr
 80028b6:	bf00      	nop

080028b8 <HAL_SD_AbortCallback>:
 80028b8:	b508      	push	{r3, lr}
 80028ba:	f7ff fffb 	bl	80028b4 <BSP_SD_AbortCallback>
 80028be:	bd08      	pop	{r3, pc}

080028c0 <BSP_SD_WriteCpltCallback>:
 80028c0:	4770      	bx	lr
 80028c2:	bf00      	nop

080028c4 <HAL_SD_TxCpltCallback>:
 80028c4:	b508      	push	{r3, lr}
 80028c6:	f7ff fffb 	bl	80028c0 <BSP_SD_WriteCpltCallback>
 80028ca:	bd08      	pop	{r3, pc}

080028cc <BSP_SD_ReadCpltCallback>:
 80028cc:	4770      	bx	lr
 80028ce:	bf00      	nop

080028d0 <HAL_SD_RxCpltCallback>:
 80028d0:	b508      	push	{r3, lr}
 80028d2:	f7ff fffb 	bl	80028cc <BSP_SD_ReadCpltCallback>
 80028d6:	bd08      	pop	{r3, pc}

080028d8 <HAL_MspInit>:
 80028d8:	4770      	bx	lr
 80028da:	bf00      	nop

080028dc <HAL_InitTick>:
 80028dc:	4a0e      	ldr	r2, [pc, #56]	; (8002918 <HAL_InitTick+0x3c>)
 80028de:	f44f 737a 	mov.w	r3, #1000	; 0x3e8
 80028e2:	490e      	ldr	r1, [pc, #56]	; (800291c <HAL_InitTick+0x40>)
 80028e4:	7812      	ldrb	r2, [r2, #0]
 80028e6:	fbb3 f3f2 	udiv	r3, r3, r2
 80028ea:	b510      	push	{r4, lr}
 80028ec:	4604      	mov	r4, r0
 80028ee:	6808      	ldr	r0, [r1, #0]
 80028f0:	fbb0 f0f3 	udiv	r0, r0, r3
 80028f4:	f000 f8a4 	bl	8002a40 <HAL_SYSTICK_Config>
 80028f8:	b908      	cbnz	r0, 80028fe <HAL_InitTick+0x22>
 80028fa:	2c0f      	cmp	r4, #15
 80028fc:	d901      	bls.n	8002902 <HAL_InitTick+0x26>
 80028fe:	2001      	movs	r0, #1
 8002900:	bd10      	pop	{r4, pc}
 8002902:	2200      	movs	r2, #0
 8002904:	4621      	mov	r1, r4
 8002906:	f04f 30ff 	mov.w	r0, #4294967295	; 0xffffffff
 800290a:	f000 f855 	bl	80029b8 <HAL_NVIC_SetPriority>
 800290e:	4b04      	ldr	r3, [pc, #16]	; (8002920 <HAL_InitTick+0x44>)
 8002910:	2000      	movs	r0, #0
 8002912:	601c      	str	r4, [r3, #0]
 8002914:	bd10      	pop	{r4, pc}
 8002916:	bf00      	nop
 8002918:	20000045 	.word	0x20000045
 800291c:	2000005c 	.word	0x2000005c
 8002920:	20000048 	.word	0x20000048

08002924 <HAL_Init>:
 8002924:	4a07      	ldr	r2, [pc, #28]	; (8002944 <HAL_Init+0x20>)
 8002926:	2003      	movs	r0, #3
 8002928:	b508      	push	{r3, lr}
 800292a:	6813      	ldr	r3, [r2, #0]
 800292c:	f443 7300 	orr.w	r3, r3, #512	; 0x200
 8002930:	6013      	str	r3, [r2, #0]
 8002932:	f000 f82d 	bl	8002990 <HAL_NVIC_SetPriorityGrouping>
 8002936:	200f      	movs	r0, #15
 8002938:	f7ff ffd0 	bl	80028dc <HAL_InitTick>
 800293c:	f7ff ffcc 	bl	80028d8 <HAL_MspInit>
 8002940:	2000      	movs	r0, #0
 8002942:	bd08      	pop	{r3, pc}
 8002944:	40023c00 	.word	0x40023c00

08002948 <HAL_IncTick>:
 8002948:	4a03      	ldr	r2, [pc, #12]	; (8002958 <HAL_IncTick+0x10>)
 800294a:	4b04      	ldr	r3, [pc, #16]	; (800295c <HAL_IncTick+0x14>)
 800294c:	6811      	ldr	r1, [r2, #0]
 800294e:	781b      	ldrb	r3, [r3, #0]
 8002950:	440b      	add	r3, r1
 8002952:	6013      	str	r3, [r2, #0]
 8002954:	4770      	bx	lr
 8002956:	bf00      	nop
 8002958:	2000de58 	.word	0x2000de58
 800295c:	20000045 	.word	0x20000045

08002960 <HAL_GetTick>:
 8002960:	4b01      	ldr	r3, [pc, #4]	; (8002968 <HAL_GetTick+0x8>)
 8002962:	6818      	ldr	r0, [r3, #0]
 8002964:	4770      	bx	lr
 8002966:	bf00      	nop
 8002968:	2000de58 	.word	0x2000de58

0800296c <HAL_Delay>:
 800296c:	b538      	push	{r3, r4, r5, lr}
 800296e:	4604      	mov	r4, r0
 8002970:	f7ff fff6 	bl	8002960 <HAL_GetTick>
 8002974:	4605      	mov	r5, r0
 8002976:	1c63      	adds	r3, r4, #1
 8002978:	d002      	beq.n	8002980 <HAL_Delay+0x14>
 800297a:	4b04      	ldr	r3, [pc, #16]	; (800298c <HAL_Delay+0x20>)
 800297c:	781b      	ldrb	r3, [r3, #0]
 800297e:	441c      	add	r4, r3
 8002980:	f7ff ffee 	bl	8002960 <HAL_GetTick>
 8002984:	1b40      	subs	r0, r0, r5
 8002986:	42a0      	cmp	r0, r4
 8002988:	d3fa      	bcc.n	8002980 <HAL_Delay+0x14>
 800298a:	bd38      	pop	{r3, r4, r5, pc}
 800298c:	20000045 	.word	0x20000045

08002990 <HAL_NVIC_SetPriorityGrouping>:
 8002990:	4907      	ldr	r1, [pc, #28]	; (80029b0 <HAL_NVIC_SetPriorityGrouping+0x20>)
 8002992:	0200      	lsls	r0, r0, #8
 8002994:	4b07      	ldr	r3, [pc, #28]	; (80029b4 <HAL_NVIC_SetPriorityGrouping+0x24>)
 8002996:	68ca      	ldr	r2, [r1, #12]
 8002998:	f400 60e0 	and.w	r0, r0, #1792	; 0x700
 800299c:	b410      	push	{r4}
 800299e:	f64f 04ff 	movw	r4, #63743	; 0xf8ff
 80029a2:	4022      	ands	r2, r4
 80029a4:	f85d 4b04 	ldr.w	r4, [sp], #4
 80029a8:	4313      	orrs	r3, r2
 80029aa:	4318      	orrs	r0, r3
 80029ac:	60c8      	str	r0, [r1, #12]
 80029ae:	4770      	bx	lr
 80029b0:	e000ed00 	.word	0xe000ed00
 80029b4:	05fa0000 	.word	0x05fa0000

080029b8 <HAL_NVIC_SetPriority>:
 80029b8:	4b17      	ldr	r3, [pc, #92]	; (8002a18 <HAL_NVIC_SetPriority+0x60>)
 80029ba:	68db      	ldr	r3, [r3, #12]
 80029bc:	f3c3 2302 	ubfx	r3, r3, #8, #3
 80029c0:	b430      	push	{r4, r5}
 80029c2:	f1c3 0507 	rsb	r5, r3, #7
 80029c6:	1d1c      	adds	r4, r3, #4
 80029c8:	2d04      	cmp	r5, #4
 80029ca:	bf28      	it	cs
 80029cc:	2504      	movcs	r5, #4
 80029ce:	2c06      	cmp	r4, #6
 80029d0:	d918      	bls.n	8002a04 <HAL_NVIC_SetPriority+0x4c>
 80029d2:	3b03      	subs	r3, #3
 80029d4:	f04f 34ff 	mov.w	r4, #4294967295	; 0xffffffff
 80029d8:	409c      	lsls	r4, r3
 80029da:	ea22 0404 	bic.w	r4, r2, r4
 80029de:	f04f 32ff 	mov.w	r2, #4294967295	; 0xffffffff
 80029e2:	2800      	cmp	r0, #0
 80029e4:	fa02 f205 	lsl.w	r2, r2, r5
 80029e8:	ea21 0102 	bic.w	r1, r1, r2
 80029ec:	fa01 f203 	lsl.w	r2, r1, r3
 80029f0:	ea42 0204 	orr.w	r2, r2, r4
 80029f4:	ea4f 1202 	mov.w	r2, r2, lsl #4
 80029f8:	b2d2      	uxtb	r2, r2
 80029fa:	db06      	blt.n	8002a0a <HAL_NVIC_SetPriority+0x52>
 80029fc:	4b07      	ldr	r3, [pc, #28]	; (8002a1c <HAL_NVIC_SetPriority+0x64>)
 80029fe:	541a      	strb	r2, [r3, r0]
 8002a00:	bc30      	pop	{r4, r5}
 8002a02:	4770      	bx	lr
 8002a04:	2400      	movs	r4, #0
 8002a06:	4623      	mov	r3, r4
 8002a08:	e7e9      	b.n	80029de <HAL_NVIC_SetPriority+0x26>
 8002a0a:	f000 000f 	and.w	r0, r0, #15
 8002a0e:	4b04      	ldr	r3, [pc, #16]	; (8002a20 <HAL_NVIC_SetPriority+0x68>)
 8002a10:	541a      	strb	r2, [r3, r0]
 8002a12:	bc30      	pop	{r4, r5}
 8002a14:	4770      	bx	lr
 8002a16:	bf00      	nop
 8002a18:	e000ed00 	.word	0xe000ed00
 8002a1c:	e000e400 	.word	0xe000e400
 8002a20:	e000ed14 	.word	0xe000ed14

08002a24 <HAL_NVIC_EnableIRQ>:
 8002a24:	2800      	cmp	r0, #0
 8002a26:	db07      	blt.n	8002a38 <HAL_NVIC_EnableIRQ+0x14>
 8002a28:	f000 011f 	and.w	r1, r0, #31
 8002a2c:	2301      	movs	r3, #1
 8002a2e:	0940      	lsrs	r0, r0, #5
 8002a30:	4a02      	ldr	r2, [pc, #8]	; (8002a3c <HAL_NVIC_EnableIRQ+0x18>)
 8002a32:	408b      	lsls	r3, r1
 8002a34:	f842 3020 	str.w	r3, [r2, r0, lsl #2]
 8002a38:	4770      	bx	lr
 8002a3a:	bf00      	nop
 8002a3c:	e000e100 	.word	0xe000e100

08002a40 <HAL_SYSTICK_Config>:
 8002a40:	3801      	subs	r0, #1
 8002a42:	f1b0 7f80 	cmp.w	r0, #16777216	; 0x1000000
 8002a46:	d20d      	bcs.n	8002a64 <HAL_SYSTICK_Config+0x24>
 8002a48:	4b07      	ldr	r3, [pc, #28]	; (8002a68 <HAL_SYSTICK_Config+0x28>)
 8002a4a:	2200      	movs	r2, #0
 8002a4c:	2107      	movs	r1, #7
 8002a4e:	b430      	push	{r4, r5}
 8002a50:	25f0      	movs	r5, #240	; 0xf0
 8002a52:	4c06      	ldr	r4, [pc, #24]	; (8002a6c <HAL_SYSTICK_Config+0x2c>)
 8002a54:	6058      	str	r0, [r3, #4]
 8002a56:	4610      	mov	r0, r2
 8002a58:	f884 5023 	strb.w	r5, [r4, #35]	; 0x23
 8002a5c:	609a      	str	r2, [r3, #8]
 8002a5e:	6019      	str	r1, [r3, #0]
 8002a60:	bc30      	pop	{r4, r5}
 8002a62:	4770      	bx	lr
 8002a64:	2001      	movs	r0, #1
 8002a66:	4770      	bx	lr
 8002a68:	e000e010 	.word	0xe000e010
 8002a6c:	e000ed00 	.word	0xe000ed00

08002a70 <DFSDM_RegConvStart>:
 8002a70:	6b41      	ldr	r1, [r0, #52]	; 0x34
 8002a72:	6803      	ldr	r3, [r0, #0]
 8002a74:	f890 204c 	ldrb.w	r2, [r0, #76]	; 0x4c
 8002a78:	b951      	cbnz	r1, 8002a90 <DFSDM_RegConvStart+0x20>
 8002a7a:	6819      	ldr	r1, [r3, #0]
 8002a7c:	f441 3100 	orr.w	r1, r1, #131072	; 0x20000
 8002a80:	6019      	str	r1, [r3, #0]
 8002a82:	2a01      	cmp	r2, #1
 8002a84:	bf14      	ite	ne
 8002a86:	2304      	movne	r3, #4
 8002a88:	2302      	moveq	r3, #2
 8002a8a:	f880 304c 	strb.w	r3, [r0, #76]	; 0x4c
 8002a8e:	4770      	bx	lr
 8002a90:	6819      	ldr	r1, [r3, #0]
 8002a92:	2a03      	cmp	r2, #3
 8002a94:	f021 0101 	bic.w	r1, r1, #1
 8002a98:	6019      	str	r1, [r3, #0]
 8002a9a:	6819      	ldr	r1, [r3, #0]
 8002a9c:	f441 2100 	orr.w	r1, r1, #524288	; 0x80000
 8002aa0:	6019      	str	r1, [r3, #0]
 8002aa2:	6819      	ldr	r1, [r3, #0]
 8002aa4:	f041 0101 	orr.w	r1, r1, #1
 8002aa8:	6019      	str	r1, [r3, #0]
 8002aaa:	d1ea      	bne.n	8002a82 <DFSDM_RegConvStart+0x12>
 8002aac:	6b82      	ldr	r2, [r0, #56]	; 0x38
 8002aae:	b91a      	cbnz	r2, 8002ab8 <DFSDM_RegConvStart+0x48>
 8002ab0:	681a      	ldr	r2, [r3, #0]
 8002ab2:	f042 0202 	orr.w	r2, r2, #2
 8002ab6:	601a      	str	r2, [r3, #0]
 8002ab8:	f890 3040 	ldrb.w	r3, [r0, #64]	; 0x40
 8002abc:	2b01      	cmp	r3, #1
 8002abe:	bf0c      	ite	eq
 8002ac0:	6c43      	ldreq	r3, [r0, #68]	; 0x44
 8002ac2:	2301      	movne	r3, #1
 8002ac4:	6483      	str	r3, [r0, #72]	; 0x48
 8002ac6:	2304      	movs	r3, #4
 8002ac8:	f880 304c 	strb.w	r3, [r0, #76]	; 0x4c
 8002acc:	4770      	bx	lr
 8002ace:	bf00      	nop

08002ad0 <DFSDM_GetChannelFromInstance>:
 8002ad0:	4b14      	ldr	r3, [pc, #80]	; (8002b24 <DFSDM_GetChannelFromInstance+0x54>)
 8002ad2:	4298      	cmp	r0, r3
 8002ad4:	d017      	beq.n	8002b06 <DFSDM_GetChannelFromInstance+0x36>
 8002ad6:	3320      	adds	r3, #32
 8002ad8:	4298      	cmp	r0, r3
 8002ada:	d018      	beq.n	8002b0e <DFSDM_GetChannelFromInstance+0x3e>
 8002adc:	3320      	adds	r3, #32
 8002ade:	4298      	cmp	r0, r3
 8002ae0:	d013      	beq.n	8002b0a <DFSDM_GetChannelFromInstance+0x3a>
 8002ae2:	3320      	adds	r3, #32
 8002ae4:	4298      	cmp	r0, r3
 8002ae6:	d014      	beq.n	8002b12 <DFSDM_GetChannelFromInstance+0x42>
 8002ae8:	3320      	adds	r3, #32
 8002aea:	4298      	cmp	r0, r3
 8002aec:	d013      	beq.n	8002b16 <DFSDM_GetChannelFromInstance+0x46>
 8002aee:	3320      	adds	r3, #32
 8002af0:	4298      	cmp	r0, r3
 8002af2:	d012      	beq.n	8002b1a <DFSDM_GetChannelFromInstance+0x4a>
 8002af4:	3320      	adds	r3, #32
 8002af6:	4298      	cmp	r0, r3
 8002af8:	d011      	beq.n	8002b1e <DFSDM_GetChannelFromInstance+0x4e>
 8002afa:	3320      	adds	r3, #32
 8002afc:	4298      	cmp	r0, r3
 8002afe:	bf14      	ite	ne
 8002b00:	20ff      	movne	r0, #255	; 0xff
 8002b02:	2007      	moveq	r0, #7
 8002b04:	4770      	bx	lr
 8002b06:	2000      	movs	r0, #0
 8002b08:	4770      	bx	lr
 8002b0a:	2002      	movs	r0, #2
 8002b0c:	4770      	bx	lr
 8002b0e:	2001      	movs	r0, #1
 8002b10:	4770      	bx	lr
 8002b12:	2003      	movs	r0, #3
 8002b14:	4770      	bx	lr
 8002b16:	2004      	movs	r0, #4
 8002b18:	4770      	bx	lr
 8002b1a:	2005      	movs	r0, #5
 8002b1c:	4770      	bx	lr
 8002b1e:	2006      	movs	r0, #6
 8002b20:	4770      	bx	lr
 8002b22:	bf00      	nop
 8002b24:	40017400 	.word	0x40017400

08002b28 <HAL_DFSDM_ChannelMspInit>:
 8002b28:	4770      	bx	lr
 8002b2a:	bf00      	nop

08002b2c <HAL_DFSDM_ChannelInit>:
 8002b2c:	b5f8      	push	{r3, r4, r5, r6, r7, lr}
 8002b2e:	b138      	cbz	r0, 8002b40 <HAL_DFSDM_ChannelInit+0x14>
 8002b30:	4d39      	ldr	r5, [pc, #228]	; (8002c18 <HAL_DFSDM_ChannelInit+0xec>)
 8002b32:	4604      	mov	r4, r0
 8002b34:	6800      	ldr	r0, [r0, #0]
 8002b36:	f7ff ffcb 	bl	8002ad0 <DFSDM_GetChannelFromInstance>
 8002b3a:	f855 3020 	ldr.w	r3, [r5, r0, lsl #2]
 8002b3e:	b113      	cbz	r3, 8002b46 <HAL_DFSDM_ChannelInit+0x1a>
 8002b40:	2301      	movs	r3, #1
 8002b42:	4618      	mov	r0, r3
 8002b44:	bdf8      	pop	{r3, r4, r5, r6, r7, pc}
 8002b46:	4620      	mov	r0, r4
 8002b48:	f7ff ffee 	bl	8002b28 <HAL_DFSDM_ChannelMspInit>
 8002b4c:	4b33      	ldr	r3, [pc, #204]	; (8002c1c <HAL_DFSDM_ChannelInit+0xf0>)
 8002b4e:	681a      	ldr	r2, [r3, #0]
 8002b50:	3201      	adds	r2, #1
 8002b52:	601a      	str	r2, [r3, #0]
 8002b54:	681b      	ldr	r3, [r3, #0]
 8002b56:	2b01      	cmp	r3, #1
 8002b58:	d041      	beq.n	8002bde <HAL_DFSDM_ChannelInit+0xb2>
 8002b5a:	6823      	ldr	r3, [r4, #0]
 8002b5c:	2601      	movs	r6, #1
 8002b5e:	6960      	ldr	r0, [r4, #20]
 8002b60:	6819      	ldr	r1, [r3, #0]
 8002b62:	6922      	ldr	r2, [r4, #16]
 8002b64:	f421 4171 	bic.w	r1, r1, #61696	; 0xf100
 8002b68:	f8d4 c024 	ldr.w	ip, [r4, #36]	; 0x24
 8002b6c:	4302      	orrs	r2, r0
 8002b6e:	69a0      	ldr	r0, [r4, #24]
 8002b70:	6019      	str	r1, [r3, #0]
 8002b72:	4302      	orrs	r2, r0
 8002b74:	6818      	ldr	r0, [r3, #0]
 8002b76:	69e1      	ldr	r1, [r4, #28]
 8002b78:	4302      	orrs	r2, r0
 8002b7a:	6a20      	ldr	r0, [r4, #32]
 8002b7c:	601a      	str	r2, [r3, #0]
 8002b7e:	ea41 0200 	orr.w	r2, r1, r0
 8002b82:	681f      	ldr	r7, [r3, #0]
 8002b84:	4618      	mov	r0, r3
 8002b86:	f027 070f 	bic.w	r7, r7, #15
 8002b8a:	601f      	str	r7, [r3, #0]
 8002b8c:	6819      	ldr	r1, [r3, #0]
 8002b8e:	6aa7      	ldr	r7, [r4, #40]	; 0x28
 8002b90:	430a      	orrs	r2, r1
 8002b92:	3f01      	subs	r7, #1
 8002b94:	601a      	str	r2, [r3, #0]
 8002b96:	689a      	ldr	r2, [r3, #8]
 8002b98:	f422 025f 	bic.w	r2, r2, #14614528	; 0xdf0000
 8002b9c:	609a      	str	r2, [r3, #8]
 8002b9e:	6899      	ldr	r1, [r3, #8]
 8002ba0:	ea41 010c 	orr.w	r1, r1, ip
 8002ba4:	f8d4 c030 	ldr.w	ip, [r4, #48]	; 0x30
 8002ba8:	ea41 4107 	orr.w	r1, r1, r7, lsl #16
 8002bac:	6ae7      	ldr	r7, [r4, #44]	; 0x2c
 8002bae:	6099      	str	r1, [r3, #8]
 8002bb0:	6859      	ldr	r1, [r3, #4]
 8002bb2:	f001 0107 	and.w	r1, r1, #7
 8002bb6:	6059      	str	r1, [r3, #4]
 8002bb8:	685a      	ldr	r2, [r3, #4]
 8002bba:	ea42 02cc 	orr.w	r2, r2, ip, lsl #3
 8002bbe:	ea42 2207 	orr.w	r2, r2, r7, lsl #8
 8002bc2:	605a      	str	r2, [r3, #4]
 8002bc4:	681a      	ldr	r2, [r3, #0]
 8002bc6:	f042 0280 	orr.w	r2, r2, #128	; 0x80
 8002bca:	601a      	str	r2, [r3, #0]
 8002bcc:	f884 6034 	strb.w	r6, [r4, #52]	; 0x34
 8002bd0:	f7ff ff7e 	bl	8002ad0 <DFSDM_GetChannelFromInstance>
 8002bd4:	2300      	movs	r3, #0
 8002bd6:	f845 4020 	str.w	r4, [r5, r0, lsl #2]
 8002bda:	4618      	mov	r0, r3
 8002bdc:	bdf8      	pop	{r3, r4, r5, r6, r7, pc}
 8002bde:	4b10      	ldr	r3, [pc, #64]	; (8002c20 <HAL_DFSDM_ChannelInit+0xf4>)
 8002be0:	7921      	ldrb	r1, [r4, #4]
 8002be2:	681a      	ldr	r2, [r3, #0]
 8002be4:	2901      	cmp	r1, #1
 8002be6:	f022 4280 	bic.w	r2, r2, #1073741824	; 0x40000000
 8002bea:	601a      	str	r2, [r3, #0]
 8002bec:	681a      	ldr	r2, [r3, #0]
 8002bee:	68a0      	ldr	r0, [r4, #8]
 8002bf0:	ea42 0200 	orr.w	r2, r2, r0
 8002bf4:	601a      	str	r2, [r3, #0]
 8002bf6:	681a      	ldr	r2, [r3, #0]
 8002bf8:	f422 027f 	bic.w	r2, r2, #16711680	; 0xff0000
 8002bfc:	601a      	str	r2, [r3, #0]
 8002bfe:	d105      	bne.n	8002c0c <HAL_DFSDM_ChannelInit+0xe0>
 8002c00:	68e1      	ldr	r1, [r4, #12]
 8002c02:	681a      	ldr	r2, [r3, #0]
 8002c04:	3901      	subs	r1, #1
 8002c06:	ea42 4201 	orr.w	r2, r2, r1, lsl #16
 8002c0a:	601a      	str	r2, [r3, #0]
 8002c0c:	4a04      	ldr	r2, [pc, #16]	; (8002c20 <HAL_DFSDM_ChannelInit+0xf4>)
 8002c0e:	6813      	ldr	r3, [r2, #0]
 8002c10:	f043 4300 	orr.w	r3, r3, #2147483648	; 0x80000000
 8002c14:	6013      	str	r3, [r2, #0]
 8002c16:	e7a0      	b.n	8002b5a <HAL_DFSDM_ChannelInit+0x2e>
 8002c18:	20000270 	.word	0x20000270
 8002c1c:	20000290 	.word	0x20000290
 8002c20:	40017400 	.word	0x40017400

08002c24 <HAL_DFSDM_FilterMspInit>:
 8002c24:	4770      	bx	lr
 8002c26:	bf00      	nop

08002c28 <HAL_DFSDM_FilterInit>:
 8002c28:	2800      	cmp	r0, #0
 8002c2a:	d066      	beq.n	8002cfa <HAL_DFSDM_FilterInit+0xd2>
 8002c2c:	6802      	ldr	r2, [r0, #0]
 8002c2e:	b5f8      	push	{r3, r4, r5, r6, r7, lr}
 8002c30:	4b35      	ldr	r3, [pc, #212]	; (8002d08 <HAL_DFSDM_FilterInit+0xe0>)
 8002c32:	429a      	cmp	r2, r3
 8002c34:	d059      	beq.n	8002cea <HAL_DFSDM_FilterInit+0xc2>
 8002c36:	2200      	movs	r2, #0
 8002c38:	2301      	movs	r3, #1
 8002c3a:	4604      	mov	r4, r0
 8002c3c:	6302      	str	r2, [r0, #48]	; 0x30
 8002c3e:	6502      	str	r2, [r0, #80]	; 0x50
 8002c40:	e9c0 3311 	strd	r3, r3, [r0, #68]	; 0x44
 8002c44:	f7ff ffee 	bl	8002c24 <HAL_DFSDM_FilterMspInit>
 8002c48:	6823      	ldr	r3, [r4, #0]
 8002c4a:	7a21      	ldrb	r1, [r4, #8]
 8002c4c:	681a      	ldr	r2, [r3, #0]
 8002c4e:	2901      	cmp	r1, #1
 8002c50:	f422 2200 	bic.w	r2, r2, #524288	; 0x80000
 8002c54:	601a      	str	r2, [r3, #0]
 8002c56:	681a      	ldr	r2, [r3, #0]
 8002c58:	bf0c      	ite	eq
 8002c5a:	f042 5200 	orreq.w	r2, r2, #536870912	; 0x20000000
 8002c5e:	f022 5200 	bicne.w	r2, r2, #536870912	; 0x20000000
 8002c62:	601a      	str	r2, [r3, #0]
 8002c64:	7a62      	ldrb	r2, [r4, #9]
 8002c66:	2a01      	cmp	r2, #1
 8002c68:	681a      	ldr	r2, [r3, #0]
 8002c6a:	bf0c      	ite	eq
 8002c6c:	f442 1200 	orreq.w	r2, r2, #2097152	; 0x200000
 8002c70:	f422 1200 	bicne.w	r2, r2, #2097152	; 0x200000
 8002c74:	601a      	str	r2, [r3, #0]
 8002c76:	4a25      	ldr	r2, [pc, #148]	; (8002d0c <HAL_DFSDM_FilterInit+0xe4>)
 8002c78:	6819      	ldr	r1, [r3, #0]
 8002c7a:	f8d4 c00c 	ldr.w	ip, [r4, #12]
 8002c7e:	400a      	ands	r2, r1
 8002c80:	f1bc 0f02 	cmp.w	ip, #2
 8002c84:	601a      	str	r2, [r3, #0]
 8002c86:	d03a      	beq.n	8002cfe <HAL_DFSDM_FilterInit+0xd6>
 8002c88:	7c25      	ldrb	r5, [r4, #16]
 8002c8a:	2601      	movs	r6, #1
 8002c8c:	681a      	ldr	r2, [r3, #0]
 8002c8e:	2000      	movs	r0, #0
 8002c90:	2d01      	cmp	r5, #1
 8002c92:	491f      	ldr	r1, [pc, #124]	; (8002d10 <HAL_DFSDM_FilterInit+0xe8>)
 8002c94:	bf0c      	ite	eq
 8002c96:	f042 0210 	orreq.w	r2, r2, #16
 8002c9a:	f022 0210 	bicne.w	r2, r2, #16
 8002c9e:	601a      	str	r2, [r3, #0]
 8002ca0:	7c62      	ldrb	r2, [r4, #17]
 8002ca2:	2a01      	cmp	r2, #1
 8002ca4:	681a      	ldr	r2, [r3, #0]
 8002ca6:	bf0c      	ite	eq
 8002ca8:	f042 0220 	orreq.w	r2, r2, #32
 8002cac:	f022 0220 	bicne.w	r2, r2, #32
 8002cb0:	601a      	str	r2, [r3, #0]
 8002cb2:	695a      	ldr	r2, [r3, #20]
 8002cb4:	4011      	ands	r1, r2
 8002cb6:	6a62      	ldr	r2, [r4, #36]	; 0x24
 8002cb8:	6159      	str	r1, [r3, #20]
 8002cba:	3a01      	subs	r2, #1
 8002cbc:	6959      	ldr	r1, [r3, #20]
 8002cbe:	430a      	orrs	r2, r1
 8002cc0:	e9d4 7107 	ldrd	r7, r1, [r4, #28]
 8002cc4:	433a      	orrs	r2, r7
 8002cc6:	3901      	subs	r1, #1
 8002cc8:	6867      	ldr	r7, [r4, #4]
 8002cca:	ea42 4201 	orr.w	r2, r2, r1, lsl #16
 8002cce:	69a1      	ldr	r1, [r4, #24]
 8002cd0:	615a      	str	r2, [r3, #20]
 8002cd2:	681a      	ldr	r2, [r3, #0]
 8002cd4:	f8c4 c038 	str.w	ip, [r4, #56]	; 0x38
 8002cd8:	4332      	orrs	r2, r6
 8002cda:	f884 5040 	strb.w	r5, [r4, #64]	; 0x40
 8002cde:	6367      	str	r7, [r4, #52]	; 0x34
 8002ce0:	63e1      	str	r1, [r4, #60]	; 0x3c
 8002ce2:	601a      	str	r2, [r3, #0]
 8002ce4:	f884 604c 	strb.w	r6, [r4, #76]	; 0x4c
 8002ce8:	bdf8      	pop	{r3, r4, r5, r6, r7, pc}
 8002cea:	6843      	ldr	r3, [r0, #4]
 8002cec:	2b01      	cmp	r3, #1
 8002cee:	d002      	beq.n	8002cf6 <HAL_DFSDM_FilterInit+0xce>
 8002cf0:	68c3      	ldr	r3, [r0, #12]
 8002cf2:	2b01      	cmp	r3, #1
 8002cf4:	d19f      	bne.n	8002c36 <HAL_DFSDM_FilterInit+0xe>
 8002cf6:	4618      	mov	r0, r3
 8002cf8:	bdf8      	pop	{r3, r4, r5, r6, r7, pc}
 8002cfa:	2001      	movs	r0, #1
 8002cfc:	4770      	bx	lr
 8002cfe:	681a      	ldr	r2, [r3, #0]
 8002d00:	6961      	ldr	r1, [r4, #20]
 8002d02:	430a      	orrs	r2, r1
 8002d04:	601a      	str	r2, [r3, #0]
 8002d06:	e7bf      	b.n	8002c88 <HAL_DFSDM_FilterInit+0x60>
 8002d08:	40017500 	.word	0x40017500
 8002d0c:	ffff80f7 	.word	0xffff80f7
 8002d10:	1c00ff00 	.word	0x1c00ff00

08002d14 <HAL_DFSDM_FilterConfigRegChannel>:
 8002d14:	f890 304c 	ldrb.w	r3, [r0, #76]	; 0x4c
 8002d18:	3b01      	subs	r3, #1
 8002d1a:	b2db      	uxtb	r3, r3
 8002d1c:	2bfd      	cmp	r3, #253	; 0xfd
 8002d1e:	d813      	bhi.n	8002d48 <HAL_DFSDM_FilterConfigRegChannel+0x34>
 8002d20:	6803      	ldr	r3, [r0, #0]
 8002d22:	0209      	lsls	r1, r1, #8
 8002d24:	2a01      	cmp	r2, #1
 8002d26:	f001 417f 	and.w	r1, r1, #4278190080	; 0xff000000
 8002d2a:	b430      	push	{r4, r5}
 8002d2c:	681d      	ldr	r5, [r3, #0]
 8002d2e:	bf08      	it	eq
 8002d30:	f441 2180 	orreq.w	r1, r1, #262144	; 0x40000
 8002d34:	4c05      	ldr	r4, [pc, #20]	; (8002d4c <HAL_DFSDM_FilterConfigRegChannel+0x38>)
 8002d36:	402c      	ands	r4, r5
 8002d38:	601c      	str	r4, [r3, #0]
 8002d3a:	681c      	ldr	r4, [r3, #0]
 8002d3c:	4321      	orrs	r1, r4
 8002d3e:	bc30      	pop	{r4, r5}
 8002d40:	6019      	str	r1, [r3, #0]
 8002d42:	6302      	str	r2, [r0, #48]	; 0x30
 8002d44:	2000      	movs	r0, #0
 8002d46:	4770      	bx	lr
 8002d48:	2001      	movs	r0, #1
 8002d4a:	4770      	bx	lr
 8002d4c:	f8fbffff 	.word	0xf8fbffff

08002d50 <HAL_DFSDM_FilterRegularStart_DMA>:
 8002d50:	b5f8      	push	{r3, r4, r5, r6, r7, lr}
 8002d52:	b311      	cbz	r1, 8002d9a <HAL_DFSDM_FilterRegularStart_DMA+0x4a>
 8002d54:	b30a      	cbz	r2, 8002d9a <HAL_DFSDM_FilterRegularStart_DMA+0x4a>
 8002d56:	6806      	ldr	r6, [r0, #0]
 8002d58:	6834      	ldr	r4, [r6, #0]
 8002d5a:	02a3      	lsls	r3, r4, #10
 8002d5c:	d51d      	bpl.n	8002d9a <HAL_DFSDM_FilterRegularStart_DMA+0x4a>
 8002d5e:	6b44      	ldr	r4, [r0, #52]	; 0x34
 8002d60:	b9ac      	cbnz	r4, 8002d8e <HAL_DFSDM_FilterRegularStart_DMA+0x3e>
 8002d62:	6b04      	ldr	r4, [r0, #48]	; 0x30
 8002d64:	b99c      	cbnz	r4, 8002d8e <HAL_DFSDM_FilterRegularStart_DMA+0x3e>
 8002d66:	6a87      	ldr	r7, [r0, #40]	; 0x28
 8002d68:	2a01      	cmp	r2, #1
 8002d6a:	69fb      	ldr	r3, [r7, #28]
 8002d6c:	d000      	beq.n	8002d70 <HAL_DFSDM_FilterRegularStart_DMA+0x20>
 8002d6e:	b1a3      	cbz	r3, 8002d9a <HAL_DFSDM_FilterRegularStart_DMA+0x4a>
 8002d70:	f5b3 7f80 	cmp.w	r3, #256	; 0x100
 8002d74:	d011      	beq.n	8002d9a <HAL_DFSDM_FilterRegularStart_DMA+0x4a>
 8002d76:	f890 304c 	ldrb.w	r3, [r0, #76]	; 0x4c
 8002d7a:	f003 03fd 	and.w	r3, r3, #253	; 0xfd
 8002d7e:	2b01      	cmp	r3, #1
 8002d80:	d10b      	bne.n	8002d9a <HAL_DFSDM_FilterRegularStart_DMA+0x4a>
 8002d82:	4d17      	ldr	r5, [pc, #92]	; (8002de0 <HAL_DFSDM_FilterRegularStart_DMA+0x90>)
 8002d84:	2400      	movs	r4, #0
 8002d86:	4b17      	ldr	r3, [pc, #92]	; (8002de4 <HAL_DFSDM_FilterRegularStart_DMA+0x94>)
 8002d88:	63fd      	str	r5, [r7, #60]	; 0x3c
 8002d8a:	64fb      	str	r3, [r7, #76]	; 0x4c
 8002d8c:	e013      	b.n	8002db6 <HAL_DFSDM_FilterRegularStart_DMA+0x66>
 8002d8e:	f890 404c 	ldrb.w	r4, [r0, #76]	; 0x4c
 8002d92:	f004 04fd 	and.w	r4, r4, #253	; 0xfd
 8002d96:	2c01      	cmp	r4, #1
 8002d98:	d002      	beq.n	8002da0 <HAL_DFSDM_FilterRegularStart_DMA+0x50>
 8002d9a:	2401      	movs	r4, #1
 8002d9c:	4620      	mov	r0, r4
 8002d9e:	bdf8      	pop	{r3, r4, r5, r6, r7, pc}
 8002da0:	6a87      	ldr	r7, [r0, #40]	; 0x28
 8002da2:	4c11      	ldr	r4, [pc, #68]	; (8002de8 <HAL_DFSDM_FilterRegularStart_DMA+0x98>)
 8002da4:	69fb      	ldr	r3, [r7, #28]
 8002da6:	4d0e      	ldr	r5, [pc, #56]	; (8002de0 <HAL_DFSDM_FilterRegularStart_DMA+0x90>)
 8002da8:	f5b3 7f80 	cmp.w	r3, #256	; 0x100
 8002dac:	4b0d      	ldr	r3, [pc, #52]	; (8002de4 <HAL_DFSDM_FilterRegularStart_DMA+0x94>)
 8002dae:	63fd      	str	r5, [r7, #60]	; 0x3c
 8002db0:	bf18      	it	ne
 8002db2:	2400      	movne	r4, #0
 8002db4:	64fb      	str	r3, [r7, #76]	; 0x4c
 8002db6:	4613      	mov	r3, r2
 8002db8:	643c      	str	r4, [r7, #64]	; 0x40
 8002dba:	460a      	mov	r2, r1
 8002dbc:	4605      	mov	r5, r0
 8002dbe:	f106 011c 	add.w	r1, r6, #28
 8002dc2:	4638      	mov	r0, r7
 8002dc4:	f000 f906 	bl	8002fd4 <HAL_DMA_Start_IT>
 8002dc8:	4604      	mov	r4, r0
 8002dca:	b120      	cbz	r0, 8002dd6 <HAL_DFSDM_FilterRegularStart_DMA+0x86>
 8002dcc:	23ff      	movs	r3, #255	; 0xff
 8002dce:	2401      	movs	r4, #1
 8002dd0:	f885 304c 	strb.w	r3, [r5, #76]	; 0x4c
 8002dd4:	e7e2      	b.n	8002d9c <HAL_DFSDM_FilterRegularStart_DMA+0x4c>
 8002dd6:	4628      	mov	r0, r5
 8002dd8:	f7ff fe4a 	bl	8002a70 <DFSDM_RegConvStart>
 8002ddc:	e7de      	b.n	8002d9c <HAL_DFSDM_FilterRegularStart_DMA+0x4c>
 8002dde:	bf00      	nop
 8002de0:	08002ded 	.word	0x08002ded
 8002de4:	08002e09 	.word	0x08002e09
 8002de8:	08002df9 	.word	0x08002df9

08002dec <DFSDM_DMARegularConvCplt>:
 8002dec:	b508      	push	{r3, lr}
 8002dee:	6b80      	ldr	r0, [r0, #56]	; 0x38
 8002df0:	f7fe fe18 	bl	8001a24 <HAL_DFSDM_FilterRegConvCpltCallback>
 8002df4:	bd08      	pop	{r3, pc}
 8002df6:	bf00      	nop

08002df8 <DFSDM_DMARegularHalfConvCplt>:
 8002df8:	b508      	push	{r3, lr}
 8002dfa:	6b80      	ldr	r0, [r0, #56]	; 0x38
 8002dfc:	f7fe ff6c 	bl	8001cd8 <HAL_DFSDM_FilterRegConvHalfCpltCallback>
 8002e00:	bd08      	pop	{r3, pc}
 8002e02:	bf00      	nop

08002e04 <HAL_DFSDM_FilterErrorCallback>:
 8002e04:	4770      	bx	lr
 8002e06:	bf00      	nop

08002e08 <DFSDM_DMAError>:
 8002e08:	b508      	push	{r3, lr}
 8002e0a:	2203      	movs	r2, #3
 8002e0c:	6b83      	ldr	r3, [r0, #56]	; 0x38
 8002e0e:	4618      	mov	r0, r3
 8002e10:	651a      	str	r2, [r3, #80]	; 0x50
 8002e12:	f7ff fff7 	bl	8002e04 <HAL_DFSDM_FilterErrorCallback>
 8002e16:	bd08      	pop	{r3, pc}

08002e18 <HAL_DMA_Init>:
 8002e18:	b5f8      	push	{r3, r4, r5, r6, r7, lr}
 8002e1a:	4604      	mov	r4, r0
 8002e1c:	f7ff fda0 	bl	8002960 <HAL_GetTick>
 8002e20:	2c00      	cmp	r4, #0
 8002e22:	d053      	beq.n	8002ecc <HAL_DMA_Init+0xb4>
 8002e24:	2202      	movs	r2, #2
 8002e26:	6823      	ldr	r3, [r4, #0]
 8002e28:	2100      	movs	r1, #0
 8002e2a:	4605      	mov	r5, r0
 8002e2c:	f884 2035 	strb.w	r2, [r4, #53]	; 0x35
 8002e30:	681a      	ldr	r2, [r3, #0]
 8002e32:	f884 1034 	strb.w	r1, [r4, #52]	; 0x34
 8002e36:	f022 0201 	bic.w	r2, r2, #1
 8002e3a:	601a      	str	r2, [r3, #0]
 8002e3c:	e005      	b.n	8002e4a <HAL_DMA_Init+0x32>
 8002e3e:	f7ff fd8f 	bl	8002960 <HAL_GetTick>
 8002e42:	1b40      	subs	r0, r0, r5
 8002e44:	2805      	cmp	r0, #5
 8002e46:	d83a      	bhi.n	8002ebe <HAL_DMA_Init+0xa6>
 8002e48:	6823      	ldr	r3, [r4, #0]
 8002e4a:	681a      	ldr	r2, [r3, #0]
 8002e4c:	07d1      	lsls	r1, r2, #31
 8002e4e:	d4f6      	bmi.n	8002e3e <HAL_DMA_Init+0x26>
 8002e50:	e9d4 2001 	ldrd	r2, r0, [r4, #4]
 8002e54:	68e1      	ldr	r1, [r4, #12]
 8002e56:	4302      	orrs	r2, r0
 8002e58:	681f      	ldr	r7, [r3, #0]
 8002e5a:	e9d4 0504 	ldrd	r0, r5, [r4, #16]
 8002e5e:	430a      	orrs	r2, r1
 8002e60:	4302      	orrs	r2, r0
 8002e62:	6a20      	ldr	r0, [r4, #32]
 8002e64:	e9d4 6106 	ldrd	r6, r1, [r4, #24]
 8002e68:	432a      	orrs	r2, r5
 8002e6a:	4d35      	ldr	r5, [pc, #212]	; (8002f40 <HAL_DMA_Init+0x128>)
 8002e6c:	4332      	orrs	r2, r6
 8002e6e:	403d      	ands	r5, r7
 8002e70:	430a      	orrs	r2, r1
 8002e72:	6a61      	ldr	r1, [r4, #36]	; 0x24
 8002e74:	4302      	orrs	r2, r0
 8002e76:	2904      	cmp	r1, #4
 8002e78:	ea42 0205 	orr.w	r2, r2, r5
 8002e7c:	d028      	beq.n	8002ed0 <HAL_DMA_Init+0xb8>
 8002e7e:	601a      	str	r2, [r3, #0]
 8002e80:	695a      	ldr	r2, [r3, #20]
 8002e82:	f022 0207 	bic.w	r2, r2, #7
 8002e86:	4311      	orrs	r1, r2
 8002e88:	b2da      	uxtb	r2, r3
 8002e8a:	4d2e      	ldr	r5, [pc, #184]	; (8002f44 <HAL_DMA_Init+0x12c>)
 8002e8c:	6159      	str	r1, [r3, #20]
 8002e8e:	3a10      	subs	r2, #16
 8002e90:	492d      	ldr	r1, [pc, #180]	; (8002f48 <HAL_DMA_Init+0x130>)
 8002e92:	482e      	ldr	r0, [pc, #184]	; (8002f4c <HAL_DMA_Init+0x134>)
 8002e94:	fba5 5202 	umull	r5, r2, r5, r2
 8002e98:	4019      	ands	r1, r3
 8002e9a:	2501      	movs	r5, #1
 8002e9c:	0913      	lsrs	r3, r2, #4
 8002e9e:	2200      	movs	r2, #0
 8002ea0:	5cc0      	ldrb	r0, [r0, r3]
 8002ea2:	2b03      	cmp	r3, #3
 8002ea4:	f04f 033f 	mov.w	r3, #63	; 0x3f
 8002ea8:	bf88      	it	hi
 8002eaa:	3104      	addhi	r1, #4
 8002eac:	65e0      	str	r0, [r4, #92]	; 0x5c
 8002eae:	4083      	lsls	r3, r0
 8002eb0:	4610      	mov	r0, r2
 8002eb2:	65a1      	str	r1, [r4, #88]	; 0x58
 8002eb4:	608b      	str	r3, [r1, #8]
 8002eb6:	6562      	str	r2, [r4, #84]	; 0x54
 8002eb8:	f884 5035 	strb.w	r5, [r4, #53]	; 0x35
 8002ebc:	bdf8      	pop	{r3, r4, r5, r6, r7, pc}
 8002ebe:	2303      	movs	r3, #3
 8002ec0:	2220      	movs	r2, #32
 8002ec2:	4618      	mov	r0, r3
 8002ec4:	6562      	str	r2, [r4, #84]	; 0x54
 8002ec6:	f884 3035 	strb.w	r3, [r4, #53]	; 0x35
 8002eca:	bdf8      	pop	{r3, r4, r5, r6, r7, pc}
 8002ecc:	2001      	movs	r0, #1
 8002ece:	bdf8      	pop	{r3, r4, r5, r6, r7, pc}
 8002ed0:	e9d4 510b 	ldrd	r5, r1, [r4, #44]	; 0x2c
 8002ed4:	6aa7      	ldr	r7, [r4, #40]	; 0x28
 8002ed6:	ea45 0001 	orr.w	r0, r5, r1
 8002eda:	f047 0104 	orr.w	r1, r7, #4
 8002ede:	4302      	orrs	r2, r0
 8002ee0:	601a      	str	r2, [r3, #0]
 8002ee2:	695a      	ldr	r2, [r3, #20]
 8002ee4:	f022 0207 	bic.w	r2, r2, #7
 8002ee8:	4311      	orrs	r1, r2
 8002eea:	2d00      	cmp	r5, #0
 8002eec:	d0cc      	beq.n	8002e88 <HAL_DMA_Init+0x70>
 8002eee:	b17e      	cbz	r6, 8002f10 <HAL_DMA_Init+0xf8>
 8002ef0:	f5b6 5f00 	cmp.w	r6, #8192	; 0x2000
 8002ef4:	d016      	beq.n	8002f24 <HAL_DMA_Init+0x10c>
 8002ef6:	2f02      	cmp	r7, #2
 8002ef8:	d903      	bls.n	8002f02 <HAL_DMA_Init+0xea>
 8002efa:	2f03      	cmp	r7, #3
 8002efc:	d1c4      	bne.n	8002e88 <HAL_DMA_Init+0x70>
 8002efe:	01ea      	lsls	r2, r5, #7
 8002f00:	d5c2      	bpl.n	8002e88 <HAL_DMA_Init+0x70>
 8002f02:	2301      	movs	r3, #1
 8002f04:	2240      	movs	r2, #64	; 0x40
 8002f06:	4618      	mov	r0, r3
 8002f08:	6562      	str	r2, [r4, #84]	; 0x54
 8002f0a:	f884 3035 	strb.w	r3, [r4, #53]	; 0x35
 8002f0e:	bdf8      	pop	{r3, r4, r5, r6, r7, pc}
 8002f10:	2f01      	cmp	r7, #1
 8002f12:	d003      	beq.n	8002f1c <HAL_DMA_Init+0x104>
 8002f14:	d3f3      	bcc.n	8002efe <HAL_DMA_Init+0xe6>
 8002f16:	2f02      	cmp	r7, #2
 8002f18:	d1b6      	bne.n	8002e88 <HAL_DMA_Init+0x70>
 8002f1a:	e7f0      	b.n	8002efe <HAL_DMA_Init+0xe6>
 8002f1c:	f1b5 7fc0 	cmp.w	r5, #25165824	; 0x1800000
 8002f20:	d1b2      	bne.n	8002e88 <HAL_DMA_Init+0x70>
 8002f22:	e7ee      	b.n	8002f02 <HAL_DMA_Init+0xea>
 8002f24:	2f03      	cmp	r7, #3
 8002f26:	d8af      	bhi.n	8002e88 <HAL_DMA_Init+0x70>
 8002f28:	a201      	add	r2, pc, #4	; (adr r2, 8002f30 <HAL_DMA_Init+0x118>)
 8002f2a:	f852 f027 	ldr.w	pc, [r2, r7, lsl #2]
 8002f2e:	bf00      	nop
 8002f30:	08002f03 	.word	0x08002f03
 8002f34:	08002eff 	.word	0x08002eff
 8002f38:	08002f03 	.word	0x08002f03
 8002f3c:	08002f1d 	.word	0x08002f1d
 8002f40:	e010803f 	.word	0xe010803f
 8002f44:	aaaaaaab 	.word	0xaaaaaaab
 8002f48:	fffffc00 	.word	0xfffffc00
 8002f4c:	08009584 	.word	0x08009584

08002f50 <HAL_DMA_DeInit>:
 8002f50:	2800      	cmp	r0, #0
 8002f52:	d035      	beq.n	8002fc0 <HAL_DMA_DeInit+0x70>
 8002f54:	4603      	mov	r3, r0
 8002f56:	f890 0035 	ldrb.w	r0, [r0, #53]	; 0x35
 8002f5a:	b2c0      	uxtb	r0, r0
 8002f5c:	2802      	cmp	r0, #2
 8002f5e:	d031      	beq.n	8002fc4 <HAL_DMA_DeInit+0x74>
 8002f60:	681a      	ldr	r2, [r3, #0]
 8002f62:	2000      	movs	r0, #0
 8002f64:	b2d1      	uxtb	r1, r2
 8002f66:	b470      	push	{r4, r5, r6}
 8002f68:	3910      	subs	r1, #16
 8002f6a:	6814      	ldr	r4, [r2, #0]
 8002f6c:	4d16      	ldr	r5, [pc, #88]	; (8002fc8 <HAL_DMA_DeInit+0x78>)
 8002f6e:	2621      	movs	r6, #33	; 0x21
 8002f70:	f024 0401 	bic.w	r4, r4, #1
 8002f74:	fba5 5101 	umull	r5, r1, r5, r1
 8002f78:	4d14      	ldr	r5, [pc, #80]	; (8002fcc <HAL_DMA_DeInit+0x7c>)
 8002f7a:	6014      	str	r4, [r2, #0]
 8002f7c:	0909      	lsrs	r1, r1, #4
 8002f7e:	4c14      	ldr	r4, [pc, #80]	; (8002fd0 <HAL_DMA_DeInit+0x80>)
 8002f80:	6010      	str	r0, [r2, #0]
 8002f82:	4014      	ands	r4, r2
 8002f84:	5c6d      	ldrb	r5, [r5, r1]
 8002f86:	2903      	cmp	r1, #3
 8002f88:	f04f 013f 	mov.w	r1, #63	; 0x3f
 8002f8c:	6050      	str	r0, [r2, #4]
 8002f8e:	bf88      	it	hi
 8002f90:	3404      	addhi	r4, #4
 8002f92:	6090      	str	r0, [r2, #8]
 8002f94:	40a9      	lsls	r1, r5
 8002f96:	60d0      	str	r0, [r2, #12]
 8002f98:	6110      	str	r0, [r2, #16]
 8002f9a:	6156      	str	r6, [r2, #20]
 8002f9c:	2200      	movs	r2, #0
 8002f9e:	65dd      	str	r5, [r3, #92]	; 0x5c
 8002fa0:	659c      	str	r4, [r3, #88]	; 0x58
 8002fa2:	4610      	mov	r0, r2
 8002fa4:	60a1      	str	r1, [r4, #8]
 8002fa6:	655a      	str	r2, [r3, #84]	; 0x54
 8002fa8:	f883 2034 	strb.w	r2, [r3, #52]	; 0x34
 8002fac:	f883 2035 	strb.w	r2, [r3, #53]	; 0x35
 8002fb0:	e9c3 220f 	strd	r2, r2, [r3, #60]	; 0x3c
 8002fb4:	e9c3 2211 	strd	r2, r2, [r3, #68]	; 0x44
 8002fb8:	e9c3 2213 	strd	r2, r2, [r3, #76]	; 0x4c
 8002fbc:	bc70      	pop	{r4, r5, r6}
 8002fbe:	4770      	bx	lr
 8002fc0:	2001      	movs	r0, #1
 8002fc2:	4770      	bx	lr
 8002fc4:	4770      	bx	lr
 8002fc6:	bf00      	nop
 8002fc8:	aaaaaaab 	.word	0xaaaaaaab
 8002fcc:	08009584 	.word	0x08009584
 8002fd0:	fffffc00 	.word	0xfffffc00

08002fd4 <HAL_DMA_Start_IT>:
 8002fd4:	b4f0      	push	{r4, r5, r6, r7}
 8002fd6:	f890 4034 	ldrb.w	r4, [r0, #52]	; 0x34
 8002fda:	2c01      	cmp	r4, #1
 8002fdc:	d038      	beq.n	8003050 <HAL_DMA_Start_IT+0x7c>
 8002fde:	2501      	movs	r5, #1
 8002fe0:	f890 4035 	ldrb.w	r4, [r0, #53]	; 0x35
 8002fe4:	6d86      	ldr	r6, [r0, #88]	; 0x58
 8002fe6:	42ac      	cmp	r4, r5
 8002fe8:	f880 5034 	strb.w	r5, [r0, #52]	; 0x34
 8002fec:	d129      	bne.n	8003042 <HAL_DMA_Start_IT+0x6e>
 8002fee:	6804      	ldr	r4, [r0, #0]
 8002ff0:	2702      	movs	r7, #2
 8002ff2:	2500      	movs	r5, #0
 8002ff4:	f880 7035 	strb.w	r7, [r0, #53]	; 0x35
 8002ff8:	6545      	str	r5, [r0, #84]	; 0x54
 8002ffa:	6887      	ldr	r7, [r0, #8]
 8002ffc:	6825      	ldr	r5, [r4, #0]
 8002ffe:	2f40      	cmp	r7, #64	; 0x40
 8003000:	f425 2580 	bic.w	r5, r5, #262144	; 0x40000
 8003004:	6025      	str	r5, [r4, #0]
 8003006:	6063      	str	r3, [r4, #4]
 8003008:	d026      	beq.n	8003058 <HAL_DMA_Start_IT+0x84>
 800300a:	60a1      	str	r1, [r4, #8]
 800300c:	60e2      	str	r2, [r4, #12]
 800300e:	6dc1      	ldr	r1, [r0, #92]	; 0x5c
 8003010:	233f      	movs	r3, #63	; 0x3f
 8003012:	6c02      	ldr	r2, [r0, #64]	; 0x40
 8003014:	408b      	lsls	r3, r1
 8003016:	60b3      	str	r3, [r6, #8]
 8003018:	6823      	ldr	r3, [r4, #0]
 800301a:	f043 0316 	orr.w	r3, r3, #22
 800301e:	6023      	str	r3, [r4, #0]
 8003020:	6963      	ldr	r3, [r4, #20]
 8003022:	f043 0380 	orr.w	r3, r3, #128	; 0x80
 8003026:	6163      	str	r3, [r4, #20]
 8003028:	b11a      	cbz	r2, 8003032 <HAL_DMA_Start_IT+0x5e>
 800302a:	6823      	ldr	r3, [r4, #0]
 800302c:	f043 0308 	orr.w	r3, r3, #8
 8003030:	6023      	str	r3, [r4, #0]
 8003032:	6822      	ldr	r2, [r4, #0]
 8003034:	2300      	movs	r3, #0
 8003036:	f042 0201 	orr.w	r2, r2, #1
 800303a:	4618      	mov	r0, r3
 800303c:	6022      	str	r2, [r4, #0]
 800303e:	bcf0      	pop	{r4, r5, r6, r7}
 8003040:	4770      	bx	lr
 8003042:	2200      	movs	r2, #0
 8003044:	2302      	movs	r3, #2
 8003046:	f880 2034 	strb.w	r2, [r0, #52]	; 0x34
 800304a:	4618      	mov	r0, r3
 800304c:	bcf0      	pop	{r4, r5, r6, r7}
 800304e:	4770      	bx	lr
 8003050:	2302      	movs	r3, #2
 8003052:	bcf0      	pop	{r4, r5, r6, r7}
 8003054:	4618      	mov	r0, r3
 8003056:	4770      	bx	lr
 8003058:	60a2      	str	r2, [r4, #8]
 800305a:	60e1      	str	r1, [r4, #12]
 800305c:	e7d7      	b.n	800300e <HAL_DMA_Start_IT+0x3a>
 800305e:	bf00      	nop

08003060 <HAL_DMA_Abort_IT>:
 8003060:	f890 2035 	ldrb.w	r2, [r0, #53]	; 0x35
 8003064:	4603      	mov	r3, r0
 8003066:	2a02      	cmp	r2, #2
 8003068:	d003      	beq.n	8003072 <HAL_DMA_Abort_IT+0x12>
 800306a:	2280      	movs	r2, #128	; 0x80
 800306c:	2001      	movs	r0, #1
 800306e:	655a      	str	r2, [r3, #84]	; 0x54
 8003070:	4770      	bx	lr
 8003072:	6802      	ldr	r2, [r0, #0]
 8003074:	2105      	movs	r1, #5
 8003076:	2000      	movs	r0, #0
 8003078:	f883 1035 	strb.w	r1, [r3, #53]	; 0x35
 800307c:	6813      	ldr	r3, [r2, #0]
 800307e:	f023 0301 	bic.w	r3, r3, #1
 8003082:	6013      	str	r3, [r2, #0]
 8003084:	4770      	bx	lr
 8003086:	bf00      	nop

08003088 <HAL_DMA_IRQHandler>:
 8003088:	b5f0      	push	{r4, r5, r6, r7, lr}
 800308a:	4604      	mov	r4, r0
 800308c:	b083      	sub	sp, #12
 800308e:	2000      	movs	r0, #0
 8003090:	2208      	movs	r2, #8
 8003092:	4966      	ldr	r1, [pc, #408]	; (800322c <HAL_DMA_IRQHandler+0x1a4>)
 8003094:	9001      	str	r0, [sp, #4]
 8003096:	680e      	ldr	r6, [r1, #0]
 8003098:	e9d4 7316 	ldrd	r7, r3, [r4, #88]	; 0x58
 800309c:	409a      	lsls	r2, r3
 800309e:	683d      	ldr	r5, [r7, #0]
 80030a0:	422a      	tst	r2, r5
 80030a2:	d003      	beq.n	80030ac <HAL_DMA_IRQHandler+0x24>
 80030a4:	6821      	ldr	r1, [r4, #0]
 80030a6:	6808      	ldr	r0, [r1, #0]
 80030a8:	0740      	lsls	r0, r0, #29
 80030aa:	d459      	bmi.n	8003160 <HAL_DMA_IRQHandler+0xd8>
 80030ac:	2201      	movs	r2, #1
 80030ae:	409a      	lsls	r2, r3
 80030b0:	422a      	tst	r2, r5
 80030b2:	d003      	beq.n	80030bc <HAL_DMA_IRQHandler+0x34>
 80030b4:	6821      	ldr	r1, [r4, #0]
 80030b6:	6949      	ldr	r1, [r1, #20]
 80030b8:	0608      	lsls	r0, r1, #24
 80030ba:	d474      	bmi.n	80031a6 <HAL_DMA_IRQHandler+0x11e>
 80030bc:	2204      	movs	r2, #4
 80030be:	409a      	lsls	r2, r3
 80030c0:	422a      	tst	r2, r5
 80030c2:	d003      	beq.n	80030cc <HAL_DMA_IRQHandler+0x44>
 80030c4:	6821      	ldr	r1, [r4, #0]
 80030c6:	6809      	ldr	r1, [r1, #0]
 80030c8:	0789      	lsls	r1, r1, #30
 80030ca:	d466      	bmi.n	800319a <HAL_DMA_IRQHandler+0x112>
 80030cc:	2210      	movs	r2, #16
 80030ce:	409a      	lsls	r2, r3
 80030d0:	422a      	tst	r2, r5
 80030d2:	d003      	beq.n	80030dc <HAL_DMA_IRQHandler+0x54>
 80030d4:	6821      	ldr	r1, [r4, #0]
 80030d6:	6808      	ldr	r0, [r1, #0]
 80030d8:	0700      	lsls	r0, r0, #28
 80030da:	d44b      	bmi.n	8003174 <HAL_DMA_IRQHandler+0xec>
 80030dc:	2220      	movs	r2, #32
 80030de:	409a      	lsls	r2, r3
 80030e0:	422a      	tst	r2, r5
 80030e2:	d014      	beq.n	800310e <HAL_DMA_IRQHandler+0x86>
 80030e4:	6821      	ldr	r1, [r4, #0]
 80030e6:	6808      	ldr	r0, [r1, #0]
 80030e8:	06c0      	lsls	r0, r0, #27
 80030ea:	d510      	bpl.n	800310e <HAL_DMA_IRQHandler+0x86>
 80030ec:	60ba      	str	r2, [r7, #8]
 80030ee:	f894 2035 	ldrb.w	r2, [r4, #53]	; 0x35
 80030f2:	2a05      	cmp	r2, #5
 80030f4:	d063      	beq.n	80031be <HAL_DMA_IRQHandler+0x136>
 80030f6:	680b      	ldr	r3, [r1, #0]
 80030f8:	f413 2f80 	tst.w	r3, #262144	; 0x40000
 80030fc:	680b      	ldr	r3, [r1, #0]
 80030fe:	d07e      	beq.n	80031fe <HAL_DMA_IRQHandler+0x176>
 8003100:	0319      	lsls	r1, r3, #12
 8003102:	f140 8089 	bpl.w	8003218 <HAL_DMA_IRQHandler+0x190>
 8003106:	6be3      	ldr	r3, [r4, #60]	; 0x3c
 8003108:	b10b      	cbz	r3, 800310e <HAL_DMA_IRQHandler+0x86>
 800310a:	4620      	mov	r0, r4
 800310c:	4798      	blx	r3
 800310e:	6d63      	ldr	r3, [r4, #84]	; 0x54
 8003110:	b323      	cbz	r3, 800315c <HAL_DMA_IRQHandler+0xd4>
 8003112:	6d63      	ldr	r3, [r4, #84]	; 0x54
 8003114:	07da      	lsls	r2, r3, #31
 8003116:	d51a      	bpl.n	800314e <HAL_DMA_IRQHandler+0xc6>
 8003118:	6822      	ldr	r2, [r4, #0]
 800311a:	2105      	movs	r1, #5
 800311c:	4b44      	ldr	r3, [pc, #272]	; (8003230 <HAL_DMA_IRQHandler+0x1a8>)
 800311e:	f884 1035 	strb.w	r1, [r4, #53]	; 0x35
 8003122:	fba3 3606 	umull	r3, r6, r3, r6
 8003126:	6813      	ldr	r3, [r2, #0]
 8003128:	f023 0301 	bic.w	r3, r3, #1
 800312c:	0ab6      	lsrs	r6, r6, #10
 800312e:	6013      	str	r3, [r2, #0]
 8003130:	e002      	b.n	8003138 <HAL_DMA_IRQHandler+0xb0>
 8003132:	6813      	ldr	r3, [r2, #0]
 8003134:	07db      	lsls	r3, r3, #31
 8003136:	d504      	bpl.n	8003142 <HAL_DMA_IRQHandler+0xba>
 8003138:	9b01      	ldr	r3, [sp, #4]
 800313a:	3301      	adds	r3, #1
 800313c:	42b3      	cmp	r3, r6
 800313e:	9301      	str	r3, [sp, #4]
 8003140:	d9f7      	bls.n	8003132 <HAL_DMA_IRQHandler+0xaa>
 8003142:	2200      	movs	r2, #0
 8003144:	2301      	movs	r3, #1
 8003146:	f884 2034 	strb.w	r2, [r4, #52]	; 0x34
 800314a:	f884 3035 	strb.w	r3, [r4, #53]	; 0x35
 800314e:	6ce3      	ldr	r3, [r4, #76]	; 0x4c
 8003150:	b123      	cbz	r3, 800315c <HAL_DMA_IRQHandler+0xd4>
 8003152:	4620      	mov	r0, r4
 8003154:	b003      	add	sp, #12
 8003156:	e8bd 40f0 	ldmia.w	sp!, {r4, r5, r6, r7, lr}
 800315a:	4718      	bx	r3
 800315c:	b003      	add	sp, #12
 800315e:	bdf0      	pop	{r4, r5, r6, r7, pc}
 8003160:	6808      	ldr	r0, [r1, #0]
 8003162:	f020 0004 	bic.w	r0, r0, #4
 8003166:	6008      	str	r0, [r1, #0]
 8003168:	60ba      	str	r2, [r7, #8]
 800316a:	6d62      	ldr	r2, [r4, #84]	; 0x54
 800316c:	f042 0201 	orr.w	r2, r2, #1
 8003170:	6562      	str	r2, [r4, #84]	; 0x54
 8003172:	e79b      	b.n	80030ac <HAL_DMA_IRQHandler+0x24>
 8003174:	60ba      	str	r2, [r7, #8]
 8003176:	680a      	ldr	r2, [r1, #0]
 8003178:	f412 2f80 	tst.w	r2, #262144	; 0x40000
 800317c:	680a      	ldr	r2, [r1, #0]
 800317e:	d118      	bne.n	80031b2 <HAL_DMA_IRQHandler+0x12a>
 8003180:	05d2      	lsls	r2, r2, #23
 8003182:	d403      	bmi.n	800318c <HAL_DMA_IRQHandler+0x104>
 8003184:	680a      	ldr	r2, [r1, #0]
 8003186:	f022 0208 	bic.w	r2, r2, #8
 800318a:	600a      	str	r2, [r1, #0]
 800318c:	6c22      	ldr	r2, [r4, #64]	; 0x40
 800318e:	2a00      	cmp	r2, #0
 8003190:	d0a4      	beq.n	80030dc <HAL_DMA_IRQHandler+0x54>
 8003192:	4620      	mov	r0, r4
 8003194:	4790      	blx	r2
 8003196:	6de3      	ldr	r3, [r4, #92]	; 0x5c
 8003198:	e7a0      	b.n	80030dc <HAL_DMA_IRQHandler+0x54>
 800319a:	60ba      	str	r2, [r7, #8]
 800319c:	6d62      	ldr	r2, [r4, #84]	; 0x54
 800319e:	f042 0204 	orr.w	r2, r2, #4
 80031a2:	6562      	str	r2, [r4, #84]	; 0x54
 80031a4:	e792      	b.n	80030cc <HAL_DMA_IRQHandler+0x44>
 80031a6:	60ba      	str	r2, [r7, #8]
 80031a8:	6d62      	ldr	r2, [r4, #84]	; 0x54
 80031aa:	f042 0202 	orr.w	r2, r2, #2
 80031ae:	6562      	str	r2, [r4, #84]	; 0x54
 80031b0:	e784      	b.n	80030bc <HAL_DMA_IRQHandler+0x34>
 80031b2:	0311      	lsls	r1, r2, #12
 80031b4:	d5ea      	bpl.n	800318c <HAL_DMA_IRQHandler+0x104>
 80031b6:	6ca2      	ldr	r2, [r4, #72]	; 0x48
 80031b8:	2a00      	cmp	r2, #0
 80031ba:	d1ea      	bne.n	8003192 <HAL_DMA_IRQHandler+0x10a>
 80031bc:	e78e      	b.n	80030dc <HAL_DMA_IRQHandler+0x54>
 80031be:	680a      	ldr	r2, [r1, #0]
 80031c0:	6c20      	ldr	r0, [r4, #64]	; 0x40
 80031c2:	f022 0216 	bic.w	r2, r2, #22
 80031c6:	600a      	str	r2, [r1, #0]
 80031c8:	694a      	ldr	r2, [r1, #20]
 80031ca:	f022 0280 	bic.w	r2, r2, #128	; 0x80
 80031ce:	614a      	str	r2, [r1, #20]
 80031d0:	b338      	cbz	r0, 8003222 <HAL_DMA_IRQHandler+0x19a>
 80031d2:	680a      	ldr	r2, [r1, #0]
 80031d4:	f022 0208 	bic.w	r2, r2, #8
 80031d8:	600a      	str	r2, [r1, #0]
 80031da:	223f      	movs	r2, #63	; 0x3f
 80031dc:	2000      	movs	r0, #0
 80031de:	2101      	movs	r1, #1
 80031e0:	fa02 f303 	lsl.w	r3, r2, r3
 80031e4:	6d22      	ldr	r2, [r4, #80]	; 0x50
 80031e6:	60bb      	str	r3, [r7, #8]
 80031e8:	f884 0034 	strb.w	r0, [r4, #52]	; 0x34
 80031ec:	f884 1035 	strb.w	r1, [r4, #53]	; 0x35
 80031f0:	2a00      	cmp	r2, #0
 80031f2:	d0b3      	beq.n	800315c <HAL_DMA_IRQHandler+0xd4>
 80031f4:	4620      	mov	r0, r4
 80031f6:	b003      	add	sp, #12
 80031f8:	e8bd 40f0 	ldmia.w	sp!, {r4, r5, r6, r7, lr}
 80031fc:	4710      	bx	r2
 80031fe:	f413 7380 	ands.w	r3, r3, #256	; 0x100
 8003202:	d180      	bne.n	8003106 <HAL_DMA_IRQHandler+0x7e>
 8003204:	680a      	ldr	r2, [r1, #0]
 8003206:	2001      	movs	r0, #1
 8003208:	f022 0210 	bic.w	r2, r2, #16
 800320c:	600a      	str	r2, [r1, #0]
 800320e:	f884 3034 	strb.w	r3, [r4, #52]	; 0x34
 8003212:	f884 0035 	strb.w	r0, [r4, #53]	; 0x35
 8003216:	e776      	b.n	8003106 <HAL_DMA_IRQHandler+0x7e>
 8003218:	6c63      	ldr	r3, [r4, #68]	; 0x44
 800321a:	2b00      	cmp	r3, #0
 800321c:	f47f af75 	bne.w	800310a <HAL_DMA_IRQHandler+0x82>
 8003220:	e775      	b.n	800310e <HAL_DMA_IRQHandler+0x86>
 8003222:	6ca2      	ldr	r2, [r4, #72]	; 0x48
 8003224:	2a00      	cmp	r2, #0
 8003226:	d1d4      	bne.n	80031d2 <HAL_DMA_IRQHandler+0x14a>
 8003228:	e7d7      	b.n	80031da <HAL_DMA_IRQHandler+0x152>
 800322a:	bf00      	nop
 800322c:	2000005c 	.word	0x2000005c
 8003230:	1b4e81b5 	.word	0x1b4e81b5

08003234 <HAL_GPIO_Init>:
 8003234:	e92d 4ff0 	stmdb	sp!, {r4, r5, r6, r7, r8, r9, sl, fp, lr}
 8003238:	4688      	mov	r8, r1
 800323a:	b083      	sub	sp, #12
 800323c:	2400      	movs	r4, #0
 800323e:	f8d1 9000 	ldr.w	r9, [r1]
 8003242:	f8df e1f8 	ldr.w	lr, [pc, #504]	; 800343c <HAL_GPIO_Init+0x208>
 8003246:	e003      	b.n	8003250 <HAL_GPIO_Init+0x1c>
 8003248:	3401      	adds	r4, #1
 800324a:	2c10      	cmp	r4, #16
 800324c:	f000 80b6 	beq.w	80033bc <HAL_GPIO_Init+0x188>
 8003250:	2301      	movs	r3, #1
 8003252:	40a3      	lsls	r3, r4
 8003254:	ea09 0203 	and.w	r2, r9, r3
 8003258:	4293      	cmp	r3, r2
 800325a:	d1f5      	bne.n	8003248 <HAL_GPIO_Init+0x14>
 800325c:	f8d8 5004 	ldr.w	r5, [r8, #4]
 8003260:	0067      	lsls	r7, r4, #1
 8003262:	2103      	movs	r1, #3
 8003264:	f025 0c10 	bic.w	ip, r5, #16
 8003268:	40b9      	lsls	r1, r7
 800326a:	f10c 33ff 	add.w	r3, ip, #4294967295	; 0xffffffff
 800326e:	43c9      	mvns	r1, r1
 8003270:	2b01      	cmp	r3, #1
 8003272:	d810      	bhi.n	8003296 <HAL_GPIO_Init+0x62>
 8003274:	6886      	ldr	r6, [r0, #8]
 8003276:	f3c5 1300 	ubfx	r3, r5, #4, #1
 800327a:	ea06 0a01 	and.w	sl, r6, r1
 800327e:	f8d8 600c 	ldr.w	r6, [r8, #12]
 8003282:	40a3      	lsls	r3, r4
 8003284:	40be      	lsls	r6, r7
 8003286:	ea46 060a 	orr.w	r6, r6, sl
 800328a:	6086      	str	r6, [r0, #8]
 800328c:	6846      	ldr	r6, [r0, #4]
 800328e:	ea26 0602 	bic.w	r6, r6, r2
 8003292:	4333      	orrs	r3, r6
 8003294:	6043      	str	r3, [r0, #4]
 8003296:	68c3      	ldr	r3, [r0, #12]
 8003298:	f1bc 0f02 	cmp.w	ip, #2
 800329c:	f8d8 6008 	ldr.w	r6, [r8, #8]
 80032a0:	ea03 0301 	and.w	r3, r3, r1
 80032a4:	fa06 f607 	lsl.w	r6, r6, r7
 80032a8:	ea46 0603 	orr.w	r6, r6, r3
 80032ac:	60c6      	str	r6, [r0, #12]
 80032ae:	d115      	bne.n	80032dc <HAL_GPIO_Init+0xa8>
 80032b0:	08e3      	lsrs	r3, r4, #3
 80032b2:	f004 0c07 	and.w	ip, r4, #7
 80032b6:	f04f 0b0f 	mov.w	fp, #15
 80032ba:	f8d8 6010 	ldr.w	r6, [r8, #16]
 80032be:	eb00 0383 	add.w	r3, r0, r3, lsl #2
 80032c2:	ea4f 0c8c 	mov.w	ip, ip, lsl #2
 80032c6:	f8d3 a020 	ldr.w	sl, [r3, #32]
 80032ca:	fa0b fb0c 	lsl.w	fp, fp, ip
 80032ce:	fa06 f60c 	lsl.w	r6, r6, ip
 80032d2:	ea2a 0a0b 	bic.w	sl, sl, fp
 80032d6:	ea46 060a 	orr.w	r6, r6, sl
 80032da:	621e      	str	r6, [r3, #32]
 80032dc:	6806      	ldr	r6, [r0, #0]
 80032de:	f005 0303 	and.w	r3, r5, #3
 80032e2:	4031      	ands	r1, r6
 80032e4:	40bb      	lsls	r3, r7
 80032e6:	00ef      	lsls	r7, r5, #3
 80032e8:	ea43 0301 	orr.w	r3, r3, r1
 80032ec:	6003      	str	r3, [r0, #0]
 80032ee:	d5ab      	bpl.n	8003248 <HAL_GPIO_Init+0x14>
 80032f0:	4b48      	ldr	r3, [pc, #288]	; (8003414 <HAL_GPIO_Init+0x1e0>)
 80032f2:	f024 0603 	bic.w	r6, r4, #3
 80032f6:	f04f 0c0f 	mov.w	ip, #15
 80032fa:	6c5f      	ldr	r7, [r3, #68]	; 0x44
 80032fc:	4619      	mov	r1, r3
 80032fe:	f106 4680 	add.w	r6, r6, #1073741824	; 0x40000000
 8003302:	f004 0303 	and.w	r3, r4, #3
 8003306:	f447 4780 	orr.w	r7, r7, #16384	; 0x4000
 800330a:	f506 369c 	add.w	r6, r6, #79872	; 0x13800
 800330e:	009b      	lsls	r3, r3, #2
 8003310:	644f      	str	r7, [r1, #68]	; 0x44
 8003312:	6c4f      	ldr	r7, [r1, #68]	; 0x44
 8003314:	fa0c f103 	lsl.w	r1, ip, r3
 8003318:	f407 4780 	and.w	r7, r7, #16384	; 0x4000
 800331c:	9701      	str	r7, [sp, #4]
 800331e:	9f01      	ldr	r7, [sp, #4]
 8003320:	68b7      	ldr	r7, [r6, #8]
 8003322:	ea27 0101 	bic.w	r1, r7, r1
 8003326:	4f3c      	ldr	r7, [pc, #240]	; (8003418 <HAL_GPIO_Init+0x1e4>)
 8003328:	42b8      	cmp	r0, r7
 800332a:	d020      	beq.n	800336e <HAL_GPIO_Init+0x13a>
 800332c:	f507 6780 	add.w	r7, r7, #1024	; 0x400
 8003330:	42b8      	cmp	r0, r7
 8003332:	d046      	beq.n	80033c2 <HAL_GPIO_Init+0x18e>
 8003334:	4f39      	ldr	r7, [pc, #228]	; (800341c <HAL_GPIO_Init+0x1e8>)
 8003336:	42b8      	cmp	r0, r7
 8003338:	d048      	beq.n	80033cc <HAL_GPIO_Init+0x198>
 800333a:	4f39      	ldr	r7, [pc, #228]	; (8003420 <HAL_GPIO_Init+0x1ec>)
 800333c:	42b8      	cmp	r0, r7
 800333e:	d04a      	beq.n	80033d6 <HAL_GPIO_Init+0x1a2>
 8003340:	4f38      	ldr	r7, [pc, #224]	; (8003424 <HAL_GPIO_Init+0x1f0>)
 8003342:	42b8      	cmp	r0, r7
 8003344:	d04c      	beq.n	80033e0 <HAL_GPIO_Init+0x1ac>
 8003346:	4f38      	ldr	r7, [pc, #224]	; (8003428 <HAL_GPIO_Init+0x1f4>)
 8003348:	42b8      	cmp	r0, r7
 800334a:	d053      	beq.n	80033f4 <HAL_GPIO_Init+0x1c0>
 800334c:	4f37      	ldr	r7, [pc, #220]	; (800342c <HAL_GPIO_Init+0x1f8>)
 800334e:	42b8      	cmp	r0, r7
 8003350:	d055      	beq.n	80033fe <HAL_GPIO_Init+0x1ca>
 8003352:	4f37      	ldr	r7, [pc, #220]	; (8003430 <HAL_GPIO_Init+0x1fc>)
 8003354:	42b8      	cmp	r0, r7
 8003356:	d048      	beq.n	80033ea <HAL_GPIO_Init+0x1b6>
 8003358:	4f36      	ldr	r7, [pc, #216]	; (8003434 <HAL_GPIO_Init+0x200>)
 800335a:	42b8      	cmp	r0, r7
 800335c:	d054      	beq.n	8003408 <HAL_GPIO_Init+0x1d4>
 800335e:	4f36      	ldr	r7, [pc, #216]	; (8003438 <HAL_GPIO_Init+0x204>)
 8003360:	42b8      	cmp	r0, r7
 8003362:	bf0c      	ite	eq
 8003364:	2709      	moveq	r7, #9
 8003366:	270a      	movne	r7, #10
 8003368:	fa07 f303 	lsl.w	r3, r7, r3
 800336c:	4319      	orrs	r1, r3
 800336e:	60b1      	str	r1, [r6, #8]
 8003370:	43d1      	mvns	r1, r2
 8003372:	f8de 3000 	ldr.w	r3, [lr]
 8003376:	03ee      	lsls	r6, r5, #15
 8003378:	f104 0401 	add.w	r4, r4, #1
 800337c:	bf54      	ite	pl
 800337e:	400b      	andpl	r3, r1
 8003380:	4313      	orrmi	r3, r2
 8003382:	03af      	lsls	r7, r5, #14
 8003384:	f8ce 3000 	str.w	r3, [lr]
 8003388:	f8de 3004 	ldr.w	r3, [lr, #4]
 800338c:	bf54      	ite	pl
 800338e:	400b      	andpl	r3, r1
 8003390:	4313      	orrmi	r3, r2
 8003392:	02ee      	lsls	r6, r5, #11
 8003394:	f8ce 3004 	str.w	r3, [lr, #4]
 8003398:	f8de 3008 	ldr.w	r3, [lr, #8]
 800339c:	bf54      	ite	pl
 800339e:	400b      	andpl	r3, r1
 80033a0:	4313      	orrmi	r3, r2
 80033a2:	02ad      	lsls	r5, r5, #10
 80033a4:	f8ce 3008 	str.w	r3, [lr, #8]
 80033a8:	f8de 300c 	ldr.w	r3, [lr, #12]
 80033ac:	bf54      	ite	pl
 80033ae:	400b      	andpl	r3, r1
 80033b0:	4313      	orrmi	r3, r2
 80033b2:	2c10      	cmp	r4, #16
 80033b4:	f8ce 300c 	str.w	r3, [lr, #12]
 80033b8:	f47f af4a 	bne.w	8003250 <HAL_GPIO_Init+0x1c>
 80033bc:	b003      	add	sp, #12
 80033be:	e8bd 8ff0 	ldmia.w	sp!, {r4, r5, r6, r7, r8, r9, sl, fp, pc}
 80033c2:	2701      	movs	r7, #1
 80033c4:	fa07 f303 	lsl.w	r3, r7, r3
 80033c8:	4319      	orrs	r1, r3
 80033ca:	e7d0      	b.n	800336e <HAL_GPIO_Init+0x13a>
 80033cc:	2702      	movs	r7, #2
 80033ce:	fa07 f303 	lsl.w	r3, r7, r3
 80033d2:	4319      	orrs	r1, r3
 80033d4:	e7cb      	b.n	800336e <HAL_GPIO_Init+0x13a>
 80033d6:	2703      	movs	r7, #3
 80033d8:	fa07 f303 	lsl.w	r3, r7, r3
 80033dc:	4319      	orrs	r1, r3
 80033de:	e7c6      	b.n	800336e <HAL_GPIO_Init+0x13a>
 80033e0:	2704      	movs	r7, #4
 80033e2:	fa07 f303 	lsl.w	r3, r7, r3
 80033e6:	4319      	orrs	r1, r3
 80033e8:	e7c1      	b.n	800336e <HAL_GPIO_Init+0x13a>
 80033ea:	2707      	movs	r7, #7
 80033ec:	fa07 f303 	lsl.w	r3, r7, r3
 80033f0:	4319      	orrs	r1, r3
 80033f2:	e7bc      	b.n	800336e <HAL_GPIO_Init+0x13a>
 80033f4:	2705      	movs	r7, #5
 80033f6:	fa07 f303 	lsl.w	r3, r7, r3
 80033fa:	4319      	orrs	r1, r3
 80033fc:	e7b7      	b.n	800336e <HAL_GPIO_Init+0x13a>
 80033fe:	2706      	movs	r7, #6
 8003400:	fa07 f303 	lsl.w	r3, r7, r3
 8003404:	4319      	orrs	r1, r3
 8003406:	e7b2      	b.n	800336e <HAL_GPIO_Init+0x13a>
 8003408:	2708      	movs	r7, #8
 800340a:	fa07 f303 	lsl.w	r3, r7, r3
 800340e:	4319      	orrs	r1, r3
 8003410:	e7ad      	b.n	800336e <HAL_GPIO_Init+0x13a>
 8003412:	bf00      	nop
 8003414:	40023800 	.word	0x40023800
 8003418:	40020000 	.word	0x40020000
 800341c:	40020800 	.word	0x40020800
 8003420:	40020c00 	.word	0x40020c00
 8003424:	40021000 	.word	0x40021000
 8003428:	40021400 	.word	0x40021400
 800342c:	40021800 	.word	0x40021800
 8003430:	40021c00 	.word	0x40021c00
 8003434:	40022000 	.word	0x40022000
 8003438:	40022400 	.word	0x40022400
 800343c:	40013c00 	.word	0x40013c00

08003440 <HAL_GPIO_WritePin>:
 8003440:	b902      	cbnz	r2, 8003444 <HAL_GPIO_WritePin+0x4>
 8003442:	0409      	lsls	r1, r1, #16
 8003444:	6181      	str	r1, [r0, #24]
 8003446:	4770      	bx	lr

08003448 <I2C_IsAcknowledgeFailed.part.1>:
 8003448:	b570      	push	{r4, r5, r6, lr}
 800344a:	4605      	mov	r5, r0
 800344c:	460c      	mov	r4, r1
 800344e:	4616      	mov	r6, r2
 8003450:	6828      	ldr	r0, [r5, #0]
 8003452:	e001      	b.n	8003458 <I2C_IsAcknowledgeFailed.part.1+0x10>
 8003454:	1c63      	adds	r3, r4, #1
 8003456:	d120      	bne.n	800349a <I2C_IsAcknowledgeFailed.part.1+0x52>
 8003458:	6983      	ldr	r3, [r0, #24]
 800345a:	0699      	lsls	r1, r3, #26
 800345c:	d5fa      	bpl.n	8003454 <I2C_IsAcknowledgeFailed.part.1+0xc>
 800345e:	2210      	movs	r2, #16
 8003460:	2320      	movs	r3, #32
 8003462:	61c2      	str	r2, [r0, #28]
 8003464:	61c3      	str	r3, [r0, #28]
 8003466:	6983      	ldr	r3, [r0, #24]
 8003468:	079a      	lsls	r2, r3, #30
 800346a:	d501      	bpl.n	8003470 <I2C_IsAcknowledgeFailed.part.1+0x28>
 800346c:	2300      	movs	r3, #0
 800346e:	6283      	str	r3, [r0, #40]	; 0x28
 8003470:	6983      	ldr	r3, [r0, #24]
 8003472:	07db      	lsls	r3, r3, #31
 8003474:	d524      	bpl.n	80034c0 <I2C_IsAcknowledgeFailed.part.1+0x78>
 8003476:	6843      	ldr	r3, [r0, #4]
 8003478:	2200      	movs	r2, #0
 800347a:	4c14      	ldr	r4, [pc, #80]	; (80034cc <I2C_IsAcknowledgeFailed.part.1+0x84>)
 800347c:	2120      	movs	r1, #32
 800347e:	4023      	ands	r3, r4
 8003480:	6043      	str	r3, [r0, #4]
 8003482:	6c6b      	ldr	r3, [r5, #68]	; 0x44
 8003484:	f885 2040 	strb.w	r2, [r5, #64]	; 0x40
 8003488:	f043 0304 	orr.w	r3, r3, #4
 800348c:	646b      	str	r3, [r5, #68]	; 0x44
 800348e:	f885 1041 	strb.w	r1, [r5, #65]	; 0x41
 8003492:	f885 2042 	strb.w	r2, [r5, #66]	; 0x42
 8003496:	2001      	movs	r0, #1
 8003498:	bd70      	pop	{r4, r5, r6, pc}
 800349a:	f7ff fa61 	bl	8002960 <HAL_GetTick>
 800349e:	1b80      	subs	r0, r0, r6
 80034a0:	4284      	cmp	r4, r0
 80034a2:	d301      	bcc.n	80034a8 <I2C_IsAcknowledgeFailed.part.1+0x60>
 80034a4:	2c00      	cmp	r4, #0
 80034a6:	d1d3      	bne.n	8003450 <I2C_IsAcknowledgeFailed.part.1+0x8>
 80034a8:	6c6b      	ldr	r3, [r5, #68]	; 0x44
 80034aa:	2120      	movs	r1, #32
 80034ac:	2200      	movs	r2, #0
 80034ae:	430b      	orrs	r3, r1
 80034b0:	f885 2040 	strb.w	r2, [r5, #64]	; 0x40
 80034b4:	646b      	str	r3, [r5, #68]	; 0x44
 80034b6:	f885 1041 	strb.w	r1, [r5, #65]	; 0x41
 80034ba:	f885 2042 	strb.w	r2, [r5, #66]	; 0x42
 80034be:	e7ea      	b.n	8003496 <I2C_IsAcknowledgeFailed.part.1+0x4e>
 80034c0:	6983      	ldr	r3, [r0, #24]
 80034c2:	f043 0301 	orr.w	r3, r3, #1
 80034c6:	6183      	str	r3, [r0, #24]
 80034c8:	e7d5      	b.n	8003476 <I2C_IsAcknowledgeFailed.part.1+0x2e>
 80034ca:	bf00      	nop
 80034cc:	fe00e800 	.word	0xfe00e800

080034d0 <I2C_WaitOnTXISFlagUntilTimeout>:
 80034d0:	b570      	push	{r4, r5, r6, lr}
 80034d2:	4605      	mov	r5, r0
 80034d4:	460c      	mov	r4, r1
 80034d6:	4616      	mov	r6, r2
 80034d8:	e001      	b.n	80034de <I2C_WaitOnTXISFlagUntilTimeout+0xe>
 80034da:	1c61      	adds	r1, r4, #1
 80034dc:	d111      	bne.n	8003502 <I2C_WaitOnTXISFlagUntilTimeout+0x32>
 80034de:	682b      	ldr	r3, [r5, #0]
 80034e0:	699a      	ldr	r2, [r3, #24]
 80034e2:	0792      	lsls	r2, r2, #30
 80034e4:	d40b      	bmi.n	80034fe <I2C_WaitOnTXISFlagUntilTimeout+0x2e>
 80034e6:	699b      	ldr	r3, [r3, #24]
 80034e8:	06d8      	lsls	r0, r3, #27
 80034ea:	d5f6      	bpl.n	80034da <I2C_WaitOnTXISFlagUntilTimeout+0xa>
 80034ec:	4632      	mov	r2, r6
 80034ee:	4621      	mov	r1, r4
 80034f0:	4628      	mov	r0, r5
 80034f2:	f7ff ffa9 	bl	8003448 <I2C_IsAcknowledgeFailed.part.1>
 80034f6:	2800      	cmp	r0, #0
 80034f8:	d0ef      	beq.n	80034da <I2C_WaitOnTXISFlagUntilTimeout+0xa>
 80034fa:	2001      	movs	r0, #1
 80034fc:	bd70      	pop	{r4, r5, r6, pc}
 80034fe:	2000      	movs	r0, #0
 8003500:	bd70      	pop	{r4, r5, r6, pc}
 8003502:	f7ff fa2d 	bl	8002960 <HAL_GetTick>
 8003506:	1b80      	subs	r0, r0, r6
 8003508:	42a0      	cmp	r0, r4
 800350a:	d801      	bhi.n	8003510 <I2C_WaitOnTXISFlagUntilTimeout+0x40>
 800350c:	2c00      	cmp	r4, #0
 800350e:	d1e6      	bne.n	80034de <I2C_WaitOnTXISFlagUntilTimeout+0xe>
 8003510:	6c6b      	ldr	r3, [r5, #68]	; 0x44
 8003512:	2120      	movs	r1, #32
 8003514:	2200      	movs	r2, #0
 8003516:	2001      	movs	r0, #1
 8003518:	430b      	orrs	r3, r1
 800351a:	f885 2040 	strb.w	r2, [r5, #64]	; 0x40
 800351e:	646b      	str	r3, [r5, #68]	; 0x44
 8003520:	f885 1041 	strb.w	r1, [r5, #65]	; 0x41
 8003524:	f885 2042 	strb.w	r2, [r5, #66]	; 0x42
 8003528:	bd70      	pop	{r4, r5, r6, pc}
 800352a:	bf00      	nop

0800352c <I2C_WaitOnSTOPFlagUntilTimeout>:
 800352c:	b5f8      	push	{r3, r4, r5, r6, r7, lr}
 800352e:	4605      	mov	r5, r0
 8003530:	460c      	mov	r4, r1
 8003532:	4616      	mov	r6, r2
 8003534:	e00b      	b.n	800354e <I2C_WaitOnSTOPFlagUntilTimeout+0x22>
 8003536:	699b      	ldr	r3, [r3, #24]
 8003538:	06db      	lsls	r3, r3, #27
 800353a:	d502      	bpl.n	8003542 <I2C_WaitOnSTOPFlagUntilTimeout+0x16>
 800353c:	f7ff ff84 	bl	8003448 <I2C_IsAcknowledgeFailed.part.1>
 8003540:	b9d8      	cbnz	r0, 800357a <I2C_WaitOnSTOPFlagUntilTimeout+0x4e>
 8003542:	f7ff fa0d 	bl	8002960 <HAL_GetTick>
 8003546:	1b80      	subs	r0, r0, r6
 8003548:	42a0      	cmp	r0, r4
 800354a:	d809      	bhi.n	8003560 <I2C_WaitOnSTOPFlagUntilTimeout+0x34>
 800354c:	b144      	cbz	r4, 8003560 <I2C_WaitOnSTOPFlagUntilTimeout+0x34>
 800354e:	682b      	ldr	r3, [r5, #0]
 8003550:	4632      	mov	r2, r6
 8003552:	4621      	mov	r1, r4
 8003554:	4628      	mov	r0, r5
 8003556:	699f      	ldr	r7, [r3, #24]
 8003558:	06bf      	lsls	r7, r7, #26
 800355a:	d5ec      	bpl.n	8003536 <I2C_WaitOnSTOPFlagUntilTimeout+0xa>
 800355c:	2000      	movs	r0, #0
 800355e:	bdf8      	pop	{r3, r4, r5, r6, r7, pc}
 8003560:	6c6b      	ldr	r3, [r5, #68]	; 0x44
 8003562:	2120      	movs	r1, #32
 8003564:	2200      	movs	r2, #0
 8003566:	2001      	movs	r0, #1
 8003568:	430b      	orrs	r3, r1
 800356a:	f885 2040 	strb.w	r2, [r5, #64]	; 0x40
 800356e:	646b      	str	r3, [r5, #68]	; 0x44
 8003570:	f885 1041 	strb.w	r1, [r5, #65]	; 0x41
 8003574:	f885 2042 	strb.w	r2, [r5, #66]	; 0x42
 8003578:	bdf8      	pop	{r3, r4, r5, r6, r7, pc}
 800357a:	2001      	movs	r0, #1
 800357c:	bdf8      	pop	{r3, r4, r5, r6, r7, pc}
 800357e:	bf00      	nop

08003580 <I2C_WaitOnFlagUntilTimeout>:
 8003580:	e92d 41f0 	stmdb	sp!, {r4, r5, r6, r7, r8, lr}
 8003584:	4680      	mov	r8, r0
 8003586:	460f      	mov	r7, r1
 8003588:	4616      	mov	r6, r2
 800358a:	461d      	mov	r5, r3
 800358c:	f8d8 4000 	ldr.w	r4, [r8]
 8003590:	e001      	b.n	8003596 <I2C_WaitOnFlagUntilTimeout+0x16>
 8003592:	1c6b      	adds	r3, r5, #1
 8003594:	d10a      	bne.n	80035ac <I2C_WaitOnFlagUntilTimeout+0x2c>
 8003596:	69a0      	ldr	r0, [r4, #24]
 8003598:	ea37 0300 	bics.w	r3, r7, r0
 800359c:	bf0c      	ite	eq
 800359e:	2001      	moveq	r0, #1
 80035a0:	2000      	movne	r0, #0
 80035a2:	42b0      	cmp	r0, r6
 80035a4:	d0f5      	beq.n	8003592 <I2C_WaitOnFlagUntilTimeout+0x12>
 80035a6:	2000      	movs	r0, #0
 80035a8:	e8bd 81f0 	ldmia.w	sp!, {r4, r5, r6, r7, r8, pc}
 80035ac:	f7ff f9d8 	bl	8002960 <HAL_GetTick>
 80035b0:	9b06      	ldr	r3, [sp, #24]
 80035b2:	1ac0      	subs	r0, r0, r3
 80035b4:	42a8      	cmp	r0, r5
 80035b6:	d801      	bhi.n	80035bc <I2C_WaitOnFlagUntilTimeout+0x3c>
 80035b8:	2d00      	cmp	r5, #0
 80035ba:	d1e7      	bne.n	800358c <I2C_WaitOnFlagUntilTimeout+0xc>
 80035bc:	f8d8 3044 	ldr.w	r3, [r8, #68]	; 0x44
 80035c0:	2120      	movs	r1, #32
 80035c2:	2200      	movs	r2, #0
 80035c4:	2001      	movs	r0, #1
 80035c6:	430b      	orrs	r3, r1
 80035c8:	f888 2040 	strb.w	r2, [r8, #64]	; 0x40
 80035cc:	f8c8 3044 	str.w	r3, [r8, #68]	; 0x44
 80035d0:	f888 1041 	strb.w	r1, [r8, #65]	; 0x41
 80035d4:	f888 2042 	strb.w	r2, [r8, #66]	; 0x42
 80035d8:	e7e6      	b.n	80035a8 <I2C_WaitOnFlagUntilTimeout+0x28>
 80035da:	bf00      	nop

080035dc <I2C_RequestMemoryWrite>:
 80035dc:	e92d 41f0 	stmdb	sp!, {r4, r5, r6, r7, r8, lr}
 80035e0:	6806      	ldr	r6, [r0, #0]
 80035e2:	f3c1 0c09 	ubfx	ip, r1, #0, #10
 80035e6:	4c1c      	ldr	r4, [pc, #112]	; (8003658 <I2C_RequestMemoryWrite+0x7c>)
 80035e8:	4617      	mov	r7, r2
 80035ea:	491c      	ldr	r1, [pc, #112]	; (800365c <I2C_RequestMemoryWrite+0x80>)
 80035ec:	4698      	mov	r8, r3
 80035ee:	6872      	ldr	r2, [r6, #4]
 80035f0:	ea4c 0404 	orr.w	r4, ip, r4
 80035f4:	b2db      	uxtb	r3, r3
 80035f6:	b082      	sub	sp, #8
 80035f8:	400a      	ands	r2, r1
 80035fa:	4605      	mov	r5, r0
 80035fc:	9908      	ldr	r1, [sp, #32]
 80035fe:	4314      	orrs	r4, r2
 8003600:	9a09      	ldr	r2, [sp, #36]	; 0x24
 8003602:	ea44 4403 	orr.w	r4, r4, r3, lsl #16
 8003606:	6074      	str	r4, [r6, #4]
 8003608:	f7ff ff62 	bl	80034d0 <I2C_WaitOnTXISFlagUntilTimeout>
 800360c:	b9d8      	cbnz	r0, 8003646 <I2C_RequestMemoryWrite+0x6a>
 800360e:	f1b8 0f01 	cmp.w	r8, #1
 8003612:	682b      	ldr	r3, [r5, #0]
 8003614:	d10f      	bne.n	8003636 <I2C_RequestMemoryWrite+0x5a>
 8003616:	b2ff      	uxtb	r7, r7
 8003618:	629f      	str	r7, [r3, #40]	; 0x28
 800361a:	9b09      	ldr	r3, [sp, #36]	; 0x24
 800361c:	4628      	mov	r0, r5
 800361e:	2200      	movs	r2, #0
 8003620:	2180      	movs	r1, #128	; 0x80
 8003622:	9300      	str	r3, [sp, #0]
 8003624:	9b08      	ldr	r3, [sp, #32]
 8003626:	f7ff ffab 	bl	8003580 <I2C_WaitOnFlagUntilTimeout>
 800362a:	3000      	adds	r0, #0
 800362c:	bf18      	it	ne
 800362e:	2001      	movne	r0, #1
 8003630:	b002      	add	sp, #8
 8003632:	e8bd 81f0 	ldmia.w	sp!, {r4, r5, r6, r7, r8, pc}
 8003636:	0a38      	lsrs	r0, r7, #8
 8003638:	e9dd 1208 	ldrd	r1, r2, [sp, #32]
 800363c:	6298      	str	r0, [r3, #40]	; 0x28
 800363e:	4628      	mov	r0, r5
 8003640:	f7ff ff46 	bl	80034d0 <I2C_WaitOnTXISFlagUntilTimeout>
 8003644:	b118      	cbz	r0, 800364e <I2C_RequestMemoryWrite+0x72>
 8003646:	2001      	movs	r0, #1
 8003648:	b002      	add	sp, #8
 800364a:	e8bd 81f0 	ldmia.w	sp!, {r4, r5, r6, r7, r8, pc}
 800364e:	b2ff      	uxtb	r7, r7
 8003650:	682b      	ldr	r3, [r5, #0]
 8003652:	629f      	str	r7, [r3, #40]	; 0x28
 8003654:	e7e1      	b.n	800361a <I2C_RequestMemoryWrite+0x3e>
 8003656:	bf00      	nop
 8003658:	81002000 	.word	0x81002000
 800365c:	fc009800 	.word	0xfc009800

08003660 <I2C_RequestMemoryRead>:
 8003660:	e92d 41f0 	stmdb	sp!, {r4, r5, r6, r7, r8, lr}
 8003664:	6806      	ldr	r6, [r0, #0]
 8003666:	f3c1 0c09 	ubfx	ip, r1, #0, #10
 800366a:	4c1c      	ldr	r4, [pc, #112]	; (80036dc <I2C_RequestMemoryRead+0x7c>)
 800366c:	4617      	mov	r7, r2
 800366e:	491c      	ldr	r1, [pc, #112]	; (80036e0 <I2C_RequestMemoryRead+0x80>)
 8003670:	4698      	mov	r8, r3
 8003672:	6872      	ldr	r2, [r6, #4]
 8003674:	ea4c 0404 	orr.w	r4, ip, r4
 8003678:	b2db      	uxtb	r3, r3
 800367a:	b082      	sub	sp, #8
 800367c:	400a      	ands	r2, r1
 800367e:	4605      	mov	r5, r0
 8003680:	9908      	ldr	r1, [sp, #32]
 8003682:	4314      	orrs	r4, r2
 8003684:	9a09      	ldr	r2, [sp, #36]	; 0x24
 8003686:	ea44 4403 	orr.w	r4, r4, r3, lsl #16
 800368a:	6074      	str	r4, [r6, #4]
 800368c:	f7ff ff20 	bl	80034d0 <I2C_WaitOnTXISFlagUntilTimeout>
 8003690:	b9d8      	cbnz	r0, 80036ca <I2C_RequestMemoryRead+0x6a>
 8003692:	f1b8 0f01 	cmp.w	r8, #1
 8003696:	682b      	ldr	r3, [r5, #0]
 8003698:	d10f      	bne.n	80036ba <I2C_RequestMemoryRead+0x5a>
 800369a:	b2ff      	uxtb	r7, r7
 800369c:	629f      	str	r7, [r3, #40]	; 0x28
 800369e:	9b09      	ldr	r3, [sp, #36]	; 0x24
 80036a0:	4628      	mov	r0, r5
 80036a2:	2200      	movs	r2, #0
 80036a4:	2140      	movs	r1, #64	; 0x40
 80036a6:	9300      	str	r3, [sp, #0]
 80036a8:	9b08      	ldr	r3, [sp, #32]
 80036aa:	f7ff ff69 	bl	8003580 <I2C_WaitOnFlagUntilTimeout>
 80036ae:	3000      	adds	r0, #0
 80036b0:	bf18      	it	ne
 80036b2:	2001      	movne	r0, #1
 80036b4:	b002      	add	sp, #8
 80036b6:	e8bd 81f0 	ldmia.w	sp!, {r4, r5, r6, r7, r8, pc}
 80036ba:	0a38      	lsrs	r0, r7, #8
 80036bc:	e9dd 1208 	ldrd	r1, r2, [sp, #32]
 80036c0:	6298      	str	r0, [r3, #40]	; 0x28
 80036c2:	4628      	mov	r0, r5
 80036c4:	f7ff ff04 	bl	80034d0 <I2C_WaitOnTXISFlagUntilTimeout>
 80036c8:	b118      	cbz	r0, 80036d2 <I2C_RequestMemoryRead+0x72>
 80036ca:	2001      	movs	r0, #1
 80036cc:	b002      	add	sp, #8
 80036ce:	e8bd 81f0 	ldmia.w	sp!, {r4, r5, r6, r7, r8, pc}
 80036d2:	b2ff      	uxtb	r7, r7
 80036d4:	682b      	ldr	r3, [r5, #0]
 80036d6:	629f      	str	r7, [r3, #40]	; 0x28
 80036d8:	e7e1      	b.n	800369e <I2C_RequestMemoryRead+0x3e>
 80036da:	bf00      	nop
 80036dc:	80002000 	.word	0x80002000
 80036e0:	fc009800 	.word	0xfc009800

080036e4 <HAL_I2C_MspInit>:
 80036e4:	4770      	bx	lr
 80036e6:	bf00      	nop

080036e8 <HAL_I2C_Init>:
 80036e8:	2800      	cmp	r0, #0
 80036ea:	d04d      	beq.n	8003788 <HAL_I2C_Init+0xa0>
 80036ec:	b5f8      	push	{r3, r4, r5, r6, r7, lr}
 80036ee:	f890 3041 	ldrb.w	r3, [r0, #65]	; 0x41
 80036f2:	4604      	mov	r4, r0
 80036f4:	f003 02ff 	and.w	r2, r3, #255	; 0xff
 80036f8:	2b00      	cmp	r3, #0
 80036fa:	d040      	beq.n	800377e <HAL_I2C_Init+0x96>
 80036fc:	2124      	movs	r1, #36	; 0x24
 80036fe:	68e5      	ldr	r5, [r4, #12]
 8003700:	e9d4 3200 	ldrd	r3, r2, [r4]
 8003704:	f884 1041 	strb.w	r1, [r4, #65]	; 0x41
 8003708:	2d01      	cmp	r5, #1
 800370a:	6818      	ldr	r0, [r3, #0]
 800370c:	f022 6170 	bic.w	r1, r2, #251658240	; 0xf000000
 8003710:	68a2      	ldr	r2, [r4, #8]
 8003712:	f020 0001 	bic.w	r0, r0, #1
 8003716:	6018      	str	r0, [r3, #0]
 8003718:	6119      	str	r1, [r3, #16]
 800371a:	6899      	ldr	r1, [r3, #8]
 800371c:	f421 4100 	bic.w	r1, r1, #32768	; 0x8000
 8003720:	6099      	str	r1, [r3, #8]
 8003722:	d028      	beq.n	8003776 <HAL_I2C_Init+0x8e>
 8003724:	f442 4204 	orr.w	r2, r2, #33792	; 0x8400
 8003728:	2d02      	cmp	r5, #2
 800372a:	609a      	str	r2, [r3, #8]
 800372c:	d102      	bne.n	8003734 <HAL_I2C_Init+0x4c>
 800372e:	f44f 6200 	mov.w	r2, #2048	; 0x800
 8003732:	605a      	str	r2, [r3, #4]
 8003734:	685a      	ldr	r2, [r3, #4]
 8003736:	2100      	movs	r1, #0
 8003738:	4814      	ldr	r0, [pc, #80]	; (800378c <HAL_I2C_Init+0xa4>)
 800373a:	2720      	movs	r7, #32
 800373c:	69a6      	ldr	r6, [r4, #24]
 800373e:	4310      	orrs	r0, r2
 8003740:	e9d4 2504 	ldrd	r2, r5, [r4, #16]
 8003744:	6058      	str	r0, [r3, #4]
 8003746:	432a      	orrs	r2, r5
 8003748:	68d8      	ldr	r0, [r3, #12]
 800374a:	69e5      	ldr	r5, [r4, #28]
 800374c:	ea42 2206 	orr.w	r2, r2, r6, lsl #8
 8003750:	6a26      	ldr	r6, [r4, #32]
 8003752:	f420 4000 	bic.w	r0, r0, #32768	; 0x8000
 8003756:	4335      	orrs	r5, r6
 8003758:	60d8      	str	r0, [r3, #12]
 800375a:	4608      	mov	r0, r1
 800375c:	60da      	str	r2, [r3, #12]
 800375e:	601d      	str	r5, [r3, #0]
 8003760:	681a      	ldr	r2, [r3, #0]
 8003762:	f042 0201 	orr.w	r2, r2, #1
 8003766:	601a      	str	r2, [r3, #0]
 8003768:	6461      	str	r1, [r4, #68]	; 0x44
 800376a:	f884 7041 	strb.w	r7, [r4, #65]	; 0x41
 800376e:	6321      	str	r1, [r4, #48]	; 0x30
 8003770:	f884 1042 	strb.w	r1, [r4, #66]	; 0x42
 8003774:	bdf8      	pop	{r3, r4, r5, r6, r7, pc}
 8003776:	f442 4200 	orr.w	r2, r2, #32768	; 0x8000
 800377a:	609a      	str	r2, [r3, #8]
 800377c:	e7da      	b.n	8003734 <HAL_I2C_Init+0x4c>
 800377e:	f880 2040 	strb.w	r2, [r0, #64]	; 0x40
 8003782:	f7ff ffaf 	bl	80036e4 <HAL_I2C_MspInit>
 8003786:	e7b9      	b.n	80036fc <HAL_I2C_Init+0x14>
 8003788:	2001      	movs	r0, #1
 800378a:	4770      	bx	lr
 800378c:	02008000 	.word	0x02008000

08003790 <HAL_I2C_MspDeInit>:
 8003790:	4770      	bx	lr
 8003792:	bf00      	nop

08003794 <HAL_I2C_DeInit>:
 8003794:	b1b0      	cbz	r0, 80037c4 <HAL_I2C_DeInit+0x30>
 8003796:	6802      	ldr	r2, [r0, #0]
 8003798:	2324      	movs	r3, #36	; 0x24
 800379a:	b510      	push	{r4, lr}
 800379c:	f880 3041 	strb.w	r3, [r0, #65]	; 0x41
 80037a0:	4604      	mov	r4, r0
 80037a2:	6813      	ldr	r3, [r2, #0]
 80037a4:	f023 0301 	bic.w	r3, r3, #1
 80037a8:	6013      	str	r3, [r2, #0]
 80037aa:	f7ff fff1 	bl	8003790 <HAL_I2C_MspDeInit>
 80037ae:	2300      	movs	r3, #0
 80037b0:	6463      	str	r3, [r4, #68]	; 0x44
 80037b2:	4618      	mov	r0, r3
 80037b4:	f884 3041 	strb.w	r3, [r4, #65]	; 0x41
 80037b8:	f884 3040 	strb.w	r3, [r4, #64]	; 0x40
 80037bc:	6323      	str	r3, [r4, #48]	; 0x30
 80037be:	f884 3042 	strb.w	r3, [r4, #66]	; 0x42
 80037c2:	bd10      	pop	{r4, pc}
 80037c4:	2001      	movs	r0, #1
 80037c6:	4770      	bx	lr

080037c8 <HAL_I2C_Mem_Write>:
 80037c8:	e92d 4ff0 	stmdb	sp!, {r4, r5, r6, r7, r8, r9, sl, fp, lr}
 80037cc:	4604      	mov	r4, r0
 80037ce:	f890 0041 	ldrb.w	r0, [r0, #65]	; 0x41
 80037d2:	b083      	sub	sp, #12
 80037d4:	2820      	cmp	r0, #32
 80037d6:	f8bd 7034 	ldrh.w	r7, [sp, #52]	; 0x34
 80037da:	d11d      	bne.n	8003818 <HAL_I2C_Mem_Write+0x50>
 80037dc:	980c      	ldr	r0, [sp, #48]	; 0x30
 80037de:	b1f8      	cbz	r0, 8003820 <HAL_I2C_Mem_Write+0x58>
 80037e0:	b1f7      	cbz	r7, 8003820 <HAL_I2C_Mem_Write+0x58>
 80037e2:	f894 0040 	ldrb.w	r0, [r4, #64]	; 0x40
 80037e6:	2801      	cmp	r0, #1
 80037e8:	d016      	beq.n	8003818 <HAL_I2C_Mem_Write+0x50>
 80037ea:	2501      	movs	r5, #1
 80037ec:	4699      	mov	r9, r3
 80037ee:	4690      	mov	r8, r2
 80037f0:	468a      	mov	sl, r1
 80037f2:	f884 5040 	strb.w	r5, [r4, #64]	; 0x40
 80037f6:	f7ff f8b3 	bl	8002960 <HAL_GetTick>
 80037fa:	462a      	mov	r2, r5
 80037fc:	9000      	str	r0, [sp, #0]
 80037fe:	4606      	mov	r6, r0
 8003800:	2319      	movs	r3, #25
 8003802:	f44f 4100 	mov.w	r1, #32768	; 0x8000
 8003806:	4620      	mov	r0, r4
 8003808:	f7ff feba 	bl	8003580 <I2C_WaitOnFlagUntilTimeout>
 800380c:	4683      	mov	fp, r0
 800380e:	b170      	cbz	r0, 800382e <HAL_I2C_Mem_Write+0x66>
 8003810:	2001      	movs	r0, #1
 8003812:	b003      	add	sp, #12
 8003814:	e8bd 8ff0 	ldmia.w	sp!, {r4, r5, r6, r7, r8, r9, sl, fp, pc}
 8003818:	2002      	movs	r0, #2
 800381a:	b003      	add	sp, #12
 800381c:	e8bd 8ff0 	ldmia.w	sp!, {r4, r5, r6, r7, r8, r9, sl, fp, pc}
 8003820:	f44f 7300 	mov.w	r3, #512	; 0x200
 8003824:	2001      	movs	r0, #1
 8003826:	6463      	str	r3, [r4, #68]	; 0x44
 8003828:	b003      	add	sp, #12
 800382a:	e8bd 8ff0 	ldmia.w	sp!, {r4, r5, r6, r7, r8, r9, sl, fp, pc}
 800382e:	2040      	movs	r0, #64	; 0x40
 8003830:	9b0c      	ldr	r3, [sp, #48]	; 0x30
 8003832:	990e      	ldr	r1, [sp, #56]	; 0x38
 8003834:	f04f 0c21 	mov.w	ip, #33	; 0x21
 8003838:	6263      	str	r3, [r4, #36]	; 0x24
 800383a:	4642      	mov	r2, r8
 800383c:	f8c4 b034 	str.w	fp, [r4, #52]	; 0x34
 8003840:	464b      	mov	r3, r9
 8003842:	9100      	str	r1, [sp, #0]
 8003844:	4651      	mov	r1, sl
 8003846:	9601      	str	r6, [sp, #4]
 8003848:	f884 c041 	strb.w	ip, [r4, #65]	; 0x41
 800384c:	f884 0042 	strb.w	r0, [r4, #66]	; 0x42
 8003850:	4620      	mov	r0, r4
 8003852:	f8c4 b044 	str.w	fp, [r4, #68]	; 0x44
 8003856:	8567      	strh	r7, [r4, #42]	; 0x2a
 8003858:	f7ff fec0 	bl	80035dc <I2C_RequestMemoryWrite>
 800385c:	2800      	cmp	r0, #0
 800385e:	d14d      	bne.n	80038fc <HAL_I2C_Mem_Write+0x134>
 8003860:	8d63      	ldrh	r3, [r4, #42]	; 0x2a
 8003862:	f3ca 0a09 	ubfx	sl, sl, #0, #10
 8003866:	6821      	ldr	r1, [r4, #0]
 8003868:	2bff      	cmp	r3, #255	; 0xff
 800386a:	d958      	bls.n	800391e <HAL_I2C_Mem_Write+0x156>
 800386c:	684b      	ldr	r3, [r1, #4]
 800386e:	20ff      	movs	r0, #255	; 0xff
 8003870:	4f3d      	ldr	r7, [pc, #244]	; (8003968 <HAL_I2C_Mem_Write+0x1a0>)
 8003872:	4a3e      	ldr	r2, [pc, #248]	; (800396c <HAL_I2C_Mem_Write+0x1a4>)
 8003874:	403b      	ands	r3, r7
 8003876:	8520      	strh	r0, [r4, #40]	; 0x28
 8003878:	ea4a 0202 	orr.w	r2, sl, r2
 800387c:	4313      	orrs	r3, r2
 800387e:	604b      	str	r3, [r1, #4]
 8003880:	4f3a      	ldr	r7, [pc, #232]	; (800396c <HAL_I2C_Mem_Write+0x1a4>)
 8003882:	f8df 80e4 	ldr.w	r8, [pc, #228]	; 8003968 <HAL_I2C_Mem_Write+0x1a0>
 8003886:	ea4a 0707 	orr.w	r7, sl, r7
 800388a:	e003      	b.n	8003894 <HAL_I2C_Mem_Write+0xcc>
 800388c:	8d63      	ldrh	r3, [r4, #42]	; 0x2a
 800388e:	b29b      	uxth	r3, r3
 8003890:	2b00      	cmp	r3, #0
 8003892:	d052      	beq.n	800393a <HAL_I2C_Mem_Write+0x172>
 8003894:	4632      	mov	r2, r6
 8003896:	990e      	ldr	r1, [sp, #56]	; 0x38
 8003898:	4620      	mov	r0, r4
 800389a:	f7ff fe19 	bl	80034d0 <I2C_WaitOnTXISFlagUntilTimeout>
 800389e:	2800      	cmp	r0, #0
 80038a0:	d1b6      	bne.n	8003810 <HAL_I2C_Mem_Write+0x48>
 80038a2:	6a62      	ldr	r2, [r4, #36]	; 0x24
 80038a4:	6825      	ldr	r5, [r4, #0]
 80038a6:	f812 1b01 	ldrb.w	r1, [r2], #1
 80038aa:	8d23      	ldrh	r3, [r4, #40]	; 0x28
 80038ac:	62a9      	str	r1, [r5, #40]	; 0x28
 80038ae:	8d61      	ldrh	r1, [r4, #42]	; 0x2a
 80038b0:	3b01      	subs	r3, #1
 80038b2:	6262      	str	r2, [r4, #36]	; 0x24
 80038b4:	3901      	subs	r1, #1
 80038b6:	b29b      	uxth	r3, r3
 80038b8:	b289      	uxth	r1, r1
 80038ba:	8523      	strh	r3, [r4, #40]	; 0x28
 80038bc:	8561      	strh	r1, [r4, #42]	; 0x2a
 80038be:	8d61      	ldrh	r1, [r4, #42]	; 0x2a
 80038c0:	b289      	uxth	r1, r1
 80038c2:	2b00      	cmp	r3, #0
 80038c4:	d1e2      	bne.n	800388c <HAL_I2C_Mem_Write+0xc4>
 80038c6:	2900      	cmp	r1, #0
 80038c8:	d0e0      	beq.n	800388c <HAL_I2C_Mem_Write+0xc4>
 80038ca:	4602      	mov	r2, r0
 80038cc:	9600      	str	r6, [sp, #0]
 80038ce:	9b0e      	ldr	r3, [sp, #56]	; 0x38
 80038d0:	2180      	movs	r1, #128	; 0x80
 80038d2:	4620      	mov	r0, r4
 80038d4:	f7ff fe54 	bl	8003580 <I2C_WaitOnFlagUntilTimeout>
 80038d8:	f04a 7c00 	orr.w	ip, sl, #33554432	; 0x2000000
 80038dc:	f04f 0eff 	mov.w	lr, #255	; 0xff
 80038e0:	2800      	cmp	r0, #0
 80038e2:	d195      	bne.n	8003810 <HAL_I2C_Mem_Write+0x48>
 80038e4:	8d61      	ldrh	r1, [r4, #42]	; 0x2a
 80038e6:	6822      	ldr	r2, [r4, #0]
 80038e8:	4571      	cmp	r1, lr
 80038ea:	d90b      	bls.n	8003904 <HAL_I2C_Mem_Write+0x13c>
 80038ec:	6853      	ldr	r3, [r2, #4]
 80038ee:	f8a4 e028 	strh.w	lr, [r4, #40]	; 0x28
 80038f2:	ea03 0308 	and.w	r3, r3, r8
 80038f6:	433b      	orrs	r3, r7
 80038f8:	6053      	str	r3, [r2, #4]
 80038fa:	e7c7      	b.n	800388c <HAL_I2C_Mem_Write+0xc4>
 80038fc:	f884 b040 	strb.w	fp, [r4, #64]	; 0x40
 8003900:	4628      	mov	r0, r5
 8003902:	e78a      	b.n	800381a <HAL_I2C_Mem_Write+0x52>
 8003904:	8d61      	ldrh	r1, [r4, #42]	; 0x2a
 8003906:	6853      	ldr	r3, [r2, #4]
 8003908:	b289      	uxth	r1, r1
 800390a:	ea03 0308 	and.w	r3, r3, r8
 800390e:	b2c8      	uxtb	r0, r1
 8003910:	8521      	strh	r1, [r4, #40]	; 0x28
 8003912:	ea43 030c 	orr.w	r3, r3, ip
 8003916:	ea43 4300 	orr.w	r3, r3, r0, lsl #16
 800391a:	6053      	str	r3, [r2, #4]
 800391c:	e7b6      	b.n	800388c <HAL_I2C_Mem_Write+0xc4>
 800391e:	8d60      	ldrh	r0, [r4, #42]	; 0x2a
 8003920:	f04a 7300 	orr.w	r3, sl, #33554432	; 0x2000000
 8003924:	684a      	ldr	r2, [r1, #4]
 8003926:	4f10      	ldr	r7, [pc, #64]	; (8003968 <HAL_I2C_Mem_Write+0x1a0>)
 8003928:	b280      	uxth	r0, r0
 800392a:	403a      	ands	r2, r7
 800392c:	b2c7      	uxtb	r7, r0
 800392e:	8520      	strh	r0, [r4, #40]	; 0x28
 8003930:	4313      	orrs	r3, r2
 8003932:	ea43 4307 	orr.w	r3, r3, r7, lsl #16
 8003936:	604b      	str	r3, [r1, #4]
 8003938:	e7a2      	b.n	8003880 <HAL_I2C_Mem_Write+0xb8>
 800393a:	4632      	mov	r2, r6
 800393c:	990e      	ldr	r1, [sp, #56]	; 0x38
 800393e:	4620      	mov	r0, r4
 8003940:	f7ff fdf4 	bl	800352c <I2C_WaitOnSTOPFlagUntilTimeout>
 8003944:	2800      	cmp	r0, #0
 8003946:	f47f af63 	bne.w	8003810 <HAL_I2C_Mem_Write+0x48>
 800394a:	6823      	ldr	r3, [r4, #0]
 800394c:	2120      	movs	r1, #32
 800394e:	4d08      	ldr	r5, [pc, #32]	; (8003970 <HAL_I2C_Mem_Write+0x1a8>)
 8003950:	61d9      	str	r1, [r3, #28]
 8003952:	685a      	ldr	r2, [r3, #4]
 8003954:	402a      	ands	r2, r5
 8003956:	605a      	str	r2, [r3, #4]
 8003958:	f884 1041 	strb.w	r1, [r4, #65]	; 0x41
 800395c:	f884 0040 	strb.w	r0, [r4, #64]	; 0x40
 8003960:	f884 0042 	strb.w	r0, [r4, #66]	; 0x42
 8003964:	e759      	b.n	800381a <HAL_I2C_Mem_Write+0x52>
 8003966:	bf00      	nop
 8003968:	fc009c00 	.word	0xfc009c00
 800396c:	01ff0000 	.word	0x01ff0000
 8003970:	fe00e800 	.word	0xfe00e800

08003974 <HAL_I2C_Mem_Read>:
 8003974:	e92d 4ff0 	stmdb	sp!, {r4, r5, r6, r7, r8, r9, sl, fp, lr}
 8003978:	4604      	mov	r4, r0
 800397a:	f890 0041 	ldrb.w	r0, [r0, #65]	; 0x41
 800397e:	b083      	sub	sp, #12
 8003980:	2820      	cmp	r0, #32
 8003982:	f8bd 7034 	ldrh.w	r7, [sp, #52]	; 0x34
 8003986:	d11d      	bne.n	80039c4 <HAL_I2C_Mem_Read+0x50>
 8003988:	980c      	ldr	r0, [sp, #48]	; 0x30
 800398a:	b1f8      	cbz	r0, 80039cc <HAL_I2C_Mem_Read+0x58>
 800398c:	b1f7      	cbz	r7, 80039cc <HAL_I2C_Mem_Read+0x58>
 800398e:	f894 0040 	ldrb.w	r0, [r4, #64]	; 0x40
 8003992:	2801      	cmp	r0, #1
 8003994:	d016      	beq.n	80039c4 <HAL_I2C_Mem_Read+0x50>
 8003996:	2501      	movs	r5, #1
 8003998:	4699      	mov	r9, r3
 800399a:	4690      	mov	r8, r2
 800399c:	468a      	mov	sl, r1
 800399e:	f884 5040 	strb.w	r5, [r4, #64]	; 0x40
 80039a2:	f7fe ffdd 	bl	8002960 <HAL_GetTick>
 80039a6:	462a      	mov	r2, r5
 80039a8:	9000      	str	r0, [sp, #0]
 80039aa:	4606      	mov	r6, r0
 80039ac:	2319      	movs	r3, #25
 80039ae:	f44f 4100 	mov.w	r1, #32768	; 0x8000
 80039b2:	4620      	mov	r0, r4
 80039b4:	f7ff fde4 	bl	8003580 <I2C_WaitOnFlagUntilTimeout>
 80039b8:	4683      	mov	fp, r0
 80039ba:	b170      	cbz	r0, 80039da <HAL_I2C_Mem_Read+0x66>
 80039bc:	2001      	movs	r0, #1
 80039be:	b003      	add	sp, #12
 80039c0:	e8bd 8ff0 	ldmia.w	sp!, {r4, r5, r6, r7, r8, r9, sl, fp, pc}
 80039c4:	2002      	movs	r0, #2
 80039c6:	b003      	add	sp, #12
 80039c8:	e8bd 8ff0 	ldmia.w	sp!, {r4, r5, r6, r7, r8, r9, sl, fp, pc}
 80039cc:	f44f 7300 	mov.w	r3, #512	; 0x200
 80039d0:	2001      	movs	r0, #1
 80039d2:	6463      	str	r3, [r4, #68]	; 0x44
 80039d4:	b003      	add	sp, #12
 80039d6:	e8bd 8ff0 	ldmia.w	sp!, {r4, r5, r6, r7, r8, r9, sl, fp, pc}
 80039da:	2040      	movs	r0, #64	; 0x40
 80039dc:	9b0c      	ldr	r3, [sp, #48]	; 0x30
 80039de:	990e      	ldr	r1, [sp, #56]	; 0x38
 80039e0:	f04f 0c22 	mov.w	ip, #34	; 0x22
 80039e4:	6263      	str	r3, [r4, #36]	; 0x24
 80039e6:	4642      	mov	r2, r8
 80039e8:	f8c4 b034 	str.w	fp, [r4, #52]	; 0x34
 80039ec:	464b      	mov	r3, r9
 80039ee:	9100      	str	r1, [sp, #0]
 80039f0:	4651      	mov	r1, sl
 80039f2:	9601      	str	r6, [sp, #4]
 80039f4:	f884 c041 	strb.w	ip, [r4, #65]	; 0x41
 80039f8:	f884 0042 	strb.w	r0, [r4, #66]	; 0x42
 80039fc:	4620      	mov	r0, r4
 80039fe:	f8c4 b044 	str.w	fp, [r4, #68]	; 0x44
 8003a02:	8567      	strh	r7, [r4, #42]	; 0x2a
 8003a04:	f7ff fe2c 	bl	8003660 <I2C_RequestMemoryRead>
 8003a08:	2800      	cmp	r0, #0
 8003a0a:	d14e      	bne.n	8003aaa <HAL_I2C_Mem_Read+0x136>
 8003a0c:	8d63      	ldrh	r3, [r4, #42]	; 0x2a
 8003a0e:	f3ca 0a09 	ubfx	sl, sl, #0, #10
 8003a12:	6821      	ldr	r1, [r4, #0]
 8003a14:	2bff      	cmp	r3, #255	; 0xff
 8003a16:	d958      	bls.n	8003aca <HAL_I2C_Mem_Read+0x156>
 8003a18:	684b      	ldr	r3, [r1, #4]
 8003a1a:	20ff      	movs	r0, #255	; 0xff
 8003a1c:	4f3d      	ldr	r7, [pc, #244]	; (8003b14 <HAL_I2C_Mem_Read+0x1a0>)
 8003a1e:	4a3e      	ldr	r2, [pc, #248]	; (8003b18 <HAL_I2C_Mem_Read+0x1a4>)
 8003a20:	403b      	ands	r3, r7
 8003a22:	8520      	strh	r0, [r4, #40]	; 0x28
 8003a24:	ea4a 0202 	orr.w	r2, sl, r2
 8003a28:	4313      	orrs	r3, r2
 8003a2a:	604b      	str	r3, [r1, #4]
 8003a2c:	4f3b      	ldr	r7, [pc, #236]	; (8003b1c <HAL_I2C_Mem_Read+0x1a8>)
 8003a2e:	4d3c      	ldr	r5, [pc, #240]	; (8003b20 <HAL_I2C_Mem_Read+0x1ac>)
 8003a30:	ea4a 0707 	orr.w	r7, sl, r7
 8003a34:	e003      	b.n	8003a3e <HAL_I2C_Mem_Read+0xca>
 8003a36:	8d63      	ldrh	r3, [r4, #42]	; 0x2a
 8003a38:	b29b      	uxth	r3, r3
 8003a3a:	2b00      	cmp	r3, #0
 8003a3c:	d054      	beq.n	8003ae8 <HAL_I2C_Mem_Read+0x174>
 8003a3e:	9600      	str	r6, [sp, #0]
 8003a40:	2200      	movs	r2, #0
 8003a42:	9b0e      	ldr	r3, [sp, #56]	; 0x38
 8003a44:	2104      	movs	r1, #4
 8003a46:	4620      	mov	r0, r4
 8003a48:	f7ff fd9a 	bl	8003580 <I2C_WaitOnFlagUntilTimeout>
 8003a4c:	2800      	cmp	r0, #0
 8003a4e:	d1b5      	bne.n	80039bc <HAL_I2C_Mem_Read+0x48>
 8003a50:	6822      	ldr	r2, [r4, #0]
 8003a52:	6a63      	ldr	r3, [r4, #36]	; 0x24
 8003a54:	6a52      	ldr	r2, [r2, #36]	; 0x24
 8003a56:	701a      	strb	r2, [r3, #0]
 8003a58:	8d61      	ldrh	r1, [r4, #42]	; 0x2a
 8003a5a:	8d23      	ldrh	r3, [r4, #40]	; 0x28
 8003a5c:	3901      	subs	r1, #1
 8003a5e:	6a62      	ldr	r2, [r4, #36]	; 0x24
 8003a60:	3b01      	subs	r3, #1
 8003a62:	b289      	uxth	r1, r1
 8003a64:	3201      	adds	r2, #1
 8003a66:	b29b      	uxth	r3, r3
 8003a68:	8561      	strh	r1, [r4, #42]	; 0x2a
 8003a6a:	8d61      	ldrh	r1, [r4, #42]	; 0x2a
 8003a6c:	8523      	strh	r3, [r4, #40]	; 0x28
 8003a6e:	b289      	uxth	r1, r1
 8003a70:	6262      	str	r2, [r4, #36]	; 0x24
 8003a72:	2b00      	cmp	r3, #0
 8003a74:	d1df      	bne.n	8003a36 <HAL_I2C_Mem_Read+0xc2>
 8003a76:	2900      	cmp	r1, #0
 8003a78:	d0dd      	beq.n	8003a36 <HAL_I2C_Mem_Read+0xc2>
 8003a7a:	4602      	mov	r2, r0
 8003a7c:	9600      	str	r6, [sp, #0]
 8003a7e:	9b0e      	ldr	r3, [sp, #56]	; 0x38
 8003a80:	2180      	movs	r1, #128	; 0x80
 8003a82:	4620      	mov	r0, r4
 8003a84:	f7ff fd7c 	bl	8003580 <I2C_WaitOnFlagUntilTimeout>
 8003a88:	f04a 7c00 	orr.w	ip, sl, #33554432	; 0x2000000
 8003a8c:	f04f 0eff 	mov.w	lr, #255	; 0xff
 8003a90:	2800      	cmp	r0, #0
 8003a92:	d193      	bne.n	80039bc <HAL_I2C_Mem_Read+0x48>
 8003a94:	8d61      	ldrh	r1, [r4, #42]	; 0x2a
 8003a96:	6822      	ldr	r2, [r4, #0]
 8003a98:	4571      	cmp	r1, lr
 8003a9a:	d90a      	bls.n	8003ab2 <HAL_I2C_Mem_Read+0x13e>
 8003a9c:	6853      	ldr	r3, [r2, #4]
 8003a9e:	f8a4 e028 	strh.w	lr, [r4, #40]	; 0x28
 8003aa2:	402b      	ands	r3, r5
 8003aa4:	433b      	orrs	r3, r7
 8003aa6:	6053      	str	r3, [r2, #4]
 8003aa8:	e7c5      	b.n	8003a36 <HAL_I2C_Mem_Read+0xc2>
 8003aaa:	f884 b040 	strb.w	fp, [r4, #64]	; 0x40
 8003aae:	4628      	mov	r0, r5
 8003ab0:	e789      	b.n	80039c6 <HAL_I2C_Mem_Read+0x52>
 8003ab2:	8d61      	ldrh	r1, [r4, #42]	; 0x2a
 8003ab4:	6853      	ldr	r3, [r2, #4]
 8003ab6:	b289      	uxth	r1, r1
 8003ab8:	402b      	ands	r3, r5
 8003aba:	b2c8      	uxtb	r0, r1
 8003abc:	8521      	strh	r1, [r4, #40]	; 0x28
 8003abe:	ea43 030c 	orr.w	r3, r3, ip
 8003ac2:	ea43 4300 	orr.w	r3, r3, r0, lsl #16
 8003ac6:	6053      	str	r3, [r2, #4]
 8003ac8:	e7b5      	b.n	8003a36 <HAL_I2C_Mem_Read+0xc2>
 8003aca:	8d62      	ldrh	r2, [r4, #42]	; 0x2a
 8003acc:	4f11      	ldr	r7, [pc, #68]	; (8003b14 <HAL_I2C_Mem_Read+0x1a0>)
 8003ace:	684b      	ldr	r3, [r1, #4]
 8003ad0:	b292      	uxth	r2, r2
 8003ad2:	4814      	ldr	r0, [pc, #80]	; (8003b24 <HAL_I2C_Mem_Read+0x1b0>)
 8003ad4:	403b      	ands	r3, r7
 8003ad6:	8522      	strh	r2, [r4, #40]	; 0x28
 8003ad8:	ea4a 0000 	orr.w	r0, sl, r0
 8003adc:	b2d2      	uxtb	r2, r2
 8003ade:	4303      	orrs	r3, r0
 8003ae0:	ea43 4302 	orr.w	r3, r3, r2, lsl #16
 8003ae4:	604b      	str	r3, [r1, #4]
 8003ae6:	e7a1      	b.n	8003a2c <HAL_I2C_Mem_Read+0xb8>
 8003ae8:	4632      	mov	r2, r6
 8003aea:	990e      	ldr	r1, [sp, #56]	; 0x38
 8003aec:	4620      	mov	r0, r4
 8003aee:	f7ff fd1d 	bl	800352c <I2C_WaitOnSTOPFlagUntilTimeout>
 8003af2:	2800      	cmp	r0, #0
 8003af4:	f47f af62 	bne.w	80039bc <HAL_I2C_Mem_Read+0x48>
 8003af8:	6823      	ldr	r3, [r4, #0]
 8003afa:	2120      	movs	r1, #32
 8003afc:	4d0a      	ldr	r5, [pc, #40]	; (8003b28 <HAL_I2C_Mem_Read+0x1b4>)
 8003afe:	61d9      	str	r1, [r3, #28]
 8003b00:	685a      	ldr	r2, [r3, #4]
 8003b02:	402a      	ands	r2, r5
 8003b04:	605a      	str	r2, [r3, #4]
 8003b06:	f884 1041 	strb.w	r1, [r4, #65]	; 0x41
 8003b0a:	f884 0040 	strb.w	r0, [r4, #64]	; 0x40
 8003b0e:	f884 0042 	strb.w	r0, [r4, #66]	; 0x42
 8003b12:	e758      	b.n	80039c6 <HAL_I2C_Mem_Read+0x52>
 8003b14:	fc009800 	.word	0xfc009800
 8003b18:	81ff2400 	.word	0x81ff2400
 8003b1c:	01ff0000 	.word	0x01ff0000
 8003b20:	fc009c00 	.word	0xfc009c00
 8003b24:	82002400 	.word	0x82002400
 8003b28:	fe00e800 	.word	0xfe00e800

08003b2c <HAL_I2C_GetState>:
 8003b2c:	f890 0041 	ldrb.w	r0, [r0, #65]	; 0x41
 8003b30:	4770      	bx	lr
 8003b32:	bf00      	nop

08003b34 <HAL_PWREx_EnableOverDrive>:
 8003b34:	4a1b      	ldr	r2, [pc, #108]	; (8003ba4 <HAL_PWREx_EnableOverDrive+0x70>)
 8003b36:	4b1c      	ldr	r3, [pc, #112]	; (8003ba8 <HAL_PWREx_EnableOverDrive+0x74>)
 8003b38:	6c11      	ldr	r1, [r2, #64]	; 0x40
 8003b3a:	f041 5180 	orr.w	r1, r1, #268435456	; 0x10000000
 8003b3e:	b530      	push	{r4, r5, lr}
 8003b40:	6411      	str	r1, [r2, #64]	; 0x40
 8003b42:	b083      	sub	sp, #12
 8003b44:	6c12      	ldr	r2, [r2, #64]	; 0x40
 8003b46:	461c      	mov	r4, r3
 8003b48:	f002 5280 	and.w	r2, r2, #268435456	; 0x10000000
 8003b4c:	9201      	str	r2, [sp, #4]
 8003b4e:	9a01      	ldr	r2, [sp, #4]
 8003b50:	681a      	ldr	r2, [r3, #0]
 8003b52:	f442 3280 	orr.w	r2, r2, #65536	; 0x10000
 8003b56:	601a      	str	r2, [r3, #0]
 8003b58:	f7fe ff02 	bl	8002960 <HAL_GetTick>
 8003b5c:	4605      	mov	r5, r0
 8003b5e:	e005      	b.n	8003b6c <HAL_PWREx_EnableOverDrive+0x38>
 8003b60:	f7fe fefe 	bl	8002960 <HAL_GetTick>
 8003b64:	1b40      	subs	r0, r0, r5
 8003b66:	f5b0 7f7a 	cmp.w	r0, #1000	; 0x3e8
 8003b6a:	d817      	bhi.n	8003b9c <HAL_PWREx_EnableOverDrive+0x68>
 8003b6c:	6863      	ldr	r3, [r4, #4]
 8003b6e:	03da      	lsls	r2, r3, #15
 8003b70:	d5f6      	bpl.n	8003b60 <HAL_PWREx_EnableOverDrive+0x2c>
 8003b72:	6823      	ldr	r3, [r4, #0]
 8003b74:	4d0c      	ldr	r5, [pc, #48]	; (8003ba8 <HAL_PWREx_EnableOverDrive+0x74>)
 8003b76:	f443 3300 	orr.w	r3, r3, #131072	; 0x20000
 8003b7a:	6023      	str	r3, [r4, #0]
 8003b7c:	f7fe fef0 	bl	8002960 <HAL_GetTick>
 8003b80:	4604      	mov	r4, r0
 8003b82:	e005      	b.n	8003b90 <HAL_PWREx_EnableOverDrive+0x5c>
 8003b84:	f7fe feec 	bl	8002960 <HAL_GetTick>
 8003b88:	1b00      	subs	r0, r0, r4
 8003b8a:	f5b0 7f7a 	cmp.w	r0, #1000	; 0x3e8
 8003b8e:	d805      	bhi.n	8003b9c <HAL_PWREx_EnableOverDrive+0x68>
 8003b90:	686b      	ldr	r3, [r5, #4]
 8003b92:	039b      	lsls	r3, r3, #14
 8003b94:	d5f6      	bpl.n	8003b84 <HAL_PWREx_EnableOverDrive+0x50>
 8003b96:	2000      	movs	r0, #0
 8003b98:	b003      	add	sp, #12
 8003b9a:	bd30      	pop	{r4, r5, pc}
 8003b9c:	2003      	movs	r0, #3
 8003b9e:	b003      	add	sp, #12
 8003ba0:	bd30      	pop	{r4, r5, pc}
 8003ba2:	bf00      	nop
 8003ba4:	40023800 	.word	0x40023800
 8003ba8:	40007000 	.word	0x40007000

08003bac <HAL_RCC_OscConfig>:
 8003bac:	2800      	cmp	r0, #0
 8003bae:	f000 814c 	beq.w	8003e4a <HAL_RCC_OscConfig+0x29e>
 8003bb2:	6803      	ldr	r3, [r0, #0]
 8003bb4:	e92d 41f0 	stmdb	sp!, {r4, r5, r6, r7, r8, lr}
 8003bb8:	07dd      	lsls	r5, r3, #31
 8003bba:	b082      	sub	sp, #8
 8003bbc:	4604      	mov	r4, r0
 8003bbe:	d535      	bpl.n	8003c2c <HAL_RCC_OscConfig+0x80>
 8003bc0:	49ac      	ldr	r1, [pc, #688]	; (8003e74 <HAL_RCC_OscConfig+0x2c8>)
 8003bc2:	688a      	ldr	r2, [r1, #8]
 8003bc4:	f002 020c 	and.w	r2, r2, #12
 8003bc8:	2a04      	cmp	r2, #4
 8003bca:	f000 80ff 	beq.w	8003dcc <HAL_RCC_OscConfig+0x220>
 8003bce:	688a      	ldr	r2, [r1, #8]
 8003bd0:	f002 020c 	and.w	r2, r2, #12
 8003bd4:	2a08      	cmp	r2, #8
 8003bd6:	f000 80f5 	beq.w	8003dc4 <HAL_RCC_OscConfig+0x218>
 8003bda:	6863      	ldr	r3, [r4, #4]
 8003bdc:	f5b3 3f80 	cmp.w	r3, #65536	; 0x10000
 8003be0:	d010      	beq.n	8003c04 <HAL_RCC_OscConfig+0x58>
 8003be2:	2b00      	cmp	r3, #0
 8003be4:	f000 811a 	beq.w	8003e1c <HAL_RCC_OscConfig+0x270>
 8003be8:	f5b3 2fa0 	cmp.w	r3, #327680	; 0x50000
 8003bec:	4ba1      	ldr	r3, [pc, #644]	; (8003e74 <HAL_RCC_OscConfig+0x2c8>)
 8003bee:	681a      	ldr	r2, [r3, #0]
 8003bf0:	f000 8164 	beq.w	8003ebc <HAL_RCC_OscConfig+0x310>
 8003bf4:	f422 3280 	bic.w	r2, r2, #65536	; 0x10000
 8003bf8:	601a      	str	r2, [r3, #0]
 8003bfa:	681a      	ldr	r2, [r3, #0]
 8003bfc:	f422 2280 	bic.w	r2, r2, #262144	; 0x40000
 8003c00:	601a      	str	r2, [r3, #0]
 8003c02:	e004      	b.n	8003c0e <HAL_RCC_OscConfig+0x62>
 8003c04:	4a9b      	ldr	r2, [pc, #620]	; (8003e74 <HAL_RCC_OscConfig+0x2c8>)
 8003c06:	6813      	ldr	r3, [r2, #0]
 8003c08:	f443 3380 	orr.w	r3, r3, #65536	; 0x10000
 8003c0c:	6013      	str	r3, [r2, #0]
 8003c0e:	f7fe fea7 	bl	8002960 <HAL_GetTick>
 8003c12:	4d98      	ldr	r5, [pc, #608]	; (8003e74 <HAL_RCC_OscConfig+0x2c8>)
 8003c14:	4606      	mov	r6, r0
 8003c16:	e005      	b.n	8003c24 <HAL_RCC_OscConfig+0x78>
 8003c18:	f7fe fea2 	bl	8002960 <HAL_GetTick>
 8003c1c:	1b80      	subs	r0, r0, r6
 8003c1e:	2864      	cmp	r0, #100	; 0x64
 8003c20:	f200 80ef 	bhi.w	8003e02 <HAL_RCC_OscConfig+0x256>
 8003c24:	682b      	ldr	r3, [r5, #0]
 8003c26:	039a      	lsls	r2, r3, #14
 8003c28:	d5f6      	bpl.n	8003c18 <HAL_RCC_OscConfig+0x6c>
 8003c2a:	6823      	ldr	r3, [r4, #0]
 8003c2c:	079f      	lsls	r7, r3, #30
 8003c2e:	d442      	bmi.n	8003cb6 <HAL_RCC_OscConfig+0x10a>
 8003c30:	071a      	lsls	r2, r3, #28
 8003c32:	d517      	bpl.n	8003c64 <HAL_RCC_OscConfig+0xb8>
 8003c34:	6963      	ldr	r3, [r4, #20]
 8003c36:	2b00      	cmp	r3, #0
 8003c38:	f000 80b1 	beq.w	8003d9e <HAL_RCC_OscConfig+0x1f2>
 8003c3c:	4b8d      	ldr	r3, [pc, #564]	; (8003e74 <HAL_RCC_OscConfig+0x2c8>)
 8003c3e:	6f5a      	ldr	r2, [r3, #116]	; 0x74
 8003c40:	461d      	mov	r5, r3
 8003c42:	f042 0201 	orr.w	r2, r2, #1
 8003c46:	675a      	str	r2, [r3, #116]	; 0x74
 8003c48:	f7fe fe8a 	bl	8002960 <HAL_GetTick>
 8003c4c:	4606      	mov	r6, r0
 8003c4e:	e005      	b.n	8003c5c <HAL_RCC_OscConfig+0xb0>
 8003c50:	f7fe fe86 	bl	8002960 <HAL_GetTick>
 8003c54:	1b80      	subs	r0, r0, r6
 8003c56:	2802      	cmp	r0, #2
 8003c58:	f200 80d3 	bhi.w	8003e02 <HAL_RCC_OscConfig+0x256>
 8003c5c:	6f6b      	ldr	r3, [r5, #116]	; 0x74
 8003c5e:	079b      	lsls	r3, r3, #30
 8003c60:	d5f6      	bpl.n	8003c50 <HAL_RCC_OscConfig+0xa4>
 8003c62:	6823      	ldr	r3, [r4, #0]
 8003c64:	075d      	lsls	r5, r3, #29
 8003c66:	d56b      	bpl.n	8003d40 <HAL_RCC_OscConfig+0x194>
 8003c68:	4b82      	ldr	r3, [pc, #520]	; (8003e74 <HAL_RCC_OscConfig+0x2c8>)
 8003c6a:	6c1a      	ldr	r2, [r3, #64]	; 0x40
 8003c6c:	00d0      	lsls	r0, r2, #3
 8003c6e:	f100 80ee 	bmi.w	8003e4e <HAL_RCC_OscConfig+0x2a2>
 8003c72:	6c1a      	ldr	r2, [r3, #64]	; 0x40
 8003c74:	2501      	movs	r5, #1
 8003c76:	f042 5280 	orr.w	r2, r2, #268435456	; 0x10000000
 8003c7a:	641a      	str	r2, [r3, #64]	; 0x40
 8003c7c:	6c1b      	ldr	r3, [r3, #64]	; 0x40
 8003c7e:	f003 5380 	and.w	r3, r3, #268435456	; 0x10000000
 8003c82:	9301      	str	r3, [sp, #4]
 8003c84:	9b01      	ldr	r3, [sp, #4]
 8003c86:	4b7c      	ldr	r3, [pc, #496]	; (8003e78 <HAL_RCC_OscConfig+0x2cc>)
 8003c88:	681a      	ldr	r2, [r3, #0]
 8003c8a:	05d1      	lsls	r1, r2, #23
 8003c8c:	f140 80a8 	bpl.w	8003de0 <HAL_RCC_OscConfig+0x234>
 8003c90:	68a3      	ldr	r3, [r4, #8]
 8003c92:	2b01      	cmp	r3, #1
 8003c94:	d039      	beq.n	8003d0a <HAL_RCC_OscConfig+0x15e>
 8003c96:	2b00      	cmp	r3, #0
 8003c98:	f000 80db 	beq.w	8003e52 <HAL_RCC_OscConfig+0x2a6>
 8003c9c:	2b05      	cmp	r3, #5
 8003c9e:	4b75      	ldr	r3, [pc, #468]	; (8003e74 <HAL_RCC_OscConfig+0x2c8>)
 8003ca0:	6f1a      	ldr	r2, [r3, #112]	; 0x70
 8003ca2:	f000 8113 	beq.w	8003ecc <HAL_RCC_OscConfig+0x320>
 8003ca6:	f022 0201 	bic.w	r2, r2, #1
 8003caa:	671a      	str	r2, [r3, #112]	; 0x70
 8003cac:	6f1a      	ldr	r2, [r3, #112]	; 0x70
 8003cae:	f022 0204 	bic.w	r2, r2, #4
 8003cb2:	671a      	str	r2, [r3, #112]	; 0x70
 8003cb4:	e02e      	b.n	8003d14 <HAL_RCC_OscConfig+0x168>
 8003cb6:	4a6f      	ldr	r2, [pc, #444]	; (8003e74 <HAL_RCC_OscConfig+0x2c8>)
 8003cb8:	6891      	ldr	r1, [r2, #8]
 8003cba:	f011 0f0c 	tst.w	r1, #12
 8003cbe:	d063      	beq.n	8003d88 <HAL_RCC_OscConfig+0x1dc>
 8003cc0:	6891      	ldr	r1, [r2, #8]
 8003cc2:	f001 010c 	and.w	r1, r1, #12
 8003cc6:	2908      	cmp	r1, #8
 8003cc8:	d05b      	beq.n	8003d82 <HAL_RCC_OscConfig+0x1d6>
 8003cca:	68e3      	ldr	r3, [r4, #12]
 8003ccc:	2b00      	cmp	r3, #0
 8003cce:	f000 80e1 	beq.w	8003e94 <HAL_RCC_OscConfig+0x2e8>
 8003cd2:	4b68      	ldr	r3, [pc, #416]	; (8003e74 <HAL_RCC_OscConfig+0x2c8>)
 8003cd4:	681a      	ldr	r2, [r3, #0]
 8003cd6:	461d      	mov	r5, r3
 8003cd8:	f042 0201 	orr.w	r2, r2, #1
 8003cdc:	601a      	str	r2, [r3, #0]
 8003cde:	f7fe fe3f 	bl	8002960 <HAL_GetTick>
 8003ce2:	4606      	mov	r6, r0
 8003ce4:	e005      	b.n	8003cf2 <HAL_RCC_OscConfig+0x146>
 8003ce6:	f7fe fe3b 	bl	8002960 <HAL_GetTick>
 8003cea:	1b80      	subs	r0, r0, r6
 8003cec:	2802      	cmp	r0, #2
 8003cee:	f200 8088 	bhi.w	8003e02 <HAL_RCC_OscConfig+0x256>
 8003cf2:	682b      	ldr	r3, [r5, #0]
 8003cf4:	0798      	lsls	r0, r3, #30
 8003cf6:	d5f6      	bpl.n	8003ce6 <HAL_RCC_OscConfig+0x13a>
 8003cf8:	682b      	ldr	r3, [r5, #0]
 8003cfa:	6922      	ldr	r2, [r4, #16]
 8003cfc:	f023 03f8 	bic.w	r3, r3, #248	; 0xf8
 8003d00:	ea43 03c2 	orr.w	r3, r3, r2, lsl #3
 8003d04:	602b      	str	r3, [r5, #0]
 8003d06:	6823      	ldr	r3, [r4, #0]
 8003d08:	e792      	b.n	8003c30 <HAL_RCC_OscConfig+0x84>
 8003d0a:	4a5a      	ldr	r2, [pc, #360]	; (8003e74 <HAL_RCC_OscConfig+0x2c8>)
 8003d0c:	6f13      	ldr	r3, [r2, #112]	; 0x70
 8003d0e:	f043 0301 	orr.w	r3, r3, #1
 8003d12:	6713      	str	r3, [r2, #112]	; 0x70
 8003d14:	f7fe fe24 	bl	8002960 <HAL_GetTick>
 8003d18:	4e56      	ldr	r6, [pc, #344]	; (8003e74 <HAL_RCC_OscConfig+0x2c8>)
 8003d1a:	4680      	mov	r8, r0
 8003d1c:	f241 3788 	movw	r7, #5000	; 0x1388
 8003d20:	e005      	b.n	8003d2e <HAL_RCC_OscConfig+0x182>
 8003d22:	f7fe fe1d 	bl	8002960 <HAL_GetTick>
 8003d26:	eba0 0008 	sub.w	r0, r0, r8
 8003d2a:	42b8      	cmp	r0, r7
 8003d2c:	d869      	bhi.n	8003e02 <HAL_RCC_OscConfig+0x256>
 8003d2e:	6f33      	ldr	r3, [r6, #112]	; 0x70
 8003d30:	079b      	lsls	r3, r3, #30
 8003d32:	d5f6      	bpl.n	8003d22 <HAL_RCC_OscConfig+0x176>
 8003d34:	b125      	cbz	r5, 8003d40 <HAL_RCC_OscConfig+0x194>
 8003d36:	4a4f      	ldr	r2, [pc, #316]	; (8003e74 <HAL_RCC_OscConfig+0x2c8>)
 8003d38:	6c13      	ldr	r3, [r2, #64]	; 0x40
 8003d3a:	f023 5380 	bic.w	r3, r3, #268435456	; 0x10000000
 8003d3e:	6413      	str	r3, [r2, #64]	; 0x40
 8003d40:	69a0      	ldr	r0, [r4, #24]
 8003d42:	b1d0      	cbz	r0, 8003d7a <HAL_RCC_OscConfig+0x1ce>
 8003d44:	4b4b      	ldr	r3, [pc, #300]	; (8003e74 <HAL_RCC_OscConfig+0x2c8>)
 8003d46:	689a      	ldr	r2, [r3, #8]
 8003d48:	f002 020c 	and.w	r2, r2, #12
 8003d4c:	2a08      	cmp	r2, #8
 8003d4e:	f000 80c5 	beq.w	8003edc <HAL_RCC_OscConfig+0x330>
 8003d52:	2802      	cmp	r0, #2
 8003d54:	681a      	ldr	r2, [r3, #0]
 8003d56:	f000 80f2 	beq.w	8003f3e <HAL_RCC_OscConfig+0x392>
 8003d5a:	f022 7280 	bic.w	r2, r2, #16777216	; 0x1000000
 8003d5e:	461c      	mov	r4, r3
 8003d60:	601a      	str	r2, [r3, #0]
 8003d62:	f7fe fdfd 	bl	8002960 <HAL_GetTick>
 8003d66:	4605      	mov	r5, r0
 8003d68:	e004      	b.n	8003d74 <HAL_RCC_OscConfig+0x1c8>
 8003d6a:	f7fe fdf9 	bl	8002960 <HAL_GetTick>
 8003d6e:	1b40      	subs	r0, r0, r5
 8003d70:	2802      	cmp	r0, #2
 8003d72:	d846      	bhi.n	8003e02 <HAL_RCC_OscConfig+0x256>
 8003d74:	6823      	ldr	r3, [r4, #0]
 8003d76:	019b      	lsls	r3, r3, #6
 8003d78:	d4f7      	bmi.n	8003d6a <HAL_RCC_OscConfig+0x1be>
 8003d7a:	2000      	movs	r0, #0
 8003d7c:	b002      	add	sp, #8
 8003d7e:	e8bd 81f0 	ldmia.w	sp!, {r4, r5, r6, r7, r8, pc}
 8003d82:	6852      	ldr	r2, [r2, #4]
 8003d84:	0256      	lsls	r6, r2, #9
 8003d86:	d4a0      	bmi.n	8003cca <HAL_RCC_OscConfig+0x11e>
 8003d88:	4a3a      	ldr	r2, [pc, #232]	; (8003e74 <HAL_RCC_OscConfig+0x2c8>)
 8003d8a:	6812      	ldr	r2, [r2, #0]
 8003d8c:	0795      	lsls	r5, r2, #30
 8003d8e:	d53c      	bpl.n	8003e0a <HAL_RCC_OscConfig+0x25e>
 8003d90:	68e2      	ldr	r2, [r4, #12]
 8003d92:	2a01      	cmp	r2, #1
 8003d94:	d039      	beq.n	8003e0a <HAL_RCC_OscConfig+0x25e>
 8003d96:	2001      	movs	r0, #1
 8003d98:	b002      	add	sp, #8
 8003d9a:	e8bd 81f0 	ldmia.w	sp!, {r4, r5, r6, r7, r8, pc}
 8003d9e:	4b35      	ldr	r3, [pc, #212]	; (8003e74 <HAL_RCC_OscConfig+0x2c8>)
 8003da0:	6f5a      	ldr	r2, [r3, #116]	; 0x74
 8003da2:	461d      	mov	r5, r3
 8003da4:	f022 0201 	bic.w	r2, r2, #1
 8003da8:	675a      	str	r2, [r3, #116]	; 0x74
 8003daa:	f7fe fdd9 	bl	8002960 <HAL_GetTick>
 8003dae:	4606      	mov	r6, r0
 8003db0:	e004      	b.n	8003dbc <HAL_RCC_OscConfig+0x210>
 8003db2:	f7fe fdd5 	bl	8002960 <HAL_GetTick>
 8003db6:	1b80      	subs	r0, r0, r6
 8003db8:	2802      	cmp	r0, #2
 8003dba:	d822      	bhi.n	8003e02 <HAL_RCC_OscConfig+0x256>
 8003dbc:	6f6b      	ldr	r3, [r5, #116]	; 0x74
 8003dbe:	079f      	lsls	r7, r3, #30
 8003dc0:	d4f7      	bmi.n	8003db2 <HAL_RCC_OscConfig+0x206>
 8003dc2:	e74e      	b.n	8003c62 <HAL_RCC_OscConfig+0xb6>
 8003dc4:	684a      	ldr	r2, [r1, #4]
 8003dc6:	0250      	lsls	r0, r2, #9
 8003dc8:	f57f af07 	bpl.w	8003bda <HAL_RCC_OscConfig+0x2e>
 8003dcc:	4a29      	ldr	r2, [pc, #164]	; (8003e74 <HAL_RCC_OscConfig+0x2c8>)
 8003dce:	6812      	ldr	r2, [r2, #0]
 8003dd0:	0391      	lsls	r1, r2, #14
 8003dd2:	f57f af2b 	bpl.w	8003c2c <HAL_RCC_OscConfig+0x80>
 8003dd6:	6862      	ldr	r2, [r4, #4]
 8003dd8:	2a00      	cmp	r2, #0
 8003dda:	f47f af27 	bne.w	8003c2c <HAL_RCC_OscConfig+0x80>
 8003dde:	e7da      	b.n	8003d96 <HAL_RCC_OscConfig+0x1ea>
 8003de0:	681a      	ldr	r2, [r3, #0]
 8003de2:	461e      	mov	r6, r3
 8003de4:	f442 7280 	orr.w	r2, r2, #256	; 0x100
 8003de8:	601a      	str	r2, [r3, #0]
 8003dea:	f7fe fdb9 	bl	8002960 <HAL_GetTick>
 8003dee:	4607      	mov	r7, r0
 8003df0:	6833      	ldr	r3, [r6, #0]
 8003df2:	05da      	lsls	r2, r3, #23
 8003df4:	f53f af4c 	bmi.w	8003c90 <HAL_RCC_OscConfig+0xe4>
 8003df8:	f7fe fdb2 	bl	8002960 <HAL_GetTick>
 8003dfc:	1bc0      	subs	r0, r0, r7
 8003dfe:	2864      	cmp	r0, #100	; 0x64
 8003e00:	d9f6      	bls.n	8003df0 <HAL_RCC_OscConfig+0x244>
 8003e02:	2003      	movs	r0, #3
 8003e04:	b002      	add	sp, #8
 8003e06:	e8bd 81f0 	ldmia.w	sp!, {r4, r5, r6, r7, r8, pc}
 8003e0a:	491a      	ldr	r1, [pc, #104]	; (8003e74 <HAL_RCC_OscConfig+0x2c8>)
 8003e0c:	6920      	ldr	r0, [r4, #16]
 8003e0e:	680a      	ldr	r2, [r1, #0]
 8003e10:	f022 02f8 	bic.w	r2, r2, #248	; 0xf8
 8003e14:	ea42 02c0 	orr.w	r2, r2, r0, lsl #3
 8003e18:	600a      	str	r2, [r1, #0]
 8003e1a:	e709      	b.n	8003c30 <HAL_RCC_OscConfig+0x84>
 8003e1c:	4b15      	ldr	r3, [pc, #84]	; (8003e74 <HAL_RCC_OscConfig+0x2c8>)
 8003e1e:	681a      	ldr	r2, [r3, #0]
 8003e20:	461d      	mov	r5, r3
 8003e22:	f422 3280 	bic.w	r2, r2, #65536	; 0x10000
 8003e26:	601a      	str	r2, [r3, #0]
 8003e28:	681a      	ldr	r2, [r3, #0]
 8003e2a:	f422 2280 	bic.w	r2, r2, #262144	; 0x40000
 8003e2e:	601a      	str	r2, [r3, #0]
 8003e30:	f7fe fd96 	bl	8002960 <HAL_GetTick>
 8003e34:	4606      	mov	r6, r0
 8003e36:	e004      	b.n	8003e42 <HAL_RCC_OscConfig+0x296>
 8003e38:	f7fe fd92 	bl	8002960 <HAL_GetTick>
 8003e3c:	1b80      	subs	r0, r0, r6
 8003e3e:	2864      	cmp	r0, #100	; 0x64
 8003e40:	d8df      	bhi.n	8003e02 <HAL_RCC_OscConfig+0x256>
 8003e42:	682b      	ldr	r3, [r5, #0]
 8003e44:	039b      	lsls	r3, r3, #14
 8003e46:	d4f7      	bmi.n	8003e38 <HAL_RCC_OscConfig+0x28c>
 8003e48:	e6ef      	b.n	8003c2a <HAL_RCC_OscConfig+0x7e>
 8003e4a:	2001      	movs	r0, #1
 8003e4c:	4770      	bx	lr
 8003e4e:	2500      	movs	r5, #0
 8003e50:	e719      	b.n	8003c86 <HAL_RCC_OscConfig+0xda>
 8003e52:	4b08      	ldr	r3, [pc, #32]	; (8003e74 <HAL_RCC_OscConfig+0x2c8>)
 8003e54:	f241 3888 	movw	r8, #5000	; 0x1388
 8003e58:	6f1a      	ldr	r2, [r3, #112]	; 0x70
 8003e5a:	461e      	mov	r6, r3
 8003e5c:	f022 0201 	bic.w	r2, r2, #1
 8003e60:	671a      	str	r2, [r3, #112]	; 0x70
 8003e62:	6f1a      	ldr	r2, [r3, #112]	; 0x70
 8003e64:	f022 0204 	bic.w	r2, r2, #4
 8003e68:	671a      	str	r2, [r3, #112]	; 0x70
 8003e6a:	f7fe fd79 	bl	8002960 <HAL_GetTick>
 8003e6e:	4607      	mov	r7, r0
 8003e70:	e009      	b.n	8003e86 <HAL_RCC_OscConfig+0x2da>
 8003e72:	bf00      	nop
 8003e74:	40023800 	.word	0x40023800
 8003e78:	40007000 	.word	0x40007000
 8003e7c:	f7fe fd70 	bl	8002960 <HAL_GetTick>
 8003e80:	1bc0      	subs	r0, r0, r7
 8003e82:	4540      	cmp	r0, r8
 8003e84:	d8bd      	bhi.n	8003e02 <HAL_RCC_OscConfig+0x256>
 8003e86:	6f33      	ldr	r3, [r6, #112]	; 0x70
 8003e88:	0798      	lsls	r0, r3, #30
 8003e8a:	d4f7      	bmi.n	8003e7c <HAL_RCC_OscConfig+0x2d0>
 8003e8c:	2d00      	cmp	r5, #0
 8003e8e:	f43f af57 	beq.w	8003d40 <HAL_RCC_OscConfig+0x194>
 8003e92:	e750      	b.n	8003d36 <HAL_RCC_OscConfig+0x18a>
 8003e94:	4b45      	ldr	r3, [pc, #276]	; (8003fac <HAL_RCC_OscConfig+0x400>)
 8003e96:	681a      	ldr	r2, [r3, #0]
 8003e98:	461d      	mov	r5, r3
 8003e9a:	f022 0201 	bic.w	r2, r2, #1
 8003e9e:	601a      	str	r2, [r3, #0]
 8003ea0:	f7fe fd5e 	bl	8002960 <HAL_GetTick>
 8003ea4:	4606      	mov	r6, r0
 8003ea6:	e004      	b.n	8003eb2 <HAL_RCC_OscConfig+0x306>
 8003ea8:	f7fe fd5a 	bl	8002960 <HAL_GetTick>
 8003eac:	1b80      	subs	r0, r0, r6
 8003eae:	2802      	cmp	r0, #2
 8003eb0:	d8a7      	bhi.n	8003e02 <HAL_RCC_OscConfig+0x256>
 8003eb2:	682b      	ldr	r3, [r5, #0]
 8003eb4:	0799      	lsls	r1, r3, #30
 8003eb6:	d4f7      	bmi.n	8003ea8 <HAL_RCC_OscConfig+0x2fc>
 8003eb8:	6823      	ldr	r3, [r4, #0]
 8003eba:	e6b9      	b.n	8003c30 <HAL_RCC_OscConfig+0x84>
 8003ebc:	f442 2280 	orr.w	r2, r2, #262144	; 0x40000
 8003ec0:	601a      	str	r2, [r3, #0]
 8003ec2:	681a      	ldr	r2, [r3, #0]
 8003ec4:	f442 3280 	orr.w	r2, r2, #65536	; 0x10000
 8003ec8:	601a      	str	r2, [r3, #0]
 8003eca:	e6a0      	b.n	8003c0e <HAL_RCC_OscConfig+0x62>
 8003ecc:	f042 0204 	orr.w	r2, r2, #4
 8003ed0:	671a      	str	r2, [r3, #112]	; 0x70
 8003ed2:	6f1a      	ldr	r2, [r3, #112]	; 0x70
 8003ed4:	f042 0201 	orr.w	r2, r2, #1
 8003ed8:	671a      	str	r2, [r3, #112]	; 0x70
 8003eda:	e71b      	b.n	8003d14 <HAL_RCC_OscConfig+0x168>
 8003edc:	2801      	cmp	r0, #1
 8003ede:	685a      	ldr	r2, [r3, #4]
 8003ee0:	f43f af5a 	beq.w	8003d98 <HAL_RCC_OscConfig+0x1ec>
 8003ee4:	f402 0380 	and.w	r3, r2, #4194304	; 0x400000
 8003ee8:	69e1      	ldr	r1, [r4, #28]
 8003eea:	428b      	cmp	r3, r1
 8003eec:	f47f af53 	bne.w	8003d96 <HAL_RCC_OscConfig+0x1ea>
 8003ef0:	f002 033f 	and.w	r3, r2, #63	; 0x3f
 8003ef4:	6a21      	ldr	r1, [r4, #32]
 8003ef6:	428b      	cmp	r3, r1
 8003ef8:	f47f af4d 	bne.w	8003d96 <HAL_RCC_OscConfig+0x1ea>
 8003efc:	f647 73c0 	movw	r3, #32704	; 0x7fc0
 8003f00:	6a61      	ldr	r1, [r4, #36]	; 0x24
 8003f02:	4013      	ands	r3, r2
 8003f04:	ebb3 1f81 	cmp.w	r3, r1, lsl #6
 8003f08:	f47f af45 	bne.w	8003d96 <HAL_RCC_OscConfig+0x1ea>
 8003f0c:	6aa3      	ldr	r3, [r4, #40]	; 0x28
 8003f0e:	f402 3140 	and.w	r1, r2, #196608	; 0x30000
 8003f12:	085b      	lsrs	r3, r3, #1
 8003f14:	3b01      	subs	r3, #1
 8003f16:	ebb1 4f03 	cmp.w	r1, r3, lsl #16
 8003f1a:	f47f af3c 	bne.w	8003d96 <HAL_RCC_OscConfig+0x1ea>
 8003f1e:	f002 6370 	and.w	r3, r2, #251658240	; 0xf000000
 8003f22:	6ae1      	ldr	r1, [r4, #44]	; 0x2c
 8003f24:	ebb3 6f01 	cmp.w	r3, r1, lsl #24
 8003f28:	f47f af35 	bne.w	8003d96 <HAL_RCC_OscConfig+0x1ea>
 8003f2c:	6b23      	ldr	r3, [r4, #48]	; 0x30
 8003f2e:	f002 42e0 	and.w	r2, r2, #1879048192	; 0x70000000
 8003f32:	ebb2 7f03 	cmp.w	r2, r3, lsl #28
 8003f36:	bf14      	ite	ne
 8003f38:	2001      	movne	r0, #1
 8003f3a:	2000      	moveq	r0, #0
 8003f3c:	e72c      	b.n	8003d98 <HAL_RCC_OscConfig+0x1ec>
 8003f3e:	f022 7280 	bic.w	r2, r2, #16777216	; 0x1000000
 8003f42:	461d      	mov	r5, r3
 8003f44:	601a      	str	r2, [r3, #0]
 8003f46:	f7fe fd0b 	bl	8002960 <HAL_GetTick>
 8003f4a:	4606      	mov	r6, r0
 8003f4c:	e005      	b.n	8003f5a <HAL_RCC_OscConfig+0x3ae>
 8003f4e:	f7fe fd07 	bl	8002960 <HAL_GetTick>
 8003f52:	1b80      	subs	r0, r0, r6
 8003f54:	2802      	cmp	r0, #2
 8003f56:	f63f af54 	bhi.w	8003e02 <HAL_RCC_OscConfig+0x256>
 8003f5a:	682b      	ldr	r3, [r5, #0]
 8003f5c:	0199      	lsls	r1, r3, #6
 8003f5e:	d4f6      	bmi.n	8003f4e <HAL_RCC_OscConfig+0x3a2>
 8003f60:	e9d4 3207 	ldrd	r3, r2, [r4, #28]
 8003f64:	6a61      	ldr	r1, [r4, #36]	; 0x24
 8003f66:	4313      	orrs	r3, r2
 8003f68:	e9d4 200a 	ldrd	r2, r0, [r4, #40]	; 0x28
 8003f6c:	ea43 1381 	orr.w	r3, r3, r1, lsl #6
 8003f70:	6b21      	ldr	r1, [r4, #48]	; 0x30
 8003f72:	0852      	lsrs	r2, r2, #1
 8003f74:	4c0d      	ldr	r4, [pc, #52]	; (8003fac <HAL_RCC_OscConfig+0x400>)
 8003f76:	ea43 6300 	orr.w	r3, r3, r0, lsl #24
 8003f7a:	3a01      	subs	r2, #1
 8003f7c:	ea43 7301 	orr.w	r3, r3, r1, lsl #28
 8003f80:	ea43 4302 	orr.w	r3, r3, r2, lsl #16
 8003f84:	606b      	str	r3, [r5, #4]
 8003f86:	682b      	ldr	r3, [r5, #0]
 8003f88:	f043 7380 	orr.w	r3, r3, #16777216	; 0x1000000
 8003f8c:	602b      	str	r3, [r5, #0]
 8003f8e:	f7fe fce7 	bl	8002960 <HAL_GetTick>
 8003f92:	4605      	mov	r5, r0
 8003f94:	e005      	b.n	8003fa2 <HAL_RCC_OscConfig+0x3f6>
 8003f96:	f7fe fce3 	bl	8002960 <HAL_GetTick>
 8003f9a:	1b40      	subs	r0, r0, r5
 8003f9c:	2802      	cmp	r0, #2
 8003f9e:	f63f af30 	bhi.w	8003e02 <HAL_RCC_OscConfig+0x256>
 8003fa2:	6823      	ldr	r3, [r4, #0]
 8003fa4:	019a      	lsls	r2, r3, #6
 8003fa6:	d5f6      	bpl.n	8003f96 <HAL_RCC_OscConfig+0x3ea>
 8003fa8:	e6e7      	b.n	8003d7a <HAL_RCC_OscConfig+0x1ce>
 8003faa:	bf00      	nop
 8003fac:	40023800 	.word	0x40023800

08003fb0 <HAL_RCC_GetSysClockFreq>:
 8003fb0:	4916      	ldr	r1, [pc, #88]	; (800400c <HAL_RCC_GetSysClockFreq+0x5c>)
 8003fb2:	b508      	push	{r3, lr}
 8003fb4:	688b      	ldr	r3, [r1, #8]
 8003fb6:	f003 030c 	and.w	r3, r3, #12
 8003fba:	2b04      	cmp	r3, #4
 8003fbc:	d01b      	beq.n	8003ff6 <HAL_RCC_GetSysClockFreq+0x46>
 8003fbe:	2b08      	cmp	r3, #8
 8003fc0:	d117      	bne.n	8003ff2 <HAL_RCC_GetSysClockFreq+0x42>
 8003fc2:	684a      	ldr	r2, [r1, #4]
 8003fc4:	684b      	ldr	r3, [r1, #4]
 8003fc6:	f002 023f 	and.w	r2, r2, #63	; 0x3f
 8003fca:	6849      	ldr	r1, [r1, #4]
 8003fcc:	f413 0380 	ands.w	r3, r3, #4194304	; 0x400000
 8003fd0:	d113      	bne.n	8003ffa <HAL_RCC_GetSysClockFreq+0x4a>
 8003fd2:	480f      	ldr	r0, [pc, #60]	; (8004010 <HAL_RCC_GetSysClockFreq+0x60>)
 8003fd4:	f3c1 1188 	ubfx	r1, r1, #6, #9
 8003fd8:	fba1 0100 	umull	r0, r1, r1, r0
 8003fdc:	f7fc fb8c 	bl	80006f8 <__aeabi_uldivmod>
 8003fe0:	4b0a      	ldr	r3, [pc, #40]	; (800400c <HAL_RCC_GetSysClockFreq+0x5c>)
 8003fe2:	685b      	ldr	r3, [r3, #4]
 8003fe4:	f3c3 4301 	ubfx	r3, r3, #16, #2
 8003fe8:	3301      	adds	r3, #1
 8003fea:	005b      	lsls	r3, r3, #1
 8003fec:	fbb0 f0f3 	udiv	r0, r0, r3
 8003ff0:	bd08      	pop	{r3, pc}
 8003ff2:	4807      	ldr	r0, [pc, #28]	; (8004010 <HAL_RCC_GetSysClockFreq+0x60>)
 8003ff4:	bd08      	pop	{r3, pc}
 8003ff6:	4807      	ldr	r0, [pc, #28]	; (8004014 <HAL_RCC_GetSysClockFreq+0x64>)
 8003ff8:	bd08      	pop	{r3, pc}
 8003ffa:	4806      	ldr	r0, [pc, #24]	; (8004014 <HAL_RCC_GetSysClockFreq+0x64>)
 8003ffc:	f3c1 1188 	ubfx	r1, r1, #6, #9
 8004000:	2300      	movs	r3, #0
 8004002:	fba1 0100 	umull	r0, r1, r1, r0
 8004006:	f7fc fb77 	bl	80006f8 <__aeabi_uldivmod>
 800400a:	e7e9      	b.n	8003fe0 <HAL_RCC_GetSysClockFreq+0x30>
 800400c:	40023800 	.word	0x40023800
 8004010:	00f42400 	.word	0x00f42400
 8004014:	017d7840 	.word	0x017d7840

08004018 <HAL_RCC_ClockConfig>:
 8004018:	b178      	cbz	r0, 800403a <HAL_RCC_ClockConfig+0x22>
 800401a:	4a4a      	ldr	r2, [pc, #296]	; (8004144 <HAL_RCC_ClockConfig+0x12c>)
 800401c:	6813      	ldr	r3, [r2, #0]
 800401e:	f003 030f 	and.w	r3, r3, #15
 8004022:	428b      	cmp	r3, r1
 8004024:	d20b      	bcs.n	800403e <HAL_RCC_ClockConfig+0x26>
 8004026:	6813      	ldr	r3, [r2, #0]
 8004028:	f023 030f 	bic.w	r3, r3, #15
 800402c:	430b      	orrs	r3, r1
 800402e:	6013      	str	r3, [r2, #0]
 8004030:	6813      	ldr	r3, [r2, #0]
 8004032:	f003 030f 	and.w	r3, r3, #15
 8004036:	428b      	cmp	r3, r1
 8004038:	d001      	beq.n	800403e <HAL_RCC_ClockConfig+0x26>
 800403a:	2001      	movs	r0, #1
 800403c:	4770      	bx	lr
 800403e:	6803      	ldr	r3, [r0, #0]
 8004040:	e92d 41f0 	stmdb	sp!, {r4, r5, r6, r7, r8, lr}
 8004044:	079d      	lsls	r5, r3, #30
 8004046:	d514      	bpl.n	8004072 <HAL_RCC_ClockConfig+0x5a>
 8004048:	075c      	lsls	r4, r3, #29
 800404a:	d504      	bpl.n	8004056 <HAL_RCC_ClockConfig+0x3e>
 800404c:	4c3e      	ldr	r4, [pc, #248]	; (8004148 <HAL_RCC_ClockConfig+0x130>)
 800404e:	68a2      	ldr	r2, [r4, #8]
 8004050:	f442 52e0 	orr.w	r2, r2, #7168	; 0x1c00
 8004054:	60a2      	str	r2, [r4, #8]
 8004056:	071a      	lsls	r2, r3, #28
 8004058:	d504      	bpl.n	8004064 <HAL_RCC_ClockConfig+0x4c>
 800405a:	4c3b      	ldr	r4, [pc, #236]	; (8004148 <HAL_RCC_ClockConfig+0x130>)
 800405c:	68a2      	ldr	r2, [r4, #8]
 800405e:	f442 4260 	orr.w	r2, r2, #57344	; 0xe000
 8004062:	60a2      	str	r2, [r4, #8]
 8004064:	4c38      	ldr	r4, [pc, #224]	; (8004148 <HAL_RCC_ClockConfig+0x130>)
 8004066:	6885      	ldr	r5, [r0, #8]
 8004068:	68a2      	ldr	r2, [r4, #8]
 800406a:	f022 02f0 	bic.w	r2, r2, #240	; 0xf0
 800406e:	432a      	orrs	r2, r5
 8004070:	60a2      	str	r2, [r4, #8]
 8004072:	07df      	lsls	r7, r3, #31
 8004074:	4604      	mov	r4, r0
 8004076:	460d      	mov	r5, r1
 8004078:	d521      	bpl.n	80040be <HAL_RCC_ClockConfig+0xa6>
 800407a:	6842      	ldr	r2, [r0, #4]
 800407c:	4b32      	ldr	r3, [pc, #200]	; (8004148 <HAL_RCC_ClockConfig+0x130>)
 800407e:	2a01      	cmp	r2, #1
 8004080:	681b      	ldr	r3, [r3, #0]
 8004082:	d057      	beq.n	8004134 <HAL_RCC_ClockConfig+0x11c>
 8004084:	2a02      	cmp	r2, #2
 8004086:	d05a      	beq.n	800413e <HAL_RCC_ClockConfig+0x126>
 8004088:	0799      	lsls	r1, r3, #30
 800408a:	d528      	bpl.n	80040de <HAL_RCC_ClockConfig+0xc6>
 800408c:	492e      	ldr	r1, [pc, #184]	; (8004148 <HAL_RCC_ClockConfig+0x130>)
 800408e:	f241 3888 	movw	r8, #5000	; 0x1388
 8004092:	688b      	ldr	r3, [r1, #8]
 8004094:	460e      	mov	r6, r1
 8004096:	f023 0303 	bic.w	r3, r3, #3
 800409a:	4313      	orrs	r3, r2
 800409c:	608b      	str	r3, [r1, #8]
 800409e:	f7fe fc5f 	bl	8002960 <HAL_GetTick>
 80040a2:	4607      	mov	r7, r0
 80040a4:	e004      	b.n	80040b0 <HAL_RCC_ClockConfig+0x98>
 80040a6:	f7fe fc5b 	bl	8002960 <HAL_GetTick>
 80040aa:	1bc0      	subs	r0, r0, r7
 80040ac:	4540      	cmp	r0, r8
 80040ae:	d844      	bhi.n	800413a <HAL_RCC_ClockConfig+0x122>
 80040b0:	68b3      	ldr	r3, [r6, #8]
 80040b2:	6862      	ldr	r2, [r4, #4]
 80040b4:	f003 030c 	and.w	r3, r3, #12
 80040b8:	ebb3 0f82 	cmp.w	r3, r2, lsl #2
 80040bc:	d1f3      	bne.n	80040a6 <HAL_RCC_ClockConfig+0x8e>
 80040be:	4a21      	ldr	r2, [pc, #132]	; (8004144 <HAL_RCC_ClockConfig+0x12c>)
 80040c0:	6813      	ldr	r3, [r2, #0]
 80040c2:	f003 030f 	and.w	r3, r3, #15
 80040c6:	42ab      	cmp	r3, r5
 80040c8:	d90c      	bls.n	80040e4 <HAL_RCC_ClockConfig+0xcc>
 80040ca:	6813      	ldr	r3, [r2, #0]
 80040cc:	f023 030f 	bic.w	r3, r3, #15
 80040d0:	432b      	orrs	r3, r5
 80040d2:	6013      	str	r3, [r2, #0]
 80040d4:	6813      	ldr	r3, [r2, #0]
 80040d6:	f003 030f 	and.w	r3, r3, #15
 80040da:	42ab      	cmp	r3, r5
 80040dc:	d002      	beq.n	80040e4 <HAL_RCC_ClockConfig+0xcc>
 80040de:	2001      	movs	r0, #1
 80040e0:	e8bd 81f0 	ldmia.w	sp!, {r4, r5, r6, r7, r8, pc}
 80040e4:	6823      	ldr	r3, [r4, #0]
 80040e6:	075a      	lsls	r2, r3, #29
 80040e8:	d506      	bpl.n	80040f8 <HAL_RCC_ClockConfig+0xe0>
 80040ea:	4917      	ldr	r1, [pc, #92]	; (8004148 <HAL_RCC_ClockConfig+0x130>)
 80040ec:	68e0      	ldr	r0, [r4, #12]
 80040ee:	688a      	ldr	r2, [r1, #8]
 80040f0:	f422 52e0 	bic.w	r2, r2, #7168	; 0x1c00
 80040f4:	4302      	orrs	r2, r0
 80040f6:	608a      	str	r2, [r1, #8]
 80040f8:	071b      	lsls	r3, r3, #28
 80040fa:	d412      	bmi.n	8004122 <HAL_RCC_ClockConfig+0x10a>
 80040fc:	f7ff ff58 	bl	8003fb0 <HAL_RCC_GetSysClockFreq>
 8004100:	4b11      	ldr	r3, [pc, #68]	; (8004148 <HAL_RCC_ClockConfig+0x130>)
 8004102:	4c12      	ldr	r4, [pc, #72]	; (800414c <HAL_RCC_ClockConfig+0x134>)
 8004104:	689b      	ldr	r3, [r3, #8]
 8004106:	4912      	ldr	r1, [pc, #72]	; (8004150 <HAL_RCC_ClockConfig+0x138>)
 8004108:	f3c3 1303 	ubfx	r3, r3, #4, #4
 800410c:	4a11      	ldr	r2, [pc, #68]	; (8004154 <HAL_RCC_ClockConfig+0x13c>)
 800410e:	5ce3      	ldrb	r3, [r4, r3]
 8004110:	fa20 f303 	lsr.w	r3, r0, r3
 8004114:	6808      	ldr	r0, [r1, #0]
 8004116:	6013      	str	r3, [r2, #0]
 8004118:	f7fe fbe0 	bl	80028dc <HAL_InitTick>
 800411c:	2000      	movs	r0, #0
 800411e:	e8bd 81f0 	ldmia.w	sp!, {r4, r5, r6, r7, r8, pc}
 8004122:	4a09      	ldr	r2, [pc, #36]	; (8004148 <HAL_RCC_ClockConfig+0x130>)
 8004124:	6921      	ldr	r1, [r4, #16]
 8004126:	6893      	ldr	r3, [r2, #8]
 8004128:	f423 4360 	bic.w	r3, r3, #57344	; 0xe000
 800412c:	ea43 03c1 	orr.w	r3, r3, r1, lsl #3
 8004130:	6093      	str	r3, [r2, #8]
 8004132:	e7e3      	b.n	80040fc <HAL_RCC_ClockConfig+0xe4>
 8004134:	039e      	lsls	r6, r3, #14
 8004136:	d4a9      	bmi.n	800408c <HAL_RCC_ClockConfig+0x74>
 8004138:	e7d1      	b.n	80040de <HAL_RCC_ClockConfig+0xc6>
 800413a:	2003      	movs	r0, #3
 800413c:	e7ef      	b.n	800411e <HAL_RCC_ClockConfig+0x106>
 800413e:	0198      	lsls	r0, r3, #6
 8004140:	d4a4      	bmi.n	800408c <HAL_RCC_ClockConfig+0x74>
 8004142:	e7cc      	b.n	80040de <HAL_RCC_ClockConfig+0xc6>
 8004144:	40023c00 	.word	0x40023c00
 8004148:	40023800 	.word	0x40023800
 800414c:	0800a0f0 	.word	0x0800a0f0
 8004150:	20000048 	.word	0x20000048
 8004154:	2000005c 	.word	0x2000005c

08004158 <HAL_RCC_GetPCLK1Freq>:
 8004158:	4b04      	ldr	r3, [pc, #16]	; (800416c <HAL_RCC_GetPCLK1Freq+0x14>)
 800415a:	4a05      	ldr	r2, [pc, #20]	; (8004170 <HAL_RCC_GetPCLK1Freq+0x18>)
 800415c:	689b      	ldr	r3, [r3, #8]
 800415e:	4905      	ldr	r1, [pc, #20]	; (8004174 <HAL_RCC_GetPCLK1Freq+0x1c>)
 8004160:	f3c3 2382 	ubfx	r3, r3, #10, #3
 8004164:	6808      	ldr	r0, [r1, #0]
 8004166:	5cd3      	ldrb	r3, [r2, r3]
 8004168:	40d8      	lsrs	r0, r3
 800416a:	4770      	bx	lr
 800416c:	40023800 	.word	0x40023800
 8004170:	0800a100 	.word	0x0800a100
 8004174:	2000005c 	.word	0x2000005c

08004178 <HAL_RCC_GetPCLK2Freq>:
 8004178:	4b04      	ldr	r3, [pc, #16]	; (800418c <HAL_RCC_GetPCLK2Freq+0x14>)
 800417a:	4a05      	ldr	r2, [pc, #20]	; (8004190 <HAL_RCC_GetPCLK2Freq+0x18>)
 800417c:	689b      	ldr	r3, [r3, #8]
 800417e:	4905      	ldr	r1, [pc, #20]	; (8004194 <HAL_RCC_GetPCLK2Freq+0x1c>)
 8004180:	f3c3 3342 	ubfx	r3, r3, #13, #3
 8004184:	6808      	ldr	r0, [r1, #0]
 8004186:	5cd3      	ldrb	r3, [r2, r3]
 8004188:	40d8      	lsrs	r0, r3
 800418a:	4770      	bx	lr
 800418c:	40023800 	.word	0x40023800
 8004190:	0800a100 	.word	0x0800a100
 8004194:	2000005c 	.word	0x2000005c

08004198 <HAL_RCCEx_PeriphCLKConfig>:
 8004198:	6803      	ldr	r3, [r0, #0]
 800419a:	e92d 43f0 	stmdb	sp!, {r4, r5, r6, r7, r8, r9, lr}
 800419e:	f013 0601 	ands.w	r6, r3, #1
 80041a2:	b083      	sub	sp, #12
 80041a4:	4604      	mov	r4, r0
 80041a6:	d00b      	beq.n	80041c0 <HAL_RCCEx_PeriphCLKConfig+0x28>
 80041a8:	4a9f      	ldr	r2, [pc, #636]	; (8004428 <HAL_RCCEx_PeriphCLKConfig+0x290>)
 80041aa:	6891      	ldr	r1, [r2, #8]
 80041ac:	f421 0100 	bic.w	r1, r1, #8388608	; 0x800000
 80041b0:	6091      	str	r1, [r2, #8]
 80041b2:	6b46      	ldr	r6, [r0, #52]	; 0x34
 80041b4:	6891      	ldr	r1, [r2, #8]
 80041b6:	4331      	orrs	r1, r6
 80041b8:	fab6 f686 	clz	r6, r6
 80041bc:	0976      	lsrs	r6, r6, #5
 80041be:	6091      	str	r1, [r2, #8]
 80041c0:	f413 2500 	ands.w	r5, r3, #524288	; 0x80000
 80041c4:	d010      	beq.n	80041e8 <HAL_RCCEx_PeriphCLKConfig+0x50>
 80041c6:	4998      	ldr	r1, [pc, #608]	; (8004428 <HAL_RCCEx_PeriphCLKConfig+0x290>)
 80041c8:	6be5      	ldr	r5, [r4, #60]	; 0x3c
 80041ca:	f8d1 208c 	ldr.w	r2, [r1, #140]	; 0x8c
 80041ce:	f5b5 1f80 	cmp.w	r5, #1048576	; 0x100000
 80041d2:	f422 1240 	bic.w	r2, r2, #3145728	; 0x300000
 80041d6:	ea42 0205 	orr.w	r2, r2, r5
 80041da:	f8c1 208c 	str.w	r2, [r1, #140]	; 0x8c
 80041de:	f000 81d4 	beq.w	800458a <HAL_RCCEx_PeriphCLKConfig+0x3f2>
 80041e2:	fab5 f585 	clz	r5, r5
 80041e6:	096d      	lsrs	r5, r5, #5
 80041e8:	02d9      	lsls	r1, r3, #11
 80041ea:	d510      	bpl.n	800420e <HAL_RCCEx_PeriphCLKConfig+0x76>
 80041ec:	488e      	ldr	r0, [pc, #568]	; (8004428 <HAL_RCCEx_PeriphCLKConfig+0x290>)
 80041ee:	6c21      	ldr	r1, [r4, #64]	; 0x40
 80041f0:	f8d0 208c 	ldr.w	r2, [r0, #140]	; 0x8c
 80041f4:	f5b1 0f80 	cmp.w	r1, #4194304	; 0x400000
 80041f8:	f422 0240 	bic.w	r2, r2, #12582912	; 0xc00000
 80041fc:	ea42 0201 	orr.w	r2, r2, r1
 8004200:	f8c0 208c 	str.w	r2, [r0, #140]	; 0x8c
 8004204:	f000 81bf 	beq.w	8004586 <HAL_RCCEx_PeriphCLKConfig+0x3ee>
 8004208:	2900      	cmp	r1, #0
 800420a:	bf08      	it	eq
 800420c:	2501      	moveq	r5, #1
 800420e:	f013 7f80 	tst.w	r3, #16777216	; 0x1000000
 8004212:	bf18      	it	ne
 8004214:	2601      	movne	r6, #1
 8004216:	069a      	lsls	r2, r3, #26
 8004218:	f100 816d 	bmi.w	80044f6 <HAL_RCCEx_PeriphCLKConfig+0x35e>
 800421c:	06da      	lsls	r2, r3, #27
 800421e:	d50c      	bpl.n	800423a <HAL_RCCEx_PeriphCLKConfig+0xa2>
 8004220:	4a81      	ldr	r2, [pc, #516]	; (8004428 <HAL_RCCEx_PeriphCLKConfig+0x290>)
 8004222:	f8d2 108c 	ldr.w	r1, [r2, #140]	; 0x8c
 8004226:	f021 7180 	bic.w	r1, r1, #16777216	; 0x1000000
 800422a:	f8c2 108c 	str.w	r1, [r2, #140]	; 0x8c
 800422e:	f8d2 108c 	ldr.w	r1, [r2, #140]	; 0x8c
 8004232:	6ba0      	ldr	r0, [r4, #56]	; 0x38
 8004234:	4301      	orrs	r1, r0
 8004236:	f8c2 108c 	str.w	r1, [r2, #140]	; 0x8c
 800423a:	045f      	lsls	r7, r3, #17
 800423c:	d508      	bpl.n	8004250 <HAL_RCCEx_PeriphCLKConfig+0xb8>
 800423e:	497a      	ldr	r1, [pc, #488]	; (8004428 <HAL_RCCEx_PeriphCLKConfig+0x290>)
 8004240:	6e60      	ldr	r0, [r4, #100]	; 0x64
 8004242:	f8d1 2090 	ldr.w	r2, [r1, #144]	; 0x90
 8004246:	f422 3240 	bic.w	r2, r2, #196608	; 0x30000
 800424a:	4302      	orrs	r2, r0
 800424c:	f8c1 2090 	str.w	r2, [r1, #144]	; 0x90
 8004250:	0418      	lsls	r0, r3, #16
 8004252:	d508      	bpl.n	8004266 <HAL_RCCEx_PeriphCLKConfig+0xce>
 8004254:	4974      	ldr	r1, [pc, #464]	; (8004428 <HAL_RCCEx_PeriphCLKConfig+0x290>)
 8004256:	6ea0      	ldr	r0, [r4, #104]	; 0x68
 8004258:	f8d1 2090 	ldr.w	r2, [r1, #144]	; 0x90
 800425c:	f422 2240 	bic.w	r2, r2, #786432	; 0xc0000
 8004260:	4302      	orrs	r2, r0
 8004262:	f8c1 2090 	str.w	r2, [r1, #144]	; 0x90
 8004266:	03d9      	lsls	r1, r3, #15
 8004268:	d508      	bpl.n	800427c <HAL_RCCEx_PeriphCLKConfig+0xe4>
 800426a:	496f      	ldr	r1, [pc, #444]	; (8004428 <HAL_RCCEx_PeriphCLKConfig+0x290>)
 800426c:	6ee0      	ldr	r0, [r4, #108]	; 0x6c
 800426e:	f8d1 2090 	ldr.w	r2, [r1, #144]	; 0x90
 8004272:	f422 1240 	bic.w	r2, r2, #3145728	; 0x300000
 8004276:	4302      	orrs	r2, r0
 8004278:	f8c1 2090 	str.w	r2, [r1, #144]	; 0x90
 800427c:	039a      	lsls	r2, r3, #14
 800427e:	d508      	bpl.n	8004292 <HAL_RCCEx_PeriphCLKConfig+0xfa>
 8004280:	4969      	ldr	r1, [pc, #420]	; (8004428 <HAL_RCCEx_PeriphCLKConfig+0x290>)
 8004282:	6f20      	ldr	r0, [r4, #112]	; 0x70
 8004284:	f8d1 2090 	ldr.w	r2, [r1, #144]	; 0x90
 8004288:	f422 0240 	bic.w	r2, r2, #12582912	; 0xc00000
 800428c:	4302      	orrs	r2, r0
 800428e:	f8c1 2090 	str.w	r2, [r1, #144]	; 0x90
 8004292:	065f      	lsls	r7, r3, #25
 8004294:	d508      	bpl.n	80042a8 <HAL_RCCEx_PeriphCLKConfig+0x110>
 8004296:	4964      	ldr	r1, [pc, #400]	; (8004428 <HAL_RCCEx_PeriphCLKConfig+0x290>)
 8004298:	6c60      	ldr	r0, [r4, #68]	; 0x44
 800429a:	f8d1 2090 	ldr.w	r2, [r1, #144]	; 0x90
 800429e:	f022 0203 	bic.w	r2, r2, #3
 80042a2:	4302      	orrs	r2, r0
 80042a4:	f8c1 2090 	str.w	r2, [r1, #144]	; 0x90
 80042a8:	0618      	lsls	r0, r3, #24
 80042aa:	d508      	bpl.n	80042be <HAL_RCCEx_PeriphCLKConfig+0x126>
 80042ac:	495e      	ldr	r1, [pc, #376]	; (8004428 <HAL_RCCEx_PeriphCLKConfig+0x290>)
 80042ae:	6ca0      	ldr	r0, [r4, #72]	; 0x48
 80042b0:	f8d1 2090 	ldr.w	r2, [r1, #144]	; 0x90
 80042b4:	f022 020c 	bic.w	r2, r2, #12
 80042b8:	4302      	orrs	r2, r0
 80042ba:	f8c1 2090 	str.w	r2, [r1, #144]	; 0x90
 80042be:	05d9      	lsls	r1, r3, #23
 80042c0:	d508      	bpl.n	80042d4 <HAL_RCCEx_PeriphCLKConfig+0x13c>
 80042c2:	4959      	ldr	r1, [pc, #356]	; (8004428 <HAL_RCCEx_PeriphCLKConfig+0x290>)
 80042c4:	6ce0      	ldr	r0, [r4, #76]	; 0x4c
 80042c6:	f8d1 2090 	ldr.w	r2, [r1, #144]	; 0x90
 80042ca:	f022 0230 	bic.w	r2, r2, #48	; 0x30
 80042ce:	4302      	orrs	r2, r0
 80042d0:	f8c1 2090 	str.w	r2, [r1, #144]	; 0x90
 80042d4:	059a      	lsls	r2, r3, #22
 80042d6:	d508      	bpl.n	80042ea <HAL_RCCEx_PeriphCLKConfig+0x152>
 80042d8:	4953      	ldr	r1, [pc, #332]	; (8004428 <HAL_RCCEx_PeriphCLKConfig+0x290>)
 80042da:	6d20      	ldr	r0, [r4, #80]	; 0x50
 80042dc:	f8d1 2090 	ldr.w	r2, [r1, #144]	; 0x90
 80042e0:	f022 02c0 	bic.w	r2, r2, #192	; 0xc0
 80042e4:	4302      	orrs	r2, r0
 80042e6:	f8c1 2090 	str.w	r2, [r1, #144]	; 0x90
 80042ea:	055f      	lsls	r7, r3, #21
 80042ec:	d508      	bpl.n	8004300 <HAL_RCCEx_PeriphCLKConfig+0x168>
 80042ee:	494e      	ldr	r1, [pc, #312]	; (8004428 <HAL_RCCEx_PeriphCLKConfig+0x290>)
 80042f0:	6d60      	ldr	r0, [r4, #84]	; 0x54
 80042f2:	f8d1 2090 	ldr.w	r2, [r1, #144]	; 0x90
 80042f6:	f422 7240 	bic.w	r2, r2, #768	; 0x300
 80042fa:	4302      	orrs	r2, r0
 80042fc:	f8c1 2090 	str.w	r2, [r1, #144]	; 0x90
 8004300:	0518      	lsls	r0, r3, #20
 8004302:	d508      	bpl.n	8004316 <HAL_RCCEx_PeriphCLKConfig+0x17e>
 8004304:	4948      	ldr	r1, [pc, #288]	; (8004428 <HAL_RCCEx_PeriphCLKConfig+0x290>)
 8004306:	6da0      	ldr	r0, [r4, #88]	; 0x58
 8004308:	f8d1 2090 	ldr.w	r2, [r1, #144]	; 0x90
 800430c:	f422 6240 	bic.w	r2, r2, #3072	; 0xc00
 8004310:	4302      	orrs	r2, r0
 8004312:	f8c1 2090 	str.w	r2, [r1, #144]	; 0x90
 8004316:	04d9      	lsls	r1, r3, #19
 8004318:	d508      	bpl.n	800432c <HAL_RCCEx_PeriphCLKConfig+0x194>
 800431a:	4943      	ldr	r1, [pc, #268]	; (8004428 <HAL_RCCEx_PeriphCLKConfig+0x290>)
 800431c:	6de0      	ldr	r0, [r4, #92]	; 0x5c
 800431e:	f8d1 2090 	ldr.w	r2, [r1, #144]	; 0x90
 8004322:	f422 5240 	bic.w	r2, r2, #12288	; 0x3000
 8004326:	4302      	orrs	r2, r0
 8004328:	f8c1 2090 	str.w	r2, [r1, #144]	; 0x90
 800432c:	049a      	lsls	r2, r3, #18
 800432e:	d508      	bpl.n	8004342 <HAL_RCCEx_PeriphCLKConfig+0x1aa>
 8004330:	493d      	ldr	r1, [pc, #244]	; (8004428 <HAL_RCCEx_PeriphCLKConfig+0x290>)
 8004332:	6e20      	ldr	r0, [r4, #96]	; 0x60
 8004334:	f8d1 2090 	ldr.w	r2, [r1, #144]	; 0x90
 8004338:	f422 4240 	bic.w	r2, r2, #49152	; 0xc000
 800433c:	4302      	orrs	r2, r0
 800433e:	f8c1 2090 	str.w	r2, [r1, #144]	; 0x90
 8004342:	025f      	lsls	r7, r3, #9
 8004344:	d508      	bpl.n	8004358 <HAL_RCCEx_PeriphCLKConfig+0x1c0>
 8004346:	4938      	ldr	r1, [pc, #224]	; (8004428 <HAL_RCCEx_PeriphCLKConfig+0x290>)
 8004348:	6fa0      	ldr	r0, [r4, #120]	; 0x78
 800434a:	f8d1 2090 	ldr.w	r2, [r1, #144]	; 0x90
 800434e:	f022 6280 	bic.w	r2, r2, #67108864	; 0x4000000
 8004352:	4302      	orrs	r2, r0
 8004354:	f8c1 2090 	str.w	r2, [r1, #144]	; 0x90
 8004358:	0298      	lsls	r0, r3, #10
 800435a:	d50c      	bpl.n	8004376 <HAL_RCCEx_PeriphCLKConfig+0x1de>
 800435c:	4932      	ldr	r1, [pc, #200]	; (8004428 <HAL_RCCEx_PeriphCLKConfig+0x290>)
 800435e:	6fe0      	ldr	r0, [r4, #124]	; 0x7c
 8004360:	f8d1 2090 	ldr.w	r2, [r1, #144]	; 0x90
 8004364:	f1b0 6f00 	cmp.w	r0, #134217728	; 0x8000000
 8004368:	f022 6200 	bic.w	r2, r2, #134217728	; 0x8000000
 800436c:	bf08      	it	eq
 800436e:	2501      	moveq	r5, #1
 8004370:	4302      	orrs	r2, r0
 8004372:	f8c1 2090 	str.w	r2, [r1, #144]	; 0x90
 8004376:	f013 0f08 	tst.w	r3, #8
 800437a:	bf18      	it	ne
 800437c:	2501      	movne	r5, #1
 800437e:	0359      	lsls	r1, r3, #13
 8004380:	d508      	bpl.n	8004394 <HAL_RCCEx_PeriphCLKConfig+0x1fc>
 8004382:	4929      	ldr	r1, [pc, #164]	; (8004428 <HAL_RCCEx_PeriphCLKConfig+0x290>)
 8004384:	6f60      	ldr	r0, [r4, #116]	; 0x74
 8004386:	f8d1 2090 	ldr.w	r2, [r1, #144]	; 0x90
 800438a:	f022 7240 	bic.w	r2, r2, #50331648	; 0x3000000
 800438e:	4302      	orrs	r2, r0
 8004390:	f8c1 2090 	str.w	r2, [r1, #144]	; 0x90
 8004394:	021a      	lsls	r2, r3, #8
 8004396:	d509      	bpl.n	80043ac <HAL_RCCEx_PeriphCLKConfig+0x214>
 8004398:	4923      	ldr	r1, [pc, #140]	; (8004428 <HAL_RCCEx_PeriphCLKConfig+0x290>)
 800439a:	f8d4 0080 	ldr.w	r0, [r4, #128]	; 0x80
 800439e:	f8d1 2090 	ldr.w	r2, [r1, #144]	; 0x90
 80043a2:	f022 5280 	bic.w	r2, r2, #268435456	; 0x10000000
 80043a6:	4302      	orrs	r2, r0
 80043a8:	f8c1 2090 	str.w	r2, [r1, #144]	; 0x90
 80043ac:	015f      	lsls	r7, r3, #5
 80043ae:	d509      	bpl.n	80043c4 <HAL_RCCEx_PeriphCLKConfig+0x22c>
 80043b0:	491d      	ldr	r1, [pc, #116]	; (8004428 <HAL_RCCEx_PeriphCLKConfig+0x290>)
 80043b2:	f8d4 0084 	ldr.w	r0, [r4, #132]	; 0x84
 80043b6:	f8d1 2090 	ldr.w	r2, [r1, #144]	; 0x90
 80043ba:	f022 5200 	bic.w	r2, r2, #536870912	; 0x20000000
 80043be:	4302      	orrs	r2, r0
 80043c0:	f8c1 2090 	str.w	r2, [r1, #144]	; 0x90
 80043c4:	0118      	lsls	r0, r3, #4
 80043c6:	d509      	bpl.n	80043dc <HAL_RCCEx_PeriphCLKConfig+0x244>
 80043c8:	4917      	ldr	r1, [pc, #92]	; (8004428 <HAL_RCCEx_PeriphCLKConfig+0x290>)
 80043ca:	f8d4 0088 	ldr.w	r0, [r4, #136]	; 0x88
 80043ce:	f8d1 208c 	ldr.w	r2, [r1, #140]	; 0x8c
 80043d2:	f022 7200 	bic.w	r2, r2, #33554432	; 0x2000000
 80043d6:	4302      	orrs	r2, r0
 80043d8:	f8c1 208c 	str.w	r2, [r1, #140]	; 0x8c
 80043dc:	00d9      	lsls	r1, r3, #3
 80043de:	d40b      	bmi.n	80043f8 <HAL_RCCEx_PeriphCLKConfig+0x260>
 80043e0:	f1b3 7f00 	cmp.w	r3, #33554432	; 0x2000000
 80043e4:	d016      	beq.n	8004414 <HAL_RCCEx_PeriphCLKConfig+0x27c>
 80043e6:	07f2      	lsls	r2, r6, #31
 80043e8:	d414      	bmi.n	8004414 <HAL_RCCEx_PeriphCLKConfig+0x27c>
 80043ea:	2d01      	cmp	r5, #1
 80043ec:	f000 80d0 	beq.w	8004590 <HAL_RCCEx_PeriphCLKConfig+0x3f8>
 80043f0:	2000      	movs	r0, #0
 80043f2:	b003      	add	sp, #12
 80043f4:	e8bd 83f0 	ldmia.w	sp!, {r4, r5, r6, r7, r8, r9, pc}
 80043f8:	490b      	ldr	r1, [pc, #44]	; (8004428 <HAL_RCCEx_PeriphCLKConfig+0x290>)
 80043fa:	f1b3 7f00 	cmp.w	r3, #33554432	; 0x2000000
 80043fe:	f8d4 008c 	ldr.w	r0, [r4, #140]	; 0x8c
 8004402:	f8d1 208c 	ldr.w	r2, [r1, #140]	; 0x8c
 8004406:	f022 6280 	bic.w	r2, r2, #67108864	; 0x4000000
 800440a:	ea42 0200 	orr.w	r2, r2, r0
 800440e:	f8c1 208c 	str.w	r2, [r1, #140]	; 0x8c
 8004412:	d1e8      	bne.n	80043e6 <HAL_RCCEx_PeriphCLKConfig+0x24e>
 8004414:	4b04      	ldr	r3, [pc, #16]	; (8004428 <HAL_RCCEx_PeriphCLKConfig+0x290>)
 8004416:	681a      	ldr	r2, [r3, #0]
 8004418:	461e      	mov	r6, r3
 800441a:	f022 6280 	bic.w	r2, r2, #67108864	; 0x4000000
 800441e:	601a      	str	r2, [r3, #0]
 8004420:	f7fe fa9e 	bl	8002960 <HAL_GetTick>
 8004424:	4607      	mov	r7, r0
 8004426:	e006      	b.n	8004436 <HAL_RCCEx_PeriphCLKConfig+0x29e>
 8004428:	40023800 	.word	0x40023800
 800442c:	f7fe fa98 	bl	8002960 <HAL_GetTick>
 8004430:	1bc0      	subs	r0, r0, r7
 8004432:	2864      	cmp	r0, #100	; 0x64
 8004434:	d85b      	bhi.n	80044ee <HAL_RCCEx_PeriphCLKConfig+0x356>
 8004436:	6833      	ldr	r3, [r6, #0]
 8004438:	011b      	lsls	r3, r3, #4
 800443a:	d4f7      	bmi.n	800442c <HAL_RCCEx_PeriphCLKConfig+0x294>
 800443c:	6823      	ldr	r3, [r4, #0]
 800443e:	07df      	lsls	r7, r3, #31
 8004440:	d512      	bpl.n	8004468 <HAL_RCCEx_PeriphCLKConfig+0x2d0>
 8004442:	6b62      	ldr	r2, [r4, #52]	; 0x34
 8004444:	b982      	cbnz	r2, 8004468 <HAL_RCCEx_PeriphCLKConfig+0x2d0>
 8004446:	f8d6 2084 	ldr.w	r2, [r6, #132]	; 0x84
 800444a:	f8d6 7084 	ldr.w	r7, [r6, #132]	; 0x84
 800444e:	f402 3240 	and.w	r2, r2, #196608	; 0x30000
 8004452:	6860      	ldr	r0, [r4, #4]
 8004454:	f007 6770 	and.w	r7, r7, #251658240	; 0xf000000
 8004458:	68a1      	ldr	r1, [r4, #8]
 800445a:	433a      	orrs	r2, r7
 800445c:	ea42 1280 	orr.w	r2, r2, r0, lsl #6
 8004460:	ea42 7201 	orr.w	r2, r2, r1, lsl #28
 8004464:	f8c6 2084 	str.w	r2, [r6, #132]	; 0x84
 8004468:	031e      	lsls	r6, r3, #12
 800446a:	f100 810f 	bmi.w	800468c <HAL_RCCEx_PeriphCLKConfig+0x4f4>
 800446e:	02d8      	lsls	r0, r3, #11
 8004470:	d504      	bpl.n	800447c <HAL_RCCEx_PeriphCLKConfig+0x2e4>
 8004472:	6c22      	ldr	r2, [r4, #64]	; 0x40
 8004474:	f5b2 0f80 	cmp.w	r2, #4194304	; 0x400000
 8004478:	f000 810d 	beq.w	8004696 <HAL_RCCEx_PeriphCLKConfig+0x4fe>
 800447c:	01d9      	lsls	r1, r3, #7
 800447e:	d511      	bpl.n	80044a4 <HAL_RCCEx_PeriphCLKConfig+0x30c>
 8004480:	4ea4      	ldr	r6, [pc, #656]	; (8004714 <HAL_RCCEx_PeriphCLKConfig+0x57c>)
 8004482:	6860      	ldr	r0, [r4, #4]
 8004484:	f8d6 2084 	ldr.w	r2, [r6, #132]	; 0x84
 8004488:	f8d6 7084 	ldr.w	r7, [r6, #132]	; 0x84
 800448c:	f002 6270 	and.w	r2, r2, #251658240	; 0xf000000
 8004490:	6921      	ldr	r1, [r4, #16]
 8004492:	f007 47e0 	and.w	r7, r7, #1879048192	; 0x70000000
 8004496:	433a      	orrs	r2, r7
 8004498:	ea42 1280 	orr.w	r2, r2, r0, lsl #6
 800449c:	ea42 4201 	orr.w	r2, r2, r1, lsl #16
 80044a0:	f8c6 2084 	str.w	r2, [r6, #132]	; 0x84
 80044a4:	019a      	lsls	r2, r3, #6
 80044a6:	d50d      	bpl.n	80044c4 <HAL_RCCEx_PeriphCLKConfig+0x32c>
 80044a8:	6923      	ldr	r3, [r4, #16]
 80044aa:	6862      	ldr	r2, [r4, #4]
 80044ac:	041b      	lsls	r3, r3, #16
 80044ae:	e9d4 1002 	ldrd	r1, r0, [r4, #8]
 80044b2:	ea43 1382 	orr.w	r3, r3, r2, lsl #6
 80044b6:	4a97      	ldr	r2, [pc, #604]	; (8004714 <HAL_RCCEx_PeriphCLKConfig+0x57c>)
 80044b8:	ea43 6300 	orr.w	r3, r3, r0, lsl #24
 80044bc:	ea43 7301 	orr.w	r3, r3, r1, lsl #28
 80044c0:	f8c2 3084 	str.w	r3, [r2, #132]	; 0x84
 80044c4:	4b93      	ldr	r3, [pc, #588]	; (8004714 <HAL_RCCEx_PeriphCLKConfig+0x57c>)
 80044c6:	681a      	ldr	r2, [r3, #0]
 80044c8:	461e      	mov	r6, r3
 80044ca:	f042 6280 	orr.w	r2, r2, #67108864	; 0x4000000
 80044ce:	601a      	str	r2, [r3, #0]
 80044d0:	f7fe fa46 	bl	8002960 <HAL_GetTick>
 80044d4:	4607      	mov	r7, r0
 80044d6:	e004      	b.n	80044e2 <HAL_RCCEx_PeriphCLKConfig+0x34a>
 80044d8:	f7fe fa42 	bl	8002960 <HAL_GetTick>
 80044dc:	1bc0      	subs	r0, r0, r7
 80044de:	2864      	cmp	r0, #100	; 0x64
 80044e0:	d805      	bhi.n	80044ee <HAL_RCCEx_PeriphCLKConfig+0x356>
 80044e2:	6833      	ldr	r3, [r6, #0]
 80044e4:	011b      	lsls	r3, r3, #4
 80044e6:	d5f7      	bpl.n	80044d8 <HAL_RCCEx_PeriphCLKConfig+0x340>
 80044e8:	2d01      	cmp	r5, #1
 80044ea:	d181      	bne.n	80043f0 <HAL_RCCEx_PeriphCLKConfig+0x258>
 80044ec:	e050      	b.n	8004590 <HAL_RCCEx_PeriphCLKConfig+0x3f8>
 80044ee:	2003      	movs	r0, #3
 80044f0:	b003      	add	sp, #12
 80044f2:	e8bd 83f0 	ldmia.w	sp!, {r4, r5, r6, r7, r8, r9, pc}
 80044f6:	4a87      	ldr	r2, [pc, #540]	; (8004714 <HAL_RCCEx_PeriphCLKConfig+0x57c>)
 80044f8:	4b87      	ldr	r3, [pc, #540]	; (8004718 <HAL_RCCEx_PeriphCLKConfig+0x580>)
 80044fa:	6c11      	ldr	r1, [r2, #64]	; 0x40
 80044fc:	461f      	mov	r7, r3
 80044fe:	f041 5180 	orr.w	r1, r1, #268435456	; 0x10000000
 8004502:	6411      	str	r1, [r2, #64]	; 0x40
 8004504:	6c12      	ldr	r2, [r2, #64]	; 0x40
 8004506:	f002 5280 	and.w	r2, r2, #268435456	; 0x10000000
 800450a:	9201      	str	r2, [sp, #4]
 800450c:	9a01      	ldr	r2, [sp, #4]
 800450e:	681a      	ldr	r2, [r3, #0]
 8004510:	f442 7280 	orr.w	r2, r2, #256	; 0x100
 8004514:	601a      	str	r2, [r3, #0]
 8004516:	f7fe fa23 	bl	8002960 <HAL_GetTick>
 800451a:	4680      	mov	r8, r0
 800451c:	e005      	b.n	800452a <HAL_RCCEx_PeriphCLKConfig+0x392>
 800451e:	f7fe fa1f 	bl	8002960 <HAL_GetTick>
 8004522:	eba0 0008 	sub.w	r0, r0, r8
 8004526:	2864      	cmp	r0, #100	; 0x64
 8004528:	d8e1      	bhi.n	80044ee <HAL_RCCEx_PeriphCLKConfig+0x356>
 800452a:	683b      	ldr	r3, [r7, #0]
 800452c:	05db      	lsls	r3, r3, #23
 800452e:	d5f6      	bpl.n	800451e <HAL_RCCEx_PeriphCLKConfig+0x386>
 8004530:	4a78      	ldr	r2, [pc, #480]	; (8004714 <HAL_RCCEx_PeriphCLKConfig+0x57c>)
 8004532:	6b23      	ldr	r3, [r4, #48]	; 0x30
 8004534:	6f11      	ldr	r1, [r2, #112]	; 0x70
 8004536:	f403 7040 	and.w	r0, r3, #768	; 0x300
 800453a:	f411 7140 	ands.w	r1, r1, #768	; 0x300
 800453e:	d011      	beq.n	8004564 <HAL_RCCEx_PeriphCLKConfig+0x3cc>
 8004540:	4288      	cmp	r0, r1
 8004542:	d00f      	beq.n	8004564 <HAL_RCCEx_PeriphCLKConfig+0x3cc>
 8004544:	6f11      	ldr	r1, [r2, #112]	; 0x70
 8004546:	6f17      	ldr	r7, [r2, #112]	; 0x70
 8004548:	f421 7140 	bic.w	r1, r1, #768	; 0x300
 800454c:	f447 3780 	orr.w	r7, r7, #65536	; 0x10000
 8004550:	6717      	str	r7, [r2, #112]	; 0x70
 8004552:	6f17      	ldr	r7, [r2, #112]	; 0x70
 8004554:	f427 3780 	bic.w	r7, r7, #65536	; 0x10000
 8004558:	6717      	str	r7, [r2, #112]	; 0x70
 800455a:	6711      	str	r1, [r2, #112]	; 0x70
 800455c:	6f11      	ldr	r1, [r2, #112]	; 0x70
 800455e:	07cf      	lsls	r7, r1, #31
 8004560:	f100 80c3 	bmi.w	80046ea <HAL_RCCEx_PeriphCLKConfig+0x552>
 8004564:	f5b0 7f40 	cmp.w	r0, #768	; 0x300
 8004568:	f000 80b1 	beq.w	80046ce <HAL_RCCEx_PeriphCLKConfig+0x536>
 800456c:	4969      	ldr	r1, [pc, #420]	; (8004714 <HAL_RCCEx_PeriphCLKConfig+0x57c>)
 800456e:	688a      	ldr	r2, [r1, #8]
 8004570:	f422 12f8 	bic.w	r2, r2, #2031616	; 0x1f0000
 8004574:	608a      	str	r2, [r1, #8]
 8004576:	4a67      	ldr	r2, [pc, #412]	; (8004714 <HAL_RCCEx_PeriphCLKConfig+0x57c>)
 8004578:	f3c3 030b 	ubfx	r3, r3, #0, #12
 800457c:	6f11      	ldr	r1, [r2, #112]	; 0x70
 800457e:	430b      	orrs	r3, r1
 8004580:	6713      	str	r3, [r2, #112]	; 0x70
 8004582:	6823      	ldr	r3, [r4, #0]
 8004584:	e64a      	b.n	800421c <HAL_RCCEx_PeriphCLKConfig+0x84>
 8004586:	2601      	movs	r6, #1
 8004588:	e641      	b.n	800420e <HAL_RCCEx_PeriphCLKConfig+0x76>
 800458a:	2500      	movs	r5, #0
 800458c:	2601      	movs	r6, #1
 800458e:	e62b      	b.n	80041e8 <HAL_RCCEx_PeriphCLKConfig+0x50>
 8004590:	4b60      	ldr	r3, [pc, #384]	; (8004714 <HAL_RCCEx_PeriphCLKConfig+0x57c>)
 8004592:	681a      	ldr	r2, [r3, #0]
 8004594:	461d      	mov	r5, r3
 8004596:	f022 5280 	bic.w	r2, r2, #268435456	; 0x10000000
 800459a:	601a      	str	r2, [r3, #0]
 800459c:	f7fe f9e0 	bl	8002960 <HAL_GetTick>
 80045a0:	4606      	mov	r6, r0
 80045a2:	e004      	b.n	80045ae <HAL_RCCEx_PeriphCLKConfig+0x416>
 80045a4:	f7fe f9dc 	bl	8002960 <HAL_GetTick>
 80045a8:	1b80      	subs	r0, r0, r6
 80045aa:	2864      	cmp	r0, #100	; 0x64
 80045ac:	d89f      	bhi.n	80044ee <HAL_RCCEx_PeriphCLKConfig+0x356>
 80045ae:	682b      	ldr	r3, [r5, #0]
 80045b0:	009f      	lsls	r7, r3, #2
 80045b2:	d4f7      	bmi.n	80045a4 <HAL_RCCEx_PeriphCLKConfig+0x40c>
 80045b4:	6823      	ldr	r3, [r4, #0]
 80045b6:	031d      	lsls	r5, r3, #12
 80045b8:	f100 8092 	bmi.w	80046e0 <HAL_RCCEx_PeriphCLKConfig+0x548>
 80045bc:	02d8      	lsls	r0, r3, #11
 80045be:	d51d      	bpl.n	80045fc <HAL_RCCEx_PeriphCLKConfig+0x464>
 80045c0:	6c22      	ldr	r2, [r4, #64]	; 0x40
 80045c2:	b9da      	cbnz	r2, 80045fc <HAL_RCCEx_PeriphCLKConfig+0x464>
 80045c4:	4953      	ldr	r1, [pc, #332]	; (8004714 <HAL_RCCEx_PeriphCLKConfig+0x57c>)
 80045c6:	6965      	ldr	r5, [r4, #20]
 80045c8:	f8d1 2088 	ldr.w	r2, [r1, #136]	; 0x88
 80045cc:	f8d1 6088 	ldr.w	r6, [r1, #136]	; 0x88
 80045d0:	f402 3240 	and.w	r2, r2, #196608	; 0x30000
 80045d4:	69a0      	ldr	r0, [r4, #24]
 80045d6:	f006 46e0 	and.w	r6, r6, #1879048192	; 0x70000000
 80045da:	4332      	orrs	r2, r6
 80045dc:	ea42 1285 	orr.w	r2, r2, r5, lsl #6
 80045e0:	ea42 6200 	orr.w	r2, r2, r0, lsl #24
 80045e4:	f8c1 2088 	str.w	r2, [r1, #136]	; 0x88
 80045e8:	f8d1 208c 	ldr.w	r2, [r1, #140]	; 0x8c
 80045ec:	6aa0      	ldr	r0, [r4, #40]	; 0x28
 80045ee:	f422 52f8 	bic.w	r2, r2, #7936	; 0x1f00
 80045f2:	3801      	subs	r0, #1
 80045f4:	ea42 2200 	orr.w	r2, r2, r0, lsl #8
 80045f8:	f8c1 208c 	str.w	r2, [r1, #140]	; 0x8c
 80045fc:	0299      	lsls	r1, r3, #10
 80045fe:	d515      	bpl.n	800462c <HAL_RCCEx_PeriphCLKConfig+0x494>
 8004600:	6fe2      	ldr	r2, [r4, #124]	; 0x7c
 8004602:	f1b2 6f00 	cmp.w	r2, #134217728	; 0x8000000
 8004606:	d111      	bne.n	800462c <HAL_RCCEx_PeriphCLKConfig+0x494>
 8004608:	4942      	ldr	r1, [pc, #264]	; (8004714 <HAL_RCCEx_PeriphCLKConfig+0x57c>)
 800460a:	6965      	ldr	r5, [r4, #20]
 800460c:	f8d1 2088 	ldr.w	r2, [r1, #136]	; 0x88
 8004610:	f8d1 6088 	ldr.w	r6, [r1, #136]	; 0x88
 8004614:	f002 6270 	and.w	r2, r2, #251658240	; 0xf000000
 8004618:	6a20      	ldr	r0, [r4, #32]
 800461a:	f006 46e0 	and.w	r6, r6, #1879048192	; 0x70000000
 800461e:	4332      	orrs	r2, r6
 8004620:	ea42 1285 	orr.w	r2, r2, r5, lsl #6
 8004624:	ea42 4200 	orr.w	r2, r2, r0, lsl #16
 8004628:	f8c1 2088 	str.w	r2, [r1, #136]	; 0x88
 800462c:	071a      	lsls	r2, r3, #28
 800462e:	d519      	bpl.n	8004664 <HAL_RCCEx_PeriphCLKConfig+0x4cc>
 8004630:	4a38      	ldr	r2, [pc, #224]	; (8004714 <HAL_RCCEx_PeriphCLKConfig+0x57c>)
 8004632:	6965      	ldr	r5, [r4, #20]
 8004634:	f8d2 1088 	ldr.w	r1, [r2, #136]	; 0x88
 8004638:	f8d2 3088 	ldr.w	r3, [r2, #136]	; 0x88
 800463c:	f001 6170 	and.w	r1, r1, #251658240	; 0xf000000
 8004640:	69e0      	ldr	r0, [r4, #28]
 8004642:	f403 3340 	and.w	r3, r3, #196608	; 0x30000
 8004646:	430b      	orrs	r3, r1
 8004648:	ea43 1385 	orr.w	r3, r3, r5, lsl #6
 800464c:	ea43 7300 	orr.w	r3, r3, r0, lsl #28
 8004650:	f8c2 3088 	str.w	r3, [r2, #136]	; 0x88
 8004654:	f8d2 308c 	ldr.w	r3, [r2, #140]	; 0x8c
 8004658:	6ae1      	ldr	r1, [r4, #44]	; 0x2c
 800465a:	f423 3340 	bic.w	r3, r3, #196608	; 0x30000
 800465e:	430b      	orrs	r3, r1
 8004660:	f8c2 308c 	str.w	r3, [r2, #140]	; 0x8c
 8004664:	4b2b      	ldr	r3, [pc, #172]	; (8004714 <HAL_RCCEx_PeriphCLKConfig+0x57c>)
 8004666:	681a      	ldr	r2, [r3, #0]
 8004668:	461c      	mov	r4, r3
 800466a:	f042 5280 	orr.w	r2, r2, #268435456	; 0x10000000
 800466e:	601a      	str	r2, [r3, #0]
 8004670:	f7fe f976 	bl	8002960 <HAL_GetTick>
 8004674:	4605      	mov	r5, r0
 8004676:	e005      	b.n	8004684 <HAL_RCCEx_PeriphCLKConfig+0x4ec>
 8004678:	f7fe f972 	bl	8002960 <HAL_GetTick>
 800467c:	1b40      	subs	r0, r0, r5
 800467e:	2864      	cmp	r0, #100	; 0x64
 8004680:	f63f af35 	bhi.w	80044ee <HAL_RCCEx_PeriphCLKConfig+0x356>
 8004684:	6823      	ldr	r3, [r4, #0]
 8004686:	009b      	lsls	r3, r3, #2
 8004688:	d5f6      	bpl.n	8004678 <HAL_RCCEx_PeriphCLKConfig+0x4e0>
 800468a:	e6b1      	b.n	80043f0 <HAL_RCCEx_PeriphCLKConfig+0x258>
 800468c:	6be2      	ldr	r2, [r4, #60]	; 0x3c
 800468e:	f5b2 1f80 	cmp.w	r2, #1048576	; 0x100000
 8004692:	f47f aeec 	bne.w	800446e <HAL_RCCEx_PeriphCLKConfig+0x2d6>
 8004696:	4e1f      	ldr	r6, [pc, #124]	; (8004714 <HAL_RCCEx_PeriphCLKConfig+0x57c>)
 8004698:	6860      	ldr	r0, [r4, #4]
 800469a:	f8d6 2084 	ldr.w	r2, [r6, #132]	; 0x84
 800469e:	f8d6 7084 	ldr.w	r7, [r6, #132]	; 0x84
 80046a2:	f402 3240 	and.w	r2, r2, #196608	; 0x30000
 80046a6:	68e1      	ldr	r1, [r4, #12]
 80046a8:	f007 47e0 	and.w	r7, r7, #1879048192	; 0x70000000
 80046ac:	433a      	orrs	r2, r7
 80046ae:	ea42 1280 	orr.w	r2, r2, r0, lsl #6
 80046b2:	ea42 6201 	orr.w	r2, r2, r1, lsl #24
 80046b6:	f8c6 2084 	str.w	r2, [r6, #132]	; 0x84
 80046ba:	f8d6 108c 	ldr.w	r1, [r6, #140]	; 0x8c
 80046be:	6a62      	ldr	r2, [r4, #36]	; 0x24
 80046c0:	f021 011f 	bic.w	r1, r1, #31
 80046c4:	3a01      	subs	r2, #1
 80046c6:	430a      	orrs	r2, r1
 80046c8:	f8c6 208c 	str.w	r2, [r6, #140]	; 0x8c
 80046cc:	e6d6      	b.n	800447c <HAL_RCCEx_PeriphCLKConfig+0x2e4>
 80046ce:	4811      	ldr	r0, [pc, #68]	; (8004714 <HAL_RCCEx_PeriphCLKConfig+0x57c>)
 80046d0:	4912      	ldr	r1, [pc, #72]	; (800471c <HAL_RCCEx_PeriphCLKConfig+0x584>)
 80046d2:	6882      	ldr	r2, [r0, #8]
 80046d4:	4019      	ands	r1, r3
 80046d6:	f422 12f8 	bic.w	r2, r2, #2031616	; 0x1f0000
 80046da:	430a      	orrs	r2, r1
 80046dc:	6082      	str	r2, [r0, #8]
 80046de:	e74a      	b.n	8004576 <HAL_RCCEx_PeriphCLKConfig+0x3de>
 80046e0:	6be2      	ldr	r2, [r4, #60]	; 0x3c
 80046e2:	2a00      	cmp	r2, #0
 80046e4:	f43f af6e 	beq.w	80045c4 <HAL_RCCEx_PeriphCLKConfig+0x42c>
 80046e8:	e768      	b.n	80045bc <HAL_RCCEx_PeriphCLKConfig+0x424>
 80046ea:	4617      	mov	r7, r2
 80046ec:	f241 3888 	movw	r8, #5000	; 0x1388
 80046f0:	f7fe f936 	bl	8002960 <HAL_GetTick>
 80046f4:	4681      	mov	r9, r0
 80046f6:	e006      	b.n	8004706 <HAL_RCCEx_PeriphCLKConfig+0x56e>
 80046f8:	f7fe f932 	bl	8002960 <HAL_GetTick>
 80046fc:	eba0 0009 	sub.w	r0, r0, r9
 8004700:	4540      	cmp	r0, r8
 8004702:	f63f aef4 	bhi.w	80044ee <HAL_RCCEx_PeriphCLKConfig+0x356>
 8004706:	6f3b      	ldr	r3, [r7, #112]	; 0x70
 8004708:	0799      	lsls	r1, r3, #30
 800470a:	d5f5      	bpl.n	80046f8 <HAL_RCCEx_PeriphCLKConfig+0x560>
 800470c:	6b23      	ldr	r3, [r4, #48]	; 0x30
 800470e:	f403 7040 	and.w	r0, r3, #768	; 0x300
 8004712:	e727      	b.n	8004564 <HAL_RCCEx_PeriphCLKConfig+0x3cc>
 8004714:	40023800 	.word	0x40023800
 8004718:	40007000 	.word	0x40007000
 800471c:	0ffffcff 	.word	0x0ffffcff

08004720 <HAL_RCCEx_GetPeriphCLKConfig>:
 8004720:	4b5d      	ldr	r3, [pc, #372]	; (8004898 <HAL_RCCEx_GetPeriphCLKConfig+0x178>)
 8004722:	4a5e      	ldr	r2, [pc, #376]	; (800489c <HAL_RCCEx_GetPeriphCLKConfig+0x17c>)
 8004724:	6002      	str	r2, [r0, #0]
 8004726:	f8d3 2084 	ldr.w	r2, [r3, #132]	; 0x84
 800472a:	f3c2 1288 	ubfx	r2, r2, #6, #9
 800472e:	6042      	str	r2, [r0, #4]
 8004730:	f8d3 2084 	ldr.w	r2, [r3, #132]	; 0x84
 8004734:	f3c2 4201 	ubfx	r2, r2, #16, #2
 8004738:	6102      	str	r2, [r0, #16]
 800473a:	f8d3 2084 	ldr.w	r2, [r3, #132]	; 0x84
 800473e:	f3c2 6203 	ubfx	r2, r2, #24, #4
 8004742:	60c2      	str	r2, [r0, #12]
 8004744:	f8d3 2084 	ldr.w	r2, [r3, #132]	; 0x84
 8004748:	f3c2 7202 	ubfx	r2, r2, #28, #3
 800474c:	6082      	str	r2, [r0, #8]
 800474e:	f8d3 2088 	ldr.w	r2, [r3, #136]	; 0x88
 8004752:	f3c2 1288 	ubfx	r2, r2, #6, #9
 8004756:	6142      	str	r2, [r0, #20]
 8004758:	f8d3 2088 	ldr.w	r2, [r3, #136]	; 0x88
 800475c:	f3c2 4201 	ubfx	r2, r2, #16, #2
 8004760:	6202      	str	r2, [r0, #32]
 8004762:	f8d3 2088 	ldr.w	r2, [r3, #136]	; 0x88
 8004766:	f3c2 6203 	ubfx	r2, r2, #24, #4
 800476a:	6182      	str	r2, [r0, #24]
 800476c:	f8d3 2088 	ldr.w	r2, [r3, #136]	; 0x88
 8004770:	f3c2 7202 	ubfx	r2, r2, #28, #3
 8004774:	61c2      	str	r2, [r0, #28]
 8004776:	f8d3 208c 	ldr.w	r2, [r3, #140]	; 0x8c
 800477a:	f002 021f 	and.w	r2, r2, #31
 800477e:	6242      	str	r2, [r0, #36]	; 0x24
 8004780:	f8d3 208c 	ldr.w	r2, [r3, #140]	; 0x8c
 8004784:	f3c2 2204 	ubfx	r2, r2, #8, #5
 8004788:	6282      	str	r2, [r0, #40]	; 0x28
 800478a:	f8d3 208c 	ldr.w	r2, [r3, #140]	; 0x8c
 800478e:	f3c2 4201 	ubfx	r2, r2, #16, #2
 8004792:	62c2      	str	r2, [r0, #44]	; 0x2c
 8004794:	f8d3 208c 	ldr.w	r2, [r3, #140]	; 0x8c
 8004798:	f402 1240 	and.w	r2, r2, #3145728	; 0x300000
 800479c:	63c2      	str	r2, [r0, #60]	; 0x3c
 800479e:	f8d3 208c 	ldr.w	r2, [r3, #140]	; 0x8c
 80047a2:	f402 0240 	and.w	r2, r2, #12582912	; 0xc00000
 80047a6:	6402      	str	r2, [r0, #64]	; 0x40
 80047a8:	689a      	ldr	r2, [r3, #8]
 80047aa:	f402 0200 	and.w	r2, r2, #8388608	; 0x800000
 80047ae:	6342      	str	r2, [r0, #52]	; 0x34
 80047b0:	f8d3 2090 	ldr.w	r2, [r3, #144]	; 0x90
 80047b4:	f402 3240 	and.w	r2, r2, #196608	; 0x30000
 80047b8:	6642      	str	r2, [r0, #100]	; 0x64
 80047ba:	f8d3 2090 	ldr.w	r2, [r3, #144]	; 0x90
 80047be:	f402 2240 	and.w	r2, r2, #786432	; 0xc0000
 80047c2:	6682      	str	r2, [r0, #104]	; 0x68
 80047c4:	f8d3 2090 	ldr.w	r2, [r3, #144]	; 0x90
 80047c8:	f402 1240 	and.w	r2, r2, #3145728	; 0x300000
 80047cc:	66c2      	str	r2, [r0, #108]	; 0x6c
 80047ce:	f8d3 2090 	ldr.w	r2, [r3, #144]	; 0x90
 80047d2:	f402 0240 	and.w	r2, r2, #12582912	; 0xc00000
 80047d6:	6702      	str	r2, [r0, #112]	; 0x70
 80047d8:	f8d3 2090 	ldr.w	r2, [r3, #144]	; 0x90
 80047dc:	f002 0203 	and.w	r2, r2, #3
 80047e0:	6442      	str	r2, [r0, #68]	; 0x44
 80047e2:	f8d3 2090 	ldr.w	r2, [r3, #144]	; 0x90
 80047e6:	f002 020c 	and.w	r2, r2, #12
 80047ea:	6482      	str	r2, [r0, #72]	; 0x48
 80047ec:	f8d3 2090 	ldr.w	r2, [r3, #144]	; 0x90
 80047f0:	f002 0230 	and.w	r2, r2, #48	; 0x30
 80047f4:	64c2      	str	r2, [r0, #76]	; 0x4c
 80047f6:	f8d3 2090 	ldr.w	r2, [r3, #144]	; 0x90
 80047fa:	f002 02c0 	and.w	r2, r2, #192	; 0xc0
 80047fe:	6502      	str	r2, [r0, #80]	; 0x50
 8004800:	f8d3 2090 	ldr.w	r2, [r3, #144]	; 0x90
 8004804:	f402 7240 	and.w	r2, r2, #768	; 0x300
 8004808:	6542      	str	r2, [r0, #84]	; 0x54
 800480a:	f8d3 2090 	ldr.w	r2, [r3, #144]	; 0x90
 800480e:	f402 6240 	and.w	r2, r2, #3072	; 0xc00
 8004812:	6582      	str	r2, [r0, #88]	; 0x58
 8004814:	f8d3 2090 	ldr.w	r2, [r3, #144]	; 0x90
 8004818:	f402 5240 	and.w	r2, r2, #12288	; 0x3000
 800481c:	65c2      	str	r2, [r0, #92]	; 0x5c
 800481e:	f8d3 2090 	ldr.w	r2, [r3, #144]	; 0x90
 8004822:	f402 4240 	and.w	r2, r2, #49152	; 0xc000
 8004826:	6602      	str	r2, [r0, #96]	; 0x60
 8004828:	f8d3 2090 	ldr.w	r2, [r3, #144]	; 0x90
 800482c:	f002 7240 	and.w	r2, r2, #50331648	; 0x3000000
 8004830:	6742      	str	r2, [r0, #116]	; 0x74
 8004832:	f8d3 2090 	ldr.w	r2, [r3, #144]	; 0x90
 8004836:	f002 6280 	and.w	r2, r2, #67108864	; 0x4000000
 800483a:	6782      	str	r2, [r0, #120]	; 0x78
 800483c:	f8d3 2090 	ldr.w	r2, [r3, #144]	; 0x90
 8004840:	f002 6200 	and.w	r2, r2, #134217728	; 0x8000000
 8004844:	67c2      	str	r2, [r0, #124]	; 0x7c
 8004846:	f8d3 2090 	ldr.w	r2, [r3, #144]	; 0x90
 800484a:	f002 5280 	and.w	r2, r2, #268435456	; 0x10000000
 800484e:	f8c0 2080 	str.w	r2, [r0, #128]	; 0x80
 8004852:	f8d3 2090 	ldr.w	r2, [r3, #144]	; 0x90
 8004856:	f002 5200 	and.w	r2, r2, #536870912	; 0x20000000
 800485a:	f8c0 2084 	str.w	r2, [r0, #132]	; 0x84
 800485e:	f8d3 208c 	ldr.w	r2, [r3, #140]	; 0x8c
 8004862:	f002 7200 	and.w	r2, r2, #33554432	; 0x2000000
 8004866:	f8c0 2088 	str.w	r2, [r0, #136]	; 0x88
 800486a:	f8d3 208c 	ldr.w	r2, [r3, #140]	; 0x8c
 800486e:	f002 6280 	and.w	r2, r2, #67108864	; 0x4000000
 8004872:	f8c0 208c 	str.w	r2, [r0, #140]	; 0x8c
 8004876:	6899      	ldr	r1, [r3, #8]
 8004878:	6f1a      	ldr	r2, [r3, #112]	; 0x70
 800487a:	f401 11f8 	and.w	r1, r1, #2031616	; 0x1f0000
 800487e:	f402 7240 	and.w	r2, r2, #768	; 0x300
 8004882:	430a      	orrs	r2, r1
 8004884:	6302      	str	r2, [r0, #48]	; 0x30
 8004886:	f8d3 308c 	ldr.w	r3, [r3, #140]	; 0x8c
 800488a:	f013 7380 	ands.w	r3, r3, #16777216	; 0x1000000
 800488e:	bf18      	it	ne
 8004890:	f04f 7380 	movne.w	r3, #16777216	; 0x1000000
 8004894:	6383      	str	r3, [r0, #56]	; 0x38
 8004896:	4770      	bx	lr
 8004898:	40023800 	.word	0x40023800
 800489c:	1cfffff1 	.word	0x1cfffff1

080048a0 <HAL_RCCEx_GetPeriphCLKFreq>:
 80048a0:	f5b0 2f00 	cmp.w	r0, #524288	; 0x80000
 80048a4:	d019      	beq.n	80048da <HAL_RCCEx_GetPeriphCLKFreq+0x3a>
 80048a6:	f5b0 1f80 	cmp.w	r0, #1048576	; 0x100000
 80048aa:	d125      	bne.n	80048f8 <HAL_RCCEx_GetPeriphCLKFreq+0x58>
 80048ac:	4a36      	ldr	r2, [pc, #216]	; (8004988 <HAL_RCCEx_GetPeriphCLKFreq+0xe8>)
 80048ae:	f8d2 308c 	ldr.w	r3, [r2, #140]	; 0x8c
 80048b2:	f403 0340 	and.w	r3, r3, #12582912	; 0xc00000
 80048b6:	f5b3 0f80 	cmp.w	r3, #4194304	; 0x400000
 80048ba:	d042      	beq.n	8004942 <HAL_RCCEx_GetPeriphCLKFreq+0xa2>
 80048bc:	d91e      	bls.n	80048fc <HAL_RCCEx_GetPeriphCLKFreq+0x5c>
 80048be:	f5b3 0f00 	cmp.w	r3, #8388608	; 0x800000
 80048c2:	d05f      	beq.n	8004984 <HAL_RCCEx_GetPeriphCLKFreq+0xe4>
 80048c4:	f5b3 0f40 	cmp.w	r3, #12582912	; 0xc00000
 80048c8:	d116      	bne.n	80048f8 <HAL_RCCEx_GetPeriphCLKFreq+0x58>
 80048ca:	6853      	ldr	r3, [r2, #4]
 80048cc:	482f      	ldr	r0, [pc, #188]	; (800498c <HAL_RCCEx_GetPeriphCLKFreq+0xec>)
 80048ce:	f413 0f80 	tst.w	r3, #4194304	; 0x400000
 80048d2:	4b2f      	ldr	r3, [pc, #188]	; (8004990 <HAL_RCCEx_GetPeriphCLKFreq+0xf0>)
 80048d4:	bf08      	it	eq
 80048d6:	4618      	moveq	r0, r3
 80048d8:	4770      	bx	lr
 80048da:	4a2b      	ldr	r2, [pc, #172]	; (8004988 <HAL_RCCEx_GetPeriphCLKFreq+0xe8>)
 80048dc:	f8d2 308c 	ldr.w	r3, [r2, #140]	; 0x8c
 80048e0:	f403 1340 	and.w	r3, r3, #3145728	; 0x300000
 80048e4:	f5b3 1f80 	cmp.w	r3, #1048576	; 0x100000
 80048e8:	d02b      	beq.n	8004942 <HAL_RCCEx_GetPeriphCLKFreq+0xa2>
 80048ea:	d907      	bls.n	80048fc <HAL_RCCEx_GetPeriphCLKFreq+0x5c>
 80048ec:	f5b3 1f00 	cmp.w	r3, #2097152	; 0x200000
 80048f0:	d048      	beq.n	8004984 <HAL_RCCEx_GetPeriphCLKFreq+0xe4>
 80048f2:	f5b3 1f40 	cmp.w	r3, #3145728	; 0x300000
 80048f6:	d0e8      	beq.n	80048ca <HAL_RCCEx_GetPeriphCLKFreq+0x2a>
 80048f8:	2000      	movs	r0, #0
 80048fa:	4770      	bx	lr
 80048fc:	2b00      	cmp	r3, #0
 80048fe:	d1fb      	bne.n	80048f8 <HAL_RCCEx_GetPeriphCLKFreq+0x58>
 8004900:	6853      	ldr	r3, [r2, #4]
 8004902:	f413 0f80 	tst.w	r3, #4194304	; 0x400000
 8004906:	6853      	ldr	r3, [r2, #4]
 8004908:	bf08      	it	eq
 800490a:	4821      	ldreq	r0, [pc, #132]	; (8004990 <HAL_RCCEx_GetPeriphCLKFreq+0xf0>)
 800490c:	f003 033f 	and.w	r3, r3, #63	; 0x3f
 8004910:	bf18      	it	ne
 8004912:	481e      	ldrne	r0, [pc, #120]	; (800498c <HAL_RCCEx_GetPeriphCLKFreq+0xec>)
 8004914:	fbb0 f0f3 	udiv	r0, r0, r3
 8004918:	4b1b      	ldr	r3, [pc, #108]	; (8004988 <HAL_RCCEx_GetPeriphCLKFreq+0xe8>)
 800491a:	f8d3 2088 	ldr.w	r2, [r3, #136]	; 0x88
 800491e:	f8d3 1088 	ldr.w	r1, [r3, #136]	; 0x88
 8004922:	f3c2 6203 	ubfx	r2, r2, #24, #4
 8004926:	f8d3 308c 	ldr.w	r3, [r3, #140]	; 0x8c
 800492a:	f3c1 1188 	ubfx	r1, r1, #6, #9
 800492e:	f3c3 2304 	ubfx	r3, r3, #8, #5
 8004932:	fb00 f001 	mul.w	r0, r0, r1
 8004936:	3301      	adds	r3, #1
 8004938:	fbb0 f0f2 	udiv	r0, r0, r2
 800493c:	fbb0 f0f3 	udiv	r0, r0, r3
 8004940:	4770      	bx	lr
 8004942:	6853      	ldr	r3, [r2, #4]
 8004944:	f413 0f80 	tst.w	r3, #4194304	; 0x400000
 8004948:	6853      	ldr	r3, [r2, #4]
 800494a:	bf08      	it	eq
 800494c:	4810      	ldreq	r0, [pc, #64]	; (8004990 <HAL_RCCEx_GetPeriphCLKFreq+0xf0>)
 800494e:	f003 033f 	and.w	r3, r3, #63	; 0x3f
 8004952:	bf18      	it	ne
 8004954:	480d      	ldrne	r0, [pc, #52]	; (800498c <HAL_RCCEx_GetPeriphCLKFreq+0xec>)
 8004956:	fbb0 f0f3 	udiv	r0, r0, r3
 800495a:	4b0b      	ldr	r3, [pc, #44]	; (8004988 <HAL_RCCEx_GetPeriphCLKFreq+0xe8>)
 800495c:	f8d3 2084 	ldr.w	r2, [r3, #132]	; 0x84
 8004960:	f8d3 1084 	ldr.w	r1, [r3, #132]	; 0x84
 8004964:	f3c2 6203 	ubfx	r2, r2, #24, #4
 8004968:	f8d3 308c 	ldr.w	r3, [r3, #140]	; 0x8c
 800496c:	f3c1 1188 	ubfx	r1, r1, #6, #9
 8004970:	f003 031f 	and.w	r3, r3, #31
 8004974:	fb00 f001 	mul.w	r0, r0, r1
 8004978:	3301      	adds	r3, #1
 800497a:	fbb0 f0f2 	udiv	r0, r0, r2
 800497e:	fbb0 f0f3 	udiv	r0, r0, r3
 8004982:	4770      	bx	lr
 8004984:	4803      	ldr	r0, [pc, #12]	; (8004994 <HAL_RCCEx_GetPeriphCLKFreq+0xf4>)
 8004986:	4770      	bx	lr
 8004988:	40023800 	.word	0x40023800
 800498c:	017d7840 	.word	0x017d7840
 8004990:	00f42400 	.word	0x00f42400
 8004994:	00bb8000 	.word	0x00bb8000

08004998 <HAL_SAI_MspInit>:
 8004998:	4770      	bx	lr
 800499a:	bf00      	nop

0800499c <HAL_SAI_Init>:
 800499c:	2800      	cmp	r0, #0
 800499e:	f000 80ec 	beq.w	8004b7a <HAL_SAI_Init+0x1de>
 80049a2:	b5f8      	push	{r3, r4, r5, r6, r7, lr}
 80049a4:	f890 307d 	ldrb.w	r3, [r0, #125]	; 0x7d
 80049a8:	4604      	mov	r4, r0
 80049aa:	f003 02ff 	and.w	r2, r3, #255	; 0xff
 80049ae:	2b00      	cmp	r3, #0
 80049b0:	f000 80de 	beq.w	8004b70 <HAL_SAI_Init+0x1d4>
 80049b4:	4b7c      	ldr	r3, [pc, #496]	; (8004ba8 <HAL_SAI_Init+0x20c>)
 80049b6:	2102      	movs	r1, #2
 80049b8:	487c      	ldr	r0, [pc, #496]	; (8004bac <HAL_SAI_Init+0x210>)
 80049ba:	681a      	ldr	r2, [r3, #0]
 80049bc:	6823      	ldr	r3, [r4, #0]
 80049be:	f884 107d 	strb.w	r1, [r4, #125]	; 0x7d
 80049c2:	fba0 0202 	umull	r0, r2, r0, r2
 80049c6:	6819      	ldr	r1, [r3, #0]
 80049c8:	0b12      	lsrs	r2, r2, #12
 80049ca:	f421 3180 	bic.w	r1, r1, #65536	; 0x10000
 80049ce:	0092      	lsls	r2, r2, #2
 80049d0:	6019      	str	r1, [r3, #0]
 80049d2:	e002      	b.n	80049da <HAL_SAI_Init+0x3e>
 80049d4:	6819      	ldr	r1, [r3, #0]
 80049d6:	03c8      	lsls	r0, r1, #15
 80049d8:	d508      	bpl.n	80049ec <HAL_SAI_Init+0x50>
 80049da:	f112 32ff 	adds.w	r2, r2, #4294967295	; 0xffffffff
 80049de:	d2f9      	bcs.n	80049d4 <HAL_SAI_Init+0x38>
 80049e0:	f8d4 2080 	ldr.w	r2, [r4, #128]	; 0x80
 80049e4:	f042 0240 	orr.w	r2, r2, #64	; 0x40
 80049e8:	f8c4 2080 	str.w	r2, [r4, #128]	; 0x80
 80049ec:	68e2      	ldr	r2, [r4, #12]
 80049ee:	2a01      	cmp	r2, #1
 80049f0:	f000 80a3 	beq.w	8004b3a <HAL_SAI_Init+0x19e>
 80049f4:	2a02      	cmp	r2, #2
 80049f6:	68a2      	ldr	r2, [r4, #8]
 80049f8:	bf0c      	ite	eq
 80049fa:	2120      	moveq	r1, #32
 80049fc:	2100      	movne	r1, #0
 80049fe:	2a02      	cmp	r2, #2
 8004a00:	f000 80a0 	beq.w	8004b44 <HAL_SAI_Init+0x1a8>
 8004a04:	2a03      	cmp	r2, #3
 8004a06:	f000 80c3 	beq.w	8004b90 <HAL_SAI_Init+0x1f4>
 8004a0a:	2a01      	cmp	r2, #1
 8004a0c:	4868      	ldr	r0, [pc, #416]	; (8004bb0 <HAL_SAI_Init+0x214>)
 8004a0e:	69e2      	ldr	r2, [r4, #28]
 8004a10:	bf0c      	ite	eq
 8004a12:	f44f 6780 	moveq.w	r7, #1024	; 0x400
 8004a16:	2700      	movne	r7, #0
 8004a18:	4283      	cmp	r3, r0
 8004a1a:	f000 809a 	beq.w	8004b52 <HAL_SAI_Init+0x1b6>
 8004a1e:	3020      	adds	r0, #32
 8004a20:	1a18      	subs	r0, r3, r0
 8004a22:	fab0 f080 	clz	r0, r0
 8004a26:	0940      	lsrs	r0, r0, #5
 8004a28:	2800      	cmp	r0, #0
 8004a2a:	f040 8092 	bne.w	8004b52 <HAL_SAI_Init+0x1b6>
 8004a2e:	4d61      	ldr	r5, [pc, #388]	; (8004bb4 <HAL_SAI_Init+0x218>)
 8004a30:	6029      	str	r1, [r5, #0]
 8004a32:	2a00      	cmp	r2, #0
 8004a34:	f000 8090 	beq.w	8004b58 <HAL_SAI_Init+0x1bc>
 8004a38:	4a5f      	ldr	r2, [pc, #380]	; (8004bb8 <HAL_SAI_Init+0x21c>)
 8004a3a:	4293      	cmp	r3, r2
 8004a3c:	f000 80ad 	beq.w	8004b9a <HAL_SAI_Init+0x1fe>
 8004a40:	3220      	adds	r2, #32
 8004a42:	4293      	cmp	r3, r2
 8004a44:	f000 80a9 	beq.w	8004b9a <HAL_SAI_Init+0x1fe>
 8004a48:	eb00 0080 	add.w	r0, r0, r0, lsl #2
 8004a4c:	69e5      	ldr	r5, [r4, #28]
 8004a4e:	4a5b      	ldr	r2, [pc, #364]	; (8004bbc <HAL_SAI_Init+0x220>)
 8004a50:	0041      	lsls	r1, r0, #1
 8004a52:	026d      	lsls	r5, r5, #9
 8004a54:	fbb1 f1f5 	udiv	r1, r1, r5
 8004a58:	fba2 0201 	umull	r0, r2, r2, r1
 8004a5c:	08d0      	lsrs	r0, r2, #3
 8004a5e:	eb00 0280 	add.w	r2, r0, r0, lsl #2
 8004a62:	6220      	str	r0, [r4, #32]
 8004a64:	eba1 0142 	sub.w	r1, r1, r2, lsl #1
 8004a68:	2909      	cmp	r1, #9
 8004a6a:	f000 8088 	beq.w	8004b7e <HAL_SAI_Init+0x1e2>
 8004a6e:	6862      	ldr	r2, [r4, #4]
 8004a70:	6be1      	ldr	r1, [r4, #60]	; 0x3c
 8004a72:	f032 0602 	bics.w	r6, r2, #2
 8004a76:	d175      	bne.n	8004b64 <HAL_SAI_Init+0x1c8>
 8004a78:	2901      	cmp	r1, #1
 8004a7a:	bf18      	it	ne
 8004a7c:	f44f 7600 	movne.w	r6, #512	; 0x200
 8004a80:	6b21      	ldr	r1, [r4, #48]	; 0x30
 8004a82:	f24f 0e20 	movw	lr, #61472	; 0xf020
 8004a86:	f8d3 c000 	ldr.w	ip, [r3]
 8004a8a:	430a      	orrs	r2, r1
 8004a8c:	6b61      	ldr	r1, [r4, #52]	; 0x34
 8004a8e:	6c25      	ldr	r5, [r4, #64]	; 0x40
 8004a90:	430a      	orrs	r2, r1
 8004a92:	6ba1      	ldr	r1, [r4, #56]	; 0x38
 8004a94:	430a      	orrs	r2, r1
 8004a96:	6a61      	ldr	r1, [r4, #36]	; 0x24
 8004a98:	430a      	orrs	r2, r1
 8004a9a:	6921      	ldr	r1, [r4, #16]
 8004a9c:	430a      	orrs	r2, r1
 8004a9e:	6961      	ldr	r1, [r4, #20]
 8004aa0:	430a      	orrs	r2, r1
 8004aa2:	4947      	ldr	r1, [pc, #284]	; (8004bc0 <HAL_SAI_Init+0x224>)
 8004aa4:	ea0c 0101 	and.w	r1, ip, r1
 8004aa8:	433a      	orrs	r2, r7
 8004aaa:	f8df c120 	ldr.w	ip, [pc, #288]	; 8004bcc <HAL_SAI_Init+0x230>
 8004aae:	2700      	movs	r7, #0
 8004ab0:	6019      	str	r1, [r3, #0]
 8004ab2:	6819      	ldr	r1, [r3, #0]
 8004ab4:	430a      	orrs	r2, r1
 8004ab6:	69a1      	ldr	r1, [r4, #24]
 8004ab8:	ea42 5200 	orr.w	r2, r2, r0, lsl #20
 8004abc:	6aa0      	ldr	r0, [r4, #40]	; 0x28
 8004abe:	4332      	orrs	r2, r6
 8004ac0:	4301      	orrs	r1, r0
 8004ac2:	6ae0      	ldr	r0, [r4, #44]	; 0x2c
 8004ac4:	601a      	str	r2, [r3, #0]
 8004ac6:	685e      	ldr	r6, [r3, #4]
 8004ac8:	4301      	orrs	r1, r0
 8004aca:	6d22      	ldr	r2, [r4, #80]	; 0x50
 8004acc:	6ca0      	ldr	r0, [r4, #72]	; 0x48
 8004ace:	ea06 0c0c 	and.w	ip, r6, ip
 8004ad2:	2601      	movs	r6, #1
 8004ad4:	f8c3 c004 	str.w	ip, [r3, #4]
 8004ad8:	4302      	orrs	r2, r0
 8004ada:	6858      	ldr	r0, [r3, #4]
 8004adc:	f8d4 c04c 	ldr.w	ip, [r4, #76]	; 0x4c
 8004ae0:	4301      	orrs	r1, r0
 8004ae2:	4838      	ldr	r0, [pc, #224]	; (8004bc4 <HAL_SAI_Init+0x228>)
 8004ae4:	ea42 020c 	orr.w	r2, r2, ip
 8004ae8:	f105 3cff 	add.w	ip, r5, #4294967295	; 0xffffffff
 8004aec:	6059      	str	r1, [r3, #4]
 8004aee:	6899      	ldr	r1, [r3, #8]
 8004af0:	ea42 020c 	orr.w	r2, r2, ip
 8004af4:	4008      	ands	r0, r1
 8004af6:	6c61      	ldr	r1, [r4, #68]	; 0x44
 8004af8:	3901      	subs	r1, #1
 8004afa:	6098      	str	r0, [r3, #8]
 8004afc:	6898      	ldr	r0, [r3, #8]
 8004afe:	ea42 2201 	orr.w	r2, r2, r1, lsl #8
 8004b02:	6d61      	ldr	r1, [r4, #84]	; 0x54
 8004b04:	4302      	orrs	r2, r0
 8004b06:	6da0      	ldr	r0, [r4, #88]	; 0x58
 8004b08:	609a      	str	r2, [r3, #8]
 8004b0a:	ea41 0200 	orr.w	r2, r1, r0
 8004b0e:	68d9      	ldr	r1, [r3, #12]
 8004b10:	4638      	mov	r0, r7
 8004b12:	ea0e 0501 	and.w	r5, lr, r1
 8004b16:	6e21      	ldr	r1, [r4, #96]	; 0x60
 8004b18:	60dd      	str	r5, [r3, #12]
 8004b1a:	ea42 4201 	orr.w	r2, r2, r1, lsl #16
 8004b1e:	68dd      	ldr	r5, [r3, #12]
 8004b20:	6de1      	ldr	r1, [r4, #92]	; 0x5c
 8004b22:	3901      	subs	r1, #1
 8004b24:	ea42 2201 	orr.w	r2, r2, r1, lsl #8
 8004b28:	432a      	orrs	r2, r5
 8004b2a:	60da      	str	r2, [r3, #12]
 8004b2c:	f8c4 7080 	str.w	r7, [r4, #128]	; 0x80
 8004b30:	f884 707c 	strb.w	r7, [r4, #124]	; 0x7c
 8004b34:	f884 607d 	strb.w	r6, [r4, #125]	; 0x7d
 8004b38:	bdf8      	pop	{r3, r4, r5, r6, r7, pc}
 8004b3a:	68a2      	ldr	r2, [r4, #8]
 8004b3c:	2110      	movs	r1, #16
 8004b3e:	2a02      	cmp	r2, #2
 8004b40:	f47f af60 	bne.w	8004a04 <HAL_SAI_Init+0x68>
 8004b44:	f44f 6700 	mov.w	r7, #2048	; 0x800
 8004b48:	4819      	ldr	r0, [pc, #100]	; (8004bb0 <HAL_SAI_Init+0x214>)
 8004b4a:	69e2      	ldr	r2, [r4, #28]
 8004b4c:	4283      	cmp	r3, r0
 8004b4e:	f47f af66 	bne.w	8004a1e <HAL_SAI_Init+0x82>
 8004b52:	481d      	ldr	r0, [pc, #116]	; (8004bc8 <HAL_SAI_Init+0x22c>)
 8004b54:	6001      	str	r1, [r0, #0]
 8004b56:	b9aa      	cbnz	r2, 8004b84 <HAL_SAI_Init+0x1e8>
 8004b58:	6862      	ldr	r2, [r4, #4]
 8004b5a:	6a20      	ldr	r0, [r4, #32]
 8004b5c:	f032 0602 	bics.w	r6, r2, #2
 8004b60:	6be1      	ldr	r1, [r4, #60]	; 0x3c
 8004b62:	d089      	beq.n	8004a78 <HAL_SAI_Init+0xdc>
 8004b64:	2901      	cmp	r1, #1
 8004b66:	bf14      	ite	ne
 8004b68:	2600      	movne	r6, #0
 8004b6a:	f44f 7600 	moveq.w	r6, #512	; 0x200
 8004b6e:	e787      	b.n	8004a80 <HAL_SAI_Init+0xe4>
 8004b70:	f880 207c 	strb.w	r2, [r0, #124]	; 0x7c
 8004b74:	f7ff ff10 	bl	8004998 <HAL_SAI_MspInit>
 8004b78:	e71c      	b.n	80049b4 <HAL_SAI_Init+0x18>
 8004b7a:	2001      	movs	r0, #1
 8004b7c:	4770      	bx	lr
 8004b7e:	3001      	adds	r0, #1
 8004b80:	6220      	str	r0, [r4, #32]
 8004b82:	e774      	b.n	8004a6e <HAL_SAI_Init+0xd2>
 8004b84:	f44f 2000 	mov.w	r0, #524288	; 0x80000
 8004b88:	f7ff fe8a 	bl	80048a0 <HAL_RCCEx_GetPeriphCLKFreq>
 8004b8c:	6823      	ldr	r3, [r4, #0]
 8004b8e:	e753      	b.n	8004a38 <HAL_SAI_Init+0x9c>
 8004b90:	f041 0101 	orr.w	r1, r1, #1
 8004b94:	f44f 6700 	mov.w	r7, #2048	; 0x800
 8004b98:	e7d6      	b.n	8004b48 <HAL_SAI_Init+0x1ac>
 8004b9a:	f44f 1080 	mov.w	r0, #1048576	; 0x100000
 8004b9e:	f7ff fe7f 	bl	80048a0 <HAL_RCCEx_GetPeriphCLKFreq>
 8004ba2:	6823      	ldr	r3, [r4, #0]
 8004ba4:	e750      	b.n	8004a48 <HAL_SAI_Init+0xac>
 8004ba6:	bf00      	nop
 8004ba8:	2000005c 	.word	0x2000005c
 8004bac:	95cbec1b 	.word	0x95cbec1b
 8004bb0:	40015804 	.word	0x40015804
 8004bb4:	40015c00 	.word	0x40015c00
 8004bb8:	40015c04 	.word	0x40015c04
 8004bbc:	cccccccd 	.word	0xcccccccd
 8004bc0:	ff05c010 	.word	0xff05c010
 8004bc4:	fff88000 	.word	0xfff88000
 8004bc8:	40015800 	.word	0x40015800
 8004bcc:	ffff1ff0 	.word	0xffff1ff0

08004bd0 <HAL_SAI_MspDeInit>:
 8004bd0:	4770      	bx	lr
 8004bd2:	bf00      	nop

08004bd4 <HAL_SAI_DeInit>:
 8004bd4:	b388      	cbz	r0, 8004c3a <HAL_SAI_DeInit+0x66>
 8004bd6:	2202      	movs	r2, #2
 8004bd8:	f04f 31ff 	mov.w	r1, #4294967295	; 0xffffffff
 8004bdc:	b538      	push	{r3, r4, r5, lr}
 8004bde:	4b18      	ldr	r3, [pc, #96]	; (8004c40 <HAL_SAI_DeInit+0x6c>)
 8004be0:	2400      	movs	r4, #0
 8004be2:	f880 207d 	strb.w	r2, [r0, #125]	; 0x7d
 8004be6:	681b      	ldr	r3, [r3, #0]
 8004be8:	6802      	ldr	r2, [r0, #0]
 8004bea:	4d16      	ldr	r5, [pc, #88]	; (8004c44 <HAL_SAI_DeInit+0x70>)
 8004bec:	6114      	str	r4, [r2, #16]
 8004bee:	fba5 5303 	umull	r5, r3, r5, r3
 8004bf2:	6191      	str	r1, [r2, #24]
 8004bf4:	6811      	ldr	r1, [r2, #0]
 8004bf6:	0b1b      	lsrs	r3, r3, #12
 8004bf8:	f421 3180 	bic.w	r1, r1, #65536	; 0x10000
 8004bfc:	009b      	lsls	r3, r3, #2
 8004bfe:	6011      	str	r1, [r2, #0]
 8004c00:	e002      	b.n	8004c08 <HAL_SAI_DeInit+0x34>
 8004c02:	6811      	ldr	r1, [r2, #0]
 8004c04:	03c9      	lsls	r1, r1, #15
 8004c06:	d508      	bpl.n	8004c1a <HAL_SAI_DeInit+0x46>
 8004c08:	f113 33ff 	adds.w	r3, r3, #4294967295	; 0xffffffff
 8004c0c:	d2f9      	bcs.n	8004c02 <HAL_SAI_DeInit+0x2e>
 8004c0e:	f8d0 3080 	ldr.w	r3, [r0, #128]	; 0x80
 8004c12:	f043 0340 	orr.w	r3, r3, #64	; 0x40
 8004c16:	f8c0 3080 	str.w	r3, [r0, #128]	; 0x80
 8004c1a:	6853      	ldr	r3, [r2, #4]
 8004c1c:	4604      	mov	r4, r0
 8004c1e:	f043 0308 	orr.w	r3, r3, #8
 8004c22:	6053      	str	r3, [r2, #4]
 8004c24:	f7ff ffd4 	bl	8004bd0 <HAL_SAI_MspDeInit>
 8004c28:	2300      	movs	r3, #0
 8004c2a:	f8c4 3080 	str.w	r3, [r4, #128]	; 0x80
 8004c2e:	4618      	mov	r0, r3
 8004c30:	f884 307d 	strb.w	r3, [r4, #125]	; 0x7d
 8004c34:	f884 307c 	strb.w	r3, [r4, #124]	; 0x7c
 8004c38:	bd38      	pop	{r3, r4, r5, pc}
 8004c3a:	2001      	movs	r0, #1
 8004c3c:	4770      	bx	lr
 8004c3e:	bf00      	nop
 8004c40:	2000005c 	.word	0x2000005c
 8004c44:	95cbec1b 	.word	0x95cbec1b

08004c48 <HAL_SAI_Receive_DMA>:
 8004c48:	2900      	cmp	r1, #0
 8004c4a:	d055      	beq.n	8004cf8 <HAL_SAI_Receive_DMA+0xb0>
 8004c4c:	b5f8      	push	{r3, r4, r5, r6, r7, lr}
 8004c4e:	fab2 f582 	clz	r5, r2
 8004c52:	096d      	lsrs	r5, r5, #5
 8004c54:	2d00      	cmp	r5, #0
 8004c56:	d14d      	bne.n	8004cf4 <HAL_SAI_Receive_DMA+0xac>
 8004c58:	f890 707d 	ldrb.w	r7, [r0, #125]	; 0x7d
 8004c5c:	b2ff      	uxtb	r7, r7
 8004c5e:	2f01      	cmp	r7, #1
 8004c60:	d146      	bne.n	8004cf0 <HAL_SAI_Receive_DMA+0xa8>
 8004c62:	f890 307c 	ldrb.w	r3, [r0, #124]	; 0x7c
 8004c66:	2b01      	cmp	r3, #1
 8004c68:	d042      	beq.n	8004cf0 <HAL_SAI_Receive_DMA+0xa8>
 8004c6a:	4604      	mov	r4, r0
 8004c6c:	4616      	mov	r6, r2
 8004c6e:	2022      	movs	r0, #34	; 0x22
 8004c70:	4613      	mov	r3, r2
 8004c72:	f8d4 c070 	ldr.w	ip, [r4, #112]	; 0x70
 8004c76:	460a      	mov	r2, r1
 8004c78:	6661      	str	r1, [r4, #100]	; 0x64
 8004c7a:	4926      	ldr	r1, [pc, #152]	; (8004d14 <HAL_SAI_Receive_DMA+0xcc>)
 8004c7c:	f8c4 5080 	str.w	r5, [r4, #128]	; 0x80
 8004c80:	f8a4 6068 	strh.w	r6, [r4, #104]	; 0x68
 8004c84:	f8a4 606a 	strh.w	r6, [r4, #106]	; 0x6a
 8004c88:	f884 007d 	strb.w	r0, [r4, #125]	; 0x7d
 8004c8c:	4660      	mov	r0, ip
 8004c8e:	f884 707c 	strb.w	r7, [r4, #124]	; 0x7c
 8004c92:	f8df e088 	ldr.w	lr, [pc, #136]	; 8004d1c <HAL_SAI_Receive_DMA+0xd4>
 8004c96:	4e20      	ldr	r6, [pc, #128]	; (8004d18 <HAL_SAI_Receive_DMA+0xd0>)
 8004c98:	f8cc 104c 	str.w	r1, [ip, #76]	; 0x4c
 8004c9c:	6821      	ldr	r1, [r4, #0]
 8004c9e:	f8cc 5050 	str.w	r5, [ip, #80]	; 0x50
 8004ca2:	f8cc e040 	str.w	lr, [ip, #64]	; 0x40
 8004ca6:	311c      	adds	r1, #28
 8004ca8:	f8cc 603c 	str.w	r6, [ip, #60]	; 0x3c
 8004cac:	f7fe f992 	bl	8002fd4 <HAL_DMA_Start_IT>
 8004cb0:	bb20      	cbnz	r0, 8004cfc <HAL_SAI_Receive_DMA+0xb4>
 8004cb2:	6823      	ldr	r3, [r4, #0]
 8004cb4:	681a      	ldr	r2, [r3, #0]
 8004cb6:	03d2      	lsls	r2, r2, #15
 8004cb8:	d403      	bmi.n	8004cc2 <HAL_SAI_Receive_DMA+0x7a>
 8004cba:	681a      	ldr	r2, [r3, #0]
 8004cbc:	f442 3280 	orr.w	r2, r2, #65536	; 0x10000
 8004cc0:	601a      	str	r2, [r3, #0]
 8004cc2:	6b21      	ldr	r1, [r4, #48]	; 0x30
 8004cc4:	6862      	ldr	r2, [r4, #4]
 8004cc6:	2908      	cmp	r1, #8
 8004cc8:	d01c      	beq.n	8004d04 <HAL_SAI_Receive_DMA+0xbc>
 8004cca:	2101      	movs	r1, #1
 8004ccc:	3a02      	subs	r2, #2
 8004cce:	2500      	movs	r5, #0
 8004cd0:	2a01      	cmp	r2, #1
 8004cd2:	691a      	ldr	r2, [r3, #16]
 8004cd4:	bf94      	ite	ls
 8004cd6:	f041 0160 	orrls.w	r1, r1, #96	; 0x60
 8004cda:	f041 0104 	orrhi.w	r1, r1, #4
 8004cde:	430a      	orrs	r2, r1
 8004ce0:	611a      	str	r2, [r3, #16]
 8004ce2:	681a      	ldr	r2, [r3, #0]
 8004ce4:	f442 3200 	orr.w	r2, r2, #131072	; 0x20000
 8004ce8:	601a      	str	r2, [r3, #0]
 8004cea:	f884 507c 	strb.w	r5, [r4, #124]	; 0x7c
 8004cee:	bdf8      	pop	{r3, r4, r5, r6, r7, pc}
 8004cf0:	2002      	movs	r0, #2
 8004cf2:	bdf8      	pop	{r3, r4, r5, r6, r7, pc}
 8004cf4:	2001      	movs	r0, #1
 8004cf6:	bdf8      	pop	{r3, r4, r5, r6, r7, pc}
 8004cf8:	2001      	movs	r0, #1
 8004cfa:	4770      	bx	lr
 8004cfc:	f884 507c 	strb.w	r5, [r4, #124]	; 0x7c
 8004d00:	4638      	mov	r0, r7
 8004d02:	bdf8      	pop	{r3, r4, r5, r6, r7, pc}
 8004d04:	f022 0102 	bic.w	r1, r2, #2
 8004d08:	2901      	cmp	r1, #1
 8004d0a:	bf0c      	ite	eq
 8004d0c:	2111      	moveq	r1, #17
 8004d0e:	2101      	movne	r1, #1
 8004d10:	e7dc      	b.n	8004ccc <HAL_SAI_Receive_DMA+0x84>
 8004d12:	bf00      	nop
 8004d14:	08004d85 	.word	0x08004d85
 8004d18:	08004d21 	.word	0x08004d21
 8004d1c:	08004d79 	.word	0x08004d79

08004d20 <SAI_DMARxCplt>:
 8004d20:	b538      	push	{r3, r4, r5, lr}
 8004d22:	69c3      	ldr	r3, [r0, #28]
 8004d24:	6b80      	ldr	r0, [r0, #56]	; 0x38
 8004d26:	f5b3 7f80 	cmp.w	r3, #256	; 0x100
 8004d2a:	d01a      	beq.n	8004d62 <SAI_DMARxCplt+0x42>
 8004d2c:	6803      	ldr	r3, [r0, #0]
 8004d2e:	2500      	movs	r5, #0
 8004d30:	6b04      	ldr	r4, [r0, #48]	; 0x30
 8004d32:	6819      	ldr	r1, [r3, #0]
 8004d34:	2c08      	cmp	r4, #8
 8004d36:	6842      	ldr	r2, [r0, #4]
 8004d38:	f421 3100 	bic.w	r1, r1, #131072	; 0x20000
 8004d3c:	6019      	str	r1, [r3, #0]
 8004d3e:	f8a0 506a 	strh.w	r5, [r0, #106]	; 0x6a
 8004d42:	d011      	beq.n	8004d68 <SAI_DMARxCplt+0x48>
 8004d44:	2101      	movs	r1, #1
 8004d46:	3a02      	subs	r2, #2
 8004d48:	2401      	movs	r4, #1
 8004d4a:	2a01      	cmp	r2, #1
 8004d4c:	691a      	ldr	r2, [r3, #16]
 8004d4e:	bf94      	ite	ls
 8004d50:	f041 0160 	orrls.w	r1, r1, #96	; 0x60
 8004d54:	f041 0104 	orrhi.w	r1, r1, #4
 8004d58:	ea22 0201 	bic.w	r2, r2, r1
 8004d5c:	611a      	str	r2, [r3, #16]
 8004d5e:	f880 407d 	strb.w	r4, [r0, #125]	; 0x7d
 8004d62:	f7fc fe5b 	bl	8001a1c <HAL_SAI_RxCpltCallback>
 8004d66:	bd38      	pop	{r3, r4, r5, pc}
 8004d68:	f022 0102 	bic.w	r1, r2, #2
 8004d6c:	2901      	cmp	r1, #1
 8004d6e:	bf0c      	ite	eq
 8004d70:	2111      	moveq	r1, #17
 8004d72:	2101      	movne	r1, #1
 8004d74:	e7e7      	b.n	8004d46 <SAI_DMARxCplt+0x26>
 8004d76:	bf00      	nop

08004d78 <SAI_DMARxHalfCplt>:
 8004d78:	b508      	push	{r3, lr}
 8004d7a:	6b80      	ldr	r0, [r0, #56]	; 0x38
 8004d7c:	f7fd f904 	bl	8001f88 <HAL_SAI_RxHalfCpltCallback>
 8004d80:	bd08      	pop	{r3, pc}
 8004d82:	bf00      	nop

08004d84 <SAI_DMAError>:
 8004d84:	6b80      	ldr	r0, [r0, #56]	; 0x38
 8004d86:	f8d0 3080 	ldr.w	r3, [r0, #128]	; 0x80
 8004d8a:	6ec2      	ldr	r2, [r0, #108]	; 0x6c
 8004d8c:	f043 0380 	orr.w	r3, r3, #128	; 0x80
 8004d90:	b510      	push	{r4, lr}
 8004d92:	f8c0 3080 	str.w	r3, [r0, #128]	; 0x80
 8004d96:	6d53      	ldr	r3, [r2, #84]	; 0x54
 8004d98:	2b01      	cmp	r3, #1
 8004d9a:	d006      	beq.n	8004daa <SAI_DMAError+0x26>
 8004d9c:	6f03      	ldr	r3, [r0, #112]	; 0x70
 8004d9e:	6d5b      	ldr	r3, [r3, #84]	; 0x54
 8004da0:	2b01      	cmp	r3, #1
 8004da2:	d002      	beq.n	8004daa <SAI_DMAError+0x26>
 8004da4:	f7fd f8f4 	bl	8001f90 <HAL_SAI_ErrorCallback>
 8004da8:	bd10      	pop	{r4, pc}
 8004daa:	6801      	ldr	r1, [r0, #0]
 8004dac:	4b12      	ldr	r3, [pc, #72]	; (8004df8 <SAI_DMAError+0x74>)
 8004dae:	680a      	ldr	r2, [r1, #0]
 8004db0:	681b      	ldr	r3, [r3, #0]
 8004db2:	f422 3200 	bic.w	r2, r2, #131072	; 0x20000
 8004db6:	4c11      	ldr	r4, [pc, #68]	; (8004dfc <SAI_DMAError+0x78>)
 8004db8:	600a      	str	r2, [r1, #0]
 8004dba:	fba4 4303 	umull	r4, r3, r4, r3
 8004dbe:	680a      	ldr	r2, [r1, #0]
 8004dc0:	0b1b      	lsrs	r3, r3, #12
 8004dc2:	f422 3280 	bic.w	r2, r2, #65536	; 0x10000
 8004dc6:	009b      	lsls	r3, r3, #2
 8004dc8:	600a      	str	r2, [r1, #0]
 8004dca:	e002      	b.n	8004dd2 <SAI_DMAError+0x4e>
 8004dcc:	680a      	ldr	r2, [r1, #0]
 8004dce:	03d2      	lsls	r2, r2, #15
 8004dd0:	d508      	bpl.n	8004de4 <SAI_DMAError+0x60>
 8004dd2:	f113 33ff 	adds.w	r3, r3, #4294967295	; 0xffffffff
 8004dd6:	d2f9      	bcs.n	8004dcc <SAI_DMAError+0x48>
 8004dd8:	f8d0 3080 	ldr.w	r3, [r0, #128]	; 0x80
 8004ddc:	f043 0340 	orr.w	r3, r3, #64	; 0x40
 8004de0:	f8c0 3080 	str.w	r3, [r0, #128]	; 0x80
 8004de4:	2201      	movs	r2, #1
 8004de6:	2300      	movs	r3, #0
 8004de8:	f880 207d 	strb.w	r2, [r0, #125]	; 0x7d
 8004dec:	f8a0 306a 	strh.w	r3, [r0, #106]	; 0x6a
 8004df0:	f7fd f8ce 	bl	8001f90 <HAL_SAI_ErrorCallback>
 8004df4:	bd10      	pop	{r4, pc}
 8004df6:	bf00      	nop
 8004df8:	2000005c 	.word	0x2000005c
 8004dfc:	95cbec1b 	.word	0x95cbec1b

08004e00 <HAL_SAI_GetState>:
 8004e00:	f890 007d 	ldrb.w	r0, [r0, #125]	; 0x7d
 8004e04:	4770      	bx	lr
 8004e06:	bf00      	nop

08004e08 <HAL_SD_ErrorCallback>:
 8004e08:	4770      	bx	lr
 8004e0a:	bf00      	nop

08004e0c <HAL_SD_GetCardState>:
 8004e0c:	6d01      	ldr	r1, [r0, #80]	; 0x50
 8004e0e:	b510      	push	{r4, lr}
 8004e10:	0409      	lsls	r1, r1, #16
 8004e12:	4604      	mov	r4, r0
 8004e14:	6800      	ldr	r0, [r0, #0]
 8004e16:	f000 fde1 	bl	80059dc <SDMMC_CmdSendStatus>
 8004e1a:	4601      	mov	r1, r0
 8004e1c:	b120      	cbz	r0, 8004e28 <HAL_SD_GetCardState+0x1c>
 8004e1e:	6ba3      	ldr	r3, [r4, #56]	; 0x38
 8004e20:	2000      	movs	r0, #0
 8004e22:	4319      	orrs	r1, r3
 8004e24:	63a1      	str	r1, [r4, #56]	; 0x38
 8004e26:	bd10      	pop	{r4, pc}
 8004e28:	6820      	ldr	r0, [r4, #0]
 8004e2a:	f000 fdbf 	bl	80059ac <SDMMC_GetResponse>
 8004e2e:	f3c0 2043 	ubfx	r0, r0, #9, #4
 8004e32:	bd10      	pop	{r4, pc}

08004e34 <SD_DMATxAbort>:
 8004e34:	b510      	push	{r4, lr}
 8004e36:	6b84      	ldr	r4, [r0, #56]	; 0x38
 8004e38:	f240 523a 	movw	r2, #1338	; 0x53a
 8004e3c:	6823      	ldr	r3, [r4, #0]
 8004e3e:	4620      	mov	r0, r4
 8004e40:	639a      	str	r2, [r3, #56]	; 0x38
 8004e42:	f7ff ffe3 	bl	8004e0c <HAL_SD_GetCardState>
 8004e46:	2201      	movs	r2, #1
 8004e48:	3805      	subs	r0, #5
 8004e4a:	2300      	movs	r3, #0
 8004e4c:	f884 2034 	strb.w	r2, [r4, #52]	; 0x34
 8004e50:	4290      	cmp	r0, r2
 8004e52:	6323      	str	r3, [r4, #48]	; 0x30
 8004e54:	d908      	bls.n	8004e68 <SD_DMATxAbort+0x34>
 8004e56:	6ba3      	ldr	r3, [r4, #56]	; 0x38
 8004e58:	4620      	mov	r0, r4
 8004e5a:	b113      	cbz	r3, 8004e62 <SD_DMATxAbort+0x2e>
 8004e5c:	f7ff ffd4 	bl	8004e08 <HAL_SD_ErrorCallback>
 8004e60:	bd10      	pop	{r4, pc}
 8004e62:	f7fd fd29 	bl	80028b8 <HAL_SD_AbortCallback>
 8004e66:	bd10      	pop	{r4, pc}
 8004e68:	6820      	ldr	r0, [r4, #0]
 8004e6a:	f000 fda3 	bl	80059b4 <SDMMC_CmdStopTransfer>
 8004e6e:	6ba3      	ldr	r3, [r4, #56]	; 0x38
 8004e70:	4318      	orrs	r0, r3
 8004e72:	63a0      	str	r0, [r4, #56]	; 0x38
 8004e74:	e7ef      	b.n	8004e56 <SD_DMATxAbort+0x22>
 8004e76:	bf00      	nop

08004e78 <HAL_SD_IRQHandler>:
 8004e78:	6803      	ldr	r3, [r0, #0]
 8004e7a:	e92d 41f0 	stmdb	sp!, {r4, r5, r6, r7, r8, lr}
 8004e7e:	6b05      	ldr	r5, [r0, #48]	; 0x30
 8004e80:	b082      	sub	sp, #8
 8004e82:	6b5a      	ldr	r2, [r3, #52]	; 0x34
 8004e84:	4604      	mov	r4, r0
 8004e86:	0411      	lsls	r1, r2, #16
 8004e88:	d51b      	bpl.n	8004ec2 <HAL_SD_IRQHandler+0x4a>
 8004e8a:	072a      	lsls	r2, r5, #28
 8004e8c:	f100 80b3 	bmi.w	8004ff6 <HAL_SD_IRQHandler+0x17e>
 8004e90:	6b5a      	ldr	r2, [r3, #52]	; 0x34
 8004e92:	05d2      	lsls	r2, r2, #23
 8004e94:	d569      	bpl.n	8004f6a <HAL_SD_IRQHandler+0xf2>
 8004e96:	f44f 7180 	mov.w	r1, #256	; 0x100
 8004e9a:	4a8d      	ldr	r2, [pc, #564]	; (80050d0 <HAL_SD_IRQHandler+0x258>)
 8004e9c:	6399      	str	r1, [r3, #56]	; 0x38
 8004e9e:	6bd9      	ldr	r1, [r3, #60]	; 0x3c
 8004ea0:	400a      	ands	r2, r1
 8004ea2:	63da      	str	r2, [r3, #60]	; 0x3c
 8004ea4:	6ada      	ldr	r2, [r3, #44]	; 0x2c
 8004ea6:	f022 0201 	bic.w	r2, r2, #1
 8004eaa:	62da      	str	r2, [r3, #44]	; 0x2c
 8004eac:	0629      	lsls	r1, r5, #24
 8004eae:	d505      	bpl.n	8004ebc <HAL_SD_IRQHandler+0x44>
 8004eb0:	06aa      	lsls	r2, r5, #26
 8004eb2:	f100 80f1 	bmi.w	8005098 <HAL_SD_IRQHandler+0x220>
 8004eb6:	07af      	lsls	r7, r5, #30
 8004eb8:	f000 80c0 	beq.w	800503c <HAL_SD_IRQHandler+0x1c4>
 8004ebc:	b002      	add	sp, #8
 8004ebe:	e8bd 81f0 	ldmia.w	sp!, {r4, r5, r6, r7, r8, pc}
 8004ec2:	6b5a      	ldr	r2, [r3, #52]	; 0x34
 8004ec4:	05d7      	lsls	r7, r2, #23
 8004ec6:	d522      	bpl.n	8004f0e <HAL_SD_IRQHandler+0x96>
 8004ec8:	f44f 7180 	mov.w	r1, #256	; 0x100
 8004ecc:	4a80      	ldr	r2, [pc, #512]	; (80050d0 <HAL_SD_IRQHandler+0x258>)
 8004ece:	072e      	lsls	r6, r5, #28
 8004ed0:	6399      	str	r1, [r3, #56]	; 0x38
 8004ed2:	6bd9      	ldr	r1, [r3, #60]	; 0x3c
 8004ed4:	ea02 0201 	and.w	r2, r2, r1
 8004ed8:	63da      	str	r2, [r3, #60]	; 0x3c
 8004eda:	6ada      	ldr	r2, [r3, #44]	; 0x2c
 8004edc:	f022 0201 	bic.w	r2, r2, #1
 8004ee0:	62da      	str	r2, [r3, #44]	; 0x2c
 8004ee2:	d5e3      	bpl.n	8004eac <HAL_SD_IRQHandler+0x34>
 8004ee4:	f015 0f22 	tst.w	r5, #34	; 0x22
 8004ee8:	f040 80b6 	bne.w	8005058 <HAL_SD_IRQHandler+0x1e0>
 8004eec:	f240 503a 	movw	r0, #1338	; 0x53a
 8004ef0:	2101      	movs	r1, #1
 8004ef2:	2200      	movs	r2, #0
 8004ef4:	6398      	str	r0, [r3, #56]	; 0x38
 8004ef6:	4620      	mov	r0, r4
 8004ef8:	f884 1034 	strb.w	r1, [r4, #52]	; 0x34
 8004efc:	6322      	str	r2, [r4, #48]	; 0x30
 8004efe:	07ac      	lsls	r4, r5, #30
 8004f00:	f000 80a5 	beq.w	800504e <HAL_SD_IRQHandler+0x1d6>
 8004f04:	f7fd fce4 	bl	80028d0 <HAL_SD_RxCpltCallback>
 8004f08:	b002      	add	sp, #8
 8004f0a:	e8bd 81f0 	ldmia.w	sp!, {r4, r5, r6, r7, r8, pc}
 8004f0e:	6b5a      	ldr	r2, [r3, #52]	; 0x34
 8004f10:	0456      	lsls	r6, r2, #17
 8004f12:	d52b      	bpl.n	8004f6c <HAL_SD_IRQHandler+0xf4>
 8004f14:	0728      	lsls	r0, r5, #28
 8004f16:	d529      	bpl.n	8004f6c <HAL_SD_IRQHandler+0xf4>
 8004f18:	6a66      	ldr	r6, [r4, #36]	; 0x24
 8004f1a:	2e00      	cmp	r6, #0
 8004f1c:	d0ce      	beq.n	8004ebc <HAL_SD_IRQHandler+0x44>
 8004f1e:	6a27      	ldr	r7, [r4, #32]
 8004f20:	f107 0804 	add.w	r8, r7, #4
 8004f24:	f107 0524 	add.w	r5, r7, #36	; 0x24
 8004f28:	e000      	b.n	8004f2c <HAL_SD_IRQHandler+0xb4>
 8004f2a:	6823      	ldr	r3, [r4, #0]
 8004f2c:	f818 2c04 	ldrb.w	r2, [r8, #-4]
 8004f30:	4618      	mov	r0, r3
 8004f32:	f108 0804 	add.w	r8, r8, #4
 8004f36:	a901      	add	r1, sp, #4
 8004f38:	9201      	str	r2, [sp, #4]
 8004f3a:	f818 3c07 	ldrb.w	r3, [r8, #-7]
 8004f3e:	ea42 2303 	orr.w	r3, r2, r3, lsl #8
 8004f42:	9301      	str	r3, [sp, #4]
 8004f44:	f818 2c06 	ldrb.w	r2, [r8, #-6]
 8004f48:	ea43 4302 	orr.w	r3, r3, r2, lsl #16
 8004f4c:	9301      	str	r3, [sp, #4]
 8004f4e:	f818 2c05 	ldrb.w	r2, [r8, #-5]
 8004f52:	ea43 6302 	orr.w	r3, r3, r2, lsl #24
 8004f56:	9301      	str	r3, [sp, #4]
 8004f58:	f000 fd22 	bl	80059a0 <SDMMC_WriteFIFO>
 8004f5c:	4545      	cmp	r5, r8
 8004f5e:	d1e4      	bne.n	8004f2a <HAL_SD_IRQHandler+0xb2>
 8004f60:	3720      	adds	r7, #32
 8004f62:	3e20      	subs	r6, #32
 8004f64:	e9c4 7608 	strd	r7, r6, [r4, #32]
 8004f68:	e7a8      	b.n	8004ebc <HAL_SD_IRQHandler+0x44>
 8004f6a:	6b5a      	ldr	r2, [r3, #52]	; 0x34
 8004f6c:	6b5a      	ldr	r2, [r3, #52]	; 0x34
 8004f6e:	f012 0f3a 	tst.w	r2, #58	; 0x3a
 8004f72:	d0a3      	beq.n	8004ebc <HAL_SD_IRQHandler+0x44>
 8004f74:	6b5a      	ldr	r2, [r3, #52]	; 0x34
 8004f76:	0791      	lsls	r1, r2, #30
 8004f78:	d503      	bpl.n	8004f82 <HAL_SD_IRQHandler+0x10a>
 8004f7a:	6ba2      	ldr	r2, [r4, #56]	; 0x38
 8004f7c:	f042 0202 	orr.w	r2, r2, #2
 8004f80:	63a2      	str	r2, [r4, #56]	; 0x38
 8004f82:	6b5a      	ldr	r2, [r3, #52]	; 0x34
 8004f84:	0712      	lsls	r2, r2, #28
 8004f86:	d503      	bpl.n	8004f90 <HAL_SD_IRQHandler+0x118>
 8004f88:	6ba2      	ldr	r2, [r4, #56]	; 0x38
 8004f8a:	f042 0208 	orr.w	r2, r2, #8
 8004f8e:	63a2      	str	r2, [r4, #56]	; 0x38
 8004f90:	6b5a      	ldr	r2, [r3, #52]	; 0x34
 8004f92:	0697      	lsls	r7, r2, #26
 8004f94:	d503      	bpl.n	8004f9e <HAL_SD_IRQHandler+0x126>
 8004f96:	6ba2      	ldr	r2, [r4, #56]	; 0x38
 8004f98:	f042 0220 	orr.w	r2, r2, #32
 8004f9c:	63a2      	str	r2, [r4, #56]	; 0x38
 8004f9e:	6b5a      	ldr	r2, [r3, #52]	; 0x34
 8004fa0:	06d6      	lsls	r6, r2, #27
 8004fa2:	d503      	bpl.n	8004fac <HAL_SD_IRQHandler+0x134>
 8004fa4:	6ba2      	ldr	r2, [r4, #56]	; 0x38
 8004fa6:	f042 0210 	orr.w	r2, r2, #16
 8004faa:	63a2      	str	r2, [r4, #56]	; 0x38
 8004fac:	f240 523a 	movw	r2, #1338	; 0x53a
 8004fb0:	4618      	mov	r0, r3
 8004fb2:	639a      	str	r2, [r3, #56]	; 0x38
 8004fb4:	6bda      	ldr	r2, [r3, #60]	; 0x3c
 8004fb6:	f422 729d 	bic.w	r2, r2, #314	; 0x13a
 8004fba:	63da      	str	r2, [r3, #60]	; 0x3c
 8004fbc:	f000 fcfa 	bl	80059b4 <SDMMC_CmdStopTransfer>
 8004fc0:	6ba3      	ldr	r3, [r4, #56]	; 0x38
 8004fc2:	4318      	orrs	r0, r3
 8004fc4:	63a0      	str	r0, [r4, #56]	; 0x38
 8004fc6:	0728      	lsls	r0, r5, #28
 8004fc8:	d44d      	bmi.n	8005066 <HAL_SD_IRQHandler+0x1ee>
 8004fca:	0629      	lsls	r1, r5, #24
 8004fcc:	f57f af76 	bpl.w	8004ebc <HAL_SD_IRQHandler+0x44>
 8004fd0:	f015 0f30 	tst.w	r5, #48	; 0x30
 8004fd4:	d16e      	bne.n	80050b4 <HAL_SD_IRQHandler+0x23c>
 8004fd6:	f015 0503 	ands.w	r5, r5, #3
 8004fda:	d04d      	beq.n	8005078 <HAL_SD_IRQHandler+0x200>
 8004fdc:	6c23      	ldr	r3, [r4, #64]	; 0x40
 8004fde:	4a3d      	ldr	r2, [pc, #244]	; (80050d4 <HAL_SD_IRQHandler+0x25c>)
 8004fe0:	4618      	mov	r0, r3
 8004fe2:	651a      	str	r2, [r3, #80]	; 0x50
 8004fe4:	f7fe f83c 	bl	8003060 <HAL_DMA_Abort_IT>
 8004fe8:	2800      	cmp	r0, #0
 8004fea:	f43f af67 	beq.w	8004ebc <HAL_SD_IRQHandler+0x44>
 8004fee:	6c20      	ldr	r0, [r4, #64]	; 0x40
 8004ff0:	f7ff ff20 	bl	8004e34 <SD_DMATxAbort>
 8004ff4:	e762      	b.n	8004ebc <HAL_SD_IRQHandler+0x44>
 8004ff6:	6ac7      	ldr	r7, [r0, #44]	; 0x2c
 8004ff8:	2f00      	cmp	r7, #0
 8004ffa:	f43f af5f 	beq.w	8004ebc <HAL_SD_IRQHandler+0x44>
 8004ffe:	f8d0 8028 	ldr.w	r8, [r0, #40]	; 0x28
 8005002:	f108 0504 	add.w	r5, r8, #4
 8005006:	f108 0624 	add.w	r6, r8, #36	; 0x24
 800500a:	e000      	b.n	800500e <HAL_SD_IRQHandler+0x196>
 800500c:	6823      	ldr	r3, [r4, #0]
 800500e:	4618      	mov	r0, r3
 8005010:	3504      	adds	r5, #4
 8005012:	f000 fcc1 	bl	8005998 <SDMMC_ReadFIFO>
 8005016:	f805 0c08 	strb.w	r0, [r5, #-8]
 800501a:	0a02      	lsrs	r2, r0, #8
 800501c:	0c03      	lsrs	r3, r0, #16
 800501e:	0e00      	lsrs	r0, r0, #24
 8005020:	f805 2c07 	strb.w	r2, [r5, #-7]
 8005024:	f805 3c06 	strb.w	r3, [r5, #-6]
 8005028:	f805 0c05 	strb.w	r0, [r5, #-5]
 800502c:	42ae      	cmp	r6, r5
 800502e:	d1ed      	bne.n	800500c <HAL_SD_IRQHandler+0x194>
 8005030:	f108 0320 	add.w	r3, r8, #32
 8005034:	3f20      	subs	r7, #32
 8005036:	e9c4 370a 	strd	r3, r7, [r4, #40]	; 0x28
 800503a:	e73f      	b.n	8004ebc <HAL_SD_IRQHandler+0x44>
 800503c:	6822      	ldr	r2, [r4, #0]
 800503e:	2101      	movs	r1, #1
 8005040:	4620      	mov	r0, r4
 8005042:	6ad3      	ldr	r3, [r2, #44]	; 0x2c
 8005044:	f023 0308 	bic.w	r3, r3, #8
 8005048:	62d3      	str	r3, [r2, #44]	; 0x2c
 800504a:	f884 1034 	strb.w	r1, [r4, #52]	; 0x34
 800504e:	f7fd fc39 	bl	80028c4 <HAL_SD_TxCpltCallback>
 8005052:	b002      	add	sp, #8
 8005054:	e8bd 81f0 	ldmia.w	sp!, {r4, r5, r6, r7, r8, pc}
 8005058:	4618      	mov	r0, r3
 800505a:	f000 fcab 	bl	80059b4 <SDMMC_CmdStopTransfer>
 800505e:	4603      	mov	r3, r0
 8005060:	b998      	cbnz	r0, 800508a <HAL_SD_IRQHandler+0x212>
 8005062:	6823      	ldr	r3, [r4, #0]
 8005064:	e742      	b.n	8004eec <HAL_SD_IRQHandler+0x74>
 8005066:	2201      	movs	r2, #1
 8005068:	2300      	movs	r3, #0
 800506a:	4620      	mov	r0, r4
 800506c:	f884 2034 	strb.w	r2, [r4, #52]	; 0x34
 8005070:	6323      	str	r3, [r4, #48]	; 0x30
 8005072:	f7ff fec9 	bl	8004e08 <HAL_SD_ErrorCallback>
 8005076:	e721      	b.n	8004ebc <HAL_SD_IRQHandler+0x44>
 8005078:	2301      	movs	r3, #1
 800507a:	63a5      	str	r5, [r4, #56]	; 0x38
 800507c:	4620      	mov	r0, r4
 800507e:	f884 3034 	strb.w	r3, [r4, #52]	; 0x34
 8005082:	6325      	str	r5, [r4, #48]	; 0x30
 8005084:	f7fd fc18 	bl	80028b8 <HAL_SD_AbortCallback>
 8005088:	e718      	b.n	8004ebc <HAL_SD_IRQHandler+0x44>
 800508a:	6ba2      	ldr	r2, [r4, #56]	; 0x38
 800508c:	4620      	mov	r0, r4
 800508e:	4313      	orrs	r3, r2
 8005090:	63a3      	str	r3, [r4, #56]	; 0x38
 8005092:	f7ff feb9 	bl	8004e08 <HAL_SD_ErrorCallback>
 8005096:	e7e4      	b.n	8005062 <HAL_SD_IRQHandler+0x1ea>
 8005098:	4618      	mov	r0, r3
 800509a:	f000 fc8b 	bl	80059b4 <SDMMC_CmdStopTransfer>
 800509e:	4603      	mov	r3, r0
 80050a0:	2800      	cmp	r0, #0
 80050a2:	f43f af08 	beq.w	8004eb6 <HAL_SD_IRQHandler+0x3e>
 80050a6:	6ba2      	ldr	r2, [r4, #56]	; 0x38
 80050a8:	4620      	mov	r0, r4
 80050aa:	4313      	orrs	r3, r2
 80050ac:	63a3      	str	r3, [r4, #56]	; 0x38
 80050ae:	f7ff feab 	bl	8004e08 <HAL_SD_ErrorCallback>
 80050b2:	e700      	b.n	8004eb6 <HAL_SD_IRQHandler+0x3e>
 80050b4:	6be3      	ldr	r3, [r4, #60]	; 0x3c
 80050b6:	4a08      	ldr	r2, [pc, #32]	; (80050d8 <HAL_SD_IRQHandler+0x260>)
 80050b8:	4618      	mov	r0, r3
 80050ba:	651a      	str	r2, [r3, #80]	; 0x50
 80050bc:	f7fd ffd0 	bl	8003060 <HAL_DMA_Abort_IT>
 80050c0:	2800      	cmp	r0, #0
 80050c2:	f43f aefb 	beq.w	8004ebc <HAL_SD_IRQHandler+0x44>
 80050c6:	6be0      	ldr	r0, [r4, #60]	; 0x3c
 80050c8:	f7ff feb4 	bl	8004e34 <SD_DMATxAbort>
 80050cc:	e6f6      	b.n	8004ebc <HAL_SD_IRQHandler+0x44>
 80050ce:	bf00      	nop
 80050d0:	ffff3ec5 	.word	0xffff3ec5
 80050d4:	080050dd 	.word	0x080050dd
 80050d8:	08004e35 	.word	0x08004e35

080050dc <SD_DMARxAbort>:
 80050dc:	f7ff beaa 	b.w	8004e34 <SD_DMATxAbort>

080050e0 <HAL_UART_MspInit>:
 80050e0:	4770      	bx	lr
 80050e2:	bf00      	nop

080050e4 <HAL_UART_TxCpltCallback>:
 80050e4:	4770      	bx	lr
 80050e6:	bf00      	nop

080050e8 <HAL_UART_ErrorCallback>:
 80050e8:	4770      	bx	lr
 80050ea:	bf00      	nop

080050ec <UART_DMAAbortOnError>:
 80050ec:	b508      	push	{r3, lr}
 80050ee:	2200      	movs	r2, #0
 80050f0:	6b83      	ldr	r3, [r0, #56]	; 0x38
 80050f2:	f8a3 205a 	strh.w	r2, [r3, #90]	; 0x5a
 80050f6:	4618      	mov	r0, r3
 80050f8:	f8a3 2052 	strh.w	r2, [r3, #82]	; 0x52
 80050fc:	f7ff fff4 	bl	80050e8 <HAL_UART_ErrorCallback>
 8005100:	bd08      	pop	{r3, pc}
 8005102:	bf00      	nop

08005104 <HAL_UARTEx_WakeupCallback>:
 8005104:	4770      	bx	lr
 8005106:	bf00      	nop

08005108 <HAL_UART_IRQHandler>:
 8005108:	6803      	ldr	r3, [r0, #0]
 800510a:	b570      	push	{r4, r5, r6, lr}
 800510c:	69da      	ldr	r2, [r3, #28]
 800510e:	f640 060f 	movw	r6, #2063	; 0x80f
 8005112:	6819      	ldr	r1, [r3, #0]
 8005114:	4604      	mov	r4, r0
 8005116:	4232      	tst	r2, r6
 8005118:	689d      	ldr	r5, [r3, #8]
 800511a:	d052      	beq.n	80051c2 <HAL_UART_IRQHandler+0xba>
 800511c:	f015 0001 	ands.w	r0, r5, #1
 8005120:	d058      	beq.n	80051d4 <HAL_UART_IRQHandler+0xcc>
 8005122:	07d5      	lsls	r5, r2, #31
 8005124:	d507      	bpl.n	8005136 <HAL_UART_IRQHandler+0x2e>
 8005126:	05ce      	lsls	r6, r1, #23
 8005128:	d505      	bpl.n	8005136 <HAL_UART_IRQHandler+0x2e>
 800512a:	2501      	movs	r5, #1
 800512c:	621d      	str	r5, [r3, #32]
 800512e:	6fe5      	ldr	r5, [r4, #124]	; 0x7c
 8005130:	f045 0501 	orr.w	r5, r5, #1
 8005134:	67e5      	str	r5, [r4, #124]	; 0x7c
 8005136:	0795      	lsls	r5, r2, #30
 8005138:	d474      	bmi.n	8005224 <HAL_UART_IRQHandler+0x11c>
 800513a:	0755      	lsls	r5, r2, #29
 800513c:	d501      	bpl.n	8005142 <HAL_UART_IRQHandler+0x3a>
 800513e:	2800      	cmp	r0, #0
 8005140:	d17a      	bne.n	8005238 <HAL_UART_IRQHandler+0x130>
 8005142:	0716      	lsls	r6, r2, #28
 8005144:	d503      	bpl.n	800514e <HAL_UART_IRQHandler+0x46>
 8005146:	068d      	lsls	r5, r1, #26
 8005148:	d47d      	bmi.n	8005246 <HAL_UART_IRQHandler+0x13e>
 800514a:	2800      	cmp	r0, #0
 800514c:	d17b      	bne.n	8005246 <HAL_UART_IRQHandler+0x13e>
 800514e:	0510      	lsls	r0, r2, #20
 8005150:	d508      	bpl.n	8005164 <HAL_UART_IRQHandler+0x5c>
 8005152:	014e      	lsls	r6, r1, #5
 8005154:	d506      	bpl.n	8005164 <HAL_UART_IRQHandler+0x5c>
 8005156:	f44f 6000 	mov.w	r0, #2048	; 0x800
 800515a:	6218      	str	r0, [r3, #32]
 800515c:	6fe0      	ldr	r0, [r4, #124]	; 0x7c
 800515e:	f040 0020 	orr.w	r0, r0, #32
 8005162:	67e0      	str	r0, [r4, #124]	; 0x7c
 8005164:	6fe0      	ldr	r0, [r4, #124]	; 0x7c
 8005166:	2800      	cmp	r0, #0
 8005168:	d04b      	beq.n	8005202 <HAL_UART_IRQHandler+0xfa>
 800516a:	0695      	lsls	r5, r2, #26
 800516c:	d501      	bpl.n	8005172 <HAL_UART_IRQHandler+0x6a>
 800516e:	0688      	lsls	r0, r1, #26
 8005170:	d474      	bmi.n	800525c <HAL_UART_IRQHandler+0x154>
 8005172:	6fe5      	ldr	r5, [r4, #124]	; 0x7c
 8005174:	6899      	ldr	r1, [r3, #8]
 8005176:	0649      	lsls	r1, r1, #25
 8005178:	d402      	bmi.n	8005180 <HAL_UART_IRQHandler+0x78>
 800517a:	f015 0528 	ands.w	r5, r5, #40	; 0x28
 800517e:	d074      	beq.n	800526a <HAL_UART_IRQHandler+0x162>
 8005180:	681a      	ldr	r2, [r3, #0]
 8005182:	2020      	movs	r0, #32
 8005184:	2100      	movs	r1, #0
 8005186:	f422 7290 	bic.w	r2, r2, #288	; 0x120
 800518a:	601a      	str	r2, [r3, #0]
 800518c:	689a      	ldr	r2, [r3, #8]
 800518e:	f022 0201 	bic.w	r2, r2, #1
 8005192:	609a      	str	r2, [r3, #8]
 8005194:	67a0      	str	r0, [r4, #120]	; 0x78
 8005196:	689a      	ldr	r2, [r3, #8]
 8005198:	6621      	str	r1, [r4, #96]	; 0x60
 800519a:	0652      	lsls	r2, r2, #25
 800519c:	d55a      	bpl.n	8005254 <HAL_UART_IRQHandler+0x14c>
 800519e:	689a      	ldr	r2, [r3, #8]
 80051a0:	6ee1      	ldr	r1, [r4, #108]	; 0x6c
 80051a2:	f022 0240 	bic.w	r2, r2, #64	; 0x40
 80051a6:	609a      	str	r2, [r3, #8]
 80051a8:	2900      	cmp	r1, #0
 80051aa:	d053      	beq.n	8005254 <HAL_UART_IRQHandler+0x14c>
 80051ac:	4b31      	ldr	r3, [pc, #196]	; (8005274 <HAL_UART_IRQHandler+0x16c>)
 80051ae:	4608      	mov	r0, r1
 80051b0:	650b      	str	r3, [r1, #80]	; 0x50
 80051b2:	f7fd ff55 	bl	8003060 <HAL_DMA_Abort_IT>
 80051b6:	b320      	cbz	r0, 8005202 <HAL_UART_IRQHandler+0xfa>
 80051b8:	6ee0      	ldr	r0, [r4, #108]	; 0x6c
 80051ba:	e8bd 4070 	ldmia.w	sp!, {r4, r5, r6, lr}
 80051be:	6d03      	ldr	r3, [r0, #80]	; 0x50
 80051c0:	4718      	bx	r3
 80051c2:	0696      	lsls	r6, r2, #26
 80051c4:	d509      	bpl.n	80051da <HAL_UART_IRQHandler+0xd2>
 80051c6:	068e      	lsls	r6, r1, #26
 80051c8:	d507      	bpl.n	80051da <HAL_UART_IRQHandler+0xd2>
 80051ca:	6e03      	ldr	r3, [r0, #96]	; 0x60
 80051cc:	b1cb      	cbz	r3, 8005202 <HAL_UART_IRQHandler+0xfa>
 80051ce:	e8bd 4070 	ldmia.w	sp!, {r4, r5, r6, lr}
 80051d2:	4718      	bx	r3
 80051d4:	f411 7f90 	tst.w	r1, #288	; 0x120
 80051d8:	d1a3      	bne.n	8005122 <HAL_UART_IRQHandler+0x1a>
 80051da:	02d6      	lsls	r6, r2, #11
 80051dc:	d409      	bmi.n	80051f2 <HAL_UART_IRQHandler+0xea>
 80051de:	0616      	lsls	r6, r2, #24
 80051e0:	d510      	bpl.n	8005204 <HAL_UART_IRQHandler+0xfc>
 80051e2:	060d      	lsls	r5, r1, #24
 80051e4:	d50e      	bpl.n	8005204 <HAL_UART_IRQHandler+0xfc>
 80051e6:	6e63      	ldr	r3, [r4, #100]	; 0x64
 80051e8:	b15b      	cbz	r3, 8005202 <HAL_UART_IRQHandler+0xfa>
 80051ea:	4620      	mov	r0, r4
 80051ec:	e8bd 4070 	ldmia.w	sp!, {r4, r5, r6, lr}
 80051f0:	4718      	bx	r3
 80051f2:	0268      	lsls	r0, r5, #9
 80051f4:	d5f3      	bpl.n	80051de <HAL_UART_IRQHandler+0xd6>
 80051f6:	f44f 1280 	mov.w	r2, #1048576	; 0x100000
 80051fa:	4620      	mov	r0, r4
 80051fc:	621a      	str	r2, [r3, #32]
 80051fe:	f7ff ff81 	bl	8005104 <HAL_UARTEx_WakeupCallback>
 8005202:	bd70      	pop	{r4, r5, r6, pc}
 8005204:	0650      	lsls	r0, r2, #25
 8005206:	d5fc      	bpl.n	8005202 <HAL_UART_IRQHandler+0xfa>
 8005208:	064a      	lsls	r2, r1, #25
 800520a:	d5fa      	bpl.n	8005202 <HAL_UART_IRQHandler+0xfa>
 800520c:	681a      	ldr	r2, [r3, #0]
 800520e:	2520      	movs	r5, #32
 8005210:	2100      	movs	r1, #0
 8005212:	4620      	mov	r0, r4
 8005214:	f022 0240 	bic.w	r2, r2, #64	; 0x40
 8005218:	601a      	str	r2, [r3, #0]
 800521a:	6765      	str	r5, [r4, #116]	; 0x74
 800521c:	6661      	str	r1, [r4, #100]	; 0x64
 800521e:	f7ff ff61 	bl	80050e4 <HAL_UART_TxCpltCallback>
 8005222:	bd70      	pop	{r4, r5, r6, pc}
 8005224:	2800      	cmp	r0, #0
 8005226:	d08c      	beq.n	8005142 <HAL_UART_IRQHandler+0x3a>
 8005228:	2502      	movs	r5, #2
 800522a:	0756      	lsls	r6, r2, #29
 800522c:	621d      	str	r5, [r3, #32]
 800522e:	6fe5      	ldr	r5, [r4, #124]	; 0x7c
 8005230:	f045 0504 	orr.w	r5, r5, #4
 8005234:	67e5      	str	r5, [r4, #124]	; 0x7c
 8005236:	d584      	bpl.n	8005142 <HAL_UART_IRQHandler+0x3a>
 8005238:	2504      	movs	r5, #4
 800523a:	621d      	str	r5, [r3, #32]
 800523c:	6fe5      	ldr	r5, [r4, #124]	; 0x7c
 800523e:	f045 0502 	orr.w	r5, r5, #2
 8005242:	67e5      	str	r5, [r4, #124]	; 0x7c
 8005244:	e77d      	b.n	8005142 <HAL_UART_IRQHandler+0x3a>
 8005246:	2008      	movs	r0, #8
 8005248:	6218      	str	r0, [r3, #32]
 800524a:	6fe0      	ldr	r0, [r4, #124]	; 0x7c
 800524c:	f040 0008 	orr.w	r0, r0, #8
 8005250:	67e0      	str	r0, [r4, #124]	; 0x7c
 8005252:	e77c      	b.n	800514e <HAL_UART_IRQHandler+0x46>
 8005254:	4620      	mov	r0, r4
 8005256:	f7ff ff47 	bl	80050e8 <HAL_UART_ErrorCallback>
 800525a:	bd70      	pop	{r4, r5, r6, pc}
 800525c:	6e22      	ldr	r2, [r4, #96]	; 0x60
 800525e:	2a00      	cmp	r2, #0
 8005260:	d087      	beq.n	8005172 <HAL_UART_IRQHandler+0x6a>
 8005262:	4620      	mov	r0, r4
 8005264:	4790      	blx	r2
 8005266:	6823      	ldr	r3, [r4, #0]
 8005268:	e783      	b.n	8005172 <HAL_UART_IRQHandler+0x6a>
 800526a:	4620      	mov	r0, r4
 800526c:	f7ff ff3c 	bl	80050e8 <HAL_UART_ErrorCallback>
 8005270:	67e5      	str	r5, [r4, #124]	; 0x7c
 8005272:	bd70      	pop	{r4, r5, r6, pc}
 8005274:	080050ed 	.word	0x080050ed

08005278 <UART_SetConfig>:
 8005278:	b5f8      	push	{r3, r4, r5, r6, r7, lr}
 800527a:	4604      	mov	r4, r0
 800527c:	6883      	ldr	r3, [r0, #8]
 800527e:	49ae      	ldr	r1, [pc, #696]	; (8005538 <UART_SetConfig+0x2c0>)
 8005280:	69e6      	ldr	r6, [r4, #28]
 8005282:	68e7      	ldr	r7, [r4, #12]
 8005284:	4dad      	ldr	r5, [pc, #692]	; (800553c <UART_SetConfig+0x2c4>)
 8005286:	e9d0 2004 	ldrd	r2, r0, [r0, #16]
 800528a:	431a      	orrs	r2, r3
 800528c:	6823      	ldr	r3, [r4, #0]
 800528e:	4302      	orrs	r2, r0
 8005290:	6818      	ldr	r0, [r3, #0]
 8005292:	42ab      	cmp	r3, r5
 8005294:	ea01 0100 	and.w	r1, r1, r0
 8005298:	ea42 0206 	orr.w	r2, r2, r6
 800529c:	ea42 0201 	orr.w	r2, r2, r1
 80052a0:	69a1      	ldr	r1, [r4, #24]
 80052a2:	601a      	str	r2, [r3, #0]
 80052a4:	6858      	ldr	r0, [r3, #4]
 80052a6:	6a22      	ldr	r2, [r4, #32]
 80052a8:	f420 5040 	bic.w	r0, r0, #12288	; 0x3000
 80052ac:	ea42 0201 	orr.w	r2, r2, r1
 80052b0:	ea40 0007 	orr.w	r0, r0, r7
 80052b4:	6058      	str	r0, [r3, #4]
 80052b6:	6899      	ldr	r1, [r3, #8]
 80052b8:	f421 6130 	bic.w	r1, r1, #2816	; 0xb00
 80052bc:	ea42 0201 	orr.w	r2, r2, r1
 80052c0:	609a      	str	r2, [r3, #8]
 80052c2:	d03f      	beq.n	8005344 <UART_SetConfig+0xcc>
 80052c4:	4a9e      	ldr	r2, [pc, #632]	; (8005540 <UART_SetConfig+0x2c8>)
 80052c6:	4293      	cmp	r3, r2
 80052c8:	d01b      	beq.n	8005302 <UART_SetConfig+0x8a>
 80052ca:	4a9e      	ldr	r2, [pc, #632]	; (8005544 <UART_SetConfig+0x2cc>)
 80052cc:	4293      	cmp	r3, r2
 80052ce:	f000 80af 	beq.w	8005430 <UART_SetConfig+0x1b8>
 80052d2:	4a9d      	ldr	r2, [pc, #628]	; (8005548 <UART_SetConfig+0x2d0>)
 80052d4:	4293      	cmp	r3, r2
 80052d6:	f000 80dd 	beq.w	8005494 <UART_SetConfig+0x21c>
 80052da:	4a9c      	ldr	r2, [pc, #624]	; (800554c <UART_SetConfig+0x2d4>)
 80052dc:	4293      	cmp	r3, r2
 80052de:	d051      	beq.n	8005384 <UART_SetConfig+0x10c>
 80052e0:	4a9b      	ldr	r2, [pc, #620]	; (8005550 <UART_SetConfig+0x2d8>)
 80052e2:	4293      	cmp	r3, r2
 80052e4:	f000 80bc 	beq.w	8005460 <UART_SetConfig+0x1e8>
 80052e8:	4a9a      	ldr	r2, [pc, #616]	; (8005554 <UART_SetConfig+0x2dc>)
 80052ea:	4293      	cmp	r3, r2
 80052ec:	f000 8103 	beq.w	80054f6 <UART_SetConfig+0x27e>
 80052f0:	4a99      	ldr	r2, [pc, #612]	; (8005558 <UART_SetConfig+0x2e0>)
 80052f2:	4293      	cmp	r3, r2
 80052f4:	f000 810f 	beq.w	8005516 <UART_SetConfig+0x29e>
 80052f8:	2300      	movs	r3, #0
 80052fa:	2001      	movs	r0, #1
 80052fc:	e9c4 3318 	strd	r3, r3, [r4, #96]	; 0x60
 8005300:	bdf8      	pop	{r3, r4, r5, r6, r7, pc}
 8005302:	4b96      	ldr	r3, [pc, #600]	; (800555c <UART_SetConfig+0x2e4>)
 8005304:	4a96      	ldr	r2, [pc, #600]	; (8005560 <UART_SetConfig+0x2e8>)
 8005306:	f8d3 3090 	ldr.w	r3, [r3, #144]	; 0x90
 800530a:	f003 030c 	and.w	r3, r3, #12
 800530e:	5cd3      	ldrb	r3, [r2, r3]
 8005310:	f5b6 4f00 	cmp.w	r6, #32768	; 0x8000
 8005314:	d01e      	beq.n	8005354 <UART_SetConfig+0xdc>
 8005316:	2b08      	cmp	r3, #8
 8005318:	d8ee      	bhi.n	80052f8 <UART_SetConfig+0x80>
 800531a:	a201      	add	r2, pc, #4	; (adr r2, 8005320 <UART_SetConfig+0xa8>)
 800531c:	f852 f023 	ldr.w	pc, [r2, r3, lsl #2]
 8005320:	0800541f 	.word	0x0800541f
 8005324:	080053b1 	.word	0x080053b1
 8005328:	080054cf 	.word	0x080054cf
 800532c:	080052f9 	.word	0x080052f9
 8005330:	08005477 	.word	0x08005477
 8005334:	080052f9 	.word	0x080052f9
 8005338:	080052f9 	.word	0x080052f9
 800533c:	080052f9 	.word	0x080052f9
 8005340:	08005451 	.word	0x08005451
 8005344:	4b85      	ldr	r3, [pc, #532]	; (800555c <UART_SetConfig+0x2e4>)
 8005346:	4a87      	ldr	r2, [pc, #540]	; (8005564 <UART_SetConfig+0x2ec>)
 8005348:	f8d3 3090 	ldr.w	r3, [r3, #144]	; 0x90
 800534c:	f003 0303 	and.w	r3, r3, #3
 8005350:	5cd3      	ldrb	r3, [r2, r3]
 8005352:	e7dd      	b.n	8005310 <UART_SetConfig+0x98>
 8005354:	2b08      	cmp	r3, #8
 8005356:	d8cf      	bhi.n	80052f8 <UART_SetConfig+0x80>
 8005358:	a201      	add	r2, pc, #4	; (adr r2, 8005360 <UART_SetConfig+0xe8>)
 800535a:	f852 f023 	ldr.w	pc, [r2, r3, lsl #2]
 800535e:	bf00      	nop
 8005360:	08005489 	.word	0x08005489
 8005364:	080053db 	.word	0x080053db
 8005368:	080054af 	.word	0x080054af
 800536c:	080052f9 	.word	0x080052f9
 8005370:	0800548f 	.word	0x0800548f
 8005374:	080052f9 	.word	0x080052f9
 8005378:	080052f9 	.word	0x080052f9
 800537c:	080052f9 	.word	0x080052f9
 8005380:	080054bf 	.word	0x080054bf
 8005384:	4b75      	ldr	r3, [pc, #468]	; (800555c <UART_SetConfig+0x2e4>)
 8005386:	f8d3 3090 	ldr.w	r3, [r3, #144]	; 0x90
 800538a:	f403 7340 	and.w	r3, r3, #768	; 0x300
 800538e:	f5b3 7f80 	cmp.w	r3, #256	; 0x100
 8005392:	d06d      	beq.n	8005470 <UART_SetConfig+0x1f8>
 8005394:	d93d      	bls.n	8005412 <UART_SetConfig+0x19a>
 8005396:	f5b3 7f00 	cmp.w	r3, #512	; 0x200
 800539a:	f000 8085 	beq.w	80054a8 <UART_SetConfig+0x230>
 800539e:	f5b3 7f40 	cmp.w	r3, #768	; 0x300
 80053a2:	d052      	beq.n	800544a <UART_SetConfig+0x1d2>
 80053a4:	e7a8      	b.n	80052f8 <UART_SetConfig+0x80>
 80053a6:	2b00      	cmp	r3, #0
 80053a8:	d1a6      	bne.n	80052f8 <UART_SetConfig+0x80>
 80053aa:	f5b6 4f00 	cmp.w	r6, #32768	; 0x8000
 80053ae:	d014      	beq.n	80053da <UART_SetConfig+0x162>
 80053b0:	f7fe fee2 	bl	8004178 <HAL_RCC_GetPCLK2Freq>
 80053b4:	6862      	ldr	r2, [r4, #4]
 80053b6:	eb00 0352 	add.w	r3, r0, r2, lsr #1
 80053ba:	fbb3 f3f2 	udiv	r3, r3, r2
 80053be:	b29b      	uxth	r3, r3
 80053c0:	f1a3 0110 	sub.w	r1, r3, #16
 80053c4:	f64f 72ef 	movw	r2, #65519	; 0xffef
 80053c8:	4291      	cmp	r1, r2
 80053ca:	d895      	bhi.n	80052f8 <UART_SetConfig+0x80>
 80053cc:	6822      	ldr	r2, [r4, #0]
 80053ce:	2000      	movs	r0, #0
 80053d0:	60d3      	str	r3, [r2, #12]
 80053d2:	2300      	movs	r3, #0
 80053d4:	e9c4 3318 	strd	r3, r3, [r4, #96]	; 0x60
 80053d8:	bdf8      	pop	{r3, r4, r5, r6, r7, pc}
 80053da:	f7fe fecd 	bl	8004178 <HAL_RCC_GetPCLK2Freq>
 80053de:	6862      	ldr	r2, [r4, #4]
 80053e0:	0853      	lsrs	r3, r2, #1
 80053e2:	eb03 0340 	add.w	r3, r3, r0, lsl #1
 80053e6:	fbb3 f3f2 	udiv	r3, r3, r2
 80053ea:	b29b      	uxth	r3, r3
 80053ec:	f1a3 0110 	sub.w	r1, r3, #16
 80053f0:	f64f 72ef 	movw	r2, #65519	; 0xffef
 80053f4:	4291      	cmp	r1, r2
 80053f6:	f63f af7f 	bhi.w	80052f8 <UART_SetConfig+0x80>
 80053fa:	f023 020f 	bic.w	r2, r3, #15
 80053fe:	f3c3 0342 	ubfx	r3, r3, #1, #3
 8005402:	6821      	ldr	r1, [r4, #0]
 8005404:	2000      	movs	r0, #0
 8005406:	4313      	orrs	r3, r2
 8005408:	60cb      	str	r3, [r1, #12]
 800540a:	2300      	movs	r3, #0
 800540c:	e9c4 3318 	strd	r3, r3, [r4, #96]	; 0x60
 8005410:	bdf8      	pop	{r3, r4, r5, r6, r7, pc}
 8005412:	2b00      	cmp	r3, #0
 8005414:	f47f af70 	bne.w	80052f8 <UART_SetConfig+0x80>
 8005418:	f5b6 4f00 	cmp.w	r6, #32768	; 0x8000
 800541c:	d034      	beq.n	8005488 <UART_SetConfig+0x210>
 800541e:	f7fe fe9b 	bl	8004158 <HAL_RCC_GetPCLK1Freq>
 8005422:	6862      	ldr	r2, [r4, #4]
 8005424:	eb00 0352 	add.w	r3, r0, r2, lsr #1
 8005428:	fbb3 f3f2 	udiv	r3, r3, r2
 800542c:	b29b      	uxth	r3, r3
 800542e:	e7c7      	b.n	80053c0 <UART_SetConfig+0x148>
 8005430:	4b4a      	ldr	r3, [pc, #296]	; (800555c <UART_SetConfig+0x2e4>)
 8005432:	f8d3 3090 	ldr.w	r3, [r3, #144]	; 0x90
 8005436:	f003 0330 	and.w	r3, r3, #48	; 0x30
 800543a:	2b10      	cmp	r3, #16
 800543c:	d018      	beq.n	8005470 <UART_SetConfig+0x1f8>
 800543e:	d9e8      	bls.n	8005412 <UART_SetConfig+0x19a>
 8005440:	2b20      	cmp	r3, #32
 8005442:	d031      	beq.n	80054a8 <UART_SetConfig+0x230>
 8005444:	2b30      	cmp	r3, #48	; 0x30
 8005446:	f47f af57 	bne.w	80052f8 <UART_SetConfig+0x80>
 800544a:	f5b6 4f00 	cmp.w	r6, #32768	; 0x8000
 800544e:	d036      	beq.n	80054be <UART_SetConfig+0x246>
 8005450:	6862      	ldr	r2, [r4, #4]
 8005452:	0853      	lsrs	r3, r2, #1
 8005454:	f503 4300 	add.w	r3, r3, #32768	; 0x8000
 8005458:	fbb3 f3f2 	udiv	r3, r3, r2
 800545c:	b29b      	uxth	r3, r3
 800545e:	e7af      	b.n	80053c0 <UART_SetConfig+0x148>
 8005460:	4b3e      	ldr	r3, [pc, #248]	; (800555c <UART_SetConfig+0x2e4>)
 8005462:	f8d3 3090 	ldr.w	r3, [r3, #144]	; 0x90
 8005466:	f403 6340 	and.w	r3, r3, #3072	; 0xc00
 800546a:	f5b3 6f80 	cmp.w	r3, #1024	; 0x400
 800546e:	d136      	bne.n	80054de <UART_SetConfig+0x266>
 8005470:	f5b6 4f00 	cmp.w	r6, #32768	; 0x8000
 8005474:	d00b      	beq.n	800548e <UART_SetConfig+0x216>
 8005476:	f7fe fd9b 	bl	8003fb0 <HAL_RCC_GetSysClockFreq>
 800547a:	6862      	ldr	r2, [r4, #4]
 800547c:	eb00 0352 	add.w	r3, r0, r2, lsr #1
 8005480:	fbb3 f3f2 	udiv	r3, r3, r2
 8005484:	b29b      	uxth	r3, r3
 8005486:	e79b      	b.n	80053c0 <UART_SetConfig+0x148>
 8005488:	f7fe fe66 	bl	8004158 <HAL_RCC_GetPCLK1Freq>
 800548c:	e7a7      	b.n	80053de <UART_SetConfig+0x166>
 800548e:	f7fe fd8f 	bl	8003fb0 <HAL_RCC_GetSysClockFreq>
 8005492:	e7a4      	b.n	80053de <UART_SetConfig+0x166>
 8005494:	4b31      	ldr	r3, [pc, #196]	; (800555c <UART_SetConfig+0x2e4>)
 8005496:	f8d3 3090 	ldr.w	r3, [r3, #144]	; 0x90
 800549a:	f003 03c0 	and.w	r3, r3, #192	; 0xc0
 800549e:	2b40      	cmp	r3, #64	; 0x40
 80054a0:	d0e6      	beq.n	8005470 <UART_SetConfig+0x1f8>
 80054a2:	d9b6      	bls.n	8005412 <UART_SetConfig+0x19a>
 80054a4:	2b80      	cmp	r3, #128	; 0x80
 80054a6:	d123      	bne.n	80054f0 <UART_SetConfig+0x278>
 80054a8:	f5b6 4f00 	cmp.w	r6, #32768	; 0x8000
 80054ac:	d10f      	bne.n	80054ce <UART_SetConfig+0x256>
 80054ae:	6862      	ldr	r2, [r4, #4]
 80054b0:	4b2d      	ldr	r3, [pc, #180]	; (8005568 <UART_SetConfig+0x2f0>)
 80054b2:	eb03 0352 	add.w	r3, r3, r2, lsr #1
 80054b6:	fbb3 f3f2 	udiv	r3, r3, r2
 80054ba:	b29b      	uxth	r3, r3
 80054bc:	e796      	b.n	80053ec <UART_SetConfig+0x174>
 80054be:	6862      	ldr	r2, [r4, #4]
 80054c0:	0853      	lsrs	r3, r2, #1
 80054c2:	f503 3380 	add.w	r3, r3, #65536	; 0x10000
 80054c6:	fbb3 f3f2 	udiv	r3, r3, r2
 80054ca:	b29b      	uxth	r3, r3
 80054cc:	e78e      	b.n	80053ec <UART_SetConfig+0x174>
 80054ce:	6862      	ldr	r2, [r4, #4]
 80054d0:	4b26      	ldr	r3, [pc, #152]	; (800556c <UART_SetConfig+0x2f4>)
 80054d2:	eb03 0352 	add.w	r3, r3, r2, lsr #1
 80054d6:	fbb3 f3f2 	udiv	r3, r3, r2
 80054da:	b29b      	uxth	r3, r3
 80054dc:	e770      	b.n	80053c0 <UART_SetConfig+0x148>
 80054de:	f67f af62 	bls.w	80053a6 <UART_SetConfig+0x12e>
 80054e2:	f5b3 6f00 	cmp.w	r3, #2048	; 0x800
 80054e6:	d0df      	beq.n	80054a8 <UART_SetConfig+0x230>
 80054e8:	f5b3 6f40 	cmp.w	r3, #3072	; 0xc00
 80054ec:	d0ad      	beq.n	800544a <UART_SetConfig+0x1d2>
 80054ee:	e703      	b.n	80052f8 <UART_SetConfig+0x80>
 80054f0:	2bc0      	cmp	r3, #192	; 0xc0
 80054f2:	d0aa      	beq.n	800544a <UART_SetConfig+0x1d2>
 80054f4:	e700      	b.n	80052f8 <UART_SetConfig+0x80>
 80054f6:	4b19      	ldr	r3, [pc, #100]	; (800555c <UART_SetConfig+0x2e4>)
 80054f8:	f8d3 3090 	ldr.w	r3, [r3, #144]	; 0x90
 80054fc:	f403 5340 	and.w	r3, r3, #12288	; 0x3000
 8005500:	f5b3 5f80 	cmp.w	r3, #4096	; 0x1000
 8005504:	d0b4      	beq.n	8005470 <UART_SetConfig+0x1f8>
 8005506:	d984      	bls.n	8005412 <UART_SetConfig+0x19a>
 8005508:	f5b3 5f00 	cmp.w	r3, #8192	; 0x2000
 800550c:	d0cc      	beq.n	80054a8 <UART_SetConfig+0x230>
 800550e:	f5b3 5f40 	cmp.w	r3, #12288	; 0x3000
 8005512:	d09a      	beq.n	800544a <UART_SetConfig+0x1d2>
 8005514:	e6f0      	b.n	80052f8 <UART_SetConfig+0x80>
 8005516:	4b11      	ldr	r3, [pc, #68]	; (800555c <UART_SetConfig+0x2e4>)
 8005518:	f8d3 3090 	ldr.w	r3, [r3, #144]	; 0x90
 800551c:	f403 4340 	and.w	r3, r3, #49152	; 0xc000
 8005520:	f5b3 4f80 	cmp.w	r3, #16384	; 0x4000
 8005524:	d0a4      	beq.n	8005470 <UART_SetConfig+0x1f8>
 8005526:	f67f af74 	bls.w	8005412 <UART_SetConfig+0x19a>
 800552a:	f5b3 4f00 	cmp.w	r3, #32768	; 0x8000
 800552e:	d0bb      	beq.n	80054a8 <UART_SetConfig+0x230>
 8005530:	f5b3 4f40 	cmp.w	r3, #49152	; 0xc000
 8005534:	d089      	beq.n	800544a <UART_SetConfig+0x1d2>
 8005536:	e6df      	b.n	80052f8 <UART_SetConfig+0x80>
 8005538:	efff69f3 	.word	0xefff69f3
 800553c:	40011000 	.word	0x40011000
 8005540:	40004400 	.word	0x40004400
 8005544:	40004800 	.word	0x40004800
 8005548:	40004c00 	.word	0x40004c00
 800554c:	40005000 	.word	0x40005000
 8005550:	40011400 	.word	0x40011400
 8005554:	40007800 	.word	0x40007800
 8005558:	40007c00 	.word	0x40007c00
 800555c:	40023800 	.word	0x40023800
 8005560:	08009590 	.word	0x08009590
 8005564:	0800958c 	.word	0x0800958c
 8005568:	01e84800 	.word	0x01e84800
 800556c:	00f42400 	.word	0x00f42400

08005570 <UART_AdvFeatureConfig>:
 8005570:	6a43      	ldr	r3, [r0, #36]	; 0x24
 8005572:	07da      	lsls	r2, r3, #31
 8005574:	b410      	push	{r4}
 8005576:	d506      	bpl.n	8005586 <UART_AdvFeatureConfig+0x16>
 8005578:	6801      	ldr	r1, [r0, #0]
 800557a:	6a84      	ldr	r4, [r0, #40]	; 0x28
 800557c:	684a      	ldr	r2, [r1, #4]
 800557e:	f422 3200 	bic.w	r2, r2, #131072	; 0x20000
 8005582:	4322      	orrs	r2, r4
 8005584:	604a      	str	r2, [r1, #4]
 8005586:	079c      	lsls	r4, r3, #30
 8005588:	d506      	bpl.n	8005598 <UART_AdvFeatureConfig+0x28>
 800558a:	6801      	ldr	r1, [r0, #0]
 800558c:	6ac4      	ldr	r4, [r0, #44]	; 0x2c
 800558e:	684a      	ldr	r2, [r1, #4]
 8005590:	f422 3280 	bic.w	r2, r2, #65536	; 0x10000
 8005594:	4322      	orrs	r2, r4
 8005596:	604a      	str	r2, [r1, #4]
 8005598:	0759      	lsls	r1, r3, #29
 800559a:	d506      	bpl.n	80055aa <UART_AdvFeatureConfig+0x3a>
 800559c:	6801      	ldr	r1, [r0, #0]
 800559e:	6b04      	ldr	r4, [r0, #48]	; 0x30
 80055a0:	684a      	ldr	r2, [r1, #4]
 80055a2:	f422 2280 	bic.w	r2, r2, #262144	; 0x40000
 80055a6:	4322      	orrs	r2, r4
 80055a8:	604a      	str	r2, [r1, #4]
 80055aa:	071a      	lsls	r2, r3, #28
 80055ac:	d506      	bpl.n	80055bc <UART_AdvFeatureConfig+0x4c>
 80055ae:	6801      	ldr	r1, [r0, #0]
 80055b0:	6b44      	ldr	r4, [r0, #52]	; 0x34
 80055b2:	684a      	ldr	r2, [r1, #4]
 80055b4:	f422 4200 	bic.w	r2, r2, #32768	; 0x8000
 80055b8:	4322      	orrs	r2, r4
 80055ba:	604a      	str	r2, [r1, #4]
 80055bc:	06dc      	lsls	r4, r3, #27
 80055be:	d506      	bpl.n	80055ce <UART_AdvFeatureConfig+0x5e>
 80055c0:	6801      	ldr	r1, [r0, #0]
 80055c2:	6b84      	ldr	r4, [r0, #56]	; 0x38
 80055c4:	688a      	ldr	r2, [r1, #8]
 80055c6:	f422 5280 	bic.w	r2, r2, #4096	; 0x1000
 80055ca:	4322      	orrs	r2, r4
 80055cc:	608a      	str	r2, [r1, #8]
 80055ce:	0699      	lsls	r1, r3, #26
 80055d0:	d506      	bpl.n	80055e0 <UART_AdvFeatureConfig+0x70>
 80055d2:	6801      	ldr	r1, [r0, #0]
 80055d4:	6bc4      	ldr	r4, [r0, #60]	; 0x3c
 80055d6:	688a      	ldr	r2, [r1, #8]
 80055d8:	f422 5200 	bic.w	r2, r2, #8192	; 0x2000
 80055dc:	4322      	orrs	r2, r4
 80055de:	608a      	str	r2, [r1, #8]
 80055e0:	065a      	lsls	r2, r3, #25
 80055e2:	d50a      	bpl.n	80055fa <UART_AdvFeatureConfig+0x8a>
 80055e4:	6801      	ldr	r1, [r0, #0]
 80055e6:	6c04      	ldr	r4, [r0, #64]	; 0x40
 80055e8:	684a      	ldr	r2, [r1, #4]
 80055ea:	f5b4 1f80 	cmp.w	r4, #1048576	; 0x100000
 80055ee:	f422 1280 	bic.w	r2, r2, #1048576	; 0x100000
 80055f2:	ea42 0204 	orr.w	r2, r2, r4
 80055f6:	604a      	str	r2, [r1, #4]
 80055f8:	d00b      	beq.n	8005612 <UART_AdvFeatureConfig+0xa2>
 80055fa:	061b      	lsls	r3, r3, #24
 80055fc:	d506      	bpl.n	800560c <UART_AdvFeatureConfig+0x9c>
 80055fe:	6802      	ldr	r2, [r0, #0]
 8005600:	6c81      	ldr	r1, [r0, #72]	; 0x48
 8005602:	6853      	ldr	r3, [r2, #4]
 8005604:	f423 2300 	bic.w	r3, r3, #524288	; 0x80000
 8005608:	430b      	orrs	r3, r1
 800560a:	6053      	str	r3, [r2, #4]
 800560c:	f85d 4b04 	ldr.w	r4, [sp], #4
 8005610:	4770      	bx	lr
 8005612:	684a      	ldr	r2, [r1, #4]
 8005614:	6c44      	ldr	r4, [r0, #68]	; 0x44
 8005616:	f422 02c0 	bic.w	r2, r2, #6291456	; 0x600000
 800561a:	4322      	orrs	r2, r4
 800561c:	604a      	str	r2, [r1, #4]
 800561e:	e7ec      	b.n	80055fa <UART_AdvFeatureConfig+0x8a>

08005620 <UART_WaitOnFlagUntilTimeout>:
 8005620:	e92d 43f8 	stmdb	sp!, {r3, r4, r5, r6, r7, r8, r9, lr}
 8005624:	9d08      	ldr	r5, [sp, #32]
 8005626:	4680      	mov	r8, r0
 8005628:	460f      	mov	r7, r1
 800562a:	4616      	mov	r6, r2
 800562c:	4699      	mov	r9, r3
 800562e:	6804      	ldr	r4, [r0, #0]
 8005630:	e001      	b.n	8005636 <UART_WaitOnFlagUntilTimeout+0x16>
 8005632:	1c68      	adds	r0, r5, #1
 8005634:	d10a      	bne.n	800564c <UART_WaitOnFlagUntilTimeout+0x2c>
 8005636:	69e0      	ldr	r0, [r4, #28]
 8005638:	ea37 0300 	bics.w	r3, r7, r0
 800563c:	bf0c      	ite	eq
 800563e:	2001      	moveq	r0, #1
 8005640:	2000      	movne	r0, #0
 8005642:	42b0      	cmp	r0, r6
 8005644:	d0f5      	beq.n	8005632 <UART_WaitOnFlagUntilTimeout+0x12>
 8005646:	2000      	movs	r0, #0
 8005648:	e8bd 83f8 	ldmia.w	sp!, {r3, r4, r5, r6, r7, r8, r9, pc}
 800564c:	f7fd f988 	bl	8002960 <HAL_GetTick>
 8005650:	eba0 0009 	sub.w	r0, r0, r9
 8005654:	fab5 f285 	clz	r2, r5
 8005658:	42a8      	cmp	r0, r5
 800565a:	ea4f 1252 	mov.w	r2, r2, lsr #5
 800565e:	d81e      	bhi.n	800569e <UART_WaitOnFlagUntilTimeout+0x7e>
 8005660:	b9ea      	cbnz	r2, 800569e <UART_WaitOnFlagUntilTimeout+0x7e>
 8005662:	f8d8 4000 	ldr.w	r4, [r8]
 8005666:	6823      	ldr	r3, [r4, #0]
 8005668:	0759      	lsls	r1, r3, #29
 800566a:	d5e4      	bpl.n	8005636 <UART_WaitOnFlagUntilTimeout+0x16>
 800566c:	69e3      	ldr	r3, [r4, #28]
 800566e:	051b      	lsls	r3, r3, #20
 8005670:	d5e1      	bpl.n	8005636 <UART_WaitOnFlagUntilTimeout+0x16>
 8005672:	f44f 6100 	mov.w	r1, #2048	; 0x800
 8005676:	2320      	movs	r3, #32
 8005678:	2003      	movs	r0, #3
 800567a:	6221      	str	r1, [r4, #32]
 800567c:	6821      	ldr	r1, [r4, #0]
 800567e:	f421 71d0 	bic.w	r1, r1, #416	; 0x1a0
 8005682:	6021      	str	r1, [r4, #0]
 8005684:	68a1      	ldr	r1, [r4, #8]
 8005686:	f021 0101 	bic.w	r1, r1, #1
 800568a:	60a1      	str	r1, [r4, #8]
 800568c:	f8c8 3074 	str.w	r3, [r8, #116]	; 0x74
 8005690:	f888 2070 	strb.w	r2, [r8, #112]	; 0x70
 8005694:	f8c8 3078 	str.w	r3, [r8, #120]	; 0x78
 8005698:	f8c8 307c 	str.w	r3, [r8, #124]	; 0x7c
 800569c:	e7d4      	b.n	8005648 <UART_WaitOnFlagUntilTimeout+0x28>
 800569e:	f8d8 3000 	ldr.w	r3, [r8]
 80056a2:	2120      	movs	r1, #32
 80056a4:	2400      	movs	r4, #0
 80056a6:	2003      	movs	r0, #3
 80056a8:	681a      	ldr	r2, [r3, #0]
 80056aa:	f422 72d0 	bic.w	r2, r2, #416	; 0x1a0
 80056ae:	601a      	str	r2, [r3, #0]
 80056b0:	689a      	ldr	r2, [r3, #8]
 80056b2:	f022 0201 	bic.w	r2, r2, #1
 80056b6:	609a      	str	r2, [r3, #8]
 80056b8:	f8c8 1074 	str.w	r1, [r8, #116]	; 0x74
 80056bc:	f888 4070 	strb.w	r4, [r8, #112]	; 0x70
 80056c0:	f8c8 1078 	str.w	r1, [r8, #120]	; 0x78
 80056c4:	e7c0      	b.n	8005648 <UART_WaitOnFlagUntilTimeout+0x28>
 80056c6:	bf00      	nop

080056c8 <HAL_UART_Transmit>:
 80056c8:	e92d 41f0 	stmdb	sp!, {r4, r5, r6, r7, r8, lr}
 80056cc:	461f      	mov	r7, r3
 80056ce:	6f43      	ldr	r3, [r0, #116]	; 0x74
 80056d0:	b084      	sub	sp, #16
 80056d2:	2b20      	cmp	r3, #32
 80056d4:	d145      	bne.n	8005762 <HAL_UART_Transmit+0x9a>
 80056d6:	460d      	mov	r5, r1
 80056d8:	2900      	cmp	r1, #0
 80056da:	d046      	beq.n	800576a <HAL_UART_Transmit+0xa2>
 80056dc:	fab2 f682 	clz	r6, r2
 80056e0:	9203      	str	r2, [sp, #12]
 80056e2:	0976      	lsrs	r6, r6, #5
 80056e4:	2e00      	cmp	r6, #0
 80056e6:	d140      	bne.n	800576a <HAL_UART_Transmit+0xa2>
 80056e8:	f890 3070 	ldrb.w	r3, [r0, #112]	; 0x70
 80056ec:	4604      	mov	r4, r0
 80056ee:	2b01      	cmp	r3, #1
 80056f0:	d037      	beq.n	8005762 <HAL_UART_Transmit+0x9a>
 80056f2:	2321      	movs	r3, #33	; 0x21
 80056f4:	2101      	movs	r1, #1
 80056f6:	67c6      	str	r6, [r0, #124]	; 0x7c
 80056f8:	f880 1070 	strb.w	r1, [r0, #112]	; 0x70
 80056fc:	6743      	str	r3, [r0, #116]	; 0x74
 80056fe:	f7fd f92f 	bl	8002960 <HAL_GetTick>
 8005702:	68a3      	ldr	r3, [r4, #8]
 8005704:	9a03      	ldr	r2, [sp, #12]
 8005706:	4680      	mov	r8, r0
 8005708:	f5b3 5f80 	cmp.w	r3, #4096	; 0x1000
 800570c:	f8a4 2050 	strh.w	r2, [r4, #80]	; 0x50
 8005710:	f8a4 2052 	strh.w	r2, [r4, #82]	; 0x52
 8005714:	d03d      	beq.n	8005792 <HAL_UART_Transmit+0xca>
 8005716:	f8b4 3052 	ldrh.w	r3, [r4, #82]	; 0x52
 800571a:	2200      	movs	r2, #0
 800571c:	b29b      	uxth	r3, r3
 800571e:	f884 2070 	strb.w	r2, [r4, #112]	; 0x70
 8005722:	b96b      	cbnz	r3, 8005740 <HAL_UART_Transmit+0x78>
 8005724:	e029      	b.n	800577a <HAL_UART_Transmit+0xb2>
 8005726:	f815 2b01 	ldrb.w	r2, [r5], #1
 800572a:	629a      	str	r2, [r3, #40]	; 0x28
 800572c:	f8b4 3052 	ldrh.w	r3, [r4, #82]	; 0x52
 8005730:	3b01      	subs	r3, #1
 8005732:	b29b      	uxth	r3, r3
 8005734:	f8a4 3052 	strh.w	r3, [r4, #82]	; 0x52
 8005738:	f8b4 3052 	ldrh.w	r3, [r4, #82]	; 0x52
 800573c:	b29b      	uxth	r3, r3
 800573e:	b1e3      	cbz	r3, 800577a <HAL_UART_Transmit+0xb2>
 8005740:	9700      	str	r7, [sp, #0]
 8005742:	4643      	mov	r3, r8
 8005744:	2200      	movs	r2, #0
 8005746:	2180      	movs	r1, #128	; 0x80
 8005748:	4620      	mov	r0, r4
 800574a:	f7ff ff69 	bl	8005620 <UART_WaitOnFlagUntilTimeout>
 800574e:	b980      	cbnz	r0, 8005772 <HAL_UART_Transmit+0xaa>
 8005750:	6823      	ldr	r3, [r4, #0]
 8005752:	2d00      	cmp	r5, #0
 8005754:	d1e7      	bne.n	8005726 <HAL_UART_Transmit+0x5e>
 8005756:	f836 2b02 	ldrh.w	r2, [r6], #2
 800575a:	f3c2 0208 	ubfx	r2, r2, #0, #9
 800575e:	629a      	str	r2, [r3, #40]	; 0x28
 8005760:	e7e4      	b.n	800572c <HAL_UART_Transmit+0x64>
 8005762:	2002      	movs	r0, #2
 8005764:	b004      	add	sp, #16
 8005766:	e8bd 81f0 	ldmia.w	sp!, {r4, r5, r6, r7, r8, pc}
 800576a:	2001      	movs	r0, #1
 800576c:	b004      	add	sp, #16
 800576e:	e8bd 81f0 	ldmia.w	sp!, {r4, r5, r6, r7, r8, pc}
 8005772:	2003      	movs	r0, #3
 8005774:	b004      	add	sp, #16
 8005776:	e8bd 81f0 	ldmia.w	sp!, {r4, r5, r6, r7, r8, pc}
 800577a:	9700      	str	r7, [sp, #0]
 800577c:	4643      	mov	r3, r8
 800577e:	2200      	movs	r2, #0
 8005780:	2140      	movs	r1, #64	; 0x40
 8005782:	4620      	mov	r0, r4
 8005784:	f7ff ff4c 	bl	8005620 <UART_WaitOnFlagUntilTimeout>
 8005788:	2800      	cmp	r0, #0
 800578a:	d1f2      	bne.n	8005772 <HAL_UART_Transmit+0xaa>
 800578c:	2320      	movs	r3, #32
 800578e:	6763      	str	r3, [r4, #116]	; 0x74
 8005790:	e7e8      	b.n	8005764 <HAL_UART_Transmit+0x9c>
 8005792:	6923      	ldr	r3, [r4, #16]
 8005794:	2b00      	cmp	r3, #0
 8005796:	d1be      	bne.n	8005716 <HAL_UART_Transmit+0x4e>
 8005798:	462e      	mov	r6, r5
 800579a:	461d      	mov	r5, r3
 800579c:	e7bb      	b.n	8005716 <HAL_UART_Transmit+0x4e>
 800579e:	bf00      	nop

080057a0 <UART_CheckIdleState>:
 80057a0:	b570      	push	{r4, r5, r6, lr}
 80057a2:	2500      	movs	r5, #0
 80057a4:	4604      	mov	r4, r0
 80057a6:	b082      	sub	sp, #8
 80057a8:	67c5      	str	r5, [r0, #124]	; 0x7c
 80057aa:	f7fd f8d9 	bl	8002960 <HAL_GetTick>
 80057ae:	6823      	ldr	r3, [r4, #0]
 80057b0:	4606      	mov	r6, r0
 80057b2:	681a      	ldr	r2, [r3, #0]
 80057b4:	0712      	lsls	r2, r2, #28
 80057b6:	d40b      	bmi.n	80057d0 <UART_CheckIdleState+0x30>
 80057b8:	681b      	ldr	r3, [r3, #0]
 80057ba:	075b      	lsls	r3, r3, #29
 80057bc:	d417      	bmi.n	80057ee <UART_CheckIdleState+0x4e>
 80057be:	2300      	movs	r3, #0
 80057c0:	2220      	movs	r2, #32
 80057c2:	4618      	mov	r0, r3
 80057c4:	6762      	str	r2, [r4, #116]	; 0x74
 80057c6:	f884 3070 	strb.w	r3, [r4, #112]	; 0x70
 80057ca:	67a2      	str	r2, [r4, #120]	; 0x78
 80057cc:	b002      	add	sp, #8
 80057ce:	bd70      	pop	{r4, r5, r6, pc}
 80057d0:	f06f 407e 	mvn.w	r0, #4261412864	; 0xfe000000
 80057d4:	462a      	mov	r2, r5
 80057d6:	4633      	mov	r3, r6
 80057d8:	f44f 1100 	mov.w	r1, #2097152	; 0x200000
 80057dc:	9000      	str	r0, [sp, #0]
 80057de:	4620      	mov	r0, r4
 80057e0:	f7ff ff1e 	bl	8005620 <UART_WaitOnFlagUntilTimeout>
 80057e4:	b978      	cbnz	r0, 8005806 <UART_CheckIdleState+0x66>
 80057e6:	6823      	ldr	r3, [r4, #0]
 80057e8:	681b      	ldr	r3, [r3, #0]
 80057ea:	075b      	lsls	r3, r3, #29
 80057ec:	d5e7      	bpl.n	80057be <UART_CheckIdleState+0x1e>
 80057ee:	f06f 407e 	mvn.w	r0, #4261412864	; 0xfe000000
 80057f2:	4633      	mov	r3, r6
 80057f4:	2200      	movs	r2, #0
 80057f6:	f44f 0180 	mov.w	r1, #4194304	; 0x400000
 80057fa:	9000      	str	r0, [sp, #0]
 80057fc:	4620      	mov	r0, r4
 80057fe:	f7ff ff0f 	bl	8005620 <UART_WaitOnFlagUntilTimeout>
 8005802:	2800      	cmp	r0, #0
 8005804:	d0db      	beq.n	80057be <UART_CheckIdleState+0x1e>
 8005806:	2003      	movs	r0, #3
 8005808:	b002      	add	sp, #8
 800580a:	bd70      	pop	{r4, r5, r6, pc}

0800580c <HAL_UART_Init>:
 800580c:	b370      	cbz	r0, 800586c <HAL_UART_Init+0x60>
 800580e:	6f43      	ldr	r3, [r0, #116]	; 0x74
 8005810:	b510      	push	{r4, lr}
 8005812:	4604      	mov	r4, r0
 8005814:	b1fb      	cbz	r3, 8005856 <HAL_UART_Init+0x4a>
 8005816:	6822      	ldr	r2, [r4, #0]
 8005818:	2324      	movs	r3, #36	; 0x24
 800581a:	4620      	mov	r0, r4
 800581c:	6763      	str	r3, [r4, #116]	; 0x74
 800581e:	6813      	ldr	r3, [r2, #0]
 8005820:	f023 0301 	bic.w	r3, r3, #1
 8005824:	6013      	str	r3, [r2, #0]
 8005826:	f7ff fd27 	bl	8005278 <UART_SetConfig>
 800582a:	2801      	cmp	r0, #1
 800582c:	d018      	beq.n	8005860 <HAL_UART_Init+0x54>
 800582e:	6a63      	ldr	r3, [r4, #36]	; 0x24
 8005830:	b9c3      	cbnz	r3, 8005864 <HAL_UART_Init+0x58>
 8005832:	6823      	ldr	r3, [r4, #0]
 8005834:	4620      	mov	r0, r4
 8005836:	685a      	ldr	r2, [r3, #4]
 8005838:	f422 4290 	bic.w	r2, r2, #18432	; 0x4800
 800583c:	605a      	str	r2, [r3, #4]
 800583e:	689a      	ldr	r2, [r3, #8]
 8005840:	f022 022a 	bic.w	r2, r2, #42	; 0x2a
 8005844:	609a      	str	r2, [r3, #8]
 8005846:	681a      	ldr	r2, [r3, #0]
 8005848:	f042 0201 	orr.w	r2, r2, #1
 800584c:	e8bd 4010 	ldmia.w	sp!, {r4, lr}
 8005850:	601a      	str	r2, [r3, #0]
 8005852:	f7ff bfa5 	b.w	80057a0 <UART_CheckIdleState>
 8005856:	f880 3070 	strb.w	r3, [r0, #112]	; 0x70
 800585a:	f7ff fc41 	bl	80050e0 <HAL_UART_MspInit>
 800585e:	e7da      	b.n	8005816 <HAL_UART_Init+0xa>
 8005860:	2001      	movs	r0, #1
 8005862:	bd10      	pop	{r4, pc}
 8005864:	4620      	mov	r0, r4
 8005866:	f7ff fe83 	bl	8005570 <UART_AdvFeatureConfig>
 800586a:	e7e2      	b.n	8005832 <HAL_UART_Init+0x26>
 800586c:	2001      	movs	r0, #1
 800586e:	4770      	bx	lr

08005870 <SDMMC_GetCmdResp1>:
 8005870:	4b46      	ldr	r3, [pc, #280]	; (800598c <SDMMC_GetCmdResp1+0x11c>)
 8005872:	b410      	push	{r4}
 8005874:	681b      	ldr	r3, [r3, #0]
 8005876:	4c46      	ldr	r4, [pc, #280]	; (8005990 <SDMMC_GetCmdResp1+0x120>)
 8005878:	fba4 4303 	umull	r4, r3, r4, r3
 800587c:	0a5b      	lsrs	r3, r3, #9
 800587e:	fb02 f203 	mul.w	r2, r2, r3
 8005882:	b1a2      	cbz	r2, 80058ae <SDMMC_GetCmdResp1+0x3e>
 8005884:	6b43      	ldr	r3, [r0, #52]	; 0x34
 8005886:	3a01      	subs	r2, #1
 8005888:	f013 0f45 	tst.w	r3, #69	; 0x45
 800588c:	d0f9      	beq.n	8005882 <SDMMC_GetCmdResp1+0x12>
 800588e:	051c      	lsls	r4, r3, #20
 8005890:	d4f7      	bmi.n	8005882 <SDMMC_GetCmdResp1+0x12>
 8005892:	6b43      	ldr	r3, [r0, #52]	; 0x34
 8005894:	075b      	lsls	r3, r3, #29
 8005896:	d415      	bmi.n	80058c4 <SDMMC_GetCmdResp1+0x54>
 8005898:	6b43      	ldr	r3, [r0, #52]	; 0x34
 800589a:	07dc      	lsls	r4, r3, #31
 800589c:	d40c      	bmi.n	80058b8 <SDMMC_GetCmdResp1+0x48>
 800589e:	23c5      	movs	r3, #197	; 0xc5
 80058a0:	6383      	str	r3, [r0, #56]	; 0x38
 80058a2:	6903      	ldr	r3, [r0, #16]
 80058a4:	b2db      	uxtb	r3, r3
 80058a6:	4299      	cmp	r1, r3
 80058a8:	d010      	beq.n	80058cc <SDMMC_GetCmdResp1+0x5c>
 80058aa:	2001      	movs	r0, #1
 80058ac:	e001      	b.n	80058b2 <SDMMC_GetCmdResp1+0x42>
 80058ae:	f04f 4000 	mov.w	r0, #2147483648	; 0x80000000
 80058b2:	f85d 4b04 	ldr.w	r4, [sp], #4
 80058b6:	4770      	bx	lr
 80058b8:	2301      	movs	r3, #1
 80058ba:	f85d 4b04 	ldr.w	r4, [sp], #4
 80058be:	6383      	str	r3, [r0, #56]	; 0x38
 80058c0:	4618      	mov	r0, r3
 80058c2:	4770      	bx	lr
 80058c4:	2304      	movs	r3, #4
 80058c6:	6383      	str	r3, [r0, #56]	; 0x38
 80058c8:	4618      	mov	r0, r3
 80058ca:	e7f2      	b.n	80058b2 <SDMMC_GetCmdResp1+0x42>
 80058cc:	6943      	ldr	r3, [r0, #20]
 80058ce:	4831      	ldr	r0, [pc, #196]	; (8005994 <SDMMC_GetCmdResp1+0x124>)
 80058d0:	4018      	ands	r0, r3
 80058d2:	2800      	cmp	r0, #0
 80058d4:	d0ed      	beq.n	80058b2 <SDMMC_GetCmdResp1+0x42>
 80058d6:	2b00      	cmp	r3, #0
 80058d8:	db29      	blt.n	800592e <SDMMC_GetCmdResp1+0xbe>
 80058da:	005a      	lsls	r2, r3, #1
 80058dc:	d425      	bmi.n	800592a <SDMMC_GetCmdResp1+0xba>
 80058de:	009c      	lsls	r4, r3, #2
 80058e0:	d428      	bmi.n	8005934 <SDMMC_GetCmdResp1+0xc4>
 80058e2:	00d9      	lsls	r1, r3, #3
 80058e4:	d428      	bmi.n	8005938 <SDMMC_GetCmdResp1+0xc8>
 80058e6:	011a      	lsls	r2, r3, #4
 80058e8:	d42c      	bmi.n	8005944 <SDMMC_GetCmdResp1+0xd4>
 80058ea:	015c      	lsls	r4, r3, #5
 80058ec:	d427      	bmi.n	800593e <SDMMC_GetCmdResp1+0xce>
 80058ee:	01d9      	lsls	r1, r3, #7
 80058f0:	d431      	bmi.n	8005956 <SDMMC_GetCmdResp1+0xe6>
 80058f2:	021a      	lsls	r2, r3, #8
 80058f4:	d42c      	bmi.n	8005950 <SDMMC_GetCmdResp1+0xe0>
 80058f6:	025c      	lsls	r4, r3, #9
 80058f8:	d427      	bmi.n	800594a <SDMMC_GetCmdResp1+0xda>
 80058fa:	0299      	lsls	r1, r3, #10
 80058fc:	d437      	bmi.n	800596e <SDMMC_GetCmdResp1+0xfe>
 80058fe:	02da      	lsls	r2, r3, #11
 8005900:	d441      	bmi.n	8005986 <SDMMC_GetCmdResp1+0x116>
 8005902:	035c      	lsls	r4, r3, #13
 8005904:	d43c      	bmi.n	8005980 <SDMMC_GetCmdResp1+0x110>
 8005906:	0399      	lsls	r1, r3, #14
 8005908:	d437      	bmi.n	800597a <SDMMC_GetCmdResp1+0x10a>
 800590a:	03da      	lsls	r2, r3, #15
 800590c:	d432      	bmi.n	8005974 <SDMMC_GetCmdResp1+0x104>
 800590e:	041c      	lsls	r4, r3, #16
 8005910:	d427      	bmi.n	8005962 <SDMMC_GetCmdResp1+0xf2>
 8005912:	0459      	lsls	r1, r3, #17
 8005914:	d422      	bmi.n	800595c <SDMMC_GetCmdResp1+0xec>
 8005916:	049a      	lsls	r2, r3, #18
 8005918:	d426      	bmi.n	8005968 <SDMMC_GetCmdResp1+0xf8>
 800591a:	f013 0f08 	tst.w	r3, #8
 800591e:	bf0c      	ite	eq
 8005920:	f44f 3080 	moveq.w	r0, #65536	; 0x10000
 8005924:	f44f 0000 	movne.w	r0, #8388608	; 0x800000
 8005928:	e7c3      	b.n	80058b2 <SDMMC_GetCmdResp1+0x42>
 800592a:	2040      	movs	r0, #64	; 0x40
 800592c:	e7c1      	b.n	80058b2 <SDMMC_GetCmdResp1+0x42>
 800592e:	f04f 7000 	mov.w	r0, #33554432	; 0x2000000
 8005932:	e7be      	b.n	80058b2 <SDMMC_GetCmdResp1+0x42>
 8005934:	2080      	movs	r0, #128	; 0x80
 8005936:	e7bc      	b.n	80058b2 <SDMMC_GetCmdResp1+0x42>
 8005938:	f44f 7080 	mov.w	r0, #256	; 0x100
 800593c:	e7b9      	b.n	80058b2 <SDMMC_GetCmdResp1+0x42>
 800593e:	f44f 6080 	mov.w	r0, #1024	; 0x400
 8005942:	e7b6      	b.n	80058b2 <SDMMC_GetCmdResp1+0x42>
 8005944:	f44f 7000 	mov.w	r0, #512	; 0x200
 8005948:	e7b3      	b.n	80058b2 <SDMMC_GetCmdResp1+0x42>
 800594a:	f44f 5000 	mov.w	r0, #8192	; 0x2000
 800594e:	e7b0      	b.n	80058b2 <SDMMC_GetCmdResp1+0x42>
 8005950:	f44f 5080 	mov.w	r0, #4096	; 0x1000
 8005954:	e7ad      	b.n	80058b2 <SDMMC_GetCmdResp1+0x42>
 8005956:	f44f 6000 	mov.w	r0, #2048	; 0x800
 800595a:	e7aa      	b.n	80058b2 <SDMMC_GetCmdResp1+0x42>
 800595c:	f44f 1000 	mov.w	r0, #2097152	; 0x200000
 8005960:	e7a7      	b.n	80058b2 <SDMMC_GetCmdResp1+0x42>
 8005962:	f44f 1080 	mov.w	r0, #1048576	; 0x100000
 8005966:	e7a4      	b.n	80058b2 <SDMMC_GetCmdResp1+0x42>
 8005968:	f44f 0080 	mov.w	r0, #4194304	; 0x400000
 800596c:	e7a1      	b.n	80058b2 <SDMMC_GetCmdResp1+0x42>
 800596e:	f44f 4080 	mov.w	r0, #16384	; 0x4000
 8005972:	e79e      	b.n	80058b2 <SDMMC_GetCmdResp1+0x42>
 8005974:	f44f 2000 	mov.w	r0, #524288	; 0x80000
 8005978:	e79b      	b.n	80058b2 <SDMMC_GetCmdResp1+0x42>
 800597a:	f44f 2080 	mov.w	r0, #262144	; 0x40000
 800597e:	e798      	b.n	80058b2 <SDMMC_GetCmdResp1+0x42>
 8005980:	f44f 3000 	mov.w	r0, #131072	; 0x20000
 8005984:	e795      	b.n	80058b2 <SDMMC_GetCmdResp1+0x42>
 8005986:	f44f 4000 	mov.w	r0, #32768	; 0x8000
 800598a:	e792      	b.n	80058b2 <SDMMC_GetCmdResp1+0x42>
 800598c:	2000005c 	.word	0x2000005c
 8005990:	10624dd3 	.word	0x10624dd3
 8005994:	fdffe008 	.word	0xfdffe008

08005998 <SDMMC_ReadFIFO>:
 8005998:	f8d0 0080 	ldr.w	r0, [r0, #128]	; 0x80
 800599c:	4770      	bx	lr
 800599e:	bf00      	nop

080059a0 <SDMMC_WriteFIFO>:
 80059a0:	4603      	mov	r3, r0
 80059a2:	680a      	ldr	r2, [r1, #0]
 80059a4:	2000      	movs	r0, #0
 80059a6:	f8c3 2080 	str.w	r2, [r3, #128]	; 0x80
 80059aa:	4770      	bx	lr

080059ac <SDMMC_GetResponse>:
 80059ac:	3014      	adds	r0, #20
 80059ae:	5840      	ldr	r0, [r0, r1]
 80059b0:	4770      	bx	lr
 80059b2:	bf00      	nop

080059b4 <SDMMC_CmdStopTransfer>:
 80059b4:	2200      	movs	r2, #0
 80059b6:	210c      	movs	r1, #12
 80059b8:	b430      	push	{r4, r5}
 80059ba:	6082      	str	r2, [r0, #8]
 80059bc:	f240 444c 	movw	r4, #1100	; 0x44c
 80059c0:	68c2      	ldr	r2, [r0, #12]
 80059c2:	4d04      	ldr	r5, [pc, #16]	; (80059d4 <SDMMC_CmdStopTransfer+0x20>)
 80059c4:	4015      	ands	r5, r2
 80059c6:	4a04      	ldr	r2, [pc, #16]	; (80059d8 <SDMMC_CmdStopTransfer+0x24>)
 80059c8:	432c      	orrs	r4, r5
 80059ca:	60c4      	str	r4, [r0, #12]
 80059cc:	bc30      	pop	{r4, r5}
 80059ce:	f7ff bf4f 	b.w	8005870 <SDMMC_GetCmdResp1>
 80059d2:	bf00      	nop
 80059d4:	fffff000 	.word	0xfffff000
 80059d8:	05f5e100 	.word	0x05f5e100

080059dc <SDMMC_CmdSendStatus>:
 80059dc:	b470      	push	{r4, r5, r6}
 80059de:	6081      	str	r1, [r0, #8]
 80059e0:	f240 444d 	movw	r4, #1101	; 0x44d
 80059e4:	68c6      	ldr	r6, [r0, #12]
 80059e6:	f241 3288 	movw	r2, #5000	; 0x1388
 80059ea:	4d04      	ldr	r5, [pc, #16]	; (80059fc <SDMMC_CmdSendStatus+0x20>)
 80059ec:	210d      	movs	r1, #13
 80059ee:	4035      	ands	r5, r6
 80059f0:	432c      	orrs	r4, r5
 80059f2:	60c4      	str	r4, [r0, #12]
 80059f4:	bc70      	pop	{r4, r5, r6}
 80059f6:	f7ff bf3b 	b.w	8005870 <SDMMC_GetCmdResp1>
 80059fa:	bf00      	nop
 80059fc:	fffff000 	.word	0xfffff000

08005a00 <main>:
 8005a00:	e92d 41f0 	stmdb	sp!, {r4, r5, r6, r7, r8, lr}
 8005a04:	b086      	sub	sp, #24
 8005a06:	f000 f98b 	bl	8005d20 <pv_board_init>
 8005a0a:	b100      	cbz	r0, 8005a0e <main+0xe>
 8005a0c:	e7fe      	b.n	8005a0c <main+0xc>
 8005a0e:	f000 f935 	bl	8005c7c <pv_message_init>
 8005a12:	4604      	mov	r4, r0
 8005a14:	b100      	cbz	r0, 8005a18 <main+0x18>
 8005a16:	e7fe      	b.n	8005a16 <main+0x16>
 8005a18:	f000 f97c 	bl	8005d14 <pv_get_uuid>
 8005a1c:	4605      	mov	r5, r0
 8005a1e:	4836      	ldr	r0, [pc, #216]	; (8005af8 <main+0xf8>)
 8005a20:	3d01      	subs	r5, #1
 8005a22:	f003 f99f 	bl	8008d64 <iprintf>
 8005a26:	4e35      	ldr	r6, [pc, #212]	; (8005afc <main+0xfc>)
 8005a28:	e003      	b.n	8005a32 <main+0x32>
 8005a2a:	f815 1f01 	ldrb.w	r1, [r5, #1]!
 8005a2e:	f003 f999 	bl	8008d64 <iprintf>
 8005a32:	f000 f973 	bl	8005d1c <pv_get_uuid_size>
 8005a36:	42a0      	cmp	r0, r4
 8005a38:	f104 0401 	add.w	r4, r4, #1
 8005a3c:	4630      	mov	r0, r6
 8005a3e:	d8f4      	bhi.n	8005a2a <main+0x2a>
 8005a40:	482f      	ldr	r0, [pc, #188]	; (8005b00 <main+0x100>)
 8005a42:	f003 fa03 	bl	8008e4c <puts>
 8005a46:	f000 f871 	bl	8005b2c <pv_audio_rec_init>
 8005a4a:	b130      	cbz	r0, 8005a5a <main+0x5a>
 8005a4c:	f000 fb04 	bl	8006058 <pv_status_to_string>
 8005a50:	4601      	mov	r1, r0
 8005a52:	482c      	ldr	r0, [pc, #176]	; (8005b04 <main+0x104>)
 8005a54:	f003 f986 	bl	8008d64 <iprintf>
 8005a58:	e7fe      	b.n	8005a58 <main+0x58>
 8005a5a:	f000 f889 	bl	8005b70 <pv_audio_rec_start>
 8005a5e:	b130      	cbz	r0, 8005a6e <main+0x6e>
 8005a60:	f000 fafa 	bl	8006058 <pv_status_to_string>
 8005a64:	4601      	mov	r1, r0
 8005a66:	4828      	ldr	r0, [pc, #160]	; (8005b08 <main+0x108>)
 8005a68:	f003 f97c 	bl	8008d64 <iprintf>
 8005a6c:	e7fe      	b.n	8005a6c <main+0x6c>
 8005a6e:	ab06      	add	r3, sp, #24
 8005a70:	4c26      	ldr	r4, [pc, #152]	; (8005b0c <main+0x10c>)
 8005a72:	4927      	ldr	r1, [pc, #156]	; (8005b10 <main+0x110>)
 8005a74:	2202      	movs	r2, #2
 8005a76:	f843 0d08 	str.w	r0, [r3, #-8]!
 8005a7a:	f44f 4048 	mov.w	r0, #51200	; 0xc800
 8005a7e:	9100      	str	r1, [sp, #0]
 8005a80:	4924      	ldr	r1, [pc, #144]	; (8005b14 <main+0x114>)
 8005a82:	e9cd 4301 	strd	r4, r3, [sp, #4]
 8005a86:	4b24      	ldr	r3, [pc, #144]	; (8005b18 <main+0x118>)
 8005a88:	f000 fb32 	bl	80060f0 <pv_porcupine_init>
 8005a8c:	4604      	mov	r4, r0
 8005a8e:	b9d8      	cbnz	r0, 8005ac8 <main+0xc8>
 8005a90:	4f22      	ldr	r7, [pc, #136]	; (8005b1c <main+0x11c>)
 8005a92:	4e23      	ldr	r6, [pc, #140]	; (8005b20 <main+0x120>)
 8005a94:	f000 f880 	bl	8005b98 <pv_audio_rec_get_new_buffer>
 8005a98:	4601      	mov	r1, r0
 8005a9a:	2800      	cmp	r0, #0
 8005a9c:	d0fa      	beq.n	8005a94 <main+0x94>
 8005a9e:	aa05      	add	r2, sp, #20
 8005aa0:	9804      	ldr	r0, [sp, #16]
 8005aa2:	f000 fd29 	bl	80064f8 <pv_porcupine_process>
 8005aa6:	1c63      	adds	r3, r4, #1
 8005aa8:	4680      	mov	r8, r0
 8005aaa:	b9a0      	cbnz	r0, 8005ad6 <main+0xd6>
 8005aac:	9d05      	ldr	r5, [sp, #20]
 8005aae:	1c6a      	adds	r2, r5, #1
 8005ab0:	d018      	beq.n	8005ae4 <main+0xe4>
 8005ab2:	f857 1025 	ldr.w	r1, [r7, r5, lsl #2]
 8005ab6:	4630      	mov	r0, r6
 8005ab8:	f003 f954 	bl	8008d64 <iprintf>
 8005abc:	b2e8      	uxtb	r0, r5
 8005abe:	f7fb fe25 	bl	800170c <BSP_LED_On>
 8005ac2:	2301      	movs	r3, #1
 8005ac4:	461c      	mov	r4, r3
 8005ac6:	e7e5      	b.n	8005a94 <main+0x94>
 8005ac8:	f000 fac6 	bl	8006058 <pv_status_to_string>
 8005acc:	4601      	mov	r1, r0
 8005ace:	4815      	ldr	r0, [pc, #84]	; (8005b24 <main+0x124>)
 8005ad0:	f003 f948 	bl	8008d64 <iprintf>
 8005ad4:	e7fe      	b.n	8005ad4 <main+0xd4>
 8005ad6:	f000 fabf 	bl	8006058 <pv_status_to_string>
 8005ada:	4601      	mov	r1, r0
 8005adc:	4812      	ldr	r0, [pc, #72]	; (8005b28 <main+0x128>)
 8005ade:	f003 f941 	bl	8008d64 <iprintf>
 8005ae2:	e7fe      	b.n	8005ae2 <main+0xe2>
 8005ae4:	2c14      	cmp	r4, #20
 8005ae6:	d9ed      	bls.n	8005ac4 <main+0xc4>
 8005ae8:	f7fb fe1e 	bl	8001728 <BSP_LED_Off>
 8005aec:	2001      	movs	r0, #1
 8005aee:	f7fb fe1b 	bl	8001728 <BSP_LED_Off>
 8005af2:	4643      	mov	r3, r8
 8005af4:	e7e6      	b.n	8005ac4 <main+0xc4>
 8005af6:	bf00      	nop
 8005af8:	0800a030 	.word	0x0800a030
 8005afc:	0800a038 	.word	0x0800a038
 8005b00:	0800a040 	.word	0x0800a040
 8005b04:	0800a044 	.word	0x0800a044
 8005b08:	0800a060 	.word	0x0800a060
 8005b0c:	0800a028 	.word	0x0800a028
 8005b10:	2000004c 	.word	0x2000004c
 8005b14:	200002a0 	.word	0x200002a0
 8005b18:	08009c74 	.word	0x08009c74
 8005b1c:	08009c6c 	.word	0x08009c6c
 8005b20:	0800a0c8 	.word	0x0800a0c8
 8005b24:	0800a084 	.word	0x0800a084
 8005b28:	0800a0a4 	.word	0x0800a0a4

08005b2c <pv_audio_rec_init>:
 8005b2c:	b570      	push	{r4, r5, r6, lr}
 8005b2e:	4b0d      	ldr	r3, [pc, #52]	; (8005b64 <pv_audio_rec_init+0x38>)
 8005b30:	2102      	movs	r1, #2
 8005b32:	f44f 547a 	mov.w	r4, #16000	; 0x3e80
 8005b36:	f44f 7600 	mov.w	r6, #512	; 0x200
 8005b3a:	4d0b      	ldr	r5, [pc, #44]	; (8005b68 <pv_audio_rec_init+0x3c>)
 8005b3c:	460a      	mov	r2, r1
 8005b3e:	6019      	str	r1, [r3, #0]
 8005b40:	4620      	mov	r0, r4
 8005b42:	2110      	movs	r1, #16
 8005b44:	609e      	str	r6, [r3, #8]
 8005b46:	60dd      	str	r5, [r3, #12]
 8005b48:	605c      	str	r4, [r3, #4]
 8005b4a:	f7fc fead 	bl	80028a8 <BSP_AUDIO_IN_Init>
 8005b4e:	b930      	cbnz	r0, 8005b5e <pv_audio_rec_init+0x32>
 8005b50:	4604      	mov	r4, r0
 8005b52:	2180      	movs	r1, #128	; 0x80
 8005b54:	4805      	ldr	r0, [pc, #20]	; (8005b6c <pv_audio_rec_init+0x40>)
 8005b56:	f7fb fef3 	bl	8001940 <BSP_AUDIO_IN_AllocScratch>
 8005b5a:	4620      	mov	r0, r4
 8005b5c:	bd70      	pop	{r4, r5, r6, pc}
 8005b5e:	2006      	movs	r0, #6
 8005b60:	bd70      	pop	{r4, r5, r6, pc}
 8005b62:	bf00      	nop
 8005b64:	2000de5c 	.word	0x2000de5c
 8005b68:	2000d2c0 	.word	0x2000d2c0
 8005b6c:	2000d6c0 	.word	0x2000d6c0

08005b70 <pv_audio_rec_start>:
 8005b70:	b508      	push	{r3, lr}
 8005b72:	f7ff ffdb 	bl	8005b2c <pv_audio_rec_init>
 8005b76:	f44f 7100 	mov.w	r1, #512	; 0x200
 8005b7a:	4805      	ldr	r0, [pc, #20]	; (8005b90 <pv_audio_rec_start+0x20>)
 8005b7c:	f7fb fefc 	bl	8001978 <BSP_AUDIO_IN_Record>
 8005b80:	b918      	cbnz	r0, 8005b8a <pv_audio_rec_start+0x1a>
 8005b82:	4b04      	ldr	r3, [pc, #16]	; (8005b94 <pv_audio_rec_start+0x24>)
 8005b84:	2201      	movs	r2, #1
 8005b86:	741a      	strb	r2, [r3, #16]
 8005b88:	bd08      	pop	{r3, pc}
 8005b8a:	2006      	movs	r0, #6
 8005b8c:	bd08      	pop	{r3, pc}
 8005b8e:	bf00      	nop
 8005b90:	2000d2c0 	.word	0x2000d2c0
 8005b94:	2000de5c 	.word	0x2000de5c

08005b98 <pv_audio_rec_get_new_buffer>:
 8005b98:	4b07      	ldr	r3, [pc, #28]	; (8005bb8 <pv_audio_rec_get_new_buffer+0x20>)
 8005b9a:	6818      	ldr	r0, [r3, #0]
 8005b9c:	1c43      	adds	r3, r0, #1
 8005b9e:	d008      	beq.n	8005bb2 <pv_audio_rec_get_new_buffer+0x1a>
 8005ba0:	4a06      	ldr	r2, [pc, #24]	; (8005bbc <pv_audio_rec_get_new_buffer+0x24>)
 8005ba2:	6813      	ldr	r3, [r2, #0]
 8005ba4:	4298      	cmp	r0, r3
 8005ba6:	d004      	beq.n	8005bb2 <pv_audio_rec_get_new_buffer+0x1a>
 8005ba8:	4b05      	ldr	r3, [pc, #20]	; (8005bc0 <pv_audio_rec_get_new_buffer+0x28>)
 8005baa:	6010      	str	r0, [r2, #0]
 8005bac:	eb03 2080 	add.w	r0, r3, r0, lsl #10
 8005bb0:	4770      	bx	lr
 8005bb2:	2000      	movs	r0, #0
 8005bb4:	4770      	bx	lr
 8005bb6:	bf00      	nop
 8005bb8:	20000058 	.word	0x20000058
 8005bbc:	20000054 	.word	0x20000054
 8005bc0:	2000cac0 	.word	0x2000cac0

08005bc4 <BSP_AUDIO_IN_TransferComplete_CallBack>:
 8005bc4:	b4f0      	push	{r4, r5, r6, r7}
 8005bc6:	4f11      	ldr	r7, [pc, #68]	; (8005c0c <BSP_AUDIO_IN_TransferComplete_CallBack+0x48>)
 8005bc8:	4d11      	ldr	r5, [pc, #68]	; (8005c10 <BSP_AUDIO_IN_TransferComplete_CallBack+0x4c>)
 8005bca:	683e      	ldr	r6, [r7, #0]
 8005bcc:	682c      	ldr	r4, [r5, #0]
 8005bce:	4a11      	ldr	r2, [pc, #68]	; (8005c14 <BSP_AUDIO_IN_TransferComplete_CallBack+0x50>)
 8005bd0:	eb04 2146 	add.w	r1, r4, r6, lsl #9
 8005bd4:	4b10      	ldr	r3, [pc, #64]	; (8005c18 <BSP_AUDIO_IN_TransferComplete_CallBack+0x54>)
 8005bd6:	eb02 0241 	add.w	r2, r2, r1, lsl #1
 8005bda:	f503 7000 	add.w	r0, r3, #512	; 0x200
 8005bde:	3a02      	subs	r2, #2
 8005be0:	f8b3 1200 	ldrh.w	r1, [r3, #512]	; 0x200
 8005be4:	3304      	adds	r3, #4
 8005be6:	4283      	cmp	r3, r0
 8005be8:	f822 1f02 	strh.w	r1, [r2, #2]!
 8005bec:	d1f8      	bne.n	8005be0 <BSP_AUDIO_IN_TransferComplete_CallBack+0x1c>
 8005bee:	3480      	adds	r4, #128	; 0x80
 8005bf0:	f5b4 7f00 	cmp.w	r4, #512	; 0x200
 8005bf4:	602c      	str	r4, [r5, #0]
 8005bf6:	db06      	blt.n	8005c06 <BSP_AUDIO_IN_TransferComplete_CallBack+0x42>
 8005bf8:	4908      	ldr	r1, [pc, #32]	; (8005c1c <BSP_AUDIO_IN_TransferComplete_CallBack+0x58>)
 8005bfa:	f1c6 0201 	rsb	r2, r6, #1
 8005bfe:	2300      	movs	r3, #0
 8005c00:	600e      	str	r6, [r1, #0]
 8005c02:	603a      	str	r2, [r7, #0]
 8005c04:	602b      	str	r3, [r5, #0]
 8005c06:	bcf0      	pop	{r4, r5, r6, r7}
 8005c08:	4770      	bx	lr
 8005c0a:	bf00      	nop
 8005c0c:	2000d8c0 	.word	0x2000d8c0
 8005c10:	2000caa8 	.word	0x2000caa8
 8005c14:	2000cac0 	.word	0x2000cac0
 8005c18:	2000d2c0 	.word	0x2000d2c0
 8005c1c:	20000058 	.word	0x20000058

08005c20 <BSP_AUDIO_IN_HalfTransfer_CallBack>:
 8005c20:	b4f0      	push	{r4, r5, r6, r7}
 8005c22:	4f10      	ldr	r7, [pc, #64]	; (8005c64 <BSP_AUDIO_IN_HalfTransfer_CallBack+0x44>)
 8005c24:	2300      	movs	r3, #0
 8005c26:	4d10      	ldr	r5, [pc, #64]	; (8005c68 <BSP_AUDIO_IN_HalfTransfer_CallBack+0x48>)
 8005c28:	683e      	ldr	r6, [r7, #0]
 8005c2a:	682c      	ldr	r4, [r5, #0]
 8005c2c:	4a0f      	ldr	r2, [pc, #60]	; (8005c6c <BSP_AUDIO_IN_HalfTransfer_CallBack+0x4c>)
 8005c2e:	eb04 2146 	add.w	r1, r4, r6, lsl #9
 8005c32:	480f      	ldr	r0, [pc, #60]	; (8005c70 <BSP_AUDIO_IN_HalfTransfer_CallBack+0x50>)
 8005c34:	eb02 0241 	add.w	r2, r2, r1, lsl #1
 8005c38:	3a02      	subs	r2, #2
 8005c3a:	f830 1023 	ldrh.w	r1, [r0, r3, lsl #2]
 8005c3e:	3301      	adds	r3, #1
 8005c40:	2b80      	cmp	r3, #128	; 0x80
 8005c42:	f822 1f02 	strh.w	r1, [r2, #2]!
 8005c46:	d1f8      	bne.n	8005c3a <BSP_AUDIO_IN_HalfTransfer_CallBack+0x1a>
 8005c48:	3480      	adds	r4, #128	; 0x80
 8005c4a:	f5b4 7f00 	cmp.w	r4, #512	; 0x200
 8005c4e:	602c      	str	r4, [r5, #0]
 8005c50:	db06      	blt.n	8005c60 <BSP_AUDIO_IN_HalfTransfer_CallBack+0x40>
 8005c52:	4908      	ldr	r1, [pc, #32]	; (8005c74 <BSP_AUDIO_IN_HalfTransfer_CallBack+0x54>)
 8005c54:	f1c6 0201 	rsb	r2, r6, #1
 8005c58:	2300      	movs	r3, #0
 8005c5a:	600e      	str	r6, [r1, #0]
 8005c5c:	603a      	str	r2, [r7, #0]
 8005c5e:	602b      	str	r3, [r5, #0]
 8005c60:	bcf0      	pop	{r4, r5, r6, r7}
 8005c62:	4770      	bx	lr
 8005c64:	2000d8c0 	.word	0x2000d8c0
 8005c68:	2000caa8 	.word	0x2000caa8
 8005c6c:	2000cac0 	.word	0x2000cac0
 8005c70:	2000d2c0 	.word	0x2000d2c0
 8005c74:	20000058 	.word	0x20000058

08005c78 <BSP_AUDIO_IN_Error_CallBack>:
 8005c78:	e7fe      	b.n	8005c78 <BSP_AUDIO_IN_Error_CallBack>
 8005c7a:	bf00      	nop

08005c7c <pv_message_init>:
 8005c7c:	b570      	push	{r4, r5, r6, lr}
 8005c7e:	4b21      	ldr	r3, [pc, #132]	; (8005d04 <pv_message_init+0x88>)
 8005c80:	b088      	sub	sp, #32
 8005c82:	2400      	movs	r4, #0
 8005c84:	f44f 60c0 	mov.w	r0, #1536	; 0x600
 8005c88:	2507      	movs	r5, #7
 8005c8a:	2602      	movs	r6, #2
 8005c8c:	9406      	str	r4, [sp, #24]
 8005c8e:	a903      	add	r1, sp, #12
 8005c90:	9405      	str	r4, [sp, #20]
 8005c92:	6c5a      	ldr	r2, [r3, #68]	; 0x44
 8005c94:	f042 0210 	orr.w	r2, r2, #16
 8005c98:	645a      	str	r2, [r3, #68]	; 0x44
 8005c9a:	6c5a      	ldr	r2, [r3, #68]	; 0x44
 8005c9c:	f002 0210 	and.w	r2, r2, #16
 8005ca0:	9201      	str	r2, [sp, #4]
 8005ca2:	9a01      	ldr	r2, [sp, #4]
 8005ca4:	6b1a      	ldr	r2, [r3, #48]	; 0x30
 8005ca6:	f042 0201 	orr.w	r2, r2, #1
 8005caa:	631a      	str	r2, [r3, #48]	; 0x30
 8005cac:	6b1b      	ldr	r3, [r3, #48]	; 0x30
 8005cae:	9003      	str	r0, [sp, #12]
 8005cb0:	f003 0301 	and.w	r3, r3, #1
 8005cb4:	4814      	ldr	r0, [pc, #80]	; (8005d08 <pv_message_init+0x8c>)
 8005cb6:	9507      	str	r5, [sp, #28]
 8005cb8:	9302      	str	r3, [sp, #8]
 8005cba:	9b02      	ldr	r3, [sp, #8]
 8005cbc:	9604      	str	r6, [sp, #16]
 8005cbe:	f7fd fab9 	bl	8003234 <HAL_GPIO_Init>
 8005cc2:	4b12      	ldr	r3, [pc, #72]	; (8005d0c <pv_message_init+0x90>)
 8005cc4:	f44f 31e1 	mov.w	r1, #115200	; 0x1c200
 8005cc8:	4d11      	ldr	r5, [pc, #68]	; (8005d10 <pv_message_init+0x94>)
 8005cca:	220c      	movs	r2, #12
 8005ccc:	4618      	mov	r0, r3
 8005cce:	611c      	str	r4, [r3, #16]
 8005cd0:	615a      	str	r2, [r3, #20]
 8005cd2:	e9c3 4402 	strd	r4, r4, [r3, #8]
 8005cd6:	e9c3 4406 	strd	r4, r4, [r3, #24]
 8005cda:	e9c3 5100 	strd	r5, r1, [r3]
 8005cde:	f7ff fd95 	bl	800580c <HAL_UART_Init>
 8005ce2:	b958      	cbnz	r0, 8005cfc <pv_message_init+0x80>
 8005ce4:	4602      	mov	r2, r0
 8005ce6:	4601      	mov	r1, r0
 8005ce8:	4604      	mov	r4, r0
 8005cea:	2025      	movs	r0, #37	; 0x25
 8005cec:	f7fc fe64 	bl	80029b8 <HAL_NVIC_SetPriority>
 8005cf0:	2025      	movs	r0, #37	; 0x25
 8005cf2:	f7fc fe97 	bl	8002a24 <HAL_NVIC_EnableIRQ>
 8005cf6:	4620      	mov	r0, r4
 8005cf8:	b008      	add	sp, #32
 8005cfa:	bd70      	pop	{r4, r5, r6, pc}
 8005cfc:	2006      	movs	r0, #6
 8005cfe:	b008      	add	sp, #32
 8005d00:	bd70      	pop	{r4, r5, r6, pc}
 8005d02:	bf00      	nop
 8005d04:	40023800 	.word	0x40023800
 8005d08:	40020000 	.word	0x40020000
 8005d0c:	2000de70 	.word	0x2000de70
 8005d10:	40011000 	.word	0x40011000

08005d14 <pv_get_uuid>:
 8005d14:	4800      	ldr	r0, [pc, #0]	; (8005d18 <pv_get_uuid+0x4>)
 8005d16:	4770      	bx	lr
 8005d18:	2000d8c4 	.word	0x2000d8c4

08005d1c <pv_get_uuid_size>:
 8005d1c:	200c      	movs	r0, #12
 8005d1e:	4770      	bx	lr

08005d20 <pv_board_init>:
 8005d20:	b5f0      	push	{r4, r5, r6, r7, lr}
 8005d22:	b093      	sub	sp, #76	; 0x4c
 8005d24:	f3bf 8f4f 	dsb	sy
 8005d28:	f3bf 8f6f 	isb	sy
 8005d2c:	483c      	ldr	r0, [pc, #240]	; (8005e20 <pv_board_init+0x100>)
 8005d2e:	2200      	movs	r2, #0
 8005d30:	f8c0 2250 	str.w	r2, [r0, #592]	; 0x250
 8005d34:	f3bf 8f4f 	dsb	sy
 8005d38:	f3bf 8f6f 	isb	sy
 8005d3c:	6943      	ldr	r3, [r0, #20]
 8005d3e:	f443 3300 	orr.w	r3, r3, #131072	; 0x20000
 8005d42:	6143      	str	r3, [r0, #20]
 8005d44:	f3bf 8f4f 	dsb	sy
 8005d48:	f3bf 8f6f 	isb	sy
 8005d4c:	f8c0 2084 	str.w	r2, [r0, #132]	; 0x84
 8005d50:	f3bf 8f4f 	dsb	sy
 8005d54:	f8d0 5080 	ldr.w	r5, [r0, #128]	; 0x80
 8005d58:	f643 7ce0 	movw	ip, #16352	; 0x3fe0
 8005d5c:	f3c5 06c9 	ubfx	r6, r5, #3, #10
 8005d60:	f3c5 354e 	ubfx	r5, r5, #13, #15
 8005d64:	07b7      	lsls	r7, r6, #30
 8005d66:	016d      	lsls	r5, r5, #5
 8005d68:	ea05 040c 	and.w	r4, r5, ip
 8005d6c:	4639      	mov	r1, r7
 8005d6e:	4632      	mov	r2, r6
 8005d70:	ea44 0301 	orr.w	r3, r4, r1
 8005d74:	3a01      	subs	r2, #1
 8005d76:	f101 4140 	add.w	r1, r1, #3221225472	; 0xc0000000
 8005d7a:	f8c0 3260 	str.w	r3, [r0, #608]	; 0x260
 8005d7e:	1c53      	adds	r3, r2, #1
 8005d80:	d1f6      	bne.n	8005d70 <pv_board_init+0x50>
 8005d82:	3d20      	subs	r5, #32
 8005d84:	f115 0f20 	cmn.w	r5, #32
 8005d88:	d1ee      	bne.n	8005d68 <pv_board_init+0x48>
 8005d8a:	f3bf 8f4f 	dsb	sy
 8005d8e:	6943      	ldr	r3, [r0, #20]
 8005d90:	f443 3380 	orr.w	r3, r3, #65536	; 0x10000
 8005d94:	6143      	str	r3, [r0, #20]
 8005d96:	f3bf 8f4f 	dsb	sy
 8005d9a:	f3bf 8f6f 	isb	sy
 8005d9e:	f7fc fdc1 	bl	8002924 <HAL_Init>
 8005da2:	2800      	cmp	r0, #0
 8005da4:	d137      	bne.n	8005e16 <pv_board_init+0xf6>
 8005da6:	f44f 3380 	mov.w	r3, #65536	; 0x10000
 8005daa:	f44f 0080 	mov.w	r0, #4194304	; 0x400000
 8005dae:	2402      	movs	r4, #2
 8005db0:	2501      	movs	r5, #1
 8005db2:	2619      	movs	r6, #25
 8005db4:	f44f 71c8 	mov.w	r1, #400	; 0x190
 8005db8:	2208      	movs	r2, #8
 8005dba:	9306      	str	r3, [sp, #24]
 8005dbc:	2307      	movs	r3, #7
 8005dbe:	900c      	str	r0, [sp, #48]	; 0x30
 8005dc0:	a805      	add	r0, sp, #20
 8005dc2:	9505      	str	r5, [sp, #20]
 8005dc4:	940b      	str	r4, [sp, #44]	; 0x2c
 8005dc6:	940f      	str	r4, [sp, #60]	; 0x3c
 8005dc8:	e9cd 610d 	strd	r6, r1, [sp, #52]	; 0x34
 8005dcc:	e9cd 2310 	strd	r2, r3, [sp, #64]	; 0x40
 8005dd0:	f7fd feec 	bl	8003bac <HAL_RCC_OscConfig>
 8005dd4:	b9f8      	cbnz	r0, 8005e16 <pv_board_init+0xf6>
 8005dd6:	f7fd fead 	bl	8003b34 <HAL_PWREx_EnableOverDrive>
 8005dda:	b9e0      	cbnz	r0, 8005e16 <pv_board_init+0xf6>
 8005ddc:	f44f 52a0 	mov.w	r2, #5120	; 0x1400
 8005de0:	f44f 5380 	mov.w	r3, #4096	; 0x1000
 8005de4:	260f      	movs	r6, #15
 8005de6:	9002      	str	r0, [sp, #8]
 8005de8:	2106      	movs	r1, #6
 8005dea:	4668      	mov	r0, sp
 8005dec:	9401      	str	r4, [sp, #4]
 8005dee:	9600      	str	r6, [sp, #0]
 8005df0:	e9cd 2303 	strd	r2, r3, [sp, #12]
 8005df4:	f7fe f910 	bl	8004018 <HAL_RCC_ClockConfig>
 8005df8:	4604      	mov	r4, r0
 8005dfa:	b960      	cbnz	r0, 8005e16 <pv_board_init+0xf6>
 8005dfc:	f7fb fc62 	bl	80016c4 <BSP_LED_Init>
 8005e00:	4628      	mov	r0, r5
 8005e02:	f7fb fc5f 	bl	80016c4 <BSP_LED_Init>
 8005e06:	4a07      	ldr	r2, [pc, #28]	; (8005e24 <pv_board_init+0x104>)
 8005e08:	4d07      	ldr	r5, [pc, #28]	; (8005e28 <pv_board_init+0x108>)
 8005e0a:	ca07      	ldmia	r2, {r0, r1, r2}
 8005e0c:	e885 0007 	stmia.w	r5, {r0, r1, r2}
 8005e10:	4620      	mov	r0, r4
 8005e12:	b013      	add	sp, #76	; 0x4c
 8005e14:	bdf0      	pop	{r4, r5, r6, r7, pc}
 8005e16:	2406      	movs	r4, #6
 8005e18:	4620      	mov	r0, r4
 8005e1a:	b013      	add	sp, #76	; 0x4c
 8005e1c:	bdf0      	pop	{r4, r5, r6, r7, pc}
 8005e1e:	bf00      	nop
 8005e20:	e000ed00 	.word	0xe000ed00
 8005e24:	1ff0f420 	.word	0x1ff0f420
 8005e28:	2000d8c4 	.word	0x2000d8c4

08005e2c <__io_putchar>:
 8005e2c:	b500      	push	{lr}
 8005e2e:	b083      	sub	sp, #12
 8005e30:	f44f 737a 	mov.w	r3, #1000	; 0x3e8
 8005e34:	2201      	movs	r2, #1
 8005e36:	a902      	add	r1, sp, #8
 8005e38:	f841 0d04 	str.w	r0, [r1, #-4]!
 8005e3c:	4803      	ldr	r0, [pc, #12]	; (8005e4c <__io_putchar+0x20>)
 8005e3e:	f7ff fc43 	bl	80056c8 <HAL_UART_Transmit>
 8005e42:	9801      	ldr	r0, [sp, #4]
 8005e44:	b003      	add	sp, #12
 8005e46:	f85d fb04 	ldr.w	pc, [sp], #4
 8005e4a:	bf00      	nop
 8005e4c:	2000de70 	.word	0x2000de70

08005e50 <NMI_Handler>:
 8005e50:	4770      	bx	lr
 8005e52:	bf00      	nop

08005e54 <HardFault_Handler>:
 8005e54:	e7fe      	b.n	8005e54 <HardFault_Handler>
 8005e56:	bf00      	nop

08005e58 <MemManage_Handler>:
 8005e58:	e7fe      	b.n	8005e58 <MemManage_Handler>
 8005e5a:	bf00      	nop

08005e5c <BusFault_Handler>:
 8005e5c:	e7fe      	b.n	8005e5c <BusFault_Handler>
 8005e5e:	bf00      	nop

08005e60 <UsageFault_Handler>:
 8005e60:	e7fe      	b.n	8005e60 <UsageFault_Handler>
 8005e62:	bf00      	nop

08005e64 <SVC_Handler>:
 8005e64:	4770      	bx	lr
 8005e66:	bf00      	nop

08005e68 <DebugMon_Handler>:
 8005e68:	4770      	bx	lr
 8005e6a:	bf00      	nop

08005e6c <PendSV_Handler>:
 8005e6c:	4770      	bx	lr
 8005e6e:	bf00      	nop

08005e70 <SysTick_Handler>:
 8005e70:	f7fc bd6a 	b.w	8002948 <HAL_IncTick>

08005e74 <DMA2_Stream0_IRQHandler>:
 8005e74:	4b09      	ldr	r3, [pc, #36]	; (8005e9c <DMA2_Stream0_IRQHandler+0x28>)
 8005e76:	681b      	ldr	r3, [r3, #0]
 8005e78:	2b01      	cmp	r3, #1
 8005e7a:	d00b      	beq.n	8005e94 <DMA2_Stream0_IRQHandler+0x20>
 8005e7c:	4b08      	ldr	r3, [pc, #32]	; (8005ea0 <DMA2_Stream0_IRQHandler+0x2c>)
 8005e7e:	681b      	ldr	r3, [r3, #0]
 8005e80:	2b01      	cmp	r3, #1
 8005e82:	d003      	beq.n	8005e8c <DMA2_Stream0_IRQHandler+0x18>
 8005e84:	4b07      	ldr	r3, [pc, #28]	; (8005ea4 <DMA2_Stream0_IRQHandler+0x30>)
 8005e86:	6a98      	ldr	r0, [r3, #40]	; 0x28
 8005e88:	f7fd b8fe 	b.w	8003088 <HAL_DMA_IRQHandler>
 8005e8c:	4b06      	ldr	r3, [pc, #24]	; (8005ea8 <DMA2_Stream0_IRQHandler+0x34>)
 8005e8e:	6b18      	ldr	r0, [r3, #48]	; 0x30
 8005e90:	f7fd b8fa 	b.w	8003088 <HAL_DMA_IRQHandler>
 8005e94:	4b05      	ldr	r3, [pc, #20]	; (8005eac <DMA2_Stream0_IRQHandler+0x38>)
 8005e96:	6c18      	ldr	r0, [r3, #64]	; 0x40
 8005e98:	f7fd b8f6 	b.w	8003088 <HAL_DMA_IRQHandler>
 8005e9c:	2000caa0 	.word	0x2000caa0
 8005ea0:	2000caa4 	.word	0x2000caa4
 8005ea4:	2000da98 	.word	0x2000da98
 8005ea8:	2000de24 	.word	0x2000de24
 8005eac:	2000dda0 	.word	0x2000dda0

08005eb0 <DMA2_Stream5_IRQHandler>:
 8005eb0:	4b05      	ldr	r3, [pc, #20]	; (8005ec8 <DMA2_Stream5_IRQHandler+0x18>)
 8005eb2:	681b      	ldr	r3, [r3, #0]
 8005eb4:	2b01      	cmp	r3, #1
 8005eb6:	d003      	beq.n	8005ec0 <DMA2_Stream5_IRQHandler+0x10>
 8005eb8:	4b04      	ldr	r3, [pc, #16]	; (8005ecc <DMA2_Stream5_IRQHandler+0x1c>)
 8005eba:	6a98      	ldr	r0, [r3, #40]	; 0x28
 8005ebc:	f7fd b8e4 	b.w	8003088 <HAL_DMA_IRQHandler>
 8005ec0:	4b03      	ldr	r3, [pc, #12]	; (8005ed0 <DMA2_Stream5_IRQHandler+0x20>)
 8005ec2:	6bd8      	ldr	r0, [r3, #60]	; 0x3c
 8005ec4:	f7fd b8e0 	b.w	8003088 <HAL_DMA_IRQHandler>
 8005ec8:	2000caa0 	.word	0x2000caa0
 8005ecc:	2000dcb4 	.word	0x2000dcb4
 8005ed0:	2000dda0 	.word	0x2000dda0

08005ed4 <DMA2_Stream1_IRQHandler>:
 8005ed4:	4b01      	ldr	r3, [pc, #4]	; (8005edc <DMA2_Stream1_IRQHandler+0x8>)
 8005ed6:	6ed8      	ldr	r0, [r3, #108]	; 0x6c
 8005ed8:	f7fd b8d6 	b.w	8003088 <HAL_DMA_IRQHandler>
 8005edc:	2000da14 	.word	0x2000da14

08005ee0 <DMA2_Stream6_IRQHandler>:
 8005ee0:	4b01      	ldr	r3, [pc, #4]	; (8005ee8 <DMA2_Stream6_IRQHandler+0x8>)
 8005ee2:	6a98      	ldr	r0, [r3, #40]	; 0x28
 8005ee4:	f7fd b8d0 	b.w	8003088 <HAL_DMA_IRQHandler>
 8005ee8:	2000dc28 	.word	0x2000dc28

08005eec <DMA2_Stream7_IRQHandler>:
 8005eec:	4b01      	ldr	r3, [pc, #4]	; (8005ef4 <DMA2_Stream7_IRQHandler+0x8>)
 8005eee:	6a98      	ldr	r0, [r3, #40]	; 0x28
 8005ef0:	f7fd b8ca 	b.w	8003088 <HAL_DMA_IRQHandler>
 8005ef4:	2000d8dc 	.word	0x2000d8dc

08005ef8 <SDMMC2_IRQHandler>:
 8005ef8:	4801      	ldr	r0, [pc, #4]	; (8005f00 <SDMMC2_IRQHandler+0x8>)
 8005efa:	f7fe bfbd 	b.w	8004e78 <HAL_SD_IRQHandler>
 8005efe:	bf00      	nop
 8005f00:	2000dda0 	.word	0x2000dda0

08005f04 <USART1_IRQHandler>:
 8005f04:	4801      	ldr	r0, [pc, #4]	; (8005f0c <USART1_IRQHandler+0x8>)
 8005f06:	f7ff b8ff 	b.w	8005108 <HAL_UART_IRQHandler>
 8005f0a:	bf00      	nop
 8005f0c:	2000de70 	.word	0x2000de70

08005f10 <_sbrk>:
 8005f10:	490d      	ldr	r1, [pc, #52]	; (8005f48 <_sbrk+0x38>)
 8005f12:	b508      	push	{r3, lr}
 8005f14:	680b      	ldr	r3, [r1, #0]
 8005f16:	b153      	cbz	r3, 8005f2e <_sbrk+0x1e>
 8005f18:	4a0c      	ldr	r2, [pc, #48]	; (8005f4c <_sbrk+0x3c>)
 8005f1a:	4418      	add	r0, r3
 8005f1c:	6812      	ldr	r2, [r2, #0]
 8005f1e:	6812      	ldr	r2, [r2, #0]
 8005f20:	f5a2 5200 	sub.w	r2, r2, #8192	; 0x2000
 8005f24:	4290      	cmp	r0, r2
 8005f26:	d806      	bhi.n	8005f36 <_sbrk+0x26>
 8005f28:	6008      	str	r0, [r1, #0]
 8005f2a:	4618      	mov	r0, r3
 8005f2c:	bd08      	pop	{r3, pc}
 8005f2e:	4a08      	ldr	r2, [pc, #32]	; (8005f50 <_sbrk+0x40>)
 8005f30:	4613      	mov	r3, r2
 8005f32:	600a      	str	r2, [r1, #0]
 8005f34:	e7f0      	b.n	8005f18 <_sbrk+0x8>
 8005f36:	f002 fb4d 	bl	80085d4 <__errno>
 8005f3a:	220c      	movs	r2, #12
 8005f3c:	f04f 33ff 	mov.w	r3, #4294967295	; 0xffffffff
 8005f40:	6002      	str	r2, [r0, #0]
 8005f42:	4618      	mov	r0, r3
 8005f44:	bd08      	pop	{r3, pc}
 8005f46:	bf00      	nop
 8005f48:	2000d8d0 	.word	0x2000d8d0
 8005f4c:	e000ed08 	.word	0xe000ed08
 8005f50:	2000def8 	.word	0x2000def8

08005f54 <_gettimeofday>:
 8005f54:	b111      	cbz	r1, 8005f5c <_gettimeofday+0x8>
 8005f56:	2300      	movs	r3, #0
 8005f58:	e9c1 3300 	strd	r3, r3, [r1]
 8005f5c:	2000      	movs	r0, #0
 8005f5e:	4770      	bx	lr

08005f60 <_write>:
 8005f60:	b570      	push	{r4, r5, r6, lr}
 8005f62:	1e16      	subs	r6, r2, #0
 8005f64:	dd07      	ble.n	8005f76 <_write+0x16>
 8005f66:	460c      	mov	r4, r1
 8005f68:	198d      	adds	r5, r1, r6
 8005f6a:	f814 0b01 	ldrb.w	r0, [r4], #1
 8005f6e:	f7ff ff5d 	bl	8005e2c <__io_putchar>
 8005f72:	42a5      	cmp	r5, r4
 8005f74:	d1f9      	bne.n	8005f6a <_write+0xa>
 8005f76:	4630      	mov	r0, r6
 8005f78:	bd70      	pop	{r4, r5, r6, pc}
 8005f7a:	bf00      	nop

08005f7c <_close>:
 8005f7c:	f04f 30ff 	mov.w	r0, #4294967295	; 0xffffffff
 8005f80:	4770      	bx	lr
 8005f82:	bf00      	nop

08005f84 <_fstat>:
 8005f84:	f44f 5300 	mov.w	r3, #8192	; 0x2000
 8005f88:	2000      	movs	r0, #0
 8005f8a:	604b      	str	r3, [r1, #4]
 8005f8c:	4770      	bx	lr
 8005f8e:	bf00      	nop

08005f90 <_isatty>:
 8005f90:	2001      	movs	r0, #1
 8005f92:	4770      	bx	lr

08005f94 <_lseek>:
 8005f94:	2000      	movs	r0, #0
 8005f96:	4770      	bx	lr

08005f98 <_read>:
 8005f98:	b570      	push	{r4, r5, r6, lr}
 8005f9a:	1e16      	subs	r6, r2, #0
 8005f9c:	dd07      	ble.n	8005fae <_read+0x16>
 8005f9e:	460c      	mov	r4, r1
 8005fa0:	198d      	adds	r5, r1, r6
 8005fa2:	f3af 8000 	nop.w
 8005fa6:	f804 0b01 	strb.w	r0, [r4], #1
 8005faa:	42a5      	cmp	r5, r4
 8005fac:	d1f9      	bne.n	8005fa2 <_read+0xa>
 8005fae:	4630      	mov	r0, r6
 8005fb0:	bd70      	pop	{r4, r5, r6, pc}
 8005fb2:	bf00      	nop

08005fb4 <SystemInit>:
 8005fb4:	4a0f      	ldr	r2, [pc, #60]	; (8005ff4 <SystemInit+0x40>)
 8005fb6:	4b10      	ldr	r3, [pc, #64]	; (8005ff8 <SystemInit+0x44>)
 8005fb8:	f8d2 0088 	ldr.w	r0, [r2, #136]	; 0x88
 8005fbc:	490f      	ldr	r1, [pc, #60]	; (8005ffc <SystemInit+0x48>)
 8005fbe:	f440 0070 	orr.w	r0, r0, #15728640	; 0xf00000
 8005fc2:	b470      	push	{r4, r5, r6}
 8005fc4:	f8c2 0088 	str.w	r0, [r2, #136]	; 0x88
 8005fc8:	2400      	movs	r4, #0
 8005fca:	6818      	ldr	r0, [r3, #0]
 8005fcc:	f04f 6500 	mov.w	r5, #134217728	; 0x8000000
 8005fd0:	4e0b      	ldr	r6, [pc, #44]	; (8006000 <SystemInit+0x4c>)
 8005fd2:	f040 0001 	orr.w	r0, r0, #1
 8005fd6:	6018      	str	r0, [r3, #0]
 8005fd8:	609c      	str	r4, [r3, #8]
 8005fda:	6818      	ldr	r0, [r3, #0]
 8005fdc:	4001      	ands	r1, r0
 8005fde:	6019      	str	r1, [r3, #0]
 8005fe0:	605e      	str	r6, [r3, #4]
 8005fe2:	6819      	ldr	r1, [r3, #0]
 8005fe4:	f421 2180 	bic.w	r1, r1, #262144	; 0x40000
 8005fe8:	6019      	str	r1, [r3, #0]
 8005fea:	60dc      	str	r4, [r3, #12]
 8005fec:	6095      	str	r5, [r2, #8]
 8005fee:	bc70      	pop	{r4, r5, r6}
 8005ff0:	4770      	bx	lr
 8005ff2:	bf00      	nop
 8005ff4:	e000ed00 	.word	0xe000ed00
 8005ff8:	40023800 	.word	0x40023800
 8005ffc:	fef6ffff 	.word	0xfef6ffff
 8006000:	24003010 	.word	0x24003010

08006004 <Reset_Handler>:

    .section  .text.Reset_Handler
  .weak  Reset_Handler
  .type  Reset_Handler, %function
Reset_Handler:  
  ldr   sp, =_estack      /* set stack pointer */
 8006004:	f8df d034 	ldr.w	sp, [pc, #52]	; 800603c <LoopFillZerobss+0x14>

/* Copy the data segment initializers from flash to SRAM */  
  movs  r1, #0
 8006008:	2100      	movs	r1, #0
  b  LoopCopyDataInit
 800600a:	e003      	b.n	8006014 <LoopCopyDataInit>

0800600c <CopyDataInit>:

CopyDataInit:
  ldr  r3, =_sidata
 800600c:	4b0c      	ldr	r3, [pc, #48]	; (8006040 <LoopFillZerobss+0x18>)
  ldr  r3, [r3, r1]
 800600e:	585b      	ldr	r3, [r3, r1]
  str  r3, [r0, r1]
 8006010:	5043      	str	r3, [r0, r1]
  adds  r1, r1, #4
 8006012:	3104      	adds	r1, #4

08006014 <LoopCopyDataInit>:
    
LoopCopyDataInit:
  ldr  r0, =_sdata
 8006014:	480b      	ldr	r0, [pc, #44]	; (8006044 <LoopFillZerobss+0x1c>)
  ldr  r3, =_edata
 8006016:	4b0c      	ldr	r3, [pc, #48]	; (8006048 <LoopFillZerobss+0x20>)
  adds  r2, r0, r1
 8006018:	1842      	adds	r2, r0, r1
  cmp  r2, r3
 800601a:	429a      	cmp	r2, r3
  bcc  CopyDataInit
 800601c:	d3f6      	bcc.n	800600c <CopyDataInit>
  ldr  r2, =_sbss
 800601e:	4a0b      	ldr	r2, [pc, #44]	; (800604c <LoopFillZerobss+0x24>)
  b  LoopFillZerobss
 8006020:	e002      	b.n	8006028 <LoopFillZerobss>

08006022 <FillZerobss>:
/* Zero fill the bss segment. */  
FillZerobss:
  movs  r3, #0
 8006022:	2300      	movs	r3, #0
  str  r3, [r2], #4
 8006024:	f842 3b04 	str.w	r3, [r2], #4

08006028 <LoopFillZerobss>:
    
LoopFillZerobss:
  ldr  r3, = _ebss
 8006028:	4b09      	ldr	r3, [pc, #36]	; (8006050 <LoopFillZerobss+0x28>)
  cmp  r2, r3
 800602a:	429a      	cmp	r2, r3
  bcc  FillZerobss
 800602c:	d3f9      	bcc.n	8006022 <FillZerobss>

/* Call the clock system intitialization function.*/
  bl  SystemInit   
 800602e:	f7ff ffc1 	bl	8005fb4 <SystemInit>
/* Call static constructors */
    bl __libc_init_array
 8006032:	f002 fad5 	bl	80085e0 <__libc_init_array>
/* Call the application's entry point.*/
  bl  main
 8006036:	f7ff fce3 	bl	8005a00 <main>
  bx  lr    
 800603a:	4770      	bx	lr
  ldr   sp, =_estack      /* set stack pointer */
 800603c:	20080000 	.word	0x20080000
  ldr  r3, =_sidata
 8006040:	080fc528 	.word	0x080fc528
  ldr  r0, =_sdata
 8006044:	20000000 	.word	0x20000000
  ldr  r3, =_edata
 8006048:	200000f0 	.word	0x200000f0
  ldr  r2, =_sbss
 800604c:	20000100 	.word	0x20000100
  ldr  r3, = _ebss
 8006050:	2000def4 	.word	0x2000def4

08006054 <ADC_IRQHandler>:
 * @retval None       
*/
    .section  .text.Default_Handler,"ax",%progbits
Default_Handler:
Infinite_Loop:
  b  Infinite_Loop
 8006054:	e7fe      	b.n	8006054 <ADC_IRQHandler>
	...

08006058 <pv_status_to_string>:
 8006058:	2806      	cmp	r0, #6
 800605a:	d803      	bhi.n	8006064 <pv_status_to_string+0xc>
 800605c:	4b02      	ldr	r3, [pc, #8]	; (8006068 <pv_status_to_string+0x10>)
 800605e:	f853 0020 	ldr.w	r0, [r3, r0, lsl #2]
 8006062:	4770      	bx	lr
 8006064:	2000      	movs	r0, #0
 8006066:	4770      	bx	lr
 8006068:	0800a108 	.word	0x0800a108

0800606c <pv_porcupine_delete.part.0>:
 800606c:	b5f8      	push	{r3, r4, r5, r6, r7, lr}
 800606e:	6806      	ldr	r6, [r0, #0]
 8006070:	4605      	mov	r5, r0
 8006072:	6a41      	ldr	r1, [r0, #36]	; 0x24
 8006074:	4630      	mov	r0, r6
 8006076:	f001 f87b 	bl	8007170 <taabe248>
 800607a:	6a28      	ldr	r0, [r5, #32]
 800607c:	f000 fba8 	bl	80067d0 <taabe185>
 8006080:	686f      	ldr	r7, [r5, #4]
 8006082:	3f01      	subs	r7, #1
 8006084:	d415      	bmi.n	80060b2 <pv_porcupine_delete.part.0+0x46>
 8006086:	00bc      	lsls	r4, r7, #2
 8006088:	692b      	ldr	r3, [r5, #16]
 800608a:	4630      	mov	r0, r6
 800608c:	3f01      	subs	r7, #1
 800608e:	5919      	ldr	r1, [r3, r4]
 8006090:	b121      	cbz	r1, 800609c <pv_porcupine_delete.part.0+0x30>
 8006092:	6809      	ldr	r1, [r1, #0]
 8006094:	f001 f86c 	bl	8007170 <taabe248>
 8006098:	692b      	ldr	r3, [r5, #16]
 800609a:	5919      	ldr	r1, [r3, r4]
 800609c:	4630      	mov	r0, r6
 800609e:	f001 f867 	bl	8007170 <taabe248>
 80060a2:	68eb      	ldr	r3, [r5, #12]
 80060a4:	4630      	mov	r0, r6
 80060a6:	5919      	ldr	r1, [r3, r4]
 80060a8:	3c04      	subs	r4, #4
 80060aa:	f001 f861 	bl	8007170 <taabe248>
 80060ae:	1c7b      	adds	r3, r7, #1
 80060b0:	d1ea      	bne.n	8006088 <pv_porcupine_delete.part.0+0x1c>
 80060b2:	69e9      	ldr	r1, [r5, #28]
 80060b4:	4630      	mov	r0, r6
 80060b6:	f001 f85b 	bl	8007170 <taabe248>
 80060ba:	69a9      	ldr	r1, [r5, #24]
 80060bc:	4630      	mov	r0, r6
 80060be:	f001 f857 	bl	8007170 <taabe248>
 80060c2:	6969      	ldr	r1, [r5, #20]
 80060c4:	4630      	mov	r0, r6
 80060c6:	f001 f853 	bl	8007170 <taabe248>
 80060ca:	6929      	ldr	r1, [r5, #16]
 80060cc:	4630      	mov	r0, r6
 80060ce:	f001 f84f 	bl	8007170 <taabe248>
 80060d2:	68e9      	ldr	r1, [r5, #12]
 80060d4:	4630      	mov	r0, r6
 80060d6:	f001 f84b 	bl	8007170 <taabe248>
 80060da:	68a9      	ldr	r1, [r5, #8]
 80060dc:	4630      	mov	r0, r6
 80060de:	f001 f847 	bl	8007170 <taabe248>
 80060e2:	4629      	mov	r1, r5
 80060e4:	4630      	mov	r0, r6
 80060e6:	e8bd 40f8 	ldmia.w	sp!, {r3, r4, r5, r6, r7, lr}
 80060ea:	f001 b841 	b.w	8007170 <taabe248>
 80060ee:	bf00      	nop

080060f0 <pv_porcupine_init>:
 80060f0:	2a00      	cmp	r2, #0
 80060f2:	e92d 4ff0 	stmdb	sp!, {r4, r5, r6, r7, r8, r9, sl, fp, lr}
 80060f6:	f04f 0500 	mov.w	r5, #0
 80060fa:	bfcc      	ite	gt
 80060fc:	2400      	movgt	r4, #0
 80060fe:	2401      	movle	r4, #1
 8006100:	ed2d 8b04 	vpush	{d8-d9}
 8006104:	42ab      	cmp	r3, r5
 8006106:	bf08      	it	eq
 8006108:	2401      	moveq	r4, #1
 800610a:	b097      	sub	sp, #92	; 0x5c
 800610c:	42a9      	cmp	r1, r5
 800610e:	bf08      	it	eq
 8006110:	2401      	moveq	r4, #1
 8006112:	9e26      	ldr	r6, [sp, #152]	; 0x98
 8006114:	6035      	str	r5, [r6, #0]
 8006116:	2c00      	cmp	r4, #0
 8006118:	f040 8171 	bne.w	80063fe <pv_porcupine_init+0x30e>
 800611c:	42a8      	cmp	r0, r5
 800611e:	bfcc      	ite	gt
 8006120:	2500      	movgt	r5, #0
 8006122:	2501      	movle	r5, #1
 8006124:	2d00      	cmp	r5, #0
 8006126:	f040 816a 	bne.w	80063fe <pv_porcupine_init+0x30e>
 800612a:	1f1f      	subs	r7, r3, #4
 800612c:	9b24      	ldr	r3, [sp, #144]	; 0x90
 800612e:	1f1e      	subs	r6, r3, #4
 8006130:	462b      	mov	r3, r5
 8006132:	463d      	mov	r5, r7
 8006134:	46b4      	mov	ip, r6
 8006136:	f855 4f04 	ldr.w	r4, [r5, #4]!
 800613a:	3301      	adds	r3, #1
 800613c:	2c00      	cmp	r4, #0
 800613e:	f340 815e 	ble.w	80063fe <pv_porcupine_init+0x30e>
 8006142:	f85c 4f04 	ldr.w	r4, [ip, #4]!
 8006146:	2c00      	cmp	r4, #0
 8006148:	f000 8159 	beq.w	80063fe <pv_porcupine_init+0x30e>
 800614c:	429a      	cmp	r2, r3
 800614e:	dcf2      	bgt.n	8006136 <pv_porcupine_init+0x46>
 8006150:	9b25      	ldr	r3, [sp, #148]	; 0x94
 8006152:	2b00      	cmp	r3, #0
 8006154:	f000 8153 	beq.w	80063fe <pv_porcupine_init+0x30e>
 8006158:	eeb7 7a00 	vmov.f32	s14, #112	; 0x3f800000  1.0
 800615c:	4614      	mov	r4, r2
 800615e:	930b      	str	r3, [sp, #44]	; 0x2c
 8006160:	461a      	mov	r2, r3
 8006162:	2300      	movs	r3, #0
 8006164:	910a      	str	r1, [sp, #40]	; 0x28
 8006166:	9009      	str	r0, [sp, #36]	; 0x24
 8006168:	ecf2 7a01 	vldmia	r2!, {s15}
 800616c:	3301      	adds	r3, #1
 800616e:	eef5 7ac0 	vcmpe.f32	s15, #0.0
 8006172:	eef1 fa10 	vmrs	APSR_nzcv, fpscr
 8006176:	f100 8149 	bmi.w	800640c <pv_porcupine_init+0x31c>
 800617a:	eef4 7ac7 	vcmpe.f32	s15, s14
 800617e:	eef1 fa10 	vmrs	APSR_nzcv, fpscr
 8006182:	f300 8143 	bgt.w	800640c <pv_porcupine_init+0x31c>
 8006186:	429c      	cmp	r4, r3
 8006188:	dcee      	bgt.n	8006168 <pv_porcupine_init+0x78>
 800618a:	2000      	movs	r0, #0
 800618c:	ab16      	add	r3, sp, #88	; 0x58
 800618e:	2280      	movs	r2, #128	; 0x80
 8006190:	9909      	ldr	r1, [sp, #36]	; 0x24
 8006192:	f843 0d18 	str.w	r0, [r3, #-24]!
 8006196:	980a      	ldr	r0, [sp, #40]	; 0x28
 8006198:	f000 ff98 	bl	80070cc <taabe245>
 800619c:	4605      	mov	r5, r0
 800619e:	2800      	cmp	r0, #0
 80061a0:	f040 812e 	bne.w	8006400 <pv_porcupine_init+0x310>
 80061a4:	4681      	mov	r9, r0
 80061a6:	4635      	mov	r5, r6
 80061a8:	46bb      	mov	fp, r7
 80061aa:	4680      	mov	r8, r0
 80061ac:	ed9f 8ac7 	vldr	s16, [pc, #796]	; 80064cc <pv_porcupine_init+0x3dc>
 80061b0:	e9cd 670c 	strd	r6, r7, [sp, #48]	; 0x30
 80061b4:	af15      	add	r7, sp, #84	; 0x54
 80061b6:	f855 2f04 	ldr.w	r2, [r5, #4]!
 80061ba:	f85b 1f04 	ldr.w	r1, [fp, #4]!
 80061be:	f10d 033d 	add.w	r3, sp, #61	; 0x3d
 80061c2:	9705      	str	r7, [sp, #20]
 80061c4:	af14      	add	r7, sp, #80	; 0x50
 80061c6:	9307      	str	r3, [sp, #28]
 80061c8:	ab0f      	add	r3, sp, #60	; 0x3c
 80061ca:	9704      	str	r7, [sp, #16]
 80061cc:	af13      	add	r7, sp, #76	; 0x4c
 80061ce:	2600      	movs	r6, #0
 80061d0:	f04f 0a01 	mov.w	sl, #1
 80061d4:	9703      	str	r7, [sp, #12]
 80061d6:	af12      	add	r7, sp, #72	; 0x48
 80061d8:	9306      	str	r3, [sp, #24]
 80061da:	f108 0801 	add.w	r8, r8, #1
 80061de:	9702      	str	r7, [sp, #8]
 80061e0:	af11      	add	r7, sp, #68	; 0x44
 80061e2:	9810      	ldr	r0, [sp, #64]	; 0x40
 80061e4:	9701      	str	r7, [sp, #4]
 80061e6:	f10d 073e 	add.w	r7, sp, #62	; 0x3e
 80061ea:	4bb9      	ldr	r3, [pc, #740]	; (80064d0 <pv_porcupine_init+0x3e0>)
 80061ec:	9700      	str	r7, [sp, #0]
 80061ee:	f641 27d5 	movw	r7, #6869	; 0x1ad5
 80061f2:	ed8d 8a14 	vstr	s16, [sp, #80]	; 0x50
 80061f6:	f8ad 703e 	strh.w	r7, [sp, #62]	; 0x3e
 80061fa:	ed8d 8a15 	vstr	s16, [sp, #84]	; 0x54
 80061fe:	9613      	str	r6, [sp, #76]	; 0x4c
 8006200:	f88d 603c 	strb.w	r6, [sp, #60]	; 0x3c
 8006204:	f88d a03d 	strb.w	sl, [sp, #61]	; 0x3d
 8006208:	e9cd 6611 	strd	r6, r6, [sp, #68]	; 0x44
 800620c:	f000 fc28 	bl	8006a60 <taabe191>
 8006210:	2800      	cmp	r0, #0
 8006212:	f040 8100 	bne.w	8006416 <pv_porcupine_init+0x326>
 8006216:	9b11      	ldr	r3, [sp, #68]	; 0x44
 8006218:	4544      	cmp	r4, r8
 800621a:	4499      	add	r9, r3
 800621c:	dcca      	bgt.n	80061b4 <pv_porcupine_init+0xc4>
 800621e:	44a1      	add	r9, r4
 8006220:	4605      	mov	r5, r0
 8006222:	ab13      	add	r3, sp, #76	; 0x4c
 8006224:	eb09 0989 	add.w	r9, r9, r9, lsl #2
 8006228:	9513      	str	r5, [sp, #76]	; 0x4c
 800622a:	e9dd 1009 	ldrd	r1, r0, [sp, #36]	; 0x24
 800622e:	f109 0259 	add.w	r2, r9, #89	; 0x59
 8006232:	e9dd 670c 	ldrd	r6, r7, [sp, #48]	; 0x30
 8006236:	f000 ff49 	bl	80070cc <taabe245>
 800623a:	4605      	mov	r5, r0
 800623c:	2800      	cmp	r0, #0
 800623e:	f040 80df 	bne.w	8006400 <pv_porcupine_init+0x310>
 8006242:	4652      	mov	r2, sl
 8006244:	2128      	movs	r1, #40	; 0x28
 8006246:	9813      	ldr	r0, [sp, #76]	; 0x4c
 8006248:	f000 ff62 	bl	8007110 <taabe247>
 800624c:	4681      	mov	r9, r0
 800624e:	2800      	cmp	r0, #0
 8006250:	f000 80e3 	beq.w	800641a <pv_porcupine_init+0x32a>
 8006254:	9813      	ldr	r0, [sp, #76]	; 0x4c
 8006256:	ea4f 0884 	mov.w	r8, r4, lsl #2
 800625a:	f8c9 4004 	str.w	r4, [r9, #4]
 800625e:	4652      	mov	r2, sl
 8006260:	f8c9 0000 	str.w	r0, [r9]
 8006264:	4641      	mov	r1, r8
 8006266:	f000 ff53 	bl	8007110 <taabe247>
 800626a:	f8c9 0008 	str.w	r0, [r9, #8]
 800626e:	2800      	cmp	r0, #0
 8006270:	f000 80d5 	beq.w	800641e <pv_porcupine_init+0x32e>
 8006274:	4652      	mov	r2, sl
 8006276:	4641      	mov	r1, r8
 8006278:	9813      	ldr	r0, [sp, #76]	; 0x4c
 800627a:	f000 ff49 	bl	8007110 <taabe247>
 800627e:	f8c9 000c 	str.w	r0, [r9, #12]
 8006282:	2800      	cmp	r0, #0
 8006284:	f000 80cb 	beq.w	800641e <pv_porcupine_init+0x32e>
 8006288:	4641      	mov	r1, r8
 800628a:	4652      	mov	r2, sl
 800628c:	9813      	ldr	r0, [sp, #76]	; 0x4c
 800628e:	f000 ff3f 	bl	8007110 <taabe247>
 8006292:	f8c9 0010 	str.w	r0, [r9, #16]
 8006296:	2800      	cmp	r0, #0
 8006298:	f000 80c1 	beq.w	800641e <pv_porcupine_init+0x32e>
 800629c:	462a      	mov	r2, r5
 800629e:	4621      	mov	r1, r4
 80062a0:	9813      	ldr	r0, [sp, #76]	; 0x4c
 80062a2:	f000 ff35 	bl	8007110 <taabe247>
 80062a6:	f8c9 0014 	str.w	r0, [r9, #20]
 80062aa:	2800      	cmp	r0, #0
 80062ac:	f000 80b7 	beq.w	800641e <pv_porcupine_init+0x32e>
 80062b0:	0063      	lsls	r3, r4, #1
 80062b2:	462a      	mov	r2, r5
 80062b4:	9813      	ldr	r0, [sp, #76]	; 0x4c
 80062b6:	4619      	mov	r1, r3
 80062b8:	9309      	str	r3, [sp, #36]	; 0x24
 80062ba:	f000 ff29 	bl	8007110 <taabe247>
 80062be:	f8c9 0018 	str.w	r0, [r9, #24]
 80062c2:	2800      	cmp	r0, #0
 80062c4:	f000 80ab 	beq.w	800641e <pv_porcupine_init+0x32e>
 80062c8:	462a      	mov	r2, r5
 80062ca:	4621      	mov	r1, r4
 80062cc:	9813      	ldr	r0, [sp, #76]	; 0x4c
 80062ce:	f000 ff1f 	bl	8007110 <taabe247>
 80062d2:	f8c9 001c 	str.w	r0, [r9, #28]
 80062d6:	2800      	cmp	r0, #0
 80062d8:	f000 80a1 	beq.w	800641e <pv_porcupine_init+0x32e>
 80062dc:	2300      	movs	r3, #0
 80062de:	227f      	movs	r2, #127	; 0x7f
 80062e0:	f8d9 101c 	ldr.w	r1, [r9, #28]
 80062e4:	54ca      	strb	r2, [r1, r3]
 80062e6:	3301      	adds	r3, #1
 80062e8:	429c      	cmp	r4, r3
 80062ea:	dcf9      	bgt.n	80062e0 <pv_porcupine_init+0x1f0>
 80062ec:	f641 23d5 	movw	r3, #6869	; 0x1ad5
 80062f0:	f04f 0a00 	mov.w	sl, #0
 80062f4:	ed9f 8a75 	vldr	s16, [pc, #468]	; 80064cc <pv_porcupine_init+0x3dc>
 80062f8:	4625      	mov	r5, r4
 80062fa:	eddf 9a76 	vldr	s19, [pc, #472]	; 80064d4 <pv_porcupine_init+0x3e4>
 80062fe:	469b      	mov	fp, r3
 8006300:	ed9f 9a75 	vldr	s18, [pc, #468]	; 80064d8 <pv_porcupine_init+0x3e8>
 8006304:	eddf 8a75 	vldr	s17, [pc, #468]	; 80064dc <pv_porcupine_init+0x3ec>
 8006308:	e035      	b.n	8006376 <pv_porcupine_init+0x286>
 800630a:	f89d 1044 	ldrb.w	r1, [sp, #68]	; 0x44
 800630e:	2900      	cmp	r1, #0
 8006310:	f040 80b0 	bne.w	8006474 <pv_porcupine_init+0x384>
 8006314:	f641 21d5 	movw	r1, #6869	; 0x1ad5
 8006318:	f8bd 8048 	ldrh.w	r8, [sp, #72]	; 0x48
 800631c:	458b      	cmp	fp, r1
 800631e:	d002      	beq.n	8006326 <pv_porcupine_init+0x236>
 8006320:	45d8      	cmp	r8, fp
 8006322:	f040 80af 	bne.w	8006484 <pv_porcupine_init+0x394>
 8006326:	eddd 7a15 	vldr	s15, [sp, #84]	; 0x54
 800632a:	eddd 6a14 	vldr	s13, [sp, #80]	; 0x50
 800632e:	990b      	ldr	r1, [sp, #44]	; 0x2c
 8006330:	ee77 6ae6 	vsub.f32	s13, s15, s13
 8006334:	ecb1 7a01 	vldmia	r1!, {s14}
 8006338:	ee26 7a87 	vmul.f32	s14, s13, s14
 800633c:	910b      	str	r1, [sp, #44]	; 0x2c
 800633e:	f8d9 1018 	ldr.w	r1, [r9, #24]
 8006342:	ee77 7ac7 	vsub.f32	s15, s15, s14
 8006346:	ee67 7aa9 	vmul.f32	s15, s15, s19
 800634a:	eef4 7ac9 	vcmpe.f32	s15, s18
 800634e:	eef1 fa10 	vmrs	APSR_nzcv, fpscr
 8006352:	da0a      	bge.n	800636a <pv_porcupine_init+0x27a>
 8006354:	eef4 7ae8 	vcmpe.f32	s15, s17
 8006358:	4b61      	ldr	r3, [pc, #388]	; (80064e0 <pv_porcupine_init+0x3f0>)
 800635a:	eef1 fa10 	vmrs	APSR_nzcv, fpscr
 800635e:	d904      	bls.n	800636a <pv_porcupine_init+0x27a>
 8006360:	eefd 7ae7 	vcvt.s32.f32	s15, s15
 8006364:	ee17 3a90 	vmov	r3, s15
 8006368:	b21b      	sxth	r3, r3
 800636a:	f10a 0a01 	add.w	sl, sl, #1
 800636e:	528b      	strh	r3, [r1, r2]
 8006370:	46c3      	mov	fp, r8
 8006372:	4555      	cmp	r5, sl
 8006374:	dd58      	ble.n	8006428 <pv_porcupine_init+0x338>
 8006376:	ab11      	add	r3, sp, #68	; 0x44
 8006378:	f857 1f04 	ldr.w	r1, [r7, #4]!
 800637c:	ea4f 008a 	mov.w	r0, sl, lsl #2
 8006380:	f641 24d5 	movw	r4, #6869	; 0x1ad5
 8006384:	9307      	str	r3, [sp, #28]
 8006386:	ab15      	add	r3, sp, #84	; 0x54
 8006388:	f8d9 2014 	ldr.w	r2, [r9, #20]
 800638c:	f04f 0c01 	mov.w	ip, #1
 8006390:	9305      	str	r3, [sp, #20]
 8006392:	ab14      	add	r3, sp, #80	; 0x50
 8006394:	4452      	add	r2, sl
 8006396:	ed8d 8a14 	vstr	s16, [sp, #80]	; 0x50
 800639a:	9304      	str	r3, [sp, #16]
 800639c:	9206      	str	r2, [sp, #24]
 800639e:	f8d9 2010 	ldr.w	r2, [r9, #16]
 80063a2:	f8ad 4048 	strh.w	r4, [sp, #72]	; 0x48
 80063a6:	4402      	add	r2, r0
 80063a8:	f88d c044 	strb.w	ip, [sp, #68]	; 0x44
 80063ac:	4b48      	ldr	r3, [pc, #288]	; (80064d0 <pv_porcupine_init+0x3e0>)
 80063ae:	9203      	str	r2, [sp, #12]
 80063b0:	f8d9 400c 	ldr.w	r4, [r9, #12]
 80063b4:	f856 2f04 	ldr.w	r2, [r6, #4]!
 80063b8:	eb04 0c00 	add.w	ip, r4, r0
 80063bc:	ac12      	add	r4, sp, #72	; 0x48
 80063be:	ed8d 8a15 	vstr	s16, [sp, #84]	; 0x54
 80063c2:	f8cd c008 	str.w	ip, [sp, #8]
 80063c6:	f8d9 c008 	ldr.w	ip, [r9, #8]
 80063ca:	9400      	str	r4, [sp, #0]
 80063cc:	4484      	add	ip, r0
 80063ce:	9813      	ldr	r0, [sp, #76]	; 0x4c
 80063d0:	f8cd c004 	str.w	ip, [sp, #4]
 80063d4:	f000 fb44 	bl	8006a60 <taabe191>
 80063d8:	f647 73ff 	movw	r3, #32767	; 0x7fff
 80063dc:	ea4f 024a 	mov.w	r2, sl, lsl #1
 80063e0:	2800      	cmp	r0, #0
 80063e2:	d092      	beq.n	800630a <pv_porcupine_init+0x21a>
 80063e4:	4605      	mov	r5, r0
 80063e6:	4648      	mov	r0, r9
 80063e8:	f7ff fe40 	bl	800606c <pv_porcupine_delete.part.0>
 80063ec:	4628      	mov	r0, r5
 80063ee:	f7ff fe33 	bl	8006058 <pv_status_to_string>
 80063f2:	4651      	mov	r1, sl
 80063f4:	4602      	mov	r2, r0
 80063f6:	483b      	ldr	r0, [pc, #236]	; (80064e4 <pv_porcupine_init+0x3f4>)
 80063f8:	f001 f93e 	bl	8007678 <taabe218>
 80063fc:	e000      	b.n	8006400 <pv_porcupine_init+0x310>
 80063fe:	2503      	movs	r5, #3
 8006400:	4628      	mov	r0, r5
 8006402:	b017      	add	sp, #92	; 0x5c
 8006404:	ecbd 8b04 	vpop	{d8-d9}
 8006408:	e8bd 8ff0 	ldmia.w	sp!, {r4, r5, r6, r7, r8, r9, sl, fp, pc}
 800640c:	4836      	ldr	r0, [pc, #216]	; (80064e8 <pv_porcupine_init+0x3f8>)
 800640e:	2503      	movs	r5, #3
 8006410:	f001 f932 	bl	8007678 <taabe218>
 8006414:	e7f4      	b.n	8006400 <pv_porcupine_init+0x310>
 8006416:	4605      	mov	r5, r0
 8006418:	e7f2      	b.n	8006400 <pv_porcupine_init+0x310>
 800641a:	4655      	mov	r5, sl
 800641c:	e7f0      	b.n	8006400 <pv_porcupine_init+0x310>
 800641e:	4648      	mov	r0, r9
 8006420:	2501      	movs	r5, #1
 8006422:	f7ff fe23 	bl	800606c <pv_porcupine_delete.part.0>
 8006426:	e7eb      	b.n	8006400 <pv_porcupine_init+0x310>
 8006428:	f109 0320 	add.w	r3, r9, #32
 800642c:	4629      	mov	r1, r5
 800642e:	9813      	ldr	r0, [sp, #76]	; 0x4c
 8006430:	9302      	str	r3, [sp, #8]
 8006432:	f8d9 3014 	ldr.w	r3, [r9, #20]
 8006436:	9301      	str	r3, [sp, #4]
 8006438:	f8d9 3010 	ldr.w	r3, [r9, #16]
 800643c:	9300      	str	r3, [sp, #0]
 800643e:	e9d9 2302 	ldrd	r2, r3, [r9, #8]
 8006442:	f000 f8e5 	bl	8006610 <taabe184>
 8006446:	4605      	mov	r5, r0
 8006448:	2800      	cmp	r0, #0
 800644a:	d13b      	bne.n	80064c4 <pv_porcupine_init+0x3d4>
 800644c:	f8d9 0020 	ldr.w	r0, [r9, #32]
 8006450:	f000 fb02 	bl	8006a58 <taabe188>
 8006454:	4540      	cmp	r0, r8
 8006456:	4604      	mov	r4, r0
 8006458:	d126      	bne.n	80064a8 <pv_porcupine_init+0x3b8>
 800645a:	9909      	ldr	r1, [sp, #36]	; 0x24
 800645c:	2201      	movs	r2, #1
 800645e:	9813      	ldr	r0, [sp, #76]	; 0x4c
 8006460:	f000 fe56 	bl	8007110 <taabe247>
 8006464:	f8c9 0024 	str.w	r0, [r9, #36]	; 0x24
 8006468:	2800      	cmp	r0, #0
 800646a:	d0d8      	beq.n	800641e <pv_porcupine_init+0x32e>
 800646c:	9b26      	ldr	r3, [sp, #152]	; 0x98
 800646e:	f8c3 9000 	str.w	r9, [r3]
 8006472:	e7c5      	b.n	8006400 <pv_porcupine_init+0x310>
 8006474:	4648      	mov	r0, r9
 8006476:	2503      	movs	r5, #3
 8006478:	f7ff fdf8 	bl	800606c <pv_porcupine_delete.part.0>
 800647c:	481b      	ldr	r0, [pc, #108]	; (80064ec <pv_porcupine_init+0x3fc>)
 800647e:	f001 f8fb 	bl	8007678 <taabe218>
 8006482:	e7bd      	b.n	8006400 <pv_porcupine_init+0x310>
 8006484:	4658      	mov	r0, fp
 8006486:	2503      	movs	r5, #3
 8006488:	f000 fe00 	bl	800708c <taabe253>
 800648c:	4604      	mov	r4, r0
 800648e:	f8bd 0048 	ldrh.w	r0, [sp, #72]	; 0x48
 8006492:	f000 fdfb 	bl	800708c <taabe253>
 8006496:	4622      	mov	r2, r4
 8006498:	9000      	str	r0, [sp, #0]
 800649a:	4653      	mov	r3, sl
 800649c:	f10a 31ff 	add.w	r1, sl, #4294967295	; 0xffffffff
 80064a0:	4813      	ldr	r0, [pc, #76]	; (80064f0 <pv_porcupine_init+0x400>)
 80064a2:	f001 f8e9 	bl	8007678 <taabe218>
 80064a6:	e7ab      	b.n	8006400 <pv_porcupine_init+0x310>
 80064a8:	4640      	mov	r0, r8
 80064aa:	2503      	movs	r5, #3
 80064ac:	f000 fdee 	bl	800708c <taabe253>
 80064b0:	4606      	mov	r6, r0
 80064b2:	4620      	mov	r0, r4
 80064b4:	f000 fdea 	bl	800708c <taabe253>
 80064b8:	4631      	mov	r1, r6
 80064ba:	4602      	mov	r2, r0
 80064bc:	480d      	ldr	r0, [pc, #52]	; (80064f4 <pv_porcupine_init+0x404>)
 80064be:	f001 f8db 	bl	8007678 <taabe218>
 80064c2:	e79d      	b.n	8006400 <pv_porcupine_init+0x310>
 80064c4:	4648      	mov	r0, r9
 80064c6:	f7ff fdd1 	bl	800606c <pv_porcupine_delete.part.0>
 80064ca:	e799      	b.n	8006400 <pv_porcupine_init+0x310>
 80064cc:	00000000 	.word	0x00000000
 80064d0:	20000060 	.word	0x20000060
 80064d4:	44800000 	.word	0x44800000
 80064d8:	46fffe00 	.word	0x46fffe00
 80064dc:	c7000000 	.word	0xc7000000
 80064e0:	ffff8000 	.word	0xffff8000
 80064e4:	0800a1b8 	.word	0x0800a1b8
 80064e8:	0800a188 	.word	0x0800a188
 80064ec:	0800a1ec 	.word	0x0800a1ec
 80064f0:	0800a210 	.word	0x0800a210
 80064f4:	0800a290 	.word	0x0800a290

080064f8 <pv_porcupine_process>:
 80064f8:	2900      	cmp	r1, #0
 80064fa:	bf18      	it	ne
 80064fc:	2a00      	cmpne	r2, #0
 80064fe:	d036      	beq.n	800656e <pv_porcupine_process+0x76>
 8006500:	b3a8      	cbz	r0, 800656e <pv_porcupine_process+0x76>
 8006502:	b5f8      	push	{r3, r4, r5, r6, r7, lr}
 8006504:	4604      	mov	r4, r0
 8006506:	4615      	mov	r5, r2
 8006508:	e9d0 0608 	ldrd	r0, r6, [r0, #32]
 800650c:	6867      	ldr	r7, [r4, #4]
 800650e:	4632      	mov	r2, r6
 8006510:	f000 f9a0 	bl	8006854 <taabe186>
 8006514:	bb50      	cbnz	r0, 800656c <pv_porcupine_process+0x74>
 8006516:	f04f 32ff 	mov.w	r2, #4294967295	; 0xffffffff
 800651a:	2f00      	cmp	r7, #0
 800651c:	e9d4 4306 	ldrd	r4, r3, [r4, #24]
 8006520:	602a      	str	r2, [r5, #0]
 8006522:	dd22      	ble.n	800656a <pv_porcupine_process+0x72>
 8006524:	19da      	adds	r2, r3, r7
 8006526:	4686      	mov	lr, r0
 8006528:	3b01      	subs	r3, #1
 800652a:	4f12      	ldr	r7, [pc, #72]	; (8006574 <pv_porcupine_process+0x7c>)
 800652c:	3a01      	subs	r2, #1
 800652e:	e004      	b.n	800653a <pv_porcupine_process+0x42>
 8006530:	7019      	strb	r1, [r3, #0]
 8006532:	4293      	cmp	r3, r2
 8006534:	f100 0001 	add.w	r0, r0, #1
 8006538:	d017      	beq.n	800656a <pv_porcupine_process+0x72>
 800653a:	f913 1f01 	ldrsb.w	r1, [r3, #1]!
 800653e:	290f      	cmp	r1, #15
 8006540:	f101 0101 	add.w	r1, r1, #1
 8006544:	ddf4      	ble.n	8006530 <pv_porcupine_process+0x38>
 8006546:	f934 1010 	ldrsh.w	r1, [r4, r0, lsl #1]
 800654a:	f936 c010 	ldrsh.w	ip, [r6, r0, lsl #1]
 800654e:	42b9      	cmp	r1, r7
 8006550:	bfb8      	it	lt
 8006552:	4639      	movlt	r1, r7
 8006554:	458c      	cmp	ip, r1
 8006556:	dbec      	blt.n	8006532 <pv_porcupine_process+0x3a>
 8006558:	4293      	cmp	r3, r2
 800655a:	6028      	str	r0, [r5, #0]
 800655c:	f883 e000 	strb.w	lr, [r3]
 8006560:	f936 7010 	ldrsh.w	r7, [r6, r0, lsl #1]
 8006564:	f100 0001 	add.w	r0, r0, #1
 8006568:	d1e7      	bne.n	800653a <pv_porcupine_process+0x42>
 800656a:	2000      	movs	r0, #0
 800656c:	bdf8      	pop	{r3, r4, r5, r6, r7, pc}
 800656e:	2003      	movs	r0, #3
 8006570:	4770      	bx	lr
 8006572:	bf00      	nop
 8006574:	ffff8000 	.word	0xffff8000

08006578 <taabe185.part.0>:
 8006578:	e92d 41f0 	stmdb	sp!, {r4, r5, r6, r7, r8, lr}
 800657c:	4606      	mov	r6, r0
 800657e:	6b41      	ldr	r1, [r0, #52]	; 0x34
 8006580:	6800      	ldr	r0, [r0, #0]
 8006582:	f000 fdf5 	bl	8007170 <taabe248>
 8006586:	6a71      	ldr	r1, [r6, #36]	; 0x24
 8006588:	b179      	cbz	r1, 80065aa <taabe185.part.0+0x32>
 800658a:	6974      	ldr	r4, [r6, #20]
 800658c:	3c01      	subs	r4, #1
 800658e:	d409      	bmi.n	80065a4 <taabe185.part.0+0x2c>
 8006590:	00a5      	lsls	r5, r4, #2
 8006592:	3c01      	subs	r4, #1
 8006594:	5949      	ldr	r1, [r1, r5]
 8006596:	6830      	ldr	r0, [r6, #0]
 8006598:	3d04      	subs	r5, #4
 800659a:	f000 fde9 	bl	8007170 <taabe248>
 800659e:	1c62      	adds	r2, r4, #1
 80065a0:	6a71      	ldr	r1, [r6, #36]	; 0x24
 80065a2:	d1f6      	bne.n	8006592 <taabe185.part.0+0x1a>
 80065a4:	6830      	ldr	r0, [r6, #0]
 80065a6:	f000 fde3 	bl	8007170 <taabe248>
 80065aa:	6a33      	ldr	r3, [r6, #32]
 80065ac:	b31b      	cbz	r3, 80065f6 <taabe185.part.0+0x7e>
 80065ae:	6972      	ldr	r2, [r6, #20]
 80065b0:	f1b2 0801 	subs.w	r8, r2, #1
 80065b4:	d41b      	bmi.n	80065ee <taabe185.part.0+0x76>
 80065b6:	ea4f 0788 	mov.w	r7, r8, lsl #2
 80065ba:	59d9      	ldr	r1, [r3, r7]
 80065bc:	b189      	cbz	r1, 80065e2 <taabe185.part.0+0x6a>
 80065be:	69b3      	ldr	r3, [r6, #24]
 80065c0:	59dc      	ldr	r4, [r3, r7]
 80065c2:	3c01      	subs	r4, #1
 80065c4:	d409      	bmi.n	80065da <taabe185.part.0+0x62>
 80065c6:	00a5      	lsls	r5, r4, #2
 80065c8:	5948      	ldr	r0, [r1, r5]
 80065ca:	3c01      	subs	r4, #1
 80065cc:	f001 fea2 	bl	8008314 <taabe181>
 80065d0:	6a33      	ldr	r3, [r6, #32]
 80065d2:	3d04      	subs	r5, #4
 80065d4:	59d9      	ldr	r1, [r3, r7]
 80065d6:	1c63      	adds	r3, r4, #1
 80065d8:	d1f6      	bne.n	80065c8 <taabe185.part.0+0x50>
 80065da:	6830      	ldr	r0, [r6, #0]
 80065dc:	f000 fdc8 	bl	8007170 <taabe248>
 80065e0:	6a33      	ldr	r3, [r6, #32]
 80065e2:	f108 38ff 	add.w	r8, r8, #4294967295	; 0xffffffff
 80065e6:	3f04      	subs	r7, #4
 80065e8:	f1b8 3fff 	cmp.w	r8, #4294967295	; 0xffffffff
 80065ec:	d1e5      	bne.n	80065ba <taabe185.part.0+0x42>
 80065ee:	4619      	mov	r1, r3
 80065f0:	6830      	ldr	r0, [r6, #0]
 80065f2:	f000 fdbd 	bl	8007170 <taabe248>
 80065f6:	68f0      	ldr	r0, [r6, #12]
 80065f8:	f001 face 	bl	8007b98 <taabe234>
 80065fc:	6870      	ldr	r0, [r6, #4]
 80065fe:	f000 fdf9 	bl	80071f4 <taabe159>
 8006602:	4631      	mov	r1, r6
 8006604:	6830      	ldr	r0, [r6, #0]
 8006606:	e8bd 41f0 	ldmia.w	sp!, {r4, r5, r6, r7, r8, lr}
 800660a:	f000 bdb1 	b.w	8007170 <taabe248>
 800660e:	bf00      	nop

08006610 <taabe184>:
 8006610:	e92d 4ff0 	stmdb	sp!, {r4, r5, r6, r7, r8, r9, sl, fp, lr}
 8006614:	b087      	sub	sp, #28
 8006616:	2500      	movs	r5, #0
 8006618:	4614      	mov	r4, r2
 800661a:	4699      	mov	r9, r3
 800661c:	9a12      	ldr	r2, [sp, #72]	; 0x48
 800661e:	4606      	mov	r6, r0
 8006620:	9103      	str	r1, [sp, #12]
 8006622:	2138      	movs	r1, #56	; 0x38
 8006624:	6015      	str	r5, [r2, #0]
 8006626:	2201      	movs	r2, #1
 8006628:	f000 fd72 	bl	8007110 <taabe247>
 800662c:	2800      	cmp	r0, #0
 800662e:	d076      	beq.n	800671e <taabe184+0x10e>
 8006630:	4602      	mov	r2, r0
 8006632:	4605      	mov	r5, r0
 8006634:	f44f 7180 	mov.w	r1, #256	; 0x100
 8006638:	4630      	mov	r0, r6
 800663a:	f842 6b04 	str.w	r6, [r2], #4
 800663e:	f000 fdad 	bl	800719c <taabe158>
 8006642:	4607      	mov	r7, r0
 8006644:	2800      	cmp	r0, #0
 8006646:	d163      	bne.n	8006710 <taabe184+0x100>
 8006648:	4960      	ldr	r1, [pc, #384]	; (80067cc <taabe184+0x1bc>)
 800664a:	f105 020c 	add.w	r2, r5, #12
 800664e:	4630      	mov	r0, r6
 8006650:	60a9      	str	r1, [r5, #8]
 8006652:	f001 fa4d 	bl	8007af0 <taabe233>
 8006656:	4607      	mov	r7, r0
 8006658:	2800      	cmp	r0, #0
 800665a:	d159      	bne.n	8006710 <taabe184+0x100>
 800665c:	9b03      	ldr	r3, [sp, #12]
 800665e:	68e8      	ldr	r0, [r5, #12]
 8006660:	009a      	lsls	r2, r3, #2
 8006662:	9204      	str	r2, [sp, #16]
 8006664:	f001 fb02 	bl	8007c6c <taabe237>
 8006668:	f000 fd20 	bl	80070ac <taabe255>
 800666c:	9b03      	ldr	r3, [sp, #12]
 800666e:	61ac      	str	r4, [r5, #24]
 8006670:	2201      	movs	r2, #1
 8006672:	9904      	ldr	r1, [sp, #16]
 8006674:	e9c5 0304 	strd	r0, r3, [r5, #16]
 8006678:	9811      	ldr	r0, [sp, #68]	; 0x44
 800667a:	61e8      	str	r0, [r5, #28]
 800667c:	4630      	mov	r0, r6
 800667e:	f000 fd47 	bl	8007110 <taabe247>
 8006682:	4604      	mov	r4, r0
 8006684:	6228      	str	r0, [r5, #32]
 8006686:	2800      	cmp	r0, #0
 8006688:	d07d      	beq.n	8006786 <taabe184+0x176>
 800668a:	9b03      	ldr	r3, [sp, #12]
 800668c:	2b00      	cmp	r3, #0
 800668e:	dd7f      	ble.n	8006790 <taabe184+0x180>
 8006690:	f8dd 8040 	ldr.w	r8, [sp, #64]	; 0x40
 8006694:	46bb      	mov	fp, r7
 8006696:	69aa      	ldr	r2, [r5, #24]
 8006698:	9705      	str	r7, [sp, #20]
 800669a:	f852 102b 	ldr.w	r1, [r2, fp, lsl #2]
 800669e:	4630      	mov	r0, r6
 80066a0:	2201      	movs	r2, #1
 80066a2:	ea4f 0a8b 	mov.w	sl, fp, lsl #2
 80066a6:	0089      	lsls	r1, r1, #2
 80066a8:	f000 fd32 	bl	8007110 <taabe247>
 80066ac:	6a2b      	ldr	r3, [r5, #32]
 80066ae:	f844 002b 	str.w	r0, [r4, fp, lsl #2]
 80066b2:	f853 302b 	ldr.w	r3, [r3, fp, lsl #2]
 80066b6:	2b00      	cmp	r3, #0
 80066b8:	d065      	beq.n	8006786 <taabe184+0x176>
 80066ba:	69aa      	ldr	r2, [r5, #24]
 80066bc:	f852 102b 	ldr.w	r1, [r2, fp, lsl #2]
 80066c0:	2900      	cmp	r1, #0
 80066c2:	dd31      	ble.n	8006728 <taabe184+0x118>
 80066c4:	2400      	movs	r4, #0
 80066c6:	461f      	mov	r7, r3
 80066c8:	e007      	b.n	80066da <taabe184+0xca>
 80066ca:	69aa      	ldr	r2, [r5, #24]
 80066cc:	f852 300a 	ldr.w	r3, [r2, sl]
 80066d0:	42a3      	cmp	r3, r4
 80066d2:	dd29      	ble.n	8006728 <taabe184+0x118>
 80066d4:	6a2b      	ldr	r3, [r5, #32]
 80066d6:	f853 700a 	ldr.w	r7, [r3, sl]
 80066da:	f8d9 2000 	ldr.w	r2, [r9]
 80066de:	eb07 0784 	add.w	r7, r7, r4, lsl #2
 80066e2:	f8d8 1000 	ldr.w	r1, [r8]
 80066e6:	2307      	movs	r3, #7
 80066e8:	f852 2024 	ldr.w	r2, [r2, r4, lsl #2]
 80066ec:	4630      	mov	r0, r6
 80066ee:	f851 1024 	ldr.w	r1, [r1, r4, lsl #2]
 80066f2:	3401      	adds	r4, #1
 80066f4:	9700      	str	r7, [sp, #0]
 80066f6:	f001 fd89 	bl	800820c <taabe180>
 80066fa:	2800      	cmp	r0, #0
 80066fc:	d0e5      	beq.n	80066ca <taabe184+0xba>
 80066fe:	4603      	mov	r3, r0
 8006700:	4628      	mov	r0, r5
 8006702:	461f      	mov	r7, r3
 8006704:	f7ff ff38 	bl	8006578 <taabe185.part.0>
 8006708:	4638      	mov	r0, r7
 800670a:	b007      	add	sp, #28
 800670c:	e8bd 8ff0 	ldmia.w	sp!, {r4, r5, r6, r7, r8, r9, sl, fp, pc}
 8006710:	4628      	mov	r0, r5
 8006712:	f7ff ff31 	bl	8006578 <taabe185.part.0>
 8006716:	4638      	mov	r0, r7
 8006718:	b007      	add	sp, #28
 800671a:	e8bd 8ff0 	ldmia.w	sp!, {r4, r5, r6, r7, r8, r9, sl, fp, pc}
 800671e:	2701      	movs	r7, #1
 8006720:	4638      	mov	r0, r7
 8006722:	b007      	add	sp, #28
 8006724:	e8bd 8ff0 	ldmia.w	sp!, {r4, r5, r6, r7, r8, r9, sl, fp, pc}
 8006728:	f10b 0b01 	add.w	fp, fp, #1
 800672c:	9b03      	ldr	r3, [sp, #12]
 800672e:	f108 0804 	add.w	r8, r8, #4
 8006732:	f109 0904 	add.w	r9, r9, #4
 8006736:	455b      	cmp	r3, fp
 8006738:	d001      	beq.n	800673e <taabe184+0x12e>
 800673a:	6a2c      	ldr	r4, [r5, #32]
 800673c:	e7ad      	b.n	800669a <taabe184+0x8a>
 800673e:	e9dd 1704 	ldrd	r1, r7, [sp, #16]
 8006742:	2201      	movs	r2, #1
 8006744:	4630      	mov	r0, r6
 8006746:	f000 fce3 	bl	8007110 <taabe247>
 800674a:	6268      	str	r0, [r5, #36]	; 0x24
 800674c:	b1d8      	cbz	r0, 8006786 <taabe184+0x176>
 800674e:	4633      	mov	r3, r6
 8006750:	2400      	movs	r4, #0
 8006752:	f44f 4900 	mov.w	r9, #32768	; 0x8000
 8006756:	4606      	mov	r6, r0
 8006758:	4698      	mov	r8, r3
 800675a:	e007      	b.n	800676c <taabe184+0x15c>
 800675c:	455c      	cmp	r4, fp
 800675e:	f8a3 9000 	strh.w	r9, [r3]
 8006762:	f8a3 9002 	strh.w	r9, [r3, #2]
 8006766:	f8a3 9004 	strh.w	r9, [r3, #4]
 800676a:	d02d      	beq.n	80067c8 <taabe184+0x1b8>
 800676c:	2200      	movs	r2, #0
 800676e:	2106      	movs	r1, #6
 8006770:	4640      	mov	r0, r8
 8006772:	f000 fccd 	bl	8007110 <taabe247>
 8006776:	f846 0024 	str.w	r0, [r6, r4, lsl #2]
 800677a:	6a6e      	ldr	r6, [r5, #36]	; 0x24
 800677c:	f856 3024 	ldr.w	r3, [r6, r4, lsl #2]
 8006780:	3401      	adds	r4, #1
 8006782:	2b00      	cmp	r3, #0
 8006784:	d1ea      	bne.n	800675c <taabe184+0x14c>
 8006786:	4628      	mov	r0, r5
 8006788:	2701      	movs	r7, #1
 800678a:	f7ff fef5 	bl	8006578 <taabe185.part.0>
 800678e:	e7c2      	b.n	8006716 <taabe184+0x106>
 8006790:	9904      	ldr	r1, [sp, #16]
 8006792:	2201      	movs	r2, #1
 8006794:	4630      	mov	r0, r6
 8006796:	f000 fcbb 	bl	8007110 <taabe247>
 800679a:	6268      	str	r0, [r5, #36]	; 0x24
 800679c:	2800      	cmp	r0, #0
 800679e:	d0f2      	beq.n	8006786 <taabe184+0x176>
 80067a0:	f44f 4200 	mov.w	r2, #32768	; 0x8000
 80067a4:	2300      	movs	r3, #0
 80067a6:	9903      	ldr	r1, [sp, #12]
 80067a8:	f04f 2480 	mov.w	r4, #2147516416	; 0x80008000
 80067ac:	85aa      	strh	r2, [r5, #44]	; 0x2c
 80067ae:	4630      	mov	r0, r6
 80067b0:	0049      	lsls	r1, r1, #1
 80067b2:	62ac      	str	r4, [r5, #40]	; 0x28
 80067b4:	2201      	movs	r2, #1
 80067b6:	632b      	str	r3, [r5, #48]	; 0x30
 80067b8:	f000 fcaa 	bl	8007110 <taabe247>
 80067bc:	6368      	str	r0, [r5, #52]	; 0x34
 80067be:	2800      	cmp	r0, #0
 80067c0:	d0e1      	beq.n	8006786 <taabe184+0x176>
 80067c2:	9b12      	ldr	r3, [sp, #72]	; 0x48
 80067c4:	601d      	str	r5, [r3, #0]
 80067c6:	e7a6      	b.n	8006716 <taabe184+0x106>
 80067c8:	4646      	mov	r6, r8
 80067ca:	e7e9      	b.n	80067a0 <taabe184+0x190>
 80067cc:	0800bda8 	.word	0x0800bda8

080067d0 <taabe185>:
 80067d0:	b108      	cbz	r0, 80067d6 <taabe185+0x6>
 80067d2:	f7ff bed1 	b.w	8006578 <taabe185.part.0>
 80067d6:	4770      	bx	lr

080067d8 <taabe187>:
 80067d8:	e92d 43f8 	stmdb	sp!, {r3, r4, r5, r6, r7, r8, r9, lr}
 80067dc:	4606      	mov	r6, r0
 80067de:	6840      	ldr	r0, [r0, #4]
 80067e0:	f000 fe18 	bl	8007414 <taabe161>
 80067e4:	68f0      	ldr	r0, [r6, #12]
 80067e6:	f001 fa2f 	bl	8007c48 <taabe236>
 80067ea:	6977      	ldr	r7, [r6, #20]
 80067ec:	6a35      	ldr	r5, [r6, #32]
 80067ee:	2f00      	cmp	r7, #0
 80067f0:	dd26      	ble.n	8006840 <taabe187+0x68>
 80067f2:	f04f 0800 	mov.w	r8, #0
 80067f6:	69b3      	ldr	r3, [r6, #24]
 80067f8:	f853 2028 	ldr.w	r2, [r3, r8, lsl #2]
 80067fc:	ea4f 0988 	mov.w	r9, r8, lsl #2
 8006800:	2a00      	cmp	r2, #0
 8006802:	dd0b      	ble.n	800681c <taabe187+0x44>
 8006804:	2400      	movs	r4, #0
 8006806:	682b      	ldr	r3, [r5, #0]
 8006808:	f853 0024 	ldr.w	r0, [r3, r4, lsl #2]
 800680c:	3401      	adds	r4, #1
 800680e:	f001 fe97 	bl	8008540 <taabe183>
 8006812:	69b3      	ldr	r3, [r6, #24]
 8006814:	f853 2009 	ldr.w	r2, [r3, r9]
 8006818:	42a2      	cmp	r2, r4
 800681a:	dcf4      	bgt.n	8006806 <taabe187+0x2e>
 800681c:	f108 0801 	add.w	r8, r8, #1
 8006820:	3504      	adds	r5, #4
 8006822:	4547      	cmp	r7, r8
 8006824:	d1e8      	bne.n	80067f8 <taabe187+0x20>
 8006826:	6a72      	ldr	r2, [r6, #36]	; 0x24
 8006828:	f44f 4100 	mov.w	r1, #32768	; 0x8000
 800682c:	3a04      	subs	r2, #4
 800682e:	eb02 0787 	add.w	r7, r2, r7, lsl #2
 8006832:	f852 3f04 	ldr.w	r3, [r2, #4]!
 8006836:	4297      	cmp	r7, r2
 8006838:	8019      	strh	r1, [r3, #0]
 800683a:	8059      	strh	r1, [r3, #2]
 800683c:	8099      	strh	r1, [r3, #4]
 800683e:	d1f8      	bne.n	8006832 <taabe187+0x5a>
 8006840:	f04f 2180 	mov.w	r1, #2147516416	; 0x80008000
 8006844:	f44f 4200 	mov.w	r2, #32768	; 0x8000
 8006848:	2300      	movs	r3, #0
 800684a:	62b1      	str	r1, [r6, #40]	; 0x28
 800684c:	85b2      	strh	r2, [r6, #44]	; 0x2c
 800684e:	6333      	str	r3, [r6, #48]	; 0x30
 8006850:	e8bd 83f8 	ldmia.w	sp!, {r3, r4, r5, r6, r7, r8, r9, pc}

08006854 <taabe186>:
 8006854:	e92d 4ff0 	stmdb	sp!, {r4, r5, r6, r7, r8, r9, sl, fp, lr}
 8006858:	6803      	ldr	r3, [r0, #0]
 800685a:	b08b      	sub	sp, #44	; 0x2c
 800685c:	4605      	mov	r5, r0
 800685e:	460e      	mov	r6, r1
 8006860:	9201      	str	r2, [sp, #4]
 8006862:	21a0      	movs	r1, #160	; 0xa0
 8006864:	6844      	ldr	r4, [r0, #4]
 8006866:	2200      	movs	r2, #0
 8006868:	4618      	mov	r0, r3
 800686a:	9302      	str	r3, [sp, #8]
 800686c:	4699      	mov	r9, r3
 800686e:	f000 fc4f 	bl	8007110 <taabe247>
 8006872:	2800      	cmp	r0, #0
 8006874:	f000 80d3 	beq.w	8006a1e <taabe186+0x1ca>
 8006878:	4602      	mov	r2, r0
 800687a:	4680      	mov	r8, r0
 800687c:	4631      	mov	r1, r6
 800687e:	4620      	mov	r0, r4
 8006880:	f000 fcc6 	bl	8007210 <taabe160>
 8006884:	4607      	mov	r7, r0
 8006886:	2800      	cmp	r0, #0
 8006888:	f040 80c1 	bne.w	8006a0e <taabe186+0x1ba>
 800688c:	f108 0950 	add.w	r9, r8, #80	; 0x50
 8006890:	f506 7100 	add.w	r1, r6, #512	; 0x200
 8006894:	4620      	mov	r0, r4
 8006896:	464a      	mov	r2, r9
 8006898:	f000 fcba 	bl	8007210 <taabe160>
 800689c:	4607      	mov	r7, r0
 800689e:	2800      	cmp	r0, #0
 80068a0:	f040 80c2 	bne.w	8006a28 <taabe186+0x1d4>
 80068a4:	4602      	mov	r2, r0
 80068a6:	4601      	mov	r1, r0
 80068a8:	4640      	mov	r0, r8
 80068aa:	f000 fdb9 	bl	8007420 <taabe162>
 80068ae:	4648      	mov	r0, r9
 80068b0:	463a      	mov	r2, r7
 80068b2:	4639      	mov	r1, r7
 80068b4:	f000 fdb4 	bl	8007420 <taabe162>
 80068b8:	6929      	ldr	r1, [r5, #16]
 80068ba:	463a      	mov	r2, r7
 80068bc:	9802      	ldr	r0, [sp, #8]
 80068be:	3101      	adds	r1, #1
 80068c0:	0089      	lsls	r1, r1, #2
 80068c2:	f000 fc25 	bl	8007110 <taabe247>
 80068c6:	4681      	mov	r9, r0
 80068c8:	2800      	cmp	r0, #0
 80068ca:	f000 80bd 	beq.w	8006a48 <taabe186+0x1f4>
 80068ce:	4602      	mov	r2, r0
 80068d0:	4641      	mov	r1, r8
 80068d2:	68e8      	ldr	r0, [r5, #12]
 80068d4:	f001 f964 	bl	8007ba0 <taabe235>
 80068d8:	4607      	mov	r7, r0
 80068da:	2800      	cmp	r0, #0
 80068dc:	f040 808a 	bne.w	80069f4 <taabe186+0x1a0>
 80068e0:	8d6a      	ldrh	r2, [r5, #42]	; 0x2a
 80068e2:	8dab      	ldrh	r3, [r5, #44]	; 0x2c
 80068e4:	696c      	ldr	r4, [r5, #20]
 80068e6:	852a      	strh	r2, [r5, #40]	; 0x28
 80068e8:	856b      	strh	r3, [r5, #42]	; 0x2a
 80068ea:	f8d9 1000 	ldr.w	r1, [r9]
 80068ee:	9406      	str	r4, [sp, #24]
 80068f0:	f001 f808 	bl	8007904 <taabe154>
 80068f4:	f9b5 202a 	ldrsh.w	r2, [r5, #42]	; 0x2a
 80068f8:	2c00      	cmp	r4, #0
 80068fa:	f9b5 3028 	ldrsh.w	r3, [r5, #40]	; 0x28
 80068fe:	f303 030f 	ssat	r3, #16, r3
 8006902:	fa02 f383 	sxtah	r3, r2, r3
 8006906:	6a6a      	ldr	r2, [r5, #36]	; 0x24
 8006908:	f303 030f 	ssat	r3, #16, r3
 800690c:	fa00 f383 	sxtah	r3, r0, r3
 8006910:	9205      	str	r2, [sp, #20]
 8006912:	f303 030f 	ssat	r3, #16, r3
 8006916:	b21b      	sxth	r3, r3
 8006918:	85a8      	strh	r0, [r5, #44]	; 0x2c
 800691a:	6b69      	ldr	r1, [r5, #52]	; 0x34
 800691c:	6a2a      	ldr	r2, [r5, #32]
 800691e:	9304      	str	r3, [sp, #16]
 8006920:	dd55      	ble.n	80069ce <taabe186+0x17a>
 8006922:	1e8e      	subs	r6, r1, #2
 8006924:	4693      	mov	fp, r2
 8006926:	f8cd 8020 	str.w	r8, [sp, #32]
 800692a:	46b8      	mov	r8, r7
 800692c:	eb06 0344 	add.w	r3, r6, r4, lsl #1
 8006930:	69a9      	ldr	r1, [r5, #24]
 8006932:	46da      	mov	sl, fp
 8006934:	9607      	str	r6, [sp, #28]
 8006936:	9303      	str	r3, [sp, #12]
 8006938:	9709      	str	r7, [sp, #36]	; 0x24
 800693a:	f851 3028 	ldr.w	r3, [r1, r8, lsl #2]
 800693e:	f248 0200 	movw	r2, #32768	; 0x8000
 8006942:	ea4f 0788 	mov.w	r7, r8, lsl #2
 8006946:	2b00      	cmp	r3, #0
 8006948:	f826 2f02 	strh.w	r2, [r6, #2]!
 800694c:	dd14      	ble.n	8006978 <taabe186+0x124>
 800694e:	4c41      	ldr	r4, [pc, #260]	; (8006a54 <taabe186+0x200>)
 8006950:	f04f 0b00 	mov.w	fp, #0
 8006954:	f8da 3000 	ldr.w	r3, [sl]
 8006958:	4649      	mov	r1, r9
 800695a:	f853 002b 	ldr.w	r0, [r3, fp, lsl #2]
 800695e:	f10b 0b01 	add.w	fp, fp, #1
 8006962:	f001 fcdb 	bl	800831c <taabe182>
 8006966:	69a9      	ldr	r1, [r5, #24]
 8006968:	4284      	cmp	r4, r0
 800696a:	59cb      	ldr	r3, [r1, r7]
 800696c:	bfb8      	it	lt
 800696e:	4604      	movlt	r4, r0
 8006970:	455b      	cmp	r3, fp
 8006972:	b224      	sxth	r4, r4
 8006974:	8034      	strh	r4, [r6, #0]
 8006976:	dced      	bgt.n	8006954 <taabe186+0x100>
 8006978:	69eb      	ldr	r3, [r5, #28]
 800697a:	f813 3008 	ldrb.w	r3, [r3, r8]
 800697e:	2b00      	cmp	r3, #0
 8006980:	d05a      	beq.n	8006a38 <taabe186+0x1e4>
 8006982:	9b04      	ldr	r3, [sp, #16]
 8006984:	f513 7fc0 	cmn.w	r3, #384	; 0x180
 8006988:	db59      	blt.n	8006a3e <taabe186+0x1ea>
 800698a:	9b05      	ldr	r3, [sp, #20]
 800698c:	f853 3028 	ldr.w	r3, [r3, r8, lsl #2]
 8006990:	f9b3 3000 	ldrsh.w	r3, [r3]
 8006994:	9a01      	ldr	r2, [sp, #4]
 8006996:	f10a 0a04 	add.w	sl, sl, #4
 800699a:	f822 3018 	strh.w	r3, [r2, r8, lsl #1]
 800699e:	f108 0801 	add.w	r8, r8, #1
 80069a2:	9b03      	ldr	r3, [sp, #12]
 80069a4:	42b3      	cmp	r3, r6
 80069a6:	d1c8      	bne.n	800693a <taabe186+0xe6>
 80069a8:	9b05      	ldr	r3, [sp, #20]
 80069aa:	9907      	ldr	r1, [sp, #28]
 80069ac:	1f1a      	subs	r2, r3, #4
 80069ae:	9b06      	ldr	r3, [sp, #24]
 80069b0:	e9dd 8708 	ldrd	r8, r7, [sp, #32]
 80069b4:	eb02 0483 	add.w	r4, r2, r3, lsl #2
 80069b8:	f852 3f04 	ldr.w	r3, [r2, #4]!
 80069bc:	8898      	ldrh	r0, [r3, #4]
 80069be:	4294      	cmp	r4, r2
 80069c0:	885e      	ldrh	r6, [r3, #2]
 80069c2:	8058      	strh	r0, [r3, #2]
 80069c4:	801e      	strh	r6, [r3, #0]
 80069c6:	f931 0f02 	ldrsh.w	r0, [r1, #2]!
 80069ca:	8098      	strh	r0, [r3, #4]
 80069cc:	d1f4      	bne.n	80069b8 <taabe186+0x164>
 80069ce:	f06f 4300 	mvn.w	r3, #2147483648	; 0x80000000
 80069d2:	f8d9 2000 	ldr.w	r2, [r9]
 80069d6:	fa82 f3a3 	qsub	r3, r3, r2
 80069da:	f1b3 4f80 	cmp.w	r3, #1073741824	; 0x40000000
 80069de:	da30      	bge.n	8006a42 <taabe186+0x1ee>
 80069e0:	6b2b      	ldr	r3, [r5, #48]	; 0x30
 80069e2:	f240 7253 	movw	r2, #1875	; 0x753
 80069e6:	3301      	adds	r3, #1
 80069e8:	4293      	cmp	r3, r2
 80069ea:	632b      	str	r3, [r5, #48]	; 0x30
 80069ec:	dd02      	ble.n	80069f4 <taabe186+0x1a0>
 80069ee:	4628      	mov	r0, r5
 80069f0:	f7ff fef2 	bl	80067d8 <taabe187>
 80069f4:	9c02      	ldr	r4, [sp, #8]
 80069f6:	4649      	mov	r1, r9
 80069f8:	4620      	mov	r0, r4
 80069fa:	f000 fbb9 	bl	8007170 <taabe248>
 80069fe:	4620      	mov	r0, r4
 8006a00:	4641      	mov	r1, r8
 8006a02:	f000 fbb5 	bl	8007170 <taabe248>
 8006a06:	4638      	mov	r0, r7
 8006a08:	b00b      	add	sp, #44	; 0x2c
 8006a0a:	e8bd 8ff0 	ldmia.w	sp!, {r4, r5, r6, r7, r8, r9, sl, fp, pc}
 8006a0e:	4641      	mov	r1, r8
 8006a10:	4648      	mov	r0, r9
 8006a12:	f000 fbad 	bl	8007170 <taabe248>
 8006a16:	4638      	mov	r0, r7
 8006a18:	b00b      	add	sp, #44	; 0x2c
 8006a1a:	e8bd 8ff0 	ldmia.w	sp!, {r4, r5, r6, r7, r8, r9, sl, fp, pc}
 8006a1e:	2701      	movs	r7, #1
 8006a20:	4638      	mov	r0, r7
 8006a22:	b00b      	add	sp, #44	; 0x2c
 8006a24:	e8bd 8ff0 	ldmia.w	sp!, {r4, r5, r6, r7, r8, r9, sl, fp, pc}
 8006a28:	9802      	ldr	r0, [sp, #8]
 8006a2a:	4641      	mov	r1, r8
 8006a2c:	f000 fba0 	bl	8007170 <taabe248>
 8006a30:	4638      	mov	r0, r7
 8006a32:	b00b      	add	sp, #44	; 0x2c
 8006a34:	e8bd 8ff0 	ldmia.w	sp!, {r4, r5, r6, r7, r8, r9, sl, fp, pc}
 8006a38:	f9b6 3000 	ldrsh.w	r3, [r6]
 8006a3c:	e7aa      	b.n	8006994 <taabe186+0x140>
 8006a3e:	4b05      	ldr	r3, [pc, #20]	; (8006a54 <taabe186+0x200>)
 8006a40:	e7a8      	b.n	8006994 <taabe186+0x140>
 8006a42:	2300      	movs	r3, #0
 8006a44:	632b      	str	r3, [r5, #48]	; 0x30
 8006a46:	e7d5      	b.n	80069f4 <taabe186+0x1a0>
 8006a48:	4641      	mov	r1, r8
 8006a4a:	9802      	ldr	r0, [sp, #8]
 8006a4c:	f000 fb90 	bl	8007170 <taabe248>
 8006a50:	2701      	movs	r7, #1
 8006a52:	e7e0      	b.n	8006a16 <taabe186+0x1c2>
 8006a54:	ffff8000 	.word	0xffff8000

08006a58 <taabe188>:
 8006a58:	68c0      	ldr	r0, [r0, #12]
 8006a5a:	f001 b907 	b.w	8007c6c <taabe237>
 8006a5e:	bf00      	nop

08006a60 <taabe191>:
 8006a60:	e92d 4ff0 	stmdb	sp!, {r4, r5, r6, r7, r8, r9, sl, fp, lr}
 8006a64:	b087      	sub	sp, #28
 8006a66:	2600      	movs	r6, #0
 8006a68:	4691      	mov	r9, r2
 8006a6a:	4680      	mov	r8, r0
 8006a6c:	af02      	add	r7, sp, #8
 8006a6e:	461a      	mov	r2, r3
 8006a70:	4648      	mov	r0, r9
 8006a72:	6bfd      	ldr	r5, [r7, #60]	; 0x3c
 8006a74:	1d3c      	adds	r4, r7, #4
 8006a76:	463b      	mov	r3, r7
 8006a78:	602e      	str	r6, [r5, #0]
 8006a7a:	6c3d      	ldr	r5, [r7, #64]	; 0x40
 8006a7c:	602e      	str	r6, [r5, #0]
 8006a7e:	6c7d      	ldr	r5, [r7, #68]	; 0x44
 8006a80:	e9c7 6600 	strd	r6, r6, [r7]
 8006a84:	602e      	str	r6, [r5, #0]
 8006a86:	9400      	str	r4, [sp, #0]
 8006a88:	f000 fa56 	bl	8006f38 <taabe303>
 8006a8c:	2800      	cmp	r0, #0
 8006a8e:	f040 811d 	bne.w	8006ccc <taabe191+0x26c>
 8006a92:	6839      	ldr	r1, [r7, #0]
 8006a94:	780b      	ldrb	r3, [r1, #0]
 8006a96:	2b70      	cmp	r3, #112	; 0x70
 8006a98:	f040 810b 	bne.w	8006cb2 <taabe191+0x252>
 8006a9c:	460a      	mov	r2, r1
 8006a9e:	48cd      	ldr	r0, [pc, #820]	; (8006dd4 <taabe191+0x374>)
 8006aa0:	236f      	movs	r3, #111	; 0x6f
 8006aa2:	f812 cf01 	ldrb.w	ip, [r2, #1]!
 8006aa6:	459c      	cmp	ip, r3
 8006aa8:	f040 8103 	bne.w	8006cb2 <taabe191+0x252>
 8006aac:	f810 3f01 	ldrb.w	r3, [r0, #1]!
 8006ab0:	2b00      	cmp	r3, #0
 8006ab2:	d1f6      	bne.n	8006aa2 <taabe191+0x42>
 8006ab4:	7a4b      	ldrb	r3, [r1, #9]
 8006ab6:	f101 0e09 	add.w	lr, r1, #9
 8006aba:	2b31      	cmp	r3, #49	; 0x31
 8006abc:	f040 810f 	bne.w	8006cde <taabe191+0x27e>
 8006ac0:	48c5      	ldr	r0, [pc, #788]	; (8006dd8 <taabe191+0x378>)
 8006ac2:	232e      	movs	r3, #46	; 0x2e
 8006ac4:	4672      	mov	r2, lr
 8006ac6:	f812 cf01 	ldrb.w	ip, [r2, #1]!
 8006aca:	459c      	cmp	ip, r3
 8006acc:	f040 8107 	bne.w	8006cde <taabe191+0x27e>
 8006ad0:	f810 3f01 	ldrb.w	r3, [r0, #1]!
 8006ad4:	2b00      	cmp	r3, #0
 8006ad6:	d1f6      	bne.n	8006ac6 <taabe191+0x66>
 8006ad8:	f8d1 200e 	ldr.w	r2, [r1, #14]
 8006adc:	2a00      	cmp	r2, #0
 8006ade:	f340 8125 	ble.w	8006d2c <taabe191+0x2cc>
 8006ae2:	2a0c      	cmp	r2, #12
 8006ae4:	f040 8113 	bne.w	8006d0e <taabe191+0x2ae>
 8006ae8:	46ea      	mov	sl, sp
 8006aea:	b084      	sub	sp, #16
 8006aec:	3112      	adds	r1, #18
 8006aee:	f04f 0b1e 	mov.w	fp, #30
 8006af2:	ab02      	add	r3, sp, #8
 8006af4:	f10d 0907 	add.w	r9, sp, #7
 8006af8:	4cb8      	ldr	r4, [pc, #736]	; (8006ddc <taabe191+0x37c>)
 8006afa:	4618      	mov	r0, r3
 8006afc:	f001 fda4 	bl	8008648 <memcpy>
 8006b00:	4649      	mov	r1, r9
 8006b02:	4603      	mov	r3, r0
 8006b04:	4ab6      	ldr	r2, [pc, #728]	; (8006de0 <taabe191+0x380>)
 8006b06:	7810      	ldrb	r0, [r2, #0]
 8006b08:	3201      	adds	r2, #1
 8006b0a:	f811 cf01 	ldrb.w	ip, [r1, #1]!
 8006b0e:	4584      	cmp	ip, r0
 8006b10:	f040 810f 	bne.w	8006d32 <taabe191+0x2d2>
 8006b14:	42a2      	cmp	r2, r4
 8006b16:	d1f6      	bne.n	8006b06 <taabe191+0xa6>
 8006b18:	46d5      	mov	sp, sl
 8006b1a:	6839      	ldr	r1, [r7, #0]
 8006b1c:	f851 900b 	ldr.w	r9, [r1, fp]
 8006b20:	4648      	mov	r0, r9
 8006b22:	f000 faa9 	bl	8007078 <taabe252>
 8006b26:	2800      	cmp	r0, #0
 8006b28:	f000 8148 	beq.w	8006dbc <taabe191+0x35c>
 8006b2c:	6bba      	ldr	r2, [r7, #56]	; 0x38
 8006b2e:	683b      	ldr	r3, [r7, #0]
 8006b30:	f8a2 9000 	strh.w	r9, [r2]
 8006b34:	eb03 020b 	add.w	r2, r3, fp
 8006b38:	f8d2 9004 	ldr.w	r9, [r2, #4]
 8006b3c:	f1b9 0f00 	cmp.w	r9, #0
 8006b40:	f340 80b7 	ble.w	8006cb2 <taabe191+0x252>
 8006b44:	f10b 0b08 	add.w	fp, fp, #8
 8006b48:	44d9      	add	r9, fp
 8006b4a:	f853 1009 	ldr.w	r1, [r3, r9]
 8006b4e:	6bfb      	ldr	r3, [r7, #60]	; 0x3c
 8006b50:	2900      	cmp	r1, #0
 8006b52:	6019      	str	r1, [r3, #0]
 8006b54:	f340 80ad 	ble.w	8006cb2 <taabe191+0x252>
 8006b58:	2200      	movs	r2, #0
 8006b5a:	0089      	lsls	r1, r1, #2
 8006b5c:	4640      	mov	r0, r8
 8006b5e:	f000 fad7 	bl	8007110 <taabe247>
 8006b62:	6c3a      	ldr	r2, [r7, #64]	; 0x40
 8006b64:	6010      	str	r0, [r2, #0]
 8006b66:	2800      	cmp	r0, #0
 8006b68:	f000 812e 	beq.w	8006dc8 <taabe191+0x368>
 8006b6c:	6bfb      	ldr	r3, [r7, #60]	; 0x3c
 8006b6e:	f109 0904 	add.w	r9, r9, #4
 8006b72:	6839      	ldr	r1, [r7, #0]
 8006b74:	681a      	ldr	r2, [r3, #0]
 8006b76:	4449      	add	r1, r9
 8006b78:	0092      	lsls	r2, r2, #2
 8006b7a:	f001 fd65 	bl	8008648 <memcpy>
 8006b7e:	6bfb      	ldr	r3, [r7, #60]	; 0x3c
 8006b80:	681c      	ldr	r4, [r3, #0]
 8006b82:	2c00      	cmp	r4, #0
 8006b84:	f340 8199 	ble.w	8006eba <taabe191+0x45a>
 8006b88:	6c3b      	ldr	r3, [r7, #64]	; 0x40
 8006b8a:	f8d3 a000 	ldr.w	sl, [r3]
 8006b8e:	f8da e000 	ldr.w	lr, [sl]
 8006b92:	f1be 0f00 	cmp.w	lr, #0
 8006b96:	f340 80f6 	ble.w	8006d86 <taabe191+0x326>
 8006b9a:	4650      	mov	r0, sl
 8006b9c:	4652      	mov	r2, sl
 8006b9e:	2300      	movs	r3, #0
 8006ba0:	e004      	b.n	8006bac <taabe191+0x14c>
 8006ba2:	f852 1f04 	ldr.w	r1, [r2, #4]!
 8006ba6:	2900      	cmp	r1, #0
 8006ba8:	f340 80ed 	ble.w	8006d86 <taabe191+0x326>
 8006bac:	3301      	adds	r3, #1
 8006bae:	429c      	cmp	r4, r3
 8006bb0:	d1f7      	bne.n	8006ba2 <taabe191+0x142>
 8006bb2:	00a4      	lsls	r4, r4, #2
 8006bb4:	f1aa 0204 	sub.w	r2, sl, #4
 8006bb8:	f04f 0b00 	mov.w	fp, #0
 8006bbc:	4422      	add	r2, r4
 8006bbe:	e001      	b.n	8006bc4 <taabe191+0x164>
 8006bc0:	f850 ef04 	ldr.w	lr, [r0, #4]!
 8006bc4:	4282      	cmp	r2, r0
 8006bc6:	44f3      	add	fp, lr
 8006bc8:	d1fa      	bne.n	8006bc0 <taabe191+0x160>
 8006bca:	2200      	movs	r2, #0
 8006bcc:	4621      	mov	r1, r4
 8006bce:	4640      	mov	r0, r8
 8006bd0:	f000 fa9e 	bl	8007110 <taabe247>
 8006bd4:	6c7b      	ldr	r3, [r7, #68]	; 0x44
 8006bd6:	6018      	str	r0, [r3, #0]
 8006bd8:	2800      	cmp	r0, #0
 8006bda:	f000 80e3 	beq.w	8006da4 <taabe191+0x344>
 8006bde:	2200      	movs	r2, #0
 8006be0:	ea4f 018b 	mov.w	r1, fp, lsl #2
 8006be4:	4640      	mov	r0, r8
 8006be6:	f000 fa93 	bl	8007110 <taabe247>
 8006bea:	4682      	mov	sl, r0
 8006bec:	2800      	cmp	r0, #0
 8006bee:	f000 8182 	beq.w	8006ef6 <taabe191+0x496>
 8006bf2:	6bfb      	ldr	r3, [r7, #60]	; 0x3c
 8006bf4:	6818      	ldr	r0, [r3, #0]
 8006bf6:	6c7b      	ldr	r3, [r7, #68]	; 0x44
 8006bf8:	2801      	cmp	r0, #1
 8006bfa:	681b      	ldr	r3, [r3, #0]
 8006bfc:	f8c3 a000 	str.w	sl, [r3]
 8006c00:	dd10      	ble.n	8006c24 <taabe191+0x1c4>
 8006c02:	1f1e      	subs	r6, r3, #4
 8006c04:	461a      	mov	r2, r3
 8006c06:	4651      	mov	r1, sl
 8006c08:	eb06 0680 	add.w	r6, r6, r0, lsl #2
 8006c0c:	6c38      	ldr	r0, [r7, #64]	; 0x40
 8006c0e:	eba2 0e03 	sub.w	lr, r2, r3
 8006c12:	6800      	ldr	r0, [r0, #0]
 8006c14:	f850 000e 	ldr.w	r0, [r0, lr]
 8006c18:	eb01 0180 	add.w	r1, r1, r0, lsl #2
 8006c1c:	f842 1f04 	str.w	r1, [r2, #4]!
 8006c20:	4296      	cmp	r6, r2
 8006c22:	d1f3      	bne.n	8006c0c <taabe191+0x1ac>
 8006c24:	eb04 0309 	add.w	r3, r4, r9
 8006c28:	f8d7 c000 	ldr.w	ip, [r7]
 8006c2c:	f1bb 0f00 	cmp.w	fp, #0
 8006c30:	f103 0404 	add.w	r4, r3, #4
 8006c34:	f85c 9003 	ldr.w	r9, [ip, r3]
 8006c38:	f340 80e8 	ble.w	8006e0c <taabe191+0x3ac>
 8006c3c:	f8ca 9000 	str.w	r9, [sl]
 8006c40:	f1b9 0f00 	cmp.w	r9, #0
 8006c44:	dd1e      	ble.n	8006c84 <taabe191+0x224>
 8006c46:	f06f 0203 	mvn.w	r2, #3
 8006c4a:	2600      	movs	r6, #0
 8006c4c:	1ad3      	subs	r3, r2, r3
 8006c4e:	461d      	mov	r5, r3
 8006c50:	e00f      	b.n	8006c72 <taabe191+0x212>
 8006c52:	f8d7 c000 	ldr.w	ip, [r7]
 8006c56:	455e      	cmp	r6, fp
 8006c58:	eb0a 0e00 	add.w	lr, sl, r0
 8006c5c:	f85c 3004 	ldr.w	r3, [ip, r4]
 8006c60:	4699      	mov	r9, r3
 8006c62:	f000 80d5 	beq.w	8006e10 <taabe191+0x3b0>
 8006c66:	f1b3 0900 	subs.w	r9, r3, #0
 8006c6a:	f84e 3005 	str.w	r3, [lr, r5]
 8006c6e:	4604      	mov	r4, r0
 8006c70:	dd08      	ble.n	8006c84 <taabe191+0x224>
 8006c72:	6bbb      	ldr	r3, [r7, #56]	; 0x38
 8006c74:	3601      	adds	r6, #1
 8006c76:	8818      	ldrh	r0, [r3, #0]
 8006c78:	f000 fa18 	bl	80070ac <taabe255>
 8006c7c:	4548      	cmp	r0, r9
 8006c7e:	f104 0004 	add.w	r0, r4, #4
 8006c82:	dae6      	bge.n	8006c52 <taabe191+0x1f2>
 8006c84:	4651      	mov	r1, sl
 8006c86:	4640      	mov	r0, r8
 8006c88:	f000 fa72 	bl	8007170 <taabe248>
 8006c8c:	2600      	movs	r6, #0
 8006c8e:	6c7b      	ldr	r3, [r7, #68]	; 0x44
 8006c90:	4640      	mov	r0, r8
 8006c92:	f04f 0903 	mov.w	r9, #3
 8006c96:	601e      	str	r6, [r3, #0]
 8006c98:	4619      	mov	r1, r3
 8006c9a:	f000 fa69 	bl	8007170 <taabe248>
 8006c9e:	6c3b      	ldr	r3, [r7, #64]	; 0x40
 8006ca0:	4640      	mov	r0, r8
 8006ca2:	4631      	mov	r1, r6
 8006ca4:	601e      	str	r6, [r3, #0]
 8006ca6:	f000 fa63 	bl	8007170 <taabe248>
 8006caa:	6838      	ldr	r0, [r7, #0]
 8006cac:	f001 fcc4 	bl	8008638 <free>
 8006cb0:	e007      	b.n	8006cc2 <taabe191+0x262>
 8006cb2:	484c      	ldr	r0, [pc, #304]	; (8006de4 <taabe191+0x384>)
 8006cb4:	f04f 0903 	mov.w	r9, #3
 8006cb8:	f000 fcde 	bl	8007678 <taabe218>
 8006cbc:	6838      	ldr	r0, [r7, #0]
 8006cbe:	f001 fcbb 	bl	8008638 <free>
 8006cc2:	4648      	mov	r0, r9
 8006cc4:	3714      	adds	r7, #20
 8006cc6:	46bd      	mov	sp, r7
 8006cc8:	e8bd 8ff0 	ldmia.w	sp!, {r4, r5, r6, r7, r8, r9, sl, fp, pc}
 8006ccc:	4681      	mov	r9, r0
 8006cce:	4846      	ldr	r0, [pc, #280]	; (8006de8 <taabe191+0x388>)
 8006cd0:	f000 fcd2 	bl	8007678 <taabe218>
 8006cd4:	3714      	adds	r7, #20
 8006cd6:	4648      	mov	r0, r9
 8006cd8:	46bd      	mov	sp, r7
 8006cda:	e8bd 8ff0 	ldmia.w	sp!, {r4, r5, r6, r7, r8, r9, sl, fp, pc}
 8006cde:	f8de 0000 	ldr.w	r0, [lr]
 8006ce2:	2300      	movs	r3, #0
 8006ce4:	f107 0108 	add.w	r1, r7, #8
 8006ce8:	4a40      	ldr	r2, [pc, #256]	; (8006dec <taabe191+0x38c>)
 8006cea:	60b8      	str	r0, [r7, #8]
 8006cec:	f04f 0903 	mov.w	r9, #3
 8006cf0:	f89e 4004 	ldrb.w	r4, [lr, #4]
 8006cf4:	483e      	ldr	r0, [pc, #248]	; (8006df0 <taabe191+0x390>)
 8006cf6:	737b      	strb	r3, [r7, #13]
 8006cf8:	733c      	strb	r4, [r7, #12]
 8006cfa:	f000 fcbd 	bl	8007678 <taabe218>
 8006cfe:	6838      	ldr	r0, [r7, #0]
 8006d00:	f001 fc9a 	bl	8008638 <free>
 8006d04:	4648      	mov	r0, r9
 8006d06:	3714      	adds	r7, #20
 8006d08:	46bd      	mov	sp, r7
 8006d0a:	e8bd 8ff0 	ldmia.w	sp!, {r4, r5, r6, r7, r8, r9, sl, fp, pc}
 8006d0e:	4611      	mov	r1, r2
 8006d10:	4838      	ldr	r0, [pc, #224]	; (8006df4 <taabe191+0x394>)
 8006d12:	220c      	movs	r2, #12
 8006d14:	f04f 0903 	mov.w	r9, #3
 8006d18:	f000 fcae 	bl	8007678 <taabe218>
 8006d1c:	6838      	ldr	r0, [r7, #0]
 8006d1e:	f001 fc8b 	bl	8008638 <free>
 8006d22:	4648      	mov	r0, r9
 8006d24:	3714      	adds	r7, #20
 8006d26:	46bd      	mov	sp, r7
 8006d28:	e8bd 8ff0 	ldmia.w	sp!, {r4, r5, r6, r7, r8, r9, sl, fp, pc}
 8006d2c:	f04f 0b12 	mov.w	fp, #18
 8006d30:	e6f4      	b.n	8006b1c <taabe191+0xbc>
 8006d32:	4831      	ldr	r0, [pc, #196]	; (8006df8 <taabe191+0x398>)
 8006d34:	f103 040b 	add.w	r4, r3, #11
 8006d38:	4d30      	ldr	r5, [pc, #192]	; (8006dfc <taabe191+0x39c>)
 8006d3a:	f000 fc9d 	bl	8007678 <taabe218>
 8006d3e:	4830      	ldr	r0, [pc, #192]	; (8006e00 <taabe191+0x3a0>)
 8006d40:	f000 fc9a 	bl	8007678 <taabe218>
 8006d44:	f819 1f01 	ldrb.w	r1, [r9, #1]!
 8006d48:	4628      	mov	r0, r5
 8006d4a:	f000 fc95 	bl	8007678 <taabe218>
 8006d4e:	454c      	cmp	r4, r9
 8006d50:	d1f8      	bne.n	8006d44 <taabe191+0x2e4>
 8006d52:	482c      	ldr	r0, [pc, #176]	; (8006e04 <taabe191+0x3a4>)
 8006d54:	f000 fc90 	bl	8007678 <taabe218>
 8006d58:	482b      	ldr	r0, [pc, #172]	; (8006e08 <taabe191+0x3a8>)
 8006d5a:	4c21      	ldr	r4, [pc, #132]	; (8006de0 <taabe191+0x380>)
 8006d5c:	4e27      	ldr	r6, [pc, #156]	; (8006dfc <taabe191+0x39c>)
 8006d5e:	4d1f      	ldr	r5, [pc, #124]	; (8006ddc <taabe191+0x37c>)
 8006d60:	f000 fc8a 	bl	8007678 <taabe218>
 8006d64:	f814 1b01 	ldrb.w	r1, [r4], #1
 8006d68:	4630      	mov	r0, r6
 8006d6a:	f000 fc85 	bl	8007678 <taabe218>
 8006d6e:	42ac      	cmp	r4, r5
 8006d70:	d1f8      	bne.n	8006d64 <taabe191+0x304>
 8006d72:	4824      	ldr	r0, [pc, #144]	; (8006e04 <taabe191+0x3a4>)
 8006d74:	f04f 0903 	mov.w	r9, #3
 8006d78:	f000 fc7e 	bl	8007678 <taabe218>
 8006d7c:	6838      	ldr	r0, [r7, #0]
 8006d7e:	f001 fc5b 	bl	8008638 <free>
 8006d82:	46d5      	mov	sp, sl
 8006d84:	e79d      	b.n	8006cc2 <taabe191+0x262>
 8006d86:	4817      	ldr	r0, [pc, #92]	; (8006de4 <taabe191+0x384>)
 8006d88:	f04f 0903 	mov.w	r9, #3
 8006d8c:	f000 fc74 	bl	8007678 <taabe218>
 8006d90:	2100      	movs	r1, #0
 8006d92:	6c3b      	ldr	r3, [r7, #64]	; 0x40
 8006d94:	4640      	mov	r0, r8
 8006d96:	6019      	str	r1, [r3, #0]
 8006d98:	f000 f9ea 	bl	8007170 <taabe248>
 8006d9c:	6838      	ldr	r0, [r7, #0]
 8006d9e:	f001 fc4b 	bl	8008638 <free>
 8006da2:	e78e      	b.n	8006cc2 <taabe191+0x262>
 8006da4:	6c3b      	ldr	r3, [r7, #64]	; 0x40
 8006da6:	4601      	mov	r1, r0
 8006da8:	f04f 0901 	mov.w	r9, #1
 8006dac:	6018      	str	r0, [r3, #0]
 8006dae:	4640      	mov	r0, r8
 8006db0:	f000 f9de 	bl	8007170 <taabe248>
 8006db4:	6838      	ldr	r0, [r7, #0]
 8006db6:	f001 fc3f 	bl	8008638 <free>
 8006dba:	e782      	b.n	8006cc2 <taabe191+0x262>
 8006dbc:	6838      	ldr	r0, [r7, #0]
 8006dbe:	f04f 0903 	mov.w	r9, #3
 8006dc2:	f001 fc39 	bl	8008638 <free>
 8006dc6:	e77c      	b.n	8006cc2 <taabe191+0x262>
 8006dc8:	6838      	ldr	r0, [r7, #0]
 8006dca:	f04f 0901 	mov.w	r9, #1
 8006dce:	f001 fc33 	bl	8008638 <free>
 8006dd2:	e776      	b.n	8006cc2 <taabe191+0x262>
 8006dd4:	0800a379 	.word	0x0800a379
 8006dd8:	0800a385 	.word	0x0800a385
 8006ddc:	1ff0f42c 	.word	0x1ff0f42c
 8006de0:	1ff0f420 	.word	0x1ff0f420
 8006de4:	0800a414 	.word	0x0800a414
 8006de8:	0800a328 	.word	0x0800a328
 8006dec:	0800a384 	.word	0x0800a384
 8006df0:	0800a46c 	.word	0x0800a46c
 8006df4:	0800a3ac 	.word	0x0800a3ac
 8006df8:	0800a4e4 	.word	0x0800a4e4
 8006dfc:	0800a38c 	.word	0x0800a38c
 8006e00:	0800a51c 	.word	0x0800a51c
 8006e04:	0800a28c 	.word	0x0800a28c
 8006e08:	0800a394 	.word	0x0800a394
 8006e0c:	4620      	mov	r0, r4
 8006e0e:	461c      	mov	r4, r3
 8006e10:	ee07 9a90 	vmov	s15, r9
 8006e14:	6cbb      	ldr	r3, [r7, #72]	; 0x48
 8006e16:	eef5 7ac0 	vcmpe.f32	s15, #0.0
 8006e1a:	f8c3 9000 	str.w	r9, [r3]
 8006e1e:	eef1 fa10 	vmrs	APSR_nzcv, fpscr
 8006e22:	da4e      	bge.n	8006ec2 <taabe191+0x462>
 8006e24:	f85c 3000 	ldr.w	r3, [ip, r0]
 8006e28:	6cfa      	ldr	r2, [r7, #76]	; 0x4c
 8006e2a:	ee07 3a10 	vmov	s14, r3
 8006e2e:	6013      	str	r3, [r2, #0]
 8006e30:	6cba      	ldr	r2, [r7, #72]	; 0x48
 8006e32:	edd2 7a00 	vldr	s15, [r2]
 8006e36:	eef4 7ac7 	vcmpe.f32	s15, s14
 8006e3a:	eef1 fa10 	vmrs	APSR_nzcv, fpscr
 8006e3e:	dc40      	bgt.n	8006ec2 <taabe191+0x462>
 8006e40:	eb0c 0104 	add.w	r1, ip, r4
 8006e44:	f104 030c 	add.w	r3, r4, #12
 8006e48:	6d38      	ldr	r0, [r7, #80]	; 0x50
 8006e4a:	f107 0208 	add.w	r2, r7, #8
 8006e4e:	6889      	ldr	r1, [r1, #8]
 8006e50:	4463      	add	r3, ip
 8006e52:	f1a1 0101 	sub.w	r1, r1, #1
 8006e56:	fab1 f181 	clz	r1, r1
 8006e5a:	0949      	lsrs	r1, r1, #5
 8006e5c:	7001      	strb	r1, [r0, #0]
 8006e5e:	6818      	ldr	r0, [r3, #0]
 8006e60:	6859      	ldr	r1, [r3, #4]
 8006e62:	c203      	stmia	r2!, {r0, r1}
 8006e64:	e9d7 4502 	ldrd	r4, r5, [r7, #8]
 8006e68:	1c6b      	adds	r3, r5, #1
 8006e6a:	bf08      	it	eq
 8006e6c:	f1b4 3fff 	cmpeq.w	r4, #4294967295	; 0xffffffff
 8006e70:	d054      	beq.n	8006f1c <taabe191+0x4bc>
 8006e72:	2000      	movs	r0, #0
 8006e74:	f002 f802 	bl	8008e7c <time>
 8006e78:	1a20      	subs	r0, r4, r0
 8006e7a:	eb65 0101 	sbc.w	r1, r5, r1
 8006e7e:	f7f9 fbbd 	bl	80005fc <__aeabi_l2d>
 8006e82:	6d7a      	ldr	r2, [r7, #84]	; 0x54
 8006e84:	ed9f 6b28 	vldr	d6, [pc, #160]	; 8006f28 <taabe191+0x4c8>
 8006e88:	ec41 0b17 	vmov	d7, r0, r1
 8006e8c:	ee87 7b06 	vdiv.f64	d7, d7, d6
 8006e90:	eefd 7bc7 	vcvt.s32.f64	s15, d7
 8006e94:	ee17 1a90 	vmov	r1, s15
 8006e98:	2900      	cmp	r1, #0
 8006e9a:	bfd4      	ite	le
 8006e9c:	2301      	movle	r3, #1
 8006e9e:	2300      	movgt	r3, #0
 8006ea0:	7013      	strb	r3, [r2, #0]
 8006ea2:	dd02      	ble.n	8006eaa <taabe191+0x44a>
 8006ea4:	4822      	ldr	r0, [pc, #136]	; (8006f30 <taabe191+0x4d0>)
 8006ea6:	f000 fbe7 	bl	8007678 <taabe218>
 8006eaa:	f8d7 c000 	ldr.w	ip, [r7]
 8006eae:	4660      	mov	r0, ip
 8006eb0:	f04f 0900 	mov.w	r9, #0
 8006eb4:	f001 fbc0 	bl	8008638 <free>
 8006eb8:	e703      	b.n	8006cc2 <taabe191+0x262>
 8006eba:	00a4      	lsls	r4, r4, #2
 8006ebc:	f04f 0b00 	mov.w	fp, #0
 8006ec0:	e683      	b.n	8006bca <taabe191+0x16a>
 8006ec2:	481c      	ldr	r0, [pc, #112]	; (8006f34 <taabe191+0x4d4>)
 8006ec4:	2600      	movs	r6, #0
 8006ec6:	f000 fbd7 	bl	8007678 <taabe218>
 8006eca:	4651      	mov	r1, sl
 8006ecc:	4640      	mov	r0, r8
 8006ece:	f04f 0903 	mov.w	r9, #3
 8006ed2:	f000 f94d 	bl	8007170 <taabe248>
 8006ed6:	6c7b      	ldr	r3, [r7, #68]	; 0x44
 8006ed8:	4640      	mov	r0, r8
 8006eda:	4619      	mov	r1, r3
 8006edc:	601e      	str	r6, [r3, #0]
 8006ede:	f000 f947 	bl	8007170 <taabe248>
 8006ee2:	6c3b      	ldr	r3, [r7, #64]	; 0x40
 8006ee4:	4631      	mov	r1, r6
 8006ee6:	4640      	mov	r0, r8
 8006ee8:	601e      	str	r6, [r3, #0]
 8006eea:	f000 f941 	bl	8007170 <taabe248>
 8006eee:	6838      	ldr	r0, [r7, #0]
 8006ef0:	f001 fba2 	bl	8008638 <free>
 8006ef4:	e6e5      	b.n	8006cc2 <taabe191+0x262>
 8006ef6:	6c7b      	ldr	r3, [r7, #68]	; 0x44
 8006ef8:	f04f 0901 	mov.w	r9, #1
 8006efc:	6018      	str	r0, [r3, #0]
 8006efe:	4619      	mov	r1, r3
 8006f00:	4640      	mov	r0, r8
 8006f02:	f000 f935 	bl	8007170 <taabe248>
 8006f06:	6c3b      	ldr	r3, [r7, #64]	; 0x40
 8006f08:	4640      	mov	r0, r8
 8006f0a:	4651      	mov	r1, sl
 8006f0c:	f8c3 a000 	str.w	sl, [r3]
 8006f10:	f000 f92e 	bl	8007170 <taabe248>
 8006f14:	6838      	ldr	r0, [r7, #0]
 8006f16:	f001 fb8f 	bl	8008638 <free>
 8006f1a:	e6d2      	b.n	8006cc2 <taabe191+0x262>
 8006f1c:	2300      	movs	r3, #0
 8006f1e:	6d7a      	ldr	r2, [r7, #84]	; 0x54
 8006f20:	7013      	strb	r3, [r2, #0]
 8006f22:	e7c4      	b.n	8006eae <taabe191+0x44e>
 8006f24:	f3af 8000 	nop.w
 8006f28:	00000000 	.word	0x00000000
 8006f2c:	40f51800 	.word	0x40f51800
 8006f30:	0800a444 	.word	0x0800a444
 8006f34:	0800a414 	.word	0x0800a414

08006f38 <taabe303>:
 8006f38:	e92d 4ff0 	stmdb	sp!, {r4, r5, r6, r7, r8, r9, sl, fp, lr}
 8006f3c:	461c      	mov	r4, r3
 8006f3e:	b085      	sub	sp, #20
 8006f40:	4605      	mov	r5, r0
 8006f42:	4608      	mov	r0, r1
 8006f44:	4688      	mov	r8, r1
 8006f46:	9103      	str	r1, [sp, #12]
 8006f48:	4616      	mov	r6, r2
 8006f4a:	f001 fb6d 	bl	8008628 <malloc>
 8006f4e:	6020      	str	r0, [r4, #0]
 8006f50:	2800      	cmp	r0, #0
 8006f52:	f000 8088 	beq.w	8007066 <taabe303+0x12e>
 8006f56:	4629      	mov	r1, r5
 8006f58:	4642      	mov	r2, r8
 8006f5a:	4607      	mov	r7, r0
 8006f5c:	f001 fb74 	bl	8008648 <memcpy>
 8006f60:	4641      	mov	r1, r8
 8006f62:	2900      	cmp	r1, #0
 8006f64:	db75      	blt.n	8007052 <taabe303+0x11a>
 8006f66:	1089      	asrs	r1, r1, #2
 8006f68:	2234      	movs	r2, #52	; 0x34
 8006f6a:	4d41      	ldr	r5, [pc, #260]	; (8007070 <taabe303+0x138>)
 8006f6c:	683c      	ldr	r4, [r7, #0]
 8006f6e:	fb92 f2f1 	sdiv	r2, r2, r1
 8006f72:	1d90      	adds	r0, r2, #6
 8006f74:	4623      	mov	r3, r4
 8006f76:	2800      	cmp	r0, #0
 8006f78:	fb05 fe00 	mul.w	lr, r5, r0
 8006f7c:	dd57      	ble.n	800702e <taabe303+0xf6>
 8006f7e:	f1a5 45a7 	sub.w	r5, r5, #1400897536	; 0x53800000
 8006f82:	f8df c0f0 	ldr.w	ip, [pc, #240]	; 8007074 <taabe303+0x13c>
 8006f86:	f06f 4940 	mvn.w	r9, #3221225472	; 0xc0000000
 8006f8a:	1e48      	subs	r0, r1, #1
 8006f8c:	f5a5 258a 	sub.w	r5, r5, #282624	; 0x45000
 8006f90:	fb0c e202 	mla	r2, ip, r2, lr
 8006f94:	4489      	add	r9, r1
 8006f96:	9001      	str	r0, [sp, #4]
 8006f98:	f2a5 450f 	subw	r5, r5, #1039	; 0x40f
 8006f9c:	f8cd c008 	str.w	ip, [sp, #8]
 8006fa0:	eb07 0989 	add.w	r9, r7, r9, lsl #2
 8006fa4:	442a      	add	r2, r5
 8006fa6:	9200      	str	r2, [sp, #0]
 8006fa8:	ea4f 089e 	mov.w	r8, lr, lsr #2
 8006fac:	9d01      	ldr	r5, [sp, #4]
 8006fae:	f008 0a03 	and.w	sl, r8, #3
 8006fb2:	b305      	cbz	r5, 8006ff6 <taabe303+0xbe>
 8006fb4:	46cc      	mov	ip, r9
 8006fb6:	ea88 0405 	eor.w	r4, r8, r5
 8006fba:	f85c 2d04 	ldr.w	r2, [ip, #-4]!
 8006fbe:	0099      	lsls	r1, r3, #2
 8006fc0:	ea8e 0003 	eor.w	r0, lr, r3
 8006fc4:	f004 0403 	and.w	r4, r4, #3
 8006fc8:	ea4f 1b02 	mov.w	fp, r2, lsl #4
 8006fcc:	ea81 1152 	eor.w	r1, r1, r2, lsr #5
 8006fd0:	3d01      	subs	r5, #1
 8006fd2:	f856 4024 	ldr.w	r4, [r6, r4, lsl #2]
 8006fd6:	ea8b 03d3 	eor.w	r3, fp, r3, lsr #3
 8006fda:	ea82 0204 	eor.w	r2, r2, r4
 8006fde:	4419      	add	r1, r3
 8006fe0:	f8dc 3004 	ldr.w	r3, [ip, #4]
 8006fe4:	4402      	add	r2, r0
 8006fe6:	ea82 0201 	eor.w	r2, r2, r1
 8006fea:	eba3 0302 	sub.w	r3, r3, r2
 8006fee:	f8cc 3004 	str.w	r3, [ip, #4]
 8006ff2:	d1e0      	bne.n	8006fb6 <taabe303+0x7e>
 8006ff4:	683c      	ldr	r4, [r7, #0]
 8006ff6:	f8d9 c000 	ldr.w	ip, [r9]
 8006ffa:	ea4f 0883 	mov.w	r8, r3, lsl #2
 8006ffe:	9a02      	ldr	r2, [sp, #8]
 8007000:	ea8e 0503 	eor.w	r5, lr, r3
 8007004:	f856 102a 	ldr.w	r1, [r6, sl, lsl #2]
 8007008:	ea4f 100c 	mov.w	r0, ip, lsl #4
 800700c:	4496      	add	lr, r2
 800700e:	ea88 125c 	eor.w	r2, r8, ip, lsr #5
 8007012:	ea8c 0101 	eor.w	r1, ip, r1
 8007016:	ea80 03d3 	eor.w	r3, r0, r3, lsr #3
 800701a:	4429      	add	r1, r5
 800701c:	4413      	add	r3, r2
 800701e:	9a00      	ldr	r2, [sp, #0]
 8007020:	404b      	eors	r3, r1
 8007022:	4596      	cmp	lr, r2
 8007024:	eba4 0303 	sub.w	r3, r4, r3
 8007028:	603b      	str	r3, [r7, #0]
 800702a:	461c      	mov	r4, r3
 800702c:	d1bc      	bne.n	8006fa8 <taabe303+0x70>
 800702e:	683b      	ldr	r3, [r7, #0]
 8007030:	2b03      	cmp	r3, #3
 8007032:	d811      	bhi.n	8007058 <taabe303+0x120>
 8007034:	9a03      	ldr	r2, [sp, #12]
 8007036:	3a04      	subs	r2, #4
 8007038:	1ad2      	subs	r2, r2, r3
 800703a:	9b0e      	ldr	r3, [sp, #56]	; 0x38
 800703c:	2a00      	cmp	r2, #0
 800703e:	601a      	str	r2, [r3, #0]
 8007040:	dd0a      	ble.n	8007058 <taabe303+0x120>
 8007042:	1d39      	adds	r1, r7, #4
 8007044:	4638      	mov	r0, r7
 8007046:	f001 faff 	bl	8008648 <memcpy>
 800704a:	2000      	movs	r0, #0
 800704c:	b005      	add	sp, #20
 800704e:	e8bd 8ff0 	ldmia.w	sp!, {r4, r5, r6, r7, r8, r9, sl, fp, pc}
 8007052:	9b03      	ldr	r3, [sp, #12]
 8007054:	1cd9      	adds	r1, r3, #3
 8007056:	e786      	b.n	8006f66 <taabe303+0x2e>
 8007058:	4638      	mov	r0, r7
 800705a:	f001 faed 	bl	8008638 <free>
 800705e:	2003      	movs	r0, #3
 8007060:	b005      	add	sp, #20
 8007062:	e8bd 8ff0 	ldmia.w	sp!, {r4, r5, r6, r7, r8, r9, sl, fp, pc}
 8007066:	2001      	movs	r0, #1
 8007068:	b005      	add	sp, #20
 800706a:	e8bd 8ff0 	ldmia.w	sp!, {r4, r5, r6, r7, r8, r9, sl, fp, pc}
 800706e:	bf00      	nop
 8007070:	9e3779b9 	.word	0x9e3779b9
 8007074:	61c88647 	.word	0x61c88647

08007078 <taabe252>:
 8007078:	4b03      	ldr	r3, [pc, #12]	; (8007088 <taabe252+0x10>)
 800707a:	4403      	add	r3, r0
 800707c:	2b04      	cmp	r3, #4
 800707e:	bf8c      	ite	hi
 8007080:	2000      	movhi	r0, #0
 8007082:	2001      	movls	r0, #1
 8007084:	4770      	bx	lr
 8007086:	bf00      	nop
 8007088:	ffffe530 	.word	0xffffe530

0800708c <taabe253>:
 800708c:	4b05      	ldr	r3, [pc, #20]	; (80070a4 <taabe253+0x18>)
 800708e:	4403      	add	r3, r0
 8007090:	b29b      	uxth	r3, r3
 8007092:	2b04      	cmp	r3, #4
 8007094:	d803      	bhi.n	800709e <taabe253+0x12>
 8007096:	4a04      	ldr	r2, [pc, #16]	; (80070a8 <taabe253+0x1c>)
 8007098:	f852 0023 	ldr.w	r0, [r2, r3, lsl #2]
 800709c:	4770      	bx	lr
 800709e:	2000      	movs	r0, #0
 80070a0:	4770      	bx	lr
 80070a2:	bf00      	nop
 80070a4:	ffffe530 	.word	0xffffe530
 80070a8:	0800a534 	.word	0x0800a534

080070ac <taabe255>:
 80070ac:	4b05      	ldr	r3, [pc, #20]	; (80070c4 <taabe255+0x18>)
 80070ae:	4403      	add	r3, r0
 80070b0:	b29b      	uxth	r3, r3
 80070b2:	2b03      	cmp	r3, #3
 80070b4:	d803      	bhi.n	80070be <taabe255+0x12>
 80070b6:	4a04      	ldr	r2, [pc, #16]	; (80070c8 <taabe255+0x1c>)
 80070b8:	f852 0023 	ldr.w	r0, [r2, r3, lsl #2]
 80070bc:	4770      	bx	lr
 80070be:	f04f 30ff 	mov.w	r0, #4294967295	; 0xffffffff
 80070c2:	4770      	bx	lr
 80070c4:	ffffe52f 	.word	0xffffe52f
 80070c8:	0800a548 	.word	0x0800a548

080070cc <taabe245>:
 80070cc:	b470      	push	{r4, r5, r6}
 80070ce:	4604      	mov	r4, r0
 80070d0:	2000      	movs	r0, #0
 80070d2:	6018      	str	r0, [r3, #0]
 80070d4:	f014 0007 	ands.w	r0, r4, #7
 80070d8:	d117      	bne.n	800710a <taabe245+0x3e>
 80070da:	0095      	lsls	r5, r2, #2
 80070dc:	3201      	adds	r2, #1
 80070de:	3527      	adds	r5, #39	; 0x27
 80070e0:	f025 0507 	bic.w	r5, r5, #7
 80070e4:	42a9      	cmp	r1, r5
 80070e6:	dd0d      	ble.n	8007104 <taabe245+0x38>
 80070e8:	f104 061c 	add.w	r6, r4, #28
 80070ec:	60a2      	str	r2, [r4, #8]
 80070ee:	e9c4 4100 	strd	r4, r1, [r4]
 80070f2:	2101      	movs	r1, #1
 80070f4:	e9c4 5506 	strd	r5, r5, [r4, #24]
 80070f8:	e9c4 6103 	strd	r6, r1, [r4, #12]
 80070fc:	6161      	str	r1, [r4, #20]
 80070fe:	601c      	str	r4, [r3, #0]
 8007100:	bc70      	pop	{r4, r5, r6}
 8007102:	4770      	bx	lr
 8007104:	2001      	movs	r0, #1
 8007106:	bc70      	pop	{r4, r5, r6}
 8007108:	4770      	bx	lr
 800710a:	2003      	movs	r0, #3
 800710c:	bc70      	pop	{r4, r5, r6}
 800710e:	4770      	bx	lr

08007110 <taabe247>:
 8007110:	b5f8      	push	{r3, r4, r5, r6, r7, lr}
 8007112:	6905      	ldr	r5, [r0, #16]
 8007114:	6883      	ldr	r3, [r0, #8]
 8007116:	42ab      	cmp	r3, r5
 8007118:	d026      	beq.n	8007168 <taabe247+0x58>
 800711a:	f06f 4340 	mvn.w	r3, #3221225472	; 0xc0000000
 800711e:	3107      	adds	r1, #7
 8007120:	68c4      	ldr	r4, [r0, #12]
 8007122:	442b      	add	r3, r5
 8007124:	f021 0107 	bic.w	r1, r1, #7
 8007128:	6846      	ldr	r6, [r0, #4]
 800712a:	f854 7023 	ldr.w	r7, [r4, r3, lsl #2]
 800712e:	009b      	lsls	r3, r3, #2
 8007130:	187d      	adds	r5, r7, r1
 8007132:	42ae      	cmp	r6, r5
 8007134:	db18      	blt.n	8007168 <taabe247+0x58>
 8007136:	4423      	add	r3, r4
 8007138:	6804      	ldr	r4, [r0, #0]
 800713a:	605d      	str	r5, [r3, #4]
 800713c:	443c      	add	r4, r7
 800713e:	6986      	ldr	r6, [r0, #24]
 8007140:	e9d0 3704 	ldrd	r3, r7, [r0, #16]
 8007144:	3301      	adds	r3, #1
 8007146:	429f      	cmp	r7, r3
 8007148:	bfb8      	it	lt
 800714a:	461f      	movlt	r7, r3
 800714c:	42b5      	cmp	r5, r6
 800714e:	bfb8      	it	lt
 8007150:	4635      	movlt	r5, r6
 8007152:	e9c0 3704 	strd	r3, r7, [r0, #16]
 8007156:	6185      	str	r5, [r0, #24]
 8007158:	b122      	cbz	r2, 8007164 <taabe247+0x54>
 800715a:	460a      	mov	r2, r1
 800715c:	4620      	mov	r0, r4
 800715e:	2100      	movs	r1, #0
 8007160:	f001 fa7d 	bl	800865e <memset>
 8007164:	4620      	mov	r0, r4
 8007166:	bdf8      	pop	{r3, r4, r5, r6, r7, pc}
 8007168:	2400      	movs	r4, #0
 800716a:	4620      	mov	r0, r4
 800716c:	bdf8      	pop	{r3, r4, r5, r6, r7, pc}
 800716e:	bf00      	nop

08007170 <taabe248>:
 8007170:	b181      	cbz	r1, 8007194 <taabe248+0x24>
 8007172:	6903      	ldr	r3, [r0, #16]
 8007174:	2b01      	cmp	r3, #1
 8007176:	dd0d      	ble.n	8007194 <taabe248+0x24>
 8007178:	6802      	ldr	r2, [r0, #0]
 800717a:	b430      	push	{r4, r5}
 800717c:	4c06      	ldr	r4, [pc, #24]	; (8007198 <taabe248+0x28>)
 800717e:	68c5      	ldr	r5, [r0, #12]
 8007180:	441c      	add	r4, r3
 8007182:	f855 4024 	ldr.w	r4, [r5, r4, lsl #2]
 8007186:	4422      	add	r2, r4
 8007188:	4291      	cmp	r1, r2
 800718a:	d101      	bne.n	8007190 <taabe248+0x20>
 800718c:	3b01      	subs	r3, #1
 800718e:	6103      	str	r3, [r0, #16]
 8007190:	bc30      	pop	{r4, r5}
 8007192:	4770      	bx	lr
 8007194:	4770      	bx	lr
 8007196:	bf00      	nop
 8007198:	3ffffffe 	.word	0x3ffffffe

0800719c <taabe158>:
 800719c:	e92d 41f0 	stmdb	sp!, {r4, r5, r6, r7, r8, lr}
 80071a0:	4616      	mov	r6, r2
 80071a2:	2500      	movs	r5, #0
 80071a4:	460f      	mov	r7, r1
 80071a6:	2201      	movs	r2, #1
 80071a8:	6035      	str	r5, [r6, #0]
 80071aa:	2110      	movs	r1, #16
 80071ac:	4680      	mov	r8, r0
 80071ae:	f7ff ffaf 	bl	8007110 <taabe247>
 80071b2:	b180      	cbz	r0, 80071d6 <taabe158+0x3a>
 80071b4:	4604      	mov	r4, r0
 80071b6:	f8c0 8000 	str.w	r8, [r0]
 80071ba:	4639      	mov	r1, r7
 80071bc:	4640      	mov	r0, r8
 80071be:	8125      	strh	r5, [r4, #8]
 80071c0:	f104 020c 	add.w	r2, r4, #12
 80071c4:	6067      	str	r7, [r4, #4]
 80071c6:	f000 f965 	bl	8007494 <taabe163>
 80071ca:	4605      	mov	r5, r0
 80071cc:	b938      	cbnz	r0, 80071de <taabe158+0x42>
 80071ce:	6034      	str	r4, [r6, #0]
 80071d0:	4628      	mov	r0, r5
 80071d2:	e8bd 81f0 	ldmia.w	sp!, {r4, r5, r6, r7, r8, pc}
 80071d6:	2501      	movs	r5, #1
 80071d8:	4628      	mov	r0, r5
 80071da:	e8bd 81f0 	ldmia.w	sp!, {r4, r5, r6, r7, r8, pc}
 80071de:	68e0      	ldr	r0, [r4, #12]
 80071e0:	f000 f98a 	bl	80074f8 <taabe164>
 80071e4:	6820      	ldr	r0, [r4, #0]
 80071e6:	4621      	mov	r1, r4
 80071e8:	f7ff ffc2 	bl	8007170 <taabe248>
 80071ec:	4628      	mov	r0, r5
 80071ee:	e8bd 81f0 	ldmia.w	sp!, {r4, r5, r6, r7, r8, pc}
 80071f2:	bf00      	nop

080071f4 <taabe159>:
 80071f4:	b150      	cbz	r0, 800720c <taabe159+0x18>
 80071f6:	b510      	push	{r4, lr}
 80071f8:	4604      	mov	r4, r0
 80071fa:	68c0      	ldr	r0, [r0, #12]
 80071fc:	f000 f97c 	bl	80074f8 <taabe164>
 8007200:	4621      	mov	r1, r4
 8007202:	6820      	ldr	r0, [r4, #0]
 8007204:	e8bd 4010 	ldmia.w	sp!, {r4, lr}
 8007208:	f7ff bfb2 	b.w	8007170 <taabe248>
 800720c:	4770      	bx	lr
 800720e:	bf00      	nop

08007210 <taabe160>:
 8007210:	e92d 4ff0 	stmdb	sp!, {r4, r5, r6, r7, r8, r9, sl, fp, lr}
 8007214:	6803      	ldr	r3, [r0, #0]
 8007216:	460d      	mov	r5, r1
 8007218:	6841      	ldr	r1, [r0, #4]
 800721a:	4604      	mov	r4, r0
 800721c:	4617      	mov	r7, r2
 800721e:	4618      	mov	r0, r3
 8007220:	2200      	movs	r2, #0
 8007222:	0089      	lsls	r1, r1, #2
 8007224:	ed2d 8b04 	vpush	{d8-d9}
 8007228:	b083      	sub	sp, #12
 800722a:	9301      	str	r3, [sp, #4]
 800722c:	f7ff ff70 	bl	8007110 <taabe247>
 8007230:	2800      	cmp	r0, #0
 8007232:	f000 80ae 	beq.w	8007392 <taabe160+0x182>
 8007236:	f9b4 3008 	ldrsh.w	r3, [r4, #8]
 800723a:	4681      	mov	r9, r0
 800723c:	eddf 6a6d 	vldr	s13, [pc, #436]	; 80073f4 <taabe160+0x1e4>
 8007240:	ee07 3a10 	vmov	s14, r3
 8007244:	f9b5 3000 	ldrsh.w	r3, [r5]
 8007248:	6866      	ldr	r6, [r4, #4]
 800724a:	eeb8 7ac7 	vcvt.f32.s32	s14, s14
 800724e:	ee07 3a90 	vmov	s15, r3
 8007252:	2e01      	cmp	r6, #1
 8007254:	eef8 7ae7 	vcvt.f32.s32	s15, s15
 8007258:	ee27 7a26 	vmul.f32	s14, s14, s13
 800725c:	ee37 7ac7 	vsub.f32	s14, s15, s14
 8007260:	ed80 7a00 	vstr	s14, [r0]
 8007264:	dd13      	ble.n	800728e <taabe160+0x7e>
 8007266:	1ea8      	subs	r0, r5, #2
 8007268:	462b      	mov	r3, r5
 800726a:	f109 0204 	add.w	r2, r9, #4
 800726e:	eb00 0046 	add.w	r0, r0, r6, lsl #1
 8007272:	f933 1f02 	ldrsh.w	r1, [r3, #2]!
 8007276:	ee27 7aa6 	vmul.f32	s14, s15, s13
 800727a:	ee07 1a90 	vmov	s15, r1
 800727e:	4283      	cmp	r3, r0
 8007280:	eef8 7ae7 	vcvt.f32.s32	s15, s15
 8007284:	ee37 7ac7 	vsub.f32	s14, s15, s14
 8007288:	eca2 7a01 	vstmia	r2!, {s14}
 800728c:	d1f1      	bne.n	8007272 <taabe160+0x62>
 800728e:	f06f 4300 	mvn.w	r3, #2147483648	; 0x80000000
 8007292:	2200      	movs	r2, #0
 8007294:	f240 4104 	movw	r1, #1028	; 0x404
 8007298:	9801      	ldr	r0, [sp, #4]
 800729a:	4433      	add	r3, r6
 800729c:	f935 3013 	ldrsh.w	r3, [r5, r3, lsl #1]
 80072a0:	8123      	strh	r3, [r4, #8]
 80072a2:	f7ff ff35 	bl	8007110 <taabe247>
 80072a6:	4606      	mov	r6, r0
 80072a8:	2800      	cmp	r0, #0
 80072aa:	f000 8089 	beq.w	80073c0 <taabe160+0x1b0>
 80072ae:	68e0      	ldr	r0, [r4, #12]
 80072b0:	4632      	mov	r2, r6
 80072b2:	4649      	mov	r1, r9
 80072b4:	f000 f924 	bl	8007500 <taabe165>
 80072b8:	4604      	mov	r4, r0
 80072ba:	2800      	cmp	r0, #0
 80072bc:	f040 808b 	bne.w	80073d6 <taabe160+0x1c6>
 80072c0:	4603      	mov	r3, r0
 80072c2:	2401      	movs	r4, #1
 80072c4:	4d4c      	ldr	r5, [pc, #304]	; (80073f8 <taabe160+0x1e8>)
 80072c6:	3f02      	subs	r7, #2
 80072c8:	42a3      	cmp	r3, r4
 80072ca:	f8df a140 	ldr.w	sl, [pc, #320]	; 800740c <taabe160+0x1fc>
 80072ce:	f105 084e 	add.w	r8, r5, #78	; 0x4e
 80072d2:	f8df b13c 	ldr.w	fp, [pc, #316]	; 8007410 <taabe160+0x200>
 80072d6:	f04f 0103 	mov.w	r1, #3
 80072da:	eddf 8a48 	vldr	s17, [pc, #288]	; 80073fc <taabe160+0x1ec>
 80072de:	ed9f 8a48 	vldr	s16, [pc, #288]	; 8007400 <taabe160+0x1f0>
 80072e2:	ed9f 9a48 	vldr	s18, [pc, #288]	; 8007404 <taabe160+0x1f4>
 80072e6:	ed9f 7a48 	vldr	s14, [pc, #288]	; 8007408 <taabe160+0x1f8>
 80072ea:	da46      	bge.n	800737a <taabe160+0x16a>
 80072ec:	eef0 7a47 	vmov.f32	s15, s14
 80072f0:	eb06 0383 	add.w	r3, r6, r3, lsl #2
 80072f4:	ed9a 6a00 	vldr	s12, [sl]
 80072f8:	eb06 0084 	add.w	r0, r6, r4, lsl #2
 80072fc:	ecf3 6a01 	vldmia	r3!, {s13}
 8007300:	ee66 6aa7 	vmul.f32	s13, s13, s15
 8007304:	4298      	cmp	r0, r3
 8007306:	ee77 7a86 	vadd.f32	s15, s15, s12
 800730a:	ee37 7a26 	vadd.f32	s14, s14, s13
 800730e:	d1f5      	bne.n	80072fc <taabe160+0xec>
 8007310:	42a1      	cmp	r1, r4
 8007312:	dd0f      	ble.n	8007334 <taabe160+0x124>
 8007314:	eb06 0181 	add.w	r1, r6, r1, lsl #2
 8007318:	ed9b 6a00 	vldr	s12, [fp]
 800731c:	eb06 0384 	add.w	r3, r6, r4, lsl #2
 8007320:	ecf3 6a01 	vldmia	r3!, {s13}
 8007324:	ee66 6aa7 	vmul.f32	s13, s13, s15
 8007328:	4299      	cmp	r1, r3
 800732a:	ee77 7ac6 	vsub.f32	s15, s15, s12
 800732e:	ee37 7a26 	vadd.f32	s14, s14, s13
 8007332:	d1f5      	bne.n	8007320 <taabe160+0x110>
 8007334:	ee27 7a28 	vmul.f32	s14, s14, s17
 8007338:	eeb4 7ac8 	vcmpe.f32	s14, s16
 800733c:	eef1 fa10 	vmrs	APSR_nzcv, fpscr
 8007340:	da1e      	bge.n	8007380 <taabe160+0x170>
 8007342:	eeb4 7ac9 	vcmpe.f32	s14, s18
 8007346:	eef1 fa10 	vmrs	APSR_nzcv, fpscr
 800734a:	d91e      	bls.n	800738a <taabe160+0x17a>
 800734c:	ee17 0a10 	vmov	r0, s14
 8007350:	f7f9 f9ea 	bl	8000728 <__aeabi_f2lz>
 8007354:	f000 fad6 	bl	8007904 <taabe154>
 8007358:	45a8      	cmp	r8, r5
 800735a:	f10a 0a04 	add.w	sl, sl, #4
 800735e:	f10b 0b04 	add.w	fp, fp, #4
 8007362:	f827 0f02 	strh.w	r0, [r7, #2]!
 8007366:	d01b      	beq.n	80073a0 <taabe160+0x190>
 8007368:	4623      	mov	r3, r4
 800736a:	f9b5 1002 	ldrsh.w	r1, [r5, #2]
 800736e:	f935 4b02 	ldrsh.w	r4, [r5], #2
 8007372:	ed9f 7a25 	vldr	s14, [pc, #148]	; 8007408 <taabe160+0x1f8>
 8007376:	42a3      	cmp	r3, r4
 8007378:	dbb8      	blt.n	80072ec <taabe160+0xdc>
 800737a:	eef0 7a47 	vmov.f32	s15, s14
 800737e:	e7c7      	b.n	8007310 <taabe160+0x100>
 8007380:	f04f 30ff 	mov.w	r0, #4294967295	; 0xffffffff
 8007384:	f06f 4100 	mvn.w	r1, #2147483648	; 0x80000000
 8007388:	e7e4      	b.n	8007354 <taabe160+0x144>
 800738a:	2000      	movs	r0, #0
 800738c:	f04f 4100 	mov.w	r1, #2147483648	; 0x80000000
 8007390:	e7e0      	b.n	8007354 <taabe160+0x144>
 8007392:	2401      	movs	r4, #1
 8007394:	4620      	mov	r0, r4
 8007396:	b003      	add	sp, #12
 8007398:	ecbd 8b04 	vpop	{d8-d9}
 800739c:	e8bd 8ff0 	ldmia.w	sp!, {r4, r5, r6, r7, r8, r9, sl, fp, pc}
 80073a0:	9c01      	ldr	r4, [sp, #4]
 80073a2:	4631      	mov	r1, r6
 80073a4:	4620      	mov	r0, r4
 80073a6:	f7ff fee3 	bl	8007170 <taabe248>
 80073aa:	4620      	mov	r0, r4
 80073ac:	2400      	movs	r4, #0
 80073ae:	4649      	mov	r1, r9
 80073b0:	f7ff fede 	bl	8007170 <taabe248>
 80073b4:	4620      	mov	r0, r4
 80073b6:	b003      	add	sp, #12
 80073b8:	ecbd 8b04 	vpop	{d8-d9}
 80073bc:	e8bd 8ff0 	ldmia.w	sp!, {r4, r5, r6, r7, r8, r9, sl, fp, pc}
 80073c0:	2401      	movs	r4, #1
 80073c2:	9801      	ldr	r0, [sp, #4]
 80073c4:	4649      	mov	r1, r9
 80073c6:	f7ff fed3 	bl	8007170 <taabe248>
 80073ca:	4620      	mov	r0, r4
 80073cc:	b003      	add	sp, #12
 80073ce:	ecbd 8b04 	vpop	{d8-d9}
 80073d2:	e8bd 8ff0 	ldmia.w	sp!, {r4, r5, r6, r7, r8, r9, sl, fp, pc}
 80073d6:	9d01      	ldr	r5, [sp, #4]
 80073d8:	4631      	mov	r1, r6
 80073da:	4628      	mov	r0, r5
 80073dc:	f7ff fec8 	bl	8007170 <taabe248>
 80073e0:	4628      	mov	r0, r5
 80073e2:	4649      	mov	r1, r9
 80073e4:	f7ff fec4 	bl	8007170 <taabe248>
 80073e8:	4620      	mov	r0, r4
 80073ea:	b003      	add	sp, #12
 80073ec:	ecbd 8b04 	vpop	{d8-d9}
 80073f0:	e8bd 8ff0 	ldmia.w	sp!, {r4, r5, r6, r7, r8, r9, sl, fp, pc}
 80073f4:	3f7851ec 	.word	0x3f7851ec
 80073f8:	0800a570 	.word	0x0800a570
 80073fc:	50000000 	.word	0x50000000
 8007400:	5f000000 	.word	0x5f000000
 8007404:	df000000 	.word	0xdf000000
 8007408:	00000000 	.word	0x00000000
 800740c:	0800a700 	.word	0x0800a700
 8007410:	0800a660 	.word	0x0800a660

08007414 <taabe161>:
 8007414:	4603      	mov	r3, r0
 8007416:	2200      	movs	r2, #0
 8007418:	68c0      	ldr	r0, [r0, #12]
 800741a:	811a      	strh	r2, [r3, #8]
 800741c:	f000 b920 	b.w	8007660 <taabe166>

08007420 <taabe162>:
 8007420:	b470      	push	{r4, r5, r6}
 8007422:	b1c9      	cbz	r1, 8007458 <taabe162+0x38>
 8007424:	f9b1 6000 	ldrsh.w	r6, [r1]
 8007428:	b1d2      	cbz	r2, 8007460 <taabe162+0x40>
 800742a:	f9b2 3000 	ldrsh.w	r3, [r2]
 800742e:	1e84      	subs	r4, r0, #2
 8007430:	304e      	adds	r0, #78	; 0x4e
 8007432:	e003      	b.n	800743c <taabe162+0x1c>
 8007434:	f932 3f02 	ldrsh.w	r3, [r2, #2]!
 8007438:	f931 6f02 	ldrsh.w	r6, [r1, #2]!
 800743c:	f934 5f02 	ldrsh.w	r5, [r4, #2]!
 8007440:	1bad      	subs	r5, r5, r6
 8007442:	4284      	cmp	r4, r0
 8007444:	fb03 f305 	mul.w	r3, r3, r5
 8007448:	ea4f 23a3 	mov.w	r3, r3, asr #10
 800744c:	f303 030f 	ssat	r3, #16, r3
 8007450:	8023      	strh	r3, [r4, #0]
 8007452:	d1ef      	bne.n	8007434 <taabe162+0x14>
 8007454:	bc70      	pop	{r4, r5, r6}
 8007456:	4770      	bx	lr
 8007458:	4e03      	ldr	r6, [pc, #12]	; (8007468 <taabe162+0x48>)
 800745a:	4904      	ldr	r1, [pc, #16]	; (800746c <taabe162+0x4c>)
 800745c:	2a00      	cmp	r2, #0
 800745e:	d1e4      	bne.n	800742a <taabe162+0xa>
 8007460:	f240 23f9 	movw	r3, #761	; 0x2f9
 8007464:	4a02      	ldr	r2, [pc, #8]	; (8007470 <taabe162+0x50>)
 8007466:	e7e2      	b.n	800742e <taabe162+0xe>
 8007468:	ffffdc6b 	.word	0xffffdc6b
 800746c:	0800a5c0 	.word	0x0800a5c0
 8007470:	0800a610 	.word	0x0800a610

08007474 <taabe164.part.1>:
 8007474:	b510      	push	{r4, lr}
 8007476:	4604      	mov	r4, r0
 8007478:	68c0      	ldr	r0, [r0, #12]
 800747a:	f000 f927 	bl	80076cc <taabe135>
 800747e:	68a1      	ldr	r1, [r4, #8]
 8007480:	6820      	ldr	r0, [r4, #0]
 8007482:	f7ff fe75 	bl	8007170 <taabe248>
 8007486:	4621      	mov	r1, r4
 8007488:	6820      	ldr	r0, [r4, #0]
 800748a:	e8bd 4010 	ldmia.w	sp!, {r4, lr}
 800748e:	f7ff be6f 	b.w	8007170 <taabe248>
 8007492:	bf00      	nop

08007494 <taabe163>:
 8007494:	b5f8      	push	{r3, r4, r5, r6, r7, lr}
 8007496:	4617      	mov	r7, r2
 8007498:	2300      	movs	r3, #0
 800749a:	460d      	mov	r5, r1
 800749c:	2201      	movs	r2, #1
 800749e:	603b      	str	r3, [r7, #0]
 80074a0:	2110      	movs	r1, #16
 80074a2:	4606      	mov	r6, r0
 80074a4:	f7ff fe34 	bl	8007110 <taabe247>
 80074a8:	b1e8      	cbz	r0, 80074e6 <taabe163+0x52>
 80074aa:	f5b5 7f00 	cmp.w	r5, #512	; 0x200
 80074ae:	4604      	mov	r4, r0
 80074b0:	e9c0 6500 	strd	r6, r5, [r0]
 80074b4:	da08      	bge.n	80074c8 <taabe163+0x34>
 80074b6:	f5c5 7100 	rsb	r1, r5, #512	; 0x200
 80074ba:	2201      	movs	r2, #1
 80074bc:	4630      	mov	r0, r6
 80074be:	0089      	lsls	r1, r1, #2
 80074c0:	f7ff fe26 	bl	8007110 <taabe247>
 80074c4:	60a0      	str	r0, [r4, #8]
 80074c6:	b188      	cbz	r0, 80074ec <taabe163+0x58>
 80074c8:	4630      	mov	r0, r6
 80074ca:	f104 010c 	add.w	r1, r4, #12
 80074ce:	f000 f8eb 	bl	80076a8 <taabe134>
 80074d2:	4605      	mov	r5, r0
 80074d4:	b910      	cbnz	r0, 80074dc <taabe163+0x48>
 80074d6:	603c      	str	r4, [r7, #0]
 80074d8:	4628      	mov	r0, r5
 80074da:	bdf8      	pop	{r3, r4, r5, r6, r7, pc}
 80074dc:	4620      	mov	r0, r4
 80074de:	f7ff ffc9 	bl	8007474 <taabe164.part.1>
 80074e2:	4628      	mov	r0, r5
 80074e4:	bdf8      	pop	{r3, r4, r5, r6, r7, pc}
 80074e6:	2501      	movs	r5, #1
 80074e8:	4628      	mov	r0, r5
 80074ea:	bdf8      	pop	{r3, r4, r5, r6, r7, pc}
 80074ec:	4620      	mov	r0, r4
 80074ee:	2501      	movs	r5, #1
 80074f0:	f7ff ffc0 	bl	8007474 <taabe164.part.1>
 80074f4:	e7f0      	b.n	80074d8 <taabe163+0x44>
 80074f6:	bf00      	nop

080074f8 <taabe164>:
 80074f8:	b108      	cbz	r0, 80074fe <taabe164+0x6>
 80074fa:	f7ff bfbb 	b.w	8007474 <taabe164.part.1>
 80074fe:	4770      	bx	lr

08007500 <taabe165>:
 8007500:	e92d 4ff0 	stmdb	sp!, {r4, r5, r6, r7, r8, r9, sl, fp, lr}
 8007504:	6806      	ldr	r6, [r0, #0]
 8007506:	b085      	sub	sp, #20
 8007508:	4607      	mov	r7, r0
 800750a:	468a      	mov	sl, r1
 800750c:	4614      	mov	r4, r2
 800750e:	f44f 6100 	mov.w	r1, #2048	; 0x800
 8007512:	2200      	movs	r2, #0
 8007514:	4630      	mov	r0, r6
 8007516:	f7ff fdfb 	bl	8007110 <taabe247>
 800751a:	2800      	cmp	r0, #0
 800751c:	d04e      	beq.n	80075bc <taabe165+0xbc>
 800751e:	4605      	mov	r5, r0
 8007520:	2200      	movs	r2, #0
 8007522:	f640 0108 	movw	r1, #2056	; 0x808
 8007526:	4630      	mov	r0, r6
 8007528:	f7ff fdf2 	bl	8007110 <taabe247>
 800752c:	4680      	mov	r8, r0
 800752e:	2800      	cmp	r0, #0
 8007530:	d049      	beq.n	80075c6 <taabe165+0xc6>
 8007532:	f8d7 9004 	ldr.w	r9, [r7, #4]
 8007536:	f5b9 7f00 	cmp.w	r9, #512	; 0x200
 800753a:	db4d      	blt.n	80075d8 <taabe165+0xd8>
 800753c:	4946      	ldr	r1, [pc, #280]	; (8007658 <taabe165+0x158>)
 800753e:	462a      	mov	r2, r5
 8007540:	f505 6300 	add.w	r3, r5, #2048	; 0x800
 8007544:	eddf 7a45 	vldr	s15, [pc, #276]	; 800765c <taabe165+0x15c>
 8007548:	f501 707f 	add.w	r0, r1, #1020	; 0x3fc
 800754c:	e001      	b.n	8007552 <taabe165+0x52>
 800754e:	ecf1 7a01 	vldmia	r1!, {s15}
 8007552:	ed92 7a00 	vldr	s14, [r2]
 8007556:	4281      	cmp	r1, r0
 8007558:	ee27 7a27 	vmul.f32	s14, s14, s15
 800755c:	eca2 7a01 	vstmia	r2!, {s14}
 8007560:	ed33 7a01 	vldmdb	r3!, {s14}
 8007564:	ee67 7a27 	vmul.f32	s15, s14, s15
 8007568:	edc3 7a00 	vstr	s15, [r3]
 800756c:	d1ef      	bne.n	800754e <taabe165+0x4e>
 800756e:	68f8      	ldr	r0, [r7, #12]
 8007570:	4642      	mov	r2, r8
 8007572:	4629      	mov	r1, r5
 8007574:	f000 f8b0 	bl	80076d8 <taabe136>
 8007578:	4607      	mov	r7, r0
 800757a:	2800      	cmp	r0, #0
 800757c:	d157      	bne.n	800762e <taabe165+0x12e>
 800757e:	f108 0308 	add.w	r3, r8, #8
 8007582:	f508 6201 	add.w	r2, r8, #2064	; 0x810
 8007586:	ed13 7a02 	vldr	s14, [r3, #-8]
 800758a:	3308      	adds	r3, #8
 800758c:	ed53 7a03 	vldr	s15, [r3, #-12]
 8007590:	ee27 7a07 	vmul.f32	s14, s14, s14
 8007594:	429a      	cmp	r2, r3
 8007596:	ee67 7aa7 	vmul.f32	s15, s15, s15
 800759a:	ee77 7a27 	vadd.f32	s15, s14, s15
 800759e:	ece4 7a01 	vstmia	r4!, {s15}
 80075a2:	d1f0      	bne.n	8007586 <taabe165+0x86>
 80075a4:	4641      	mov	r1, r8
 80075a6:	4630      	mov	r0, r6
 80075a8:	f7ff fde2 	bl	8007170 <taabe248>
 80075ac:	4630      	mov	r0, r6
 80075ae:	4629      	mov	r1, r5
 80075b0:	f7ff fdde 	bl	8007170 <taabe248>
 80075b4:	4638      	mov	r0, r7
 80075b6:	b005      	add	sp, #20
 80075b8:	e8bd 8ff0 	ldmia.w	sp!, {r4, r5, r6, r7, r8, r9, sl, fp, pc}
 80075bc:	2701      	movs	r7, #1
 80075be:	4638      	mov	r0, r7
 80075c0:	b005      	add	sp, #20
 80075c2:	e8bd 8ff0 	ldmia.w	sp!, {r4, r5, r6, r7, r8, r9, sl, fp, pc}
 80075c6:	2701      	movs	r7, #1
 80075c8:	4630      	mov	r0, r6
 80075ca:	4629      	mov	r1, r5
 80075cc:	f7ff fdd0 	bl	8007170 <taabe248>
 80075d0:	4638      	mov	r0, r7
 80075d2:	b005      	add	sp, #20
 80075d4:	e8bd 8ff0 	ldmia.w	sp!, {r4, r5, r6, r7, r8, r9, sl, fp, pc}
 80075d8:	f5c9 7300 	rsb	r3, r9, #512	; 0x200
 80075dc:	68ba      	ldr	r2, [r7, #8]
 80075de:	ea4f 0189 	mov.w	r1, r9, lsl #2
 80075e2:	4628      	mov	r0, r5
 80075e4:	ea4f 0b83 	mov.w	fp, r3, lsl #2
 80075e8:	9101      	str	r1, [sp, #4]
 80075ea:	4611      	mov	r1, r2
 80075ec:	e9cd 3202 	strd	r3, r2, [sp, #8]
 80075f0:	465a      	mov	r2, fp
 80075f2:	f001 f829 	bl	8008648 <memcpy>
 80075f6:	eb05 000b 	add.w	r0, r5, fp
 80075fa:	9a01      	ldr	r2, [sp, #4]
 80075fc:	4651      	mov	r1, sl
 80075fe:	f001 f823 	bl	8008648 <memcpy>
 8007602:	9b02      	ldr	r3, [sp, #8]
 8007604:	4599      	cmp	r9, r3
 8007606:	da1e      	bge.n	8007646 <taabe165+0x146>
 8007608:	eba3 0909 	sub.w	r9, r3, r9
 800760c:	9b03      	ldr	r3, [sp, #12]
 800760e:	9901      	ldr	r1, [sp, #4]
 8007610:	ea4f 0989 	mov.w	r9, r9, lsl #2
 8007614:	469b      	mov	fp, r3
 8007616:	1859      	adds	r1, r3, r1
 8007618:	4618      	mov	r0, r3
 800761a:	464a      	mov	r2, r9
 800761c:	f001 f814 	bl	8008648 <memcpy>
 8007620:	9a01      	ldr	r2, [sp, #4]
 8007622:	4651      	mov	r1, sl
 8007624:	eb0b 0009 	add.w	r0, fp, r9
 8007628:	f001 f80e 	bl	8008648 <memcpy>
 800762c:	e786      	b.n	800753c <taabe165+0x3c>
 800762e:	4629      	mov	r1, r5
 8007630:	4630      	mov	r0, r6
 8007632:	f7ff fd9d 	bl	8007170 <taabe248>
 8007636:	4630      	mov	r0, r6
 8007638:	4641      	mov	r1, r8
 800763a:	f7ff fd99 	bl	8007170 <taabe248>
 800763e:	4638      	mov	r0, r7
 8007640:	b005      	add	sp, #20
 8007642:	e8bd 8ff0 	ldmia.w	sp!, {r4, r5, r6, r7, r8, r9, sl, fp, pc}
 8007646:	eba9 0303 	sub.w	r3, r9, r3
 800764a:	465a      	mov	r2, fp
 800764c:	9803      	ldr	r0, [sp, #12]
 800764e:	eb0a 0183 	add.w	r1, sl, r3, lsl #2
 8007652:	f000 fff9 	bl	8008648 <memcpy>
 8007656:	e771      	b.n	800753c <taabe165+0x3c>
 8007658:	0800a7a4 	.word	0x0800a7a4
 800765c:	00000000 	.word	0x00000000

08007660 <taabe166>:
 8007660:	6883      	ldr	r3, [r0, #8]
 8007662:	b13b      	cbz	r3, 8007674 <taabe166+0x14>
 8007664:	6842      	ldr	r2, [r0, #4]
 8007666:	2100      	movs	r1, #0
 8007668:	4618      	mov	r0, r3
 800766a:	f5c2 7200 	rsb	r2, r2, #512	; 0x200
 800766e:	0092      	lsls	r2, r2, #2
 8007670:	f000 bff5 	b.w	800865e <memset>
 8007674:	4770      	bx	lr
 8007676:	bf00      	nop

08007678 <taabe218>:
 8007678:	b40f      	push	{r0, r1, r2, r3}
 800767a:	4b09      	ldr	r3, [pc, #36]	; (80076a0 <taabe218+0x28>)
 800767c:	781b      	ldrb	r3, [r3, #0]
 800767e:	b500      	push	{lr}
 8007680:	b083      	sub	sp, #12
 8007682:	b143      	cbz	r3, 8007696 <taabe218+0x1e>
 8007684:	4a07      	ldr	r2, [pc, #28]	; (80076a4 <taabe218+0x2c>)
 8007686:	ab05      	add	r3, sp, #20
 8007688:	9904      	ldr	r1, [sp, #16]
 800768a:	6810      	ldr	r0, [r2, #0]
 800768c:	461a      	mov	r2, r3
 800768e:	9301      	str	r3, [sp, #4]
 8007690:	6880      	ldr	r0, [r0, #8]
 8007692:	f001 f9d5 	bl	8008a40 <vfiprintf>
 8007696:	b003      	add	sp, #12
 8007698:	f85d eb04 	ldr.w	lr, [sp], #4
 800769c:	b004      	add	sp, #16
 800769e:	4770      	bx	lr
 80076a0:	20000070 	.word	0x20000070
 80076a4:	2000008c 	.word	0x2000008c

080076a8 <taabe134>:
 80076a8:	b570      	push	{r4, r5, r6, lr}
 80076aa:	460d      	mov	r5, r1
 80076ac:	2400      	movs	r4, #0
 80076ae:	2201      	movs	r2, #1
 80076b0:	2104      	movs	r1, #4
 80076b2:	602c      	str	r4, [r5, #0]
 80076b4:	4606      	mov	r6, r0
 80076b6:	f7ff fd2b 	bl	8007110 <taabe247>
 80076ba:	b118      	cbz	r0, 80076c4 <taabe134+0x1c>
 80076bc:	6006      	str	r6, [r0, #0]
 80076be:	6028      	str	r0, [r5, #0]
 80076c0:	4620      	mov	r0, r4
 80076c2:	bd70      	pop	{r4, r5, r6, pc}
 80076c4:	2401      	movs	r4, #1
 80076c6:	4620      	mov	r0, r4
 80076c8:	bd70      	pop	{r4, r5, r6, pc}
 80076ca:	bf00      	nop

080076cc <taabe135>:
 80076cc:	b118      	cbz	r0, 80076d6 <taabe135+0xa>
 80076ce:	4601      	mov	r1, r0
 80076d0:	6800      	ldr	r0, [r0, #0]
 80076d2:	f7ff bd4d 	b.w	8007170 <taabe248>
 80076d6:	4770      	bx	lr

080076d8 <taabe136>:
 80076d8:	e92d 4ff0 	stmdb	sp!, {r4, r5, r6, r7, r8, r9, sl, fp, lr}
 80076dc:	6803      	ldr	r3, [r0, #0]
 80076de:	b085      	sub	sp, #20
 80076e0:	460c      	mov	r4, r1
 80076e2:	f44f 6100 	mov.w	r1, #2048	; 0x800
 80076e6:	9202      	str	r2, [sp, #8]
 80076e8:	4618      	mov	r0, r3
 80076ea:	2200      	movs	r2, #0
 80076ec:	9303      	str	r3, [sp, #12]
 80076ee:	f7ff fd0f 	bl	8007110 <taabe247>
 80076f2:	2800      	cmp	r0, #0
 80076f4:	f000 80f4 	beq.w	80078e0 <taabe136+0x208>
 80076f8:	4601      	mov	r1, r0
 80076fa:	487b      	ldr	r0, [pc, #492]	; (80078e8 <taabe136+0x210>)
 80076fc:	1d22      	adds	r2, r4, #4
 80076fe:	2300      	movs	r3, #0
 8007700:	f500 75ff 	add.w	r5, r0, #510	; 0x1fe
 8007704:	e001      	b.n	800770a <taabe136+0x32>
 8007706:	f930 3f02 	ldrsh.w	r3, [r0, #2]!
 800770a:	f852 4c04 	ldr.w	r4, [r2, #-4]
 800770e:	eb01 0383 	add.w	r3, r1, r3, lsl #2
 8007712:	4285      	cmp	r5, r0
 8007714:	601c      	str	r4, [r3, #0]
 8007716:	f852 4b08 	ldr.w	r4, [r2], #8
 800771a:	605c      	str	r4, [r3, #4]
 800771c:	d1f3      	bne.n	8007706 <taabe136+0x2e>
 800771e:	2308      	movs	r3, #8
 8007720:	2501      	movs	r5, #1
 8007722:	f04f 0b02 	mov.w	fp, #2
 8007726:	f04f 0a80 	mov.w	sl, #128	; 0x80
 800772a:	9300      	str	r3, [sp, #0]
 800772c:	f44f 7380 	mov.w	r3, #256	; 0x100
 8007730:	eddf 3a6e 	vldr	s7, [pc, #440]	; 80078ec <taabe136+0x214>
 8007734:	4699      	mov	r9, r3
 8007736:	9101      	str	r1, [sp, #4]
 8007738:	ea4f 0e8b 	mov.w	lr, fp, lsl #2
 800773c:	9f01      	ldr	r7, [sp, #4]
 800773e:	eb07 060e 	add.w	r6, r7, lr
 8007742:	f1ba 0f00 	cmp.w	sl, #0
 8007746:	d049      	beq.n	80077dc <taabe136+0x104>
 8007748:	ea4f 0489 	mov.w	r4, r9, lsl #2
 800774c:	f04f 0c00 	mov.w	ip, #0
 8007750:	ea4f 08c5 	mov.w	r8, r5, lsl #3
 8007754:	b3e5      	cbz	r5, 80077d0 <taabe136+0xf8>
 8007756:	f107 0208 	add.w	r2, r7, #8
 800775a:	f106 0308 	add.w	r3, r6, #8
 800775e:	eeb7 6a00 	vmov.f32	s12, #112	; 0x3f800000  1.0
 8007762:	2000      	movs	r0, #0
 8007764:	eef0 7a63 	vmov.f32	s15, s7
 8007768:	4961      	ldr	r1, [pc, #388]	; (80078f0 <taabe136+0x218>)
 800776a:	e003      	b.n	8007774 <taabe136+0x9c>
 800776c:	edd1 7a00 	vldr	s15, [r1]
 8007770:	ed91 6a80 	vldr	s12, [r1, #512]	; 0x200
 8007774:	ed13 7a02 	vldr	s14, [r3, #-8]
 8007778:	3001      	adds	r0, #1
 800777a:	ed53 6a01 	vldr	s13, [r3, #-4]
 800777e:	4421      	add	r1, r4
 8007780:	ee67 5a27 	vmul.f32	s11, s14, s15
 8007784:	ed12 5a02 	vldr	s10, [r2, #-8]
 8007788:	ee27 4a06 	vmul.f32	s8, s14, s12
 800778c:	ed12 7a01 	vldr	s14, [r2, #-4]
 8007790:	ee66 4aa7 	vmul.f32	s9, s13, s15
 8007794:	42a8      	cmp	r0, r5
 8007796:	ee66 7a86 	vmul.f32	s15, s13, s12
 800779a:	f102 0208 	add.w	r2, r2, #8
 800779e:	f103 0308 	add.w	r3, r3, #8
 80077a2:	ee74 6a24 	vadd.f32	s13, s8, s9
 80077a6:	ee77 7ae5 	vsub.f32	s15, s15, s11
 80077aa:	ee75 5a26 	vadd.f32	s11, s10, s13
 80077ae:	ee37 6a27 	vadd.f32	s12, s14, s15
 80077b2:	ee75 6a66 	vsub.f32	s13, s10, s13
 80077b6:	ee77 7a67 	vsub.f32	s15, s14, s15
 80077ba:	ed42 5a04 	vstr	s11, [r2, #-16]
 80077be:	ed02 6a03 	vstr	s12, [r2, #-12]
 80077c2:	ed43 6a04 	vstr	s13, [r3, #-16]
 80077c6:	ed43 7a03 	vstr	s15, [r3, #-12]
 80077ca:	d1cf      	bne.n	800776c <taabe136+0x94>
 80077cc:	4447      	add	r7, r8
 80077ce:	4446      	add	r6, r8
 80077d0:	f10c 0c01 	add.w	ip, ip, #1
 80077d4:	4477      	add	r7, lr
 80077d6:	4476      	add	r6, lr
 80077d8:	45d4      	cmp	ip, sl
 80077da:	d1bb      	bne.n	8007754 <taabe136+0x7c>
 80077dc:	9b00      	ldr	r3, [sp, #0]
 80077de:	ea4f 0a5a 	mov.w	sl, sl, lsr #1
 80077e2:	ea4f 0b4b 	mov.w	fp, fp, lsl #1
 80077e6:	3b01      	subs	r3, #1
 80077e8:	ea4f 0545 	mov.w	r5, r5, lsl #1
 80077ec:	ea4f 0959 	mov.w	r9, r9, lsr #1
 80077f0:	9300      	str	r3, [sp, #0]
 80077f2:	d1a1      	bne.n	8007738 <taabe136+0x60>
 80077f4:	9901      	ldr	r1, [sp, #4]
 80077f6:	f04f 0c00 	mov.w	ip, #0
 80077fa:	eddf 6a3e 	vldr	s13, [pc, #248]	; 80078f4 <taabe136+0x21c>
 80077fe:	edd1 7a01 	vldr	s15, [r1, #4]
 8007802:	460b      	mov	r3, r1
 8007804:	ed91 7a00 	vldr	s14, [r1]
 8007808:	f501 65ff 	add.w	r5, r1, #2040	; 0x7f8
 800780c:	9f02      	ldr	r7, [sp, #8]
 800780e:	eeb0 4a66 	vmov.f32	s8, s13
 8007812:	ee37 7a27 	vadd.f32	s14, s14, s15
 8007816:	4838      	ldr	r0, [pc, #224]	; (80078f8 <taabe136+0x220>)
 8007818:	463a      	mov	r2, r7
 800781a:	eddf 7a38 	vldr	s15, [pc, #224]	; 80078fc <taabe136+0x224>
 800781e:	f500 767e 	add.w	r6, r0, #1016	; 0x3f8
 8007822:	eddf 5a37 	vldr	s11, [pc, #220]	; 8007900 <taabe136+0x228>
 8007826:	ee27 7a26 	vmul.f32	s14, s14, s13
 800782a:	f201 74fc 	addw	r4, r1, #2044	; 0x7fc
 800782e:	f8c7 c004 	str.w	ip, [r7, #4]
 8007832:	ed87 7a00 	vstr	s14, [r7]
 8007836:	e003      	b.n	8007840 <taabe136+0x168>
 8007838:	ecf0 5a01 	vldmia	r0!, {s11}
 800783c:	edd0 7a7f 	vldr	s15, [r0, #508]	; 0x1fc
 8007840:	ed94 7a00 	vldr	s14, [r4]
 8007844:	462f      	mov	r7, r5
 8007846:	edd3 6a03 	vldr	s13, [r3, #12]
 800784a:	4286      	cmp	r6, r0
 800784c:	ed97 6a00 	vldr	s12, [r7]
 8007850:	4627      	mov	r7, r4
 8007852:	ee76 6a87 	vadd.f32	s13, s13, s14
 8007856:	ed93 7a02 	vldr	s14, [r3, #8]
 800785a:	f1a5 0508 	sub.w	r5, r5, #8
 800785e:	f103 0308 	add.w	r3, r3, #8
 8007862:	ee76 4a07 	vadd.f32	s9, s12, s14
 8007866:	f1a4 0408 	sub.w	r4, r4, #8
 800786a:	ee36 7a47 	vsub.f32	s14, s12, s14
 800786e:	f102 0208 	add.w	r2, r2, #8
 8007872:	ee26 5aa7 	vmul.f32	s10, s13, s15
 8007876:	ee26 6aa5 	vmul.f32	s12, s13, s11
 800787a:	ee67 5a25 	vmul.f32	s11, s14, s11
 800787e:	ee74 6a85 	vadd.f32	s13, s9, s10
 8007882:	ee67 7a27 	vmul.f32	s15, s14, s15
 8007886:	ee76 5aa5 	vadd.f32	s11, s13, s11
 800788a:	ee65 5a84 	vmul.f32	s11, s11, s8
 800788e:	edc2 5a00 	vstr	s11, [r2]
 8007892:	ed97 7a00 	vldr	s14, [r7]
 8007896:	edd3 6a01 	vldr	s13, [r3, #4]
 800789a:	ee76 6ac7 	vsub.f32	s13, s13, s14
 800789e:	ee76 6aa7 	vadd.f32	s13, s13, s15
 80078a2:	ee76 6ac6 	vsub.f32	s13, s13, s12
 80078a6:	ee66 6a84 	vmul.f32	s13, s13, s8
 80078aa:	edc2 6a01 	vstr	s13, [r2, #4]
 80078ae:	d1c3      	bne.n	8007838 <taabe136+0x160>
 80078b0:	edd1 7a00 	vldr	s15, [r1]
 80078b4:	2200      	movs	r2, #0
 80078b6:	ed91 7a01 	vldr	s14, [r1, #4]
 80078ba:	9b02      	ldr	r3, [sp, #8]
 80078bc:	ee77 7ac7 	vsub.f32	s15, s15, s14
 80078c0:	9803      	ldr	r0, [sp, #12]
 80078c2:	f503 6400 	add.w	r4, r3, #2048	; 0x800
 80078c6:	f603 0304 	addw	r3, r3, #2052	; 0x804
 80078ca:	ee27 4a84 	vmul.f32	s8, s15, s8
 80078ce:	ed84 4a00 	vstr	s8, [r4]
 80078d2:	601a      	str	r2, [r3, #0]
 80078d4:	f7ff fc4c 	bl	8007170 <taabe248>
 80078d8:	2000      	movs	r0, #0
 80078da:	b005      	add	sp, #20
 80078dc:	e8bd 8ff0 	ldmia.w	sp!, {r4, r5, r6, r7, r8, r9, sl, fp, pc}
 80078e0:	2001      	movs	r0, #1
 80078e2:	b005      	add	sp, #20
 80078e4:	e8bd 8ff0 	ldmia.w	sp!, {r4, r5, r6, r7, r8, r9, sl, fp, pc}
 80078e8:	0800b1a0 	.word	0x0800b1a0
 80078ec:	00000000 	.word	0x00000000
 80078f0:	0800aba0 	.word	0x0800aba0
 80078f4:	3b000000 	.word	0x3b000000
 80078f8:	0800aba8 	.word	0x0800aba8
 80078fc:	3f7ffb11 	.word	0x3f7ffb11
 8007900:	3c490e67 	.word	0x3c490e67

08007904 <taabe154>:
 8007904:	ea50 0301 	orrs.w	r3, r0, r1
 8007908:	d034      	beq.n	8007974 <taabe154+0x70>
 800790a:	f1b0 4f80 	cmp.w	r0, #1073741824	; 0x40000000
 800790e:	f171 0300 	sbcs.w	r3, r1, #0
 8007912:	b470      	push	{r4, r5, r6}
 8007914:	da28      	bge.n	8007968 <taabe154+0x64>
 8007916:	2300      	movs	r3, #0
 8007918:	f04f 34ff 	mov.w	r4, #4294967295	; 0xffffffff
 800791c:	f06f 4560 	mvn.w	r5, #3758096384	; 0xe0000000
 8007920:	4284      	cmp	r4, r0
 8007922:	eb75 0201 	sbcs.w	r2, r5, r1
 8007926:	db07      	blt.n	8007938 <taabe154+0x34>
 8007928:	1800      	adds	r0, r0, r0
 800792a:	f103 0301 	add.w	r3, r3, #1
 800792e:	4149      	adcs	r1, r1
 8007930:	4284      	cmp	r4, r0
 8007932:	eb75 0201 	sbcs.w	r2, r5, r1
 8007936:	daf7      	bge.n	8007928 <taabe154+0x24>
 8007938:	1c05      	adds	r5, r0, #0
 800793a:	eb03 0483 	add.w	r4, r3, r3, lsl #2
 800793e:	480e      	ldr	r0, [pc, #56]	; (8007978 <taabe154+0x74>)
 8007940:	f541 2600 	adc.w	r6, r1, #524288	; 0x80000
 8007944:	eb03 0344 	add.w	r3, r3, r4, lsl #1
 8007948:	1532      	asrs	r2, r6, #20
 800794a:	ebc3 03c3 	rsb	r3, r3, r3, lsl #3
 800794e:	f5a2 7200 	sub.w	r2, r2, #512	; 0x200
 8007952:	f343 030d 	sbfx	r3, r3, #0, #14
 8007956:	f930 0012 	ldrsh.w	r0, [r0, r2, lsl #1]
 800795a:	bc70      	pop	{r4, r5, r6}
 800795c:	eba0 0083 	sub.w	r0, r0, r3, lsl #2
 8007960:	f300 000f 	ssat	r0, #16, r0
 8007964:	b200      	sxth	r0, r0
 8007966:	4770      	bx	lr
 8007968:	1049      	asrs	r1, r1, #1
 800796a:	ea4f 0030 	mov.w	r0, r0, rrx
 800796e:	f04f 33ff 	mov.w	r3, #4294967295	; 0xffffffff
 8007972:	e7d1      	b.n	8007918 <taabe154+0x14>
 8007974:	4801      	ldr	r0, [pc, #4]	; (800797c <taabe154+0x78>)
 8007976:	4770      	bx	lr
 8007978:	0800b7a0 	.word	0x0800b7a0
 800797c:	ffff8000 	.word	0xffff8000

08007980 <taabe155>:
 8007980:	f510 4f00 	cmn.w	r0, #32768	; 0x8000
 8007984:	d026      	beq.n	80079d4 <taabe155+0x54>
 8007986:	4240      	negs	r0, r0
 8007988:	f643 73ff 	movw	r3, #16383	; 0x3fff
 800798c:	4a12      	ldr	r2, [pc, #72]	; (80079d8 <taabe155+0x58>)
 800798e:	b200      	sxth	r0, r0
 8007990:	4298      	cmp	r0, r3
 8007992:	bfa8      	it	ge
 8007994:	4618      	movge	r0, r3
 8007996:	b470      	push	{r4, r5, r6}
 8007998:	11c1      	asrs	r1, r0, #7
 800799a:	f000 037f 	and.w	r3, r0, #127	; 0x7f
 800799e:	4e0f      	ldr	r6, [pc, #60]	; (80079dc <taabe155+0x5c>)
 80079a0:	f04f 4480 	mov.w	r4, #1073741824	; 0x40000000
 80079a4:	f852 2021 	ldr.w	r2, [r2, r1, lsl #2]
 80079a8:	2500      	movs	r5, #0
 80079aa:	f856 3023 	ldr.w	r3, [r6, r3, lsl #2]
 80079ae:	fbc3 4502 	smlal	r4, r5, r3, r2
 80079b2:	462b      	mov	r3, r5
 80079b4:	0fe0      	lsrs	r0, r4, #31
 80079b6:	f06f 4400 	mvn.w	r4, #2147483648	; 0x80000000
 80079ba:	2500      	movs	r5, #0
 80079bc:	17d9      	asrs	r1, r3, #31
 80079be:	ea40 0043 	orr.w	r0, r0, r3, lsl #1
 80079c2:	4284      	cmp	r4, r0
 80079c4:	eb75 0301 	sbcs.w	r3, r5, r1
 80079c8:	db01      	blt.n	80079ce <taabe155+0x4e>
 80079ca:	bc70      	pop	{r4, r5, r6}
 80079cc:	4770      	bx	lr
 80079ce:	4620      	mov	r0, r4
 80079d0:	bc70      	pop	{r4, r5, r6}
 80079d2:	4770      	bx	lr
 80079d4:	20f2      	movs	r0, #242	; 0xf2
 80079d6:	4770      	bx	lr
 80079d8:	0800b5a0 	.word	0x0800b5a0
 80079dc:	0800b3a0 	.word	0x0800b3a0

080079e0 <taabe156>:
 80079e0:	2800      	cmp	r0, #0
 80079e2:	dd2d      	ble.n	8007a40 <taabe156+0x60>
 80079e4:	3902      	subs	r1, #2
 80079e6:	3a02      	subs	r2, #2
 80079e8:	b4f0      	push	{r4, r5, r6, r7}
 80079ea:	eb01 0040 	add.w	r0, r1, r0, lsl #1
 80079ee:	4d15      	ldr	r5, [pc, #84]	; (8007a44 <taabe156+0x64>)
 80079f0:	4e15      	ldr	r6, [pc, #84]	; (8007a48 <taabe156+0x68>)
 80079f2:	f931 3f02 	ldrsh.w	r3, [r1, #2]!
 80079f6:	f5b3 5ffe 	cmp.w	r3, #8128	; 0x1fc0
 80079fa:	bfa8      	it	ge
 80079fc:	f44f 53fe 	movge.w	r3, #8128	; 0x1fc0
 8007a00:	42b3      	cmp	r3, r6
 8007a02:	bfb8      	it	lt
 8007a04:	4633      	movlt	r3, r6
 8007a06:	4288      	cmp	r0, r1
 8007a08:	b29b      	uxth	r3, r3
 8007a0a:	f3c3 040d 	ubfx	r4, r3, #0, #14
 8007a0e:	f003 033f 	and.w	r3, r3, #63	; 0x3f
 8007a12:	f104 073f 	add.w	r7, r4, #63	; 0x3f
 8007a16:	ea4f 1494 	mov.w	r4, r4, lsr #6
 8007a1a:	f1c3 0c40 	rsb	ip, r3, #64	; 0x40
 8007a1e:	ea4f 1797 	mov.w	r7, r7, lsr #6
 8007a22:	f935 4014 	ldrsh.w	r4, [r5, r4, lsl #1]
 8007a26:	f935 7017 	ldrsh.w	r7, [r5, r7, lsl #1]
 8007a2a:	fb03 f307 	mul.w	r3, r3, r7
 8007a2e:	fb0c 3304 	mla	r3, ip, r4, r3
 8007a32:	ea4f 13a3 	mov.w	r3, r3, asr #6
 8007a36:	f822 3f02 	strh.w	r3, [r2, #2]!
 8007a3a:	d1da      	bne.n	80079f2 <taabe156+0x12>
 8007a3c:	bcf0      	pop	{r4, r5, r6, r7}
 8007a3e:	4770      	bx	lr
 8007a40:	4770      	bx	lr
 8007a42:	bf00      	nop
 8007a44:	0800bba4 	.word	0x0800bba4
 8007a48:	ffffe000 	.word	0xffffe000

08007a4c <taabe157>:
 8007a4c:	e92d 43f8 	stmdb	sp!, {r3, r4, r5, r6, r7, r8, r9, lr}
 8007a50:	f1b0 0900 	subs.w	r9, r0, #0
 8007a54:	4696      	mov	lr, r2
 8007a56:	dd24      	ble.n	8007aa2 <taabe157+0x56>
 8007a58:	1e97      	subs	r7, r2, #2
 8007a5a:	1e8d      	subs	r5, r1, #2
 8007a5c:	ea4f 0849 	mov.w	r8, r9, lsl #1
 8007a60:	463c      	mov	r4, r7
 8007a62:	463e      	mov	r6, r7
 8007a64:	eb05 0c08 	add.w	ip, r5, r8
 8007a68:	f935 3f02 	ldrsh.w	r3, [r5, #2]!
 8007a6c:	4565      	cmp	r5, ip
 8007a6e:	ea4f 0343 	mov.w	r3, r3, lsl #1
 8007a72:	f303 030f 	ssat	r3, #16, r3
 8007a76:	f826 3f02 	strh.w	r3, [r6, #2]!
 8007a7a:	d1f5      	bne.n	8007a68 <taabe157+0x1c>
 8007a7c:	4672      	mov	r2, lr
 8007a7e:	4648      	mov	r0, r9
 8007a80:	4671      	mov	r1, lr
 8007a82:	f7ff ffad 	bl	80079e0 <taabe156>
 8007a86:	eb07 0208 	add.w	r2, r7, r8
 8007a8a:	f934 3f02 	ldrsh.w	r3, [r4, #2]!
 8007a8e:	005b      	lsls	r3, r3, #1
 8007a90:	42a2      	cmp	r2, r4
 8007a92:	f5a3 4300 	sub.w	r3, r3, #32768	; 0x8000
 8007a96:	f303 030f 	ssat	r3, #16, r3
 8007a9a:	8023      	strh	r3, [r4, #0]
 8007a9c:	d1f5      	bne.n	8007a8a <taabe157+0x3e>
 8007a9e:	e8bd 83f8 	ldmia.w	sp!, {r3, r4, r5, r6, r7, r8, r9, pc}
 8007aa2:	4611      	mov	r1, r2
 8007aa4:	e8bd 43f8 	ldmia.w	sp!, {r3, r4, r5, r6, r7, r8, r9, lr}
 8007aa8:	f7ff bf9a 	b.w	80079e0 <taabe156>

08007aac <taabe234.part.0>:
 8007aac:	b5f8      	push	{r3, r4, r5, r6, r7, lr}
 8007aae:	4606      	mov	r6, r0
 8007ab0:	6900      	ldr	r0, [r0, #16]
 8007ab2:	6837      	ldr	r7, [r6, #0]
 8007ab4:	f000 fb16 	bl	80080e4 <taabe18>
 8007ab8:	68f0      	ldr	r0, [r6, #12]
 8007aba:	f000 f8f5 	bl	8007ca8 <taabe15>
 8007abe:	68b1      	ldr	r1, [r6, #8]
 8007ac0:	b179      	cbz	r1, 8007ae2 <taabe234.part.0+0x36>
 8007ac2:	6873      	ldr	r3, [r6, #4]
 8007ac4:	681c      	ldr	r4, [r3, #0]
 8007ac6:	3c01      	subs	r4, #1
 8007ac8:	d408      	bmi.n	8007adc <taabe234.part.0+0x30>
 8007aca:	00a5      	lsls	r5, r4, #2
 8007acc:	3c01      	subs	r4, #1
 8007ace:	5948      	ldr	r0, [r1, r5]
 8007ad0:	f000 fa3a 	bl	8007f48 <taabe4>
 8007ad4:	3d04      	subs	r5, #4
 8007ad6:	1c63      	adds	r3, r4, #1
 8007ad8:	68b1      	ldr	r1, [r6, #8]
 8007ada:	d1f7      	bne.n	8007acc <taabe234.part.0+0x20>
 8007adc:	4638      	mov	r0, r7
 8007ade:	f7ff fb47 	bl	8007170 <taabe248>
 8007ae2:	4631      	mov	r1, r6
 8007ae4:	4638      	mov	r0, r7
 8007ae6:	e8bd 40f8 	ldmia.w	sp!, {r3, r4, r5, r6, r7, lr}
 8007aea:	f7ff bb41 	b.w	8007170 <taabe248>
 8007aee:	bf00      	nop

08007af0 <taabe233>:
 8007af0:	e92d 43f8 	stmdb	sp!, {r3, r4, r5, r6, r7, r8, r9, lr}
 8007af4:	4614      	mov	r4, r2
 8007af6:	4688      	mov	r8, r1
 8007af8:	2201      	movs	r2, #1
 8007afa:	2114      	movs	r1, #20
 8007afc:	4607      	mov	r7, r0
 8007afe:	f7ff fb07 	bl	8007110 <taabe247>
 8007b02:	6020      	str	r0, [r4, #0]
 8007b04:	b340      	cbz	r0, 8007b58 <taabe233+0x68>
 8007b06:	f8d8 9000 	ldr.w	r9, [r8]
 8007b0a:	4606      	mov	r6, r0
 8007b0c:	6007      	str	r7, [r0, #0]
 8007b0e:	2201      	movs	r2, #1
 8007b10:	4638      	mov	r0, r7
 8007b12:	f8c6 8004 	str.w	r8, [r6, #4]
 8007b16:	ea4f 0189 	mov.w	r1, r9, lsl #2
 8007b1a:	f7ff faf9 	bl	8007110 <taabe247>
 8007b1e:	60b0      	str	r0, [r6, #8]
 8007b20:	b3a8      	cbz	r0, 8007b8e <taabe233+0x9e>
 8007b22:	f1b9 0f00 	cmp.w	r9, #0
 8007b26:	dd1b      	ble.n	8007b60 <taabe233+0x70>
 8007b28:	2400      	movs	r4, #0
 8007b2a:	e002      	b.n	8007b32 <taabe233+0x42>
 8007b2c:	45a1      	cmp	r9, r4
 8007b2e:	d017      	beq.n	8007b60 <taabe233+0x70>
 8007b30:	68b0      	ldr	r0, [r6, #8]
 8007b32:	f8d8 3004 	ldr.w	r3, [r8, #4]
 8007b36:	eb00 0284 	add.w	r2, r0, r4, lsl #2
 8007b3a:	4638      	mov	r0, r7
 8007b3c:	f853 1024 	ldr.w	r1, [r3, r4, lsl #2]
 8007b40:	3401      	adds	r4, #1
 8007b42:	f000 f9c3 	bl	8007ecc <taabe3>
 8007b46:	4605      	mov	r5, r0
 8007b48:	2800      	cmp	r0, #0
 8007b4a:	d0ef      	beq.n	8007b2c <taabe233+0x3c>
 8007b4c:	4630      	mov	r0, r6
 8007b4e:	f7ff ffad 	bl	8007aac <taabe234.part.0>
 8007b52:	4628      	mov	r0, r5
 8007b54:	e8bd 83f8 	ldmia.w	sp!, {r3, r4, r5, r6, r7, r8, r9, pc}
 8007b58:	2501      	movs	r5, #1
 8007b5a:	4628      	mov	r0, r5
 8007b5c:	e8bd 83f8 	ldmia.w	sp!, {r3, r4, r5, r6, r7, r8, r9, pc}
 8007b60:	f106 030c 	add.w	r3, r6, #12
 8007b64:	2200      	movs	r2, #0
 8007b66:	f8d8 1008 	ldr.w	r1, [r8, #8]
 8007b6a:	4638      	mov	r0, r7
 8007b6c:	f000 f882 	bl	8007c74 <taabe14>
 8007b70:	4605      	mov	r5, r0
 8007b72:	2800      	cmp	r0, #0
 8007b74:	d1ea      	bne.n	8007b4c <taabe233+0x5c>
 8007b76:	f8d8 3008 	ldr.w	r3, [r8, #8]
 8007b7a:	4638      	mov	r0, r7
 8007b7c:	f106 0210 	add.w	r2, r6, #16
 8007b80:	6859      	ldr	r1, [r3, #4]
 8007b82:	f000 fa9d 	bl	80080c0 <taabe17>
 8007b86:	4605      	mov	r5, r0
 8007b88:	2800      	cmp	r0, #0
 8007b8a:	d0e2      	beq.n	8007b52 <taabe233+0x62>
 8007b8c:	e7de      	b.n	8007b4c <taabe233+0x5c>
 8007b8e:	4630      	mov	r0, r6
 8007b90:	2501      	movs	r5, #1
 8007b92:	f7ff ff8b 	bl	8007aac <taabe234.part.0>
 8007b96:	e7dc      	b.n	8007b52 <taabe233+0x62>

08007b98 <taabe234>:
 8007b98:	b108      	cbz	r0, 8007b9e <taabe234+0x6>
 8007b9a:	f7ff bf87 	b.w	8007aac <taabe234.part.0>
 8007b9e:	4770      	bx	lr

08007ba0 <taabe235>:
 8007ba0:	e92d 47f0 	stmdb	sp!, {r4, r5, r6, r7, r8, r9, sl, lr}
 8007ba4:	e9d0 8a00 	ldrd	r8, sl, [r0]
 8007ba8:	460e      	mov	r6, r1
 8007baa:	4607      	mov	r7, r0
 8007bac:	f8da 3004 	ldr.w	r3, [sl, #4]
 8007bb0:	4691      	mov	r9, r2
 8007bb2:	4640      	mov	r0, r8
 8007bb4:	2200      	movs	r2, #0
 8007bb6:	681b      	ldr	r3, [r3, #0]
 8007bb8:	685b      	ldr	r3, [r3, #4]
 8007bba:	6819      	ldr	r1, [r3, #0]
 8007bbc:	0049      	lsls	r1, r1, #1
 8007bbe:	f7ff faa7 	bl	8007110 <taabe247>
 8007bc2:	b3b0      	cbz	r0, 8007c32 <taabe235+0x92>
 8007bc4:	f8da 3000 	ldr.w	r3, [sl]
 8007bc8:	4605      	mov	r5, r0
 8007bca:	2b00      	cmp	r3, #0
 8007bcc:	dd12      	ble.n	8007bf4 <taabe235+0x54>
 8007bce:	2400      	movs	r4, #0
 8007bd0:	e003      	b.n	8007bda <taabe235+0x3a>
 8007bd2:	f8da 3000 	ldr.w	r3, [sl]
 8007bd6:	42a3      	cmp	r3, r4
 8007bd8:	dd0c      	ble.n	8007bf4 <taabe235+0x54>
 8007bda:	68bb      	ldr	r3, [r7, #8]
 8007bdc:	4631      	mov	r1, r6
 8007bde:	462a      	mov	r2, r5
 8007be0:	462e      	mov	r6, r5
 8007be2:	f853 0024 	ldr.w	r0, [r3, r4, lsl #2]
 8007be6:	3401      	adds	r4, #1
 8007be8:	f000 f9b2 	bl	8007f50 <taabe5>
 8007bec:	2800      	cmp	r0, #0
 8007bee:	d0f0      	beq.n	8007bd2 <taabe235+0x32>
 8007bf0:	e8bd 87f0 	ldmia.w	sp!, {r4, r5, r6, r7, r8, r9, sl, pc}
 8007bf4:	f8da 3008 	ldr.w	r3, [sl, #8]
 8007bf8:	2200      	movs	r2, #0
 8007bfa:	4640      	mov	r0, r8
 8007bfc:	6859      	ldr	r1, [r3, #4]
 8007bfe:	0089      	lsls	r1, r1, #2
 8007c00:	f7ff fa86 	bl	8007110 <taabe247>
 8007c04:	4604      	mov	r4, r0
 8007c06:	b1b8      	cbz	r0, 8007c38 <taabe235+0x98>
 8007c08:	4631      	mov	r1, r6
 8007c0a:	4602      	mov	r2, r0
 8007c0c:	68f8      	ldr	r0, [r7, #12]
 8007c0e:	f000 f851 	bl	8007cb4 <taabe16>
 8007c12:	464a      	mov	r2, r9
 8007c14:	4621      	mov	r1, r4
 8007c16:	6938      	ldr	r0, [r7, #16]
 8007c18:	f000 fa6a 	bl	80080f0 <taabe19>
 8007c1c:	4621      	mov	r1, r4
 8007c1e:	4640      	mov	r0, r8
 8007c20:	f7ff faa6 	bl	8007170 <taabe248>
 8007c24:	4640      	mov	r0, r8
 8007c26:	4629      	mov	r1, r5
 8007c28:	f7ff faa2 	bl	8007170 <taabe248>
 8007c2c:	2000      	movs	r0, #0
 8007c2e:	e8bd 87f0 	ldmia.w	sp!, {r4, r5, r6, r7, r8, r9, sl, pc}
 8007c32:	2001      	movs	r0, #1
 8007c34:	e8bd 87f0 	ldmia.w	sp!, {r4, r5, r6, r7, r8, r9, sl, pc}
 8007c38:	4640      	mov	r0, r8
 8007c3a:	4629      	mov	r1, r5
 8007c3c:	f7ff fa98 	bl	8007170 <taabe248>
 8007c40:	2001      	movs	r0, #1
 8007c42:	e8bd 87f0 	ldmia.w	sp!, {r4, r5, r6, r7, r8, r9, sl, pc}
 8007c46:	bf00      	nop

08007c48 <taabe236>:
 8007c48:	b538      	push	{r3, r4, r5, lr}
 8007c4a:	6843      	ldr	r3, [r0, #4]
 8007c4c:	681b      	ldr	r3, [r3, #0]
 8007c4e:	2b00      	cmp	r3, #0
 8007c50:	dd0b      	ble.n	8007c6a <taabe236+0x22>
 8007c52:	4605      	mov	r5, r0
 8007c54:	2400      	movs	r4, #0
 8007c56:	68ab      	ldr	r3, [r5, #8]
 8007c58:	f853 0024 	ldr.w	r0, [r3, r4, lsl #2]
 8007c5c:	3401      	adds	r4, #1
 8007c5e:	f000 fa1b 	bl	8008098 <taabe6>
 8007c62:	686b      	ldr	r3, [r5, #4]
 8007c64:	681b      	ldr	r3, [r3, #0]
 8007c66:	42a3      	cmp	r3, r4
 8007c68:	dcf5      	bgt.n	8007c56 <taabe236+0xe>
 8007c6a:	bd38      	pop	{r3, r4, r5, pc}

08007c6c <taabe237>:
 8007c6c:	6843      	ldr	r3, [r0, #4]
 8007c6e:	8998      	ldrh	r0, [r3, #12]
 8007c70:	4770      	bx	lr
 8007c72:	bf00      	nop

08007c74 <taabe14>:
 8007c74:	e92d 41f0 	stmdb	sp!, {r4, r5, r6, r7, r8, lr}
 8007c78:	2400      	movs	r4, #0
 8007c7a:	460f      	mov	r7, r1
 8007c7c:	4616      	mov	r6, r2
 8007c7e:	210c      	movs	r1, #12
 8007c80:	601c      	str	r4, [r3, #0]
 8007c82:	2201      	movs	r2, #1
 8007c84:	461d      	mov	r5, r3
 8007c86:	4680      	mov	r8, r0
 8007c88:	f7ff fa42 	bl	8007110 <taabe247>
 8007c8c:	b140      	cbz	r0, 8007ca0 <taabe14+0x2c>
 8007c8e:	4602      	mov	r2, r0
 8007c90:	f8c0 8000 	str.w	r8, [r0]
 8007c94:	4620      	mov	r0, r4
 8007c96:	6057      	str	r7, [r2, #4]
 8007c98:	7216      	strb	r6, [r2, #8]
 8007c9a:	602a      	str	r2, [r5, #0]
 8007c9c:	e8bd 81f0 	ldmia.w	sp!, {r4, r5, r6, r7, r8, pc}
 8007ca0:	2001      	movs	r0, #1
 8007ca2:	e8bd 81f0 	ldmia.w	sp!, {r4, r5, r6, r7, r8, pc}
 8007ca6:	bf00      	nop

08007ca8 <taabe15>:
 8007ca8:	b118      	cbz	r0, 8007cb2 <taabe15+0xa>
 8007caa:	4601      	mov	r1, r0
 8007cac:	6800      	ldr	r0, [r0, #0]
 8007cae:	f7ff ba5f 	b.w	8007170 <taabe248>
 8007cb2:	4770      	bx	lr

08007cb4 <taabe16>:
 8007cb4:	6843      	ldr	r3, [r0, #4]
 8007cb6:	7a00      	ldrb	r0, [r0, #8]
 8007cb8:	e92d 4ff0 	stmdb	sp!, {r4, r5, r6, r7, r8, r9, sl, fp, lr}
 8007cbc:	685c      	ldr	r4, [r3, #4]
 8007cbe:	b08d      	sub	sp, #52	; 0x34
 8007cc0:	10a5      	asrs	r5, r4, #2
 8007cc2:	9000      	str	r0, [sp, #0]
 8007cc4:	6818      	ldr	r0, [r3, #0]
 8007cc6:	9206      	str	r2, [sp, #24]
 8007cc8:	9407      	str	r4, [sp, #28]
 8007cca:	9009      	str	r0, [sp, #36]	; 0x24
 8007ccc:	9508      	str	r5, [sp, #32]
 8007cce:	e9d3 ab02 	ldrd	sl, fp, [r3, #8]
 8007cd2:	f000 809f 	beq.w	8007e14 <taabe16+0x160>
 8007cd6:	0043      	lsls	r3, r0, #1
 8007cd8:	f10b 0904 	add.w	r9, fp, #4
 8007cdc:	1044      	asrs	r4, r0, #1
 8007cde:	f000 0001 	and.w	r0, r0, #1
 8007ce2:	425b      	negs	r3, r3
 8007ce4:	4690      	mov	r8, r2
 8007ce6:	9003      	str	r0, [sp, #12]
 8007ce8:	00a8      	lsls	r0, r5, #2
 8007cea:	9302      	str	r3, [sp, #8]
 8007cec:	00e3      	lsls	r3, r4, #3
 8007cee:	00a2      	lsls	r2, r4, #2
 8007cf0:	f8cd b02c 	str.w	fp, [sp, #44]	; 0x2c
 8007cf4:	9305      	str	r3, [sp, #20]
 8007cf6:	eb09 0300 	add.w	r3, r9, r0
 8007cfa:	9401      	str	r4, [sp, #4]
 8007cfc:	469b      	mov	fp, r3
 8007cfe:	900a      	str	r0, [sp, #40]	; 0x28
 8007d00:	9204      	str	r2, [sp, #16]
 8007d02:	f919 cc04 	ldrsb.w	ip, [r9, #-4]
 8007d06:	f919 7c03 	ldrsb.w	r7, [r9, #-3]
 8007d0a:	f919 6c02 	ldrsb.w	r6, [r9, #-2]
 8007d0e:	ea4f 2c8c 	mov.w	ip, ip, lsl #10
 8007d12:	f919 5c01 	ldrsb.w	r5, [r9, #-1]
 8007d16:	02bf      	lsls	r7, r7, #10
 8007d18:	02b6      	lsls	r6, r6, #10
 8007d1a:	9b01      	ldr	r3, [sp, #4]
 8007d1c:	02ad      	lsls	r5, r5, #10
 8007d1e:	f10c 0c40 	add.w	ip, ip, #64	; 0x40
 8007d22:	3740      	adds	r7, #64	; 0x40
 8007d24:	3640      	adds	r6, #64	; 0x40
 8007d26:	3540      	adds	r5, #64	; 0x40
 8007d28:	2b00      	cmp	r3, #0
 8007d2a:	f000 80b3 	beq.w	8007e94 <taabe16+0x1e0>
 8007d2e:	9b04      	ldr	r3, [sp, #16]
 8007d30:	f10a 0008 	add.w	r0, sl, #8
 8007d34:	eb01 0e03 	add.w	lr, r1, r3
 8007d38:	f850 4c08 	ldr.w	r4, [r0, #-8]
 8007d3c:	ea4f 2234 	mov.w	r2, r4, ror #8
 8007d40:	fa2f f282 	sxtb16	r2, r2
 8007d44:	fa2f f484 	sxtb16	r4, r4
 8007d48:	f851 3b04 	ldr.w	r3, [r1], #4
 8007d4c:	fb24 cc03 	smlad	ip, r4, r3, ip
 8007d50:	fb22 7703 	smlad	r7, r2, r3, r7
 8007d54:	f850 2c04 	ldr.w	r2, [r0, #-4]
 8007d58:	ea4f 2432 	mov.w	r4, r2, ror #8
 8007d5c:	fa2f f484 	sxtb16	r4, r4
 8007d60:	fa2f f282 	sxtb16	r2, r2
 8007d64:	fb22 6603 	smlad	r6, r2, r3, r6
 8007d68:	fb24 5503 	smlad	r5, r4, r3, r5
 8007d6c:	4571      	cmp	r1, lr
 8007d6e:	f100 0008 	add.w	r0, r0, #8
 8007d72:	d1e1      	bne.n	8007d38 <taabe16+0x84>
 8007d74:	9b05      	ldr	r3, [sp, #20]
 8007d76:	449a      	add	sl, r3
 8007d78:	9b03      	ldr	r3, [sp, #12]
 8007d7a:	b1ab      	cbz	r3, 8007da8 <taabe16+0xf4>
 8007d7c:	f9be 3000 	ldrsh.w	r3, [lr]
 8007d80:	f10a 0a04 	add.w	sl, sl, #4
 8007d84:	f91a 1c04 	ldrsb.w	r1, [sl, #-4]
 8007d88:	f10e 0e02 	add.w	lr, lr, #2
 8007d8c:	f91a 2c03 	ldrsb.w	r2, [sl, #-3]
 8007d90:	fb13 cc01 	smlabb	ip, r3, r1, ip
 8007d94:	f91a 1c02 	ldrsb.w	r1, [sl, #-2]
 8007d98:	fb13 7702 	smlabb	r7, r3, r2, r7
 8007d9c:	f91a 2c01 	ldrsb.w	r2, [sl, #-1]
 8007da0:	fb13 6601 	smlabb	r6, r3, r1, r6
 8007da4:	fb13 5502 	smlabb	r5, r3, r2, r5
 8007da8:	9b00      	ldr	r3, [sp, #0]
 8007daa:	ea4f 1cec 	mov.w	ip, ip, asr #7
 8007dae:	f108 0808 	add.w	r8, r8, #8
 8007db2:	11ff      	asrs	r7, r7, #7
 8007db4:	11f6      	asrs	r6, r6, #7
 8007db6:	11ed      	asrs	r5, r5, #7
 8007db8:	2b00      	cmp	r3, #0
 8007dba:	d055      	beq.n	8007e68 <taabe16+0x1b4>
 8007dbc:	f938 3c08 	ldrsh.w	r3, [r8, #-8]
 8007dc0:	f938 2c06 	ldrsh.w	r2, [r8, #-6]
 8007dc4:	449c      	add	ip, r3
 8007dc6:	f938 1c02 	ldrsh.w	r1, [r8, #-2]
 8007dca:	f938 3c04 	ldrsh.w	r3, [r8, #-4]
 8007dce:	4417      	add	r7, r2
 8007dd0:	f30c 0c0f 	ssat	ip, #16, ip
 8007dd4:	441e      	add	r6, r3
 8007dd6:	440d      	add	r5, r1
 8007dd8:	f307 070f 	ssat	r7, #16, r7
 8007ddc:	f306 060f 	ssat	r6, #16, r6
 8007de0:	f305 050f 	ssat	r5, #16, r5
 8007de4:	f828 cc08 	strh.w	ip, [r8, #-8]
 8007de8:	f828 7c06 	strh.w	r7, [r8, #-6]
 8007dec:	f828 6c04 	strh.w	r6, [r8, #-4]
 8007df0:	f828 5c02 	strh.w	r5, [r8, #-2]
 8007df4:	f109 0904 	add.w	r9, r9, #4
 8007df8:	9b02      	ldr	r3, [sp, #8]
 8007dfa:	45cb      	cmp	fp, r9
 8007dfc:	eb0e 0103 	add.w	r1, lr, r3
 8007e00:	f47f af7f 	bne.w	8007d02 <taabe16+0x4e>
 8007e04:	9a08      	ldr	r2, [sp, #32]
 8007e06:	e9dd 3b0a 	ldrd	r3, fp, [sp, #40]	; 0x28
 8007e0a:	449b      	add	fp, r3
 8007e0c:	9b06      	ldr	r3, [sp, #24]
 8007e0e:	eb03 03c2 	add.w	r3, r3, r2, lsl #3
 8007e12:	9306      	str	r3, [sp, #24]
 8007e14:	9b07      	ldr	r3, [sp, #28]
 8007e16:	f013 0203 	ands.w	r2, r3, #3
 8007e1a:	d022      	beq.n	8007e62 <taabe16+0x1ae>
 8007e1c:	9e09      	ldr	r6, [sp, #36]	; 0x24
 8007e1e:	445a      	add	r2, fp
 8007e20:	9f00      	ldr	r7, [sp, #0]
 8007e22:	0070      	lsls	r0, r6, #1
 8007e24:	9d06      	ldr	r5, [sp, #24]
 8007e26:	4244      	negs	r4, r0
 8007e28:	f91b 3b01 	ldrsb.w	r3, [fp], #1
 8007e2c:	029b      	lsls	r3, r3, #10
 8007e2e:	3340      	adds	r3, #64	; 0x40
 8007e30:	b396      	cbz	r6, 8007e98 <taabe16+0x1e4>
 8007e32:	eb01 0e00 	add.w	lr, r1, r0
 8007e36:	46d4      	mov	ip, sl
 8007e38:	f831 9b02 	ldrh.w	r9, [r1], #2
 8007e3c:	f91c 8b01 	ldrsb.w	r8, [ip], #1
 8007e40:	4571      	cmp	r1, lr
 8007e42:	fb19 3308 	smlabb	r3, r9, r8, r3
 8007e46:	d1f7      	bne.n	8007e38 <taabe16+0x184>
 8007e48:	44b2      	add	sl, r6
 8007e4a:	11db      	asrs	r3, r3, #7
 8007e4c:	b1ef      	cbz	r7, 8007e8a <taabe16+0x1d6>
 8007e4e:	f9b5 1000 	ldrsh.w	r1, [r5]
 8007e52:	440b      	add	r3, r1
 8007e54:	f303 030f 	ssat	r3, #16, r3
 8007e58:	802b      	strh	r3, [r5, #0]
 8007e5a:	4593      	cmp	fp, r2
 8007e5c:	eb0e 0104 	add.w	r1, lr, r4
 8007e60:	d1e2      	bne.n	8007e28 <taabe16+0x174>
 8007e62:	b00d      	add	sp, #52	; 0x34
 8007e64:	e8bd 8ff0 	ldmia.w	sp!, {r4, r5, r6, r7, r8, r9, sl, fp, pc}
 8007e68:	f30c 0c0f 	ssat	ip, #16, ip
 8007e6c:	f307 070f 	ssat	r7, #16, r7
 8007e70:	f306 060f 	ssat	r6, #16, r6
 8007e74:	f305 050f 	ssat	r5, #16, r5
 8007e78:	f828 cc08 	strh.w	ip, [r8, #-8]
 8007e7c:	f828 7c06 	strh.w	r7, [r8, #-6]
 8007e80:	f828 6c04 	strh.w	r6, [r8, #-4]
 8007e84:	f828 5c02 	strh.w	r5, [r8, #-2]
 8007e88:	e7b4      	b.n	8007df4 <taabe16+0x140>
 8007e8a:	f303 030f 	ssat	r3, #16, r3
 8007e8e:	f825 3b02 	strh.w	r3, [r5], #2
 8007e92:	e7e2      	b.n	8007e5a <taabe16+0x1a6>
 8007e94:	468e      	mov	lr, r1
 8007e96:	e76f      	b.n	8007d78 <taabe16+0xc4>
 8007e98:	468e      	mov	lr, r1
 8007e9a:	e7d6      	b.n	8007e4a <taabe16+0x196>

08007e9c <taabe4.part.0>:
 8007e9c:	b538      	push	{r3, r4, r5, lr}
 8007e9e:	4604      	mov	r4, r0
 8007ea0:	6805      	ldr	r5, [r0, #0]
 8007ea2:	6940      	ldr	r0, [r0, #20]
 8007ea4:	f7ff ff00 	bl	8007ca8 <taabe15>
 8007ea8:	6920      	ldr	r0, [r4, #16]
 8007eaa:	f7ff fefd 	bl	8007ca8 <taabe15>
 8007eae:	4628      	mov	r0, r5
 8007eb0:	68e1      	ldr	r1, [r4, #12]
 8007eb2:	f7ff f95d 	bl	8007170 <taabe248>
 8007eb6:	4628      	mov	r0, r5
 8007eb8:	68a1      	ldr	r1, [r4, #8]
 8007eba:	f7ff f959 	bl	8007170 <taabe248>
 8007ebe:	4621      	mov	r1, r4
 8007ec0:	4628      	mov	r0, r5
 8007ec2:	e8bd 4038 	ldmia.w	sp!, {r3, r4, r5, lr}
 8007ec6:	f7ff b953 	b.w	8007170 <taabe248>
 8007eca:	bf00      	nop

08007ecc <taabe3>:
 8007ecc:	b5f8      	push	{r3, r4, r5, r6, r7, lr}
 8007ece:	4616      	mov	r6, r2
 8007ed0:	460f      	mov	r7, r1
 8007ed2:	2201      	movs	r2, #1
 8007ed4:	2118      	movs	r1, #24
 8007ed6:	4605      	mov	r5, r0
 8007ed8:	f7ff f91a 	bl	8007110 <taabe247>
 8007edc:	6030      	str	r0, [r6, #0]
 8007ede:	b380      	cbz	r0, 8007f42 <taabe3+0x76>
 8007ee0:	687b      	ldr	r3, [r7, #4]
 8007ee2:	2201      	movs	r2, #1
 8007ee4:	4604      	mov	r4, r0
 8007ee6:	6005      	str	r5, [r0, #0]
 8007ee8:	681e      	ldr	r6, [r3, #0]
 8007eea:	4628      	mov	r0, r5
 8007eec:	6067      	str	r7, [r4, #4]
 8007eee:	4096      	lsls	r6, r2
 8007ef0:	4631      	mov	r1, r6
 8007ef2:	f7ff f90d 	bl	8007110 <taabe247>
 8007ef6:	60a0      	str	r0, [r4, #8]
 8007ef8:	b1e8      	cbz	r0, 8007f36 <taabe3+0x6a>
 8007efa:	4631      	mov	r1, r6
 8007efc:	2201      	movs	r2, #1
 8007efe:	4628      	mov	r0, r5
 8007f00:	f7ff f906 	bl	8007110 <taabe247>
 8007f04:	60e0      	str	r0, [r4, #12]
 8007f06:	b1b0      	cbz	r0, 8007f36 <taabe3+0x6a>
 8007f08:	f104 0310 	add.w	r3, r4, #16
 8007f0c:	2200      	movs	r2, #0
 8007f0e:	6839      	ldr	r1, [r7, #0]
 8007f10:	4628      	mov	r0, r5
 8007f12:	f7ff feaf 	bl	8007c74 <taabe14>
 8007f16:	4606      	mov	r6, r0
 8007f18:	b940      	cbnz	r0, 8007f2c <taabe3+0x60>
 8007f1a:	6879      	ldr	r1, [r7, #4]
 8007f1c:	4628      	mov	r0, r5
 8007f1e:	f104 0314 	add.w	r3, r4, #20
 8007f22:	2201      	movs	r2, #1
 8007f24:	f7ff fea6 	bl	8007c74 <taabe14>
 8007f28:	4606      	mov	r6, r0
 8007f2a:	b140      	cbz	r0, 8007f3e <taabe3+0x72>
 8007f2c:	4620      	mov	r0, r4
 8007f2e:	f7ff ffb5 	bl	8007e9c <taabe4.part.0>
 8007f32:	4630      	mov	r0, r6
 8007f34:	bdf8      	pop	{r3, r4, r5, r6, r7, pc}
 8007f36:	4620      	mov	r0, r4
 8007f38:	2601      	movs	r6, #1
 8007f3a:	f7ff ffaf 	bl	8007e9c <taabe4.part.0>
 8007f3e:	4630      	mov	r0, r6
 8007f40:	bdf8      	pop	{r3, r4, r5, r6, r7, pc}
 8007f42:	2601      	movs	r6, #1
 8007f44:	4630      	mov	r0, r6
 8007f46:	bdf8      	pop	{r3, r4, r5, r6, r7, pc}

08007f48 <taabe4>:
 8007f48:	b108      	cbz	r0, 8007f4e <taabe4+0x6>
 8007f4a:	f7ff bfa7 	b.w	8007e9c <taabe4.part.0>
 8007f4e:	4770      	bx	lr

08007f50 <taabe5>:
 8007f50:	e92d 4ff0 	stmdb	sp!, {r4, r5, r6, r7, r8, r9, sl, fp, lr}
 8007f54:	4605      	mov	r5, r0
 8007f56:	b087      	sub	sp, #28
 8007f58:	460c      	mov	r4, r1
 8007f5a:	9201      	str	r2, [sp, #4]
 8007f5c:	2201      	movs	r2, #1
 8007f5e:	e9d0 0300 	ldrd	r0, r3, [r0]
 8007f62:	685b      	ldr	r3, [r3, #4]
 8007f64:	9000      	str	r0, [sp, #0]
 8007f66:	f8d3 8000 	ldr.w	r8, [r3]
 8007f6a:	fa08 f902 	lsl.w	r9, r8, r2
 8007f6e:	eb09 0108 	add.w	r1, r9, r8
 8007f72:	4091      	lsls	r1, r2
 8007f74:	f7ff f8cc 	bl	8007110 <taabe247>
 8007f78:	2800      	cmp	r0, #0
 8007f7a:	f000 8083 	beq.w	8008084 <taabe5+0x134>
 8007f7e:	4682      	mov	sl, r0
 8007f80:	4621      	mov	r1, r4
 8007f82:	4602      	mov	r2, r0
 8007f84:	6928      	ldr	r0, [r5, #16]
 8007f86:	f7ff fe95 	bl	8007cb4 <taabe16>
 8007f8a:	eb0a 0409 	add.w	r4, sl, r9
 8007f8e:	68ab      	ldr	r3, [r5, #8]
 8007f90:	4652      	mov	r2, sl
 8007f92:	6968      	ldr	r0, [r5, #20]
 8007f94:	4619      	mov	r1, r3
 8007f96:	9303      	str	r3, [sp, #12]
 8007f98:	eb04 0309 	add.w	r3, r4, r9
 8007f9c:	461e      	mov	r6, r3
 8007f9e:	9304      	str	r3, [sp, #16]
 8007fa0:	f7ff fe88 	bl	8007cb4 <taabe16>
 8007fa4:	4652      	mov	r2, sl
 8007fa6:	4651      	mov	r1, sl
 8007fa8:	4640      	mov	r0, r8
 8007faa:	f7ff fd19 	bl	80079e0 <taabe156>
 8007fae:	4622      	mov	r2, r4
 8007fb0:	4621      	mov	r1, r4
 8007fb2:	4640      	mov	r0, r8
 8007fb4:	f7ff fd4a 	bl	8007a4c <taabe157>
 8007fb8:	4632      	mov	r2, r6
 8007fba:	4631      	mov	r1, r6
 8007fbc:	4640      	mov	r0, r8
 8007fbe:	f7ff fd0f 	bl	80079e0 <taabe156>
 8007fc2:	68eb      	ldr	r3, [r5, #12]
 8007fc4:	f1b8 0f00 	cmp.w	r8, #0
 8007fc8:	9302      	str	r3, [sp, #8]
 8007fca:	dd5f      	ble.n	800808c <taabe5+0x13c>
 8007fcc:	f1a9 0102 	sub.w	r1, r9, #2
 8007fd0:	1ea2      	subs	r2, r4, #2
 8007fd2:	f1aa 0702 	sub.w	r7, sl, #2
 8007fd6:	1e9e      	subs	r6, r3, #2
 8007fd8:	9105      	str	r1, [sp, #20]
 8007fda:	eb0a 0b01 	add.w	fp, sl, r1
 8007fde:	f647 7eff 	movw	lr, #32767	; 0x7fff
 8007fe2:	f44f 2c00 	mov.w	ip, #524288	; 0x80000
 8007fe6:	f44f 4180 	mov.w	r1, #16384	; 0x4000
 8007fea:	f937 4f02 	ldrsh.w	r4, [r7, #2]!
 8007fee:	f836 3f02 	ldrh.w	r3, [r6, #2]!
 8007ff2:	f832 0f02 	ldrh.w	r0, [r2, #2]!
 8007ff6:	ebae 0504 	sub.w	r5, lr, r4
 8007ffa:	f305 050f 	ssat	r5, #16, r5
 8007ffe:	fb13 1305 	smlabb	r3, r3, r5, r1
 8008002:	455f      	cmp	r7, fp
 8008004:	fb10 c004 	smlabb	r0, r0, r4, ip
 8008008:	ea4f 33e3 	mov.w	r3, r3, asr #15
 800800c:	eb03 5320 	add.w	r3, r3, r0, asr #20
 8008010:	f303 030f 	ssat	r3, #16, r3
 8008014:	8033      	strh	r3, [r6, #0]
 8008016:	d1e8      	bne.n	8007fea <taabe5+0x9a>
 8008018:	9c01      	ldr	r4, [sp, #4]
 800801a:	4640      	mov	r0, r8
 800801c:	9902      	ldr	r1, [sp, #8]
 800801e:	4622      	mov	r2, r4
 8008020:	1ea6      	subs	r6, r4, #2
 8008022:	f7ff fd13 	bl	8007a4c <taabe157>
 8008026:	9b05      	ldr	r3, [sp, #20]
 8008028:	4635      	mov	r5, r6
 800802a:	4634      	mov	r4, r6
 800802c:	461f      	mov	r7, r3
 800802e:	9b04      	ldr	r3, [sp, #16]
 8008030:	f44f 2000 	mov.w	r0, #524288	; 0x80000
 8008034:	2100      	movs	r1, #0
 8008036:	441f      	add	r7, r3
 8008038:	f1a3 0c02 	sub.w	ip, r3, #2
 800803c:	46ce      	mov	lr, r9
 800803e:	f83c 2f02 	ldrh.w	r2, [ip, #2]!
 8008042:	4680      	mov	r8, r0
 8008044:	f834 3f02 	ldrh.w	r3, [r4, #2]!
 8008048:	4689      	mov	r9, r1
 800804a:	4567      	cmp	r7, ip
 800804c:	fbc2 8983 	smlalbb	r8, r9, r2, r3
 8008050:	ea4f 5318 	mov.w	r3, r8, lsr #20
 8008054:	ea43 3309 	orr.w	r3, r3, r9, lsl #12
 8008058:	f303 030f 	ssat	r3, #16, r3
 800805c:	8023      	strh	r3, [r4, #0]
 800805e:	d1ee      	bne.n	800803e <taabe5+0xee>
 8008060:	46f1      	mov	r9, lr
 8008062:	9b03      	ldr	r3, [sp, #12]
 8008064:	44b1      	add	r9, r6
 8008066:	3b02      	subs	r3, #2
 8008068:	f935 2f02 	ldrsh.w	r2, [r5, #2]!
 800806c:	454d      	cmp	r5, r9
 800806e:	f823 2f02 	strh.w	r2, [r3, #2]!
 8008072:	d1f9      	bne.n	8008068 <taabe5+0x118>
 8008074:	9800      	ldr	r0, [sp, #0]
 8008076:	4651      	mov	r1, sl
 8008078:	f7ff f87a 	bl	8007170 <taabe248>
 800807c:	2000      	movs	r0, #0
 800807e:	b007      	add	sp, #28
 8008080:	e8bd 8ff0 	ldmia.w	sp!, {r4, r5, r6, r7, r8, r9, sl, fp, pc}
 8008084:	2001      	movs	r0, #1
 8008086:	b007      	add	sp, #28
 8008088:	e8bd 8ff0 	ldmia.w	sp!, {r4, r5, r6, r7, r8, r9, sl, fp, pc}
 800808c:	e9dd 2101 	ldrd	r2, r1, [sp, #4]
 8008090:	4640      	mov	r0, r8
 8008092:	f7ff fcdb 	bl	8007a4c <taabe157>
 8008096:	e7ed      	b.n	8008074 <taabe5+0x124>

08008098 <taabe6>:
 8008098:	e9d0 2301 	ldrd	r2, r3, [r0, #4]
 800809c:	6851      	ldr	r1, [r2, #4]
 800809e:	68c2      	ldr	r2, [r0, #12]
 80080a0:	6808      	ldr	r0, [r1, #0]
 80080a2:	2800      	cmp	r0, #0
 80080a4:	dd0a      	ble.n	80080bc <taabe6+0x24>
 80080a6:	3b02      	subs	r3, #2
 80080a8:	3a02      	subs	r2, #2
 80080aa:	2100      	movs	r1, #0
 80080ac:	eb03 0040 	add.w	r0, r3, r0, lsl #1
 80080b0:	f823 1f02 	strh.w	r1, [r3, #2]!
 80080b4:	4283      	cmp	r3, r0
 80080b6:	f822 1f02 	strh.w	r1, [r2, #2]!
 80080ba:	d1f9      	bne.n	80080b0 <taabe6+0x18>
 80080bc:	4770      	bx	lr
 80080be:	bf00      	nop

080080c0 <taabe17>:
 80080c0:	b570      	push	{r4, r5, r6, lr}
 80080c2:	4614      	mov	r4, r2
 80080c4:	460d      	mov	r5, r1
 80080c6:	2201      	movs	r2, #1
 80080c8:	2108      	movs	r1, #8
 80080ca:	4606      	mov	r6, r0
 80080cc:	f7ff f820 	bl	8007110 <taabe247>
 80080d0:	6020      	str	r0, [r4, #0]
 80080d2:	b120      	cbz	r0, 80080de <taabe17+0x1e>
 80080d4:	4603      	mov	r3, r0
 80080d6:	6006      	str	r6, [r0, #0]
 80080d8:	2000      	movs	r0, #0
 80080da:	605d      	str	r5, [r3, #4]
 80080dc:	bd70      	pop	{r4, r5, r6, pc}
 80080de:	2001      	movs	r0, #1
 80080e0:	bd70      	pop	{r4, r5, r6, pc}
 80080e2:	bf00      	nop

080080e4 <taabe18>:
 80080e4:	b118      	cbz	r0, 80080ee <taabe18+0xa>
 80080e6:	4601      	mov	r1, r0
 80080e8:	6800      	ldr	r0, [r0, #0]
 80080ea:	f7ff b841 	b.w	8007170 <taabe248>
 80080ee:	4770      	bx	lr

080080f0 <taabe19>:
 80080f0:	e92d 4ff8 	stmdb	sp!, {r3, r4, r5, r6, r7, r8, r9, sl, fp, lr}
 80080f4:	6846      	ldr	r6, [r0, #4]
 80080f6:	2e00      	cmp	r6, #0
 80080f8:	dd6b      	ble.n	80081d2 <taabe19+0xe2>
 80080fa:	1e8d      	subs	r5, r1, #2
 80080fc:	f8df 90d4 	ldr.w	r9, [pc, #212]	; 80081d4 <taabe19+0xe4>
 8008100:	eb05 0146 	add.w	r1, r5, r6, lsl #1
 8008104:	462c      	mov	r4, r5
 8008106:	f934 3f02 	ldrsh.w	r3, [r4, #2]!
 800810a:	4599      	cmp	r9, r3
 800810c:	bfb8      	it	lt
 800810e:	4699      	movlt	r9, r3
 8008110:	428c      	cmp	r4, r1
 8008112:	d1f8      	bne.n	8008106 <taabe19+0x16>
 8008114:	f1a2 0804 	sub.w	r8, r2, #4
 8008118:	4647      	mov	r7, r8
 800811a:	46c2      	mov	sl, r8
 800811c:	f935 0f02 	ldrsh.w	r0, [r5, #2]!
 8008120:	eba0 0009 	sub.w	r0, r0, r9
 8008124:	f300 000f 	ssat	r0, #16, r0
 8008128:	b200      	sxth	r0, r0
 800812a:	f7ff fc29 	bl	8007980 <taabe155>
 800812e:	42ac      	cmp	r4, r5
 8008130:	f84a 0f04 	str.w	r0, [sl, #4]!
 8008134:	d1f2      	bne.n	800811c <taabe19+0x2c>
 8008136:	eb08 0086 	add.w	r0, r8, r6, lsl #2
 800813a:	2200      	movs	r2, #0
 800813c:	4646      	mov	r6, r8
 800813e:	2300      	movs	r3, #0
 8008140:	f856 1f04 	ldr.w	r1, [r6, #4]!
 8008144:	1852      	adds	r2, r2, r1
 8008146:	eb43 73e1 	adc.w	r3, r3, r1, asr #31
 800814a:	42b0      	cmp	r0, r6
 800814c:	d1f8      	bne.n	8008140 <taabe19+0x50>
 800814e:	2000      	movs	r0, #0
 8008150:	f04f 4180 	mov.w	r1, #1073741824	; 0x40000000
 8008154:	f7f8 fa80 	bl	8000658 <__aeabi_ldivmod>
 8008158:	f06f 4200 	mvn.w	r2, #2147483648	; 0x80000000
 800815c:	2300      	movs	r3, #0
 800815e:	4282      	cmp	r2, r0
 8008160:	eb73 0401 	sbcs.w	r4, r3, r1
 8008164:	db2d      	blt.n	80081c2 <taabe19+0xd2>
 8008166:	f1b0 4f00 	cmp.w	r0, #2147483648	; 0x80000000
 800816a:	f171 33ff 	sbcs.w	r3, r1, #4294967295	; 0xffffffff
 800816e:	db23      	blt.n	80081b8 <taabe19+0xc8>
 8008170:	f06f 4a00 	mvn.w	sl, #2147483648	; 0x80000000
 8008174:	f04f 0b00 	mov.w	fp, #0
 8008178:	f857 2f04 	ldr.w	r2, [r7, #4]!
 800817c:	ea4f 79e2 	mov.w	r9, r2, asr #31
 8008180:	fb02 fc01 	mul.w	ip, r2, r1
 8008184:	fba2 2300 	umull	r2, r3, r2, r0
 8008188:	fb00 cc09 	mla	ip, r0, r9, ip
 800818c:	f112 4880 	adds.w	r8, r2, #1073741824	; 0x40000000
 8008190:	4463      	add	r3, ip
 8008192:	ea4f 74d8 	mov.w	r4, r8, lsr #31
 8008196:	f143 0900 	adc.w	r9, r3, #0
 800819a:	ea44 0449 	orr.w	r4, r4, r9, lsl #1
 800819e:	ea4f 75e9 	mov.w	r5, r9, asr #31
 80081a2:	45a2      	cmp	sl, r4
 80081a4:	eb7b 0305 	sbcs.w	r3, fp, r5
 80081a8:	bfb8      	it	lt
 80081aa:	f06f 4400 	mvnlt.w	r4, #2147483648	; 0x80000000
 80081ae:	42be      	cmp	r6, r7
 80081b0:	603c      	str	r4, [r7, #0]
 80081b2:	d1e1      	bne.n	8008178 <taabe19+0x88>
 80081b4:	e8bd 8ff8 	ldmia.w	sp!, {r3, r4, r5, r6, r7, r8, r9, sl, fp, pc}
 80081b8:	f04f 4000 	mov.w	r0, #2147483648	; 0x80000000
 80081bc:	f04f 31ff 	mov.w	r1, #4294967295	; 0xffffffff
 80081c0:	e7d6      	b.n	8008170 <taabe19+0x80>
 80081c2:	4610      	mov	r0, r2
 80081c4:	4619      	mov	r1, r3
 80081c6:	f1b0 4f00 	cmp.w	r0, #2147483648	; 0x80000000
 80081ca:	f171 33ff 	sbcs.w	r3, r1, #4294967295	; 0xffffffff
 80081ce:	dacf      	bge.n	8008170 <taabe19+0x80>
 80081d0:	e7f2      	b.n	80081b8 <taabe19+0xc8>
 80081d2:	deff      	udf	#255	; 0xff
 80081d4:	ffff8000 	.word	0xffff8000

080081d8 <taabe181.part.0>:
 80081d8:	b538      	push	{r3, r4, r5, lr}
 80081da:	6805      	ldr	r5, [r0, #0]
 80081dc:	4604      	mov	r4, r0
 80081de:	6981      	ldr	r1, [r0, #24]
 80081e0:	4628      	mov	r0, r5
 80081e2:	f7fe ffc5 	bl	8007170 <taabe248>
 80081e6:	4628      	mov	r0, r5
 80081e8:	6961      	ldr	r1, [r4, #20]
 80081ea:	f7fe ffc1 	bl	8007170 <taabe248>
 80081ee:	4628      	mov	r0, r5
 80081f0:	6921      	ldr	r1, [r4, #16]
 80081f2:	f7fe ffbd 	bl	8007170 <taabe248>
 80081f6:	4628      	mov	r0, r5
 80081f8:	68a1      	ldr	r1, [r4, #8]
 80081fa:	f7fe ffb9 	bl	8007170 <taabe248>
 80081fe:	4621      	mov	r1, r4
 8008200:	4628      	mov	r0, r5
 8008202:	e8bd 4038 	ldmia.w	sp!, {r3, r4, r5, lr}
 8008206:	f7fe bfb3 	b.w	8007170 <taabe248>
 800820a:	bf00      	nop

0800820c <taabe180>:
 800820c:	e92d 43f8 	stmdb	sp!, {r3, r4, r5, r6, r7, r8, r9, lr}
 8008210:	9f08      	ldr	r7, [sp, #32]
 8008212:	4689      	mov	r9, r1
 8008214:	4615      	mov	r5, r2
 8008216:	2124      	movs	r1, #36	; 0x24
 8008218:	2201      	movs	r2, #1
 800821a:	461e      	mov	r6, r3
 800821c:	4680      	mov	r8, r0
 800821e:	f7fe ff77 	bl	8007110 <taabe247>
 8008222:	6038      	str	r0, [r7, #0]
 8008224:	2800      	cmp	r0, #0
 8008226:	d072      	beq.n	800830e <taabe180+0x102>
 8008228:	006b      	lsls	r3, r5, #1
 800822a:	4604      	mov	r4, r0
 800822c:	f8c0 8000 	str.w	r8, [r0]
 8008230:	2201      	movs	r2, #1
 8008232:	6043      	str	r3, [r0, #4]
 8008234:	00e9      	lsls	r1, r5, #3
 8008236:	4640      	mov	r0, r8
 8008238:	f7fe ff6a 	bl	8007110 <taabe247>
 800823c:	60a0      	str	r0, [r4, #8]
 800823e:	2800      	cmp	r0, #0
 8008240:	d05f      	beq.n	8008302 <taabe180+0xf6>
 8008242:	2d00      	cmp	r5, #0
 8008244:	dd09      	ble.n	800825a <taabe180+0x4e>
 8008246:	f1a9 0104 	sub.w	r1, r9, #4
 800824a:	2300      	movs	r3, #0
 800824c:	f851 2f04 	ldr.w	r2, [r1, #4]!
 8008250:	f840 2033 	str.w	r2, [r0, r3, lsl #3]
 8008254:	3301      	adds	r3, #1
 8008256:	429d      	cmp	r5, r3
 8008258:	d1f8      	bne.n	800824c <taabe180+0x40>
 800825a:	eb05 0385 	add.w	r3, r5, r5, lsl #2
 800825e:	6861      	ldr	r1, [r4, #4]
 8008260:	2200      	movs	r2, #0
 8008262:	4640      	mov	r0, r8
 8008264:	60e3      	str	r3, [r4, #12]
 8008266:	0089      	lsls	r1, r1, #2
 8008268:	f7fe ff52 	bl	8007110 <taabe247>
 800826c:	6120      	str	r0, [r4, #16]
 800826e:	2800      	cmp	r0, #0
 8008270:	d047      	beq.n	8008302 <taabe180+0xf6>
 8008272:	6861      	ldr	r1, [r4, #4]
 8008274:	2900      	cmp	r1, #0
 8008276:	dd09      	ble.n	800828c <taabe180+0x80>
 8008278:	3804      	subs	r0, #4
 800827a:	2200      	movs	r2, #0
 800827c:	68e3      	ldr	r3, [r4, #12]
 800827e:	3201      	adds	r2, #1
 8008280:	3301      	adds	r3, #1
 8008282:	f840 3f04 	str.w	r3, [r0, #4]!
 8008286:	6861      	ldr	r1, [r4, #4]
 8008288:	4291      	cmp	r1, r2
 800828a:	dcf7      	bgt.n	800827c <taabe180+0x70>
 800828c:	2200      	movs	r2, #0
 800828e:	0089      	lsls	r1, r1, #2
 8008290:	4640      	mov	r0, r8
 8008292:	f7fe ff3d 	bl	8007110 <taabe247>
 8008296:	6862      	ldr	r2, [r4, #4]
 8008298:	6160      	str	r0, [r4, #20]
 800829a:	2a00      	cmp	r2, #0
 800829c:	dd09      	ble.n	80082b2 <taabe180+0xa6>
 800829e:	3804      	subs	r0, #4
 80082a0:	2300      	movs	r3, #0
 80082a2:	f647 71ff 	movw	r1, #32767	; 0x7fff
 80082a6:	f840 1f04 	str.w	r1, [r0, #4]!
 80082aa:	3301      	adds	r3, #1
 80082ac:	6862      	ldr	r2, [r4, #4]
 80082ae:	429a      	cmp	r2, r3
 80082b0:	dcf9      	bgt.n	80082a6 <taabe180+0x9a>
 80082b2:	1053      	asrs	r3, r2, #1
 80082b4:	07d2      	lsls	r2, r2, #31
 80082b6:	4640      	mov	r0, r8
 80082b8:	f04f 0200 	mov.w	r2, #0
 80082bc:	f103 0901 	add.w	r9, r3, #1
 80082c0:	bf54      	ite	pl
 80082c2:	fb03 f909 	mulpl.w	r9, r3, r9
 80082c6:	fb09 f909 	mulmi.w	r9, r9, r9
 80082ca:	ea4f 0749 	mov.w	r7, r9, lsl #1
 80082ce:	4639      	mov	r1, r7
 80082d0:	f7fe ff1e 	bl	8007110 <taabe247>
 80082d4:	61a0      	str	r0, [r4, #24]
 80082d6:	b1a0      	cbz	r0, 8008302 <taabe180+0xf6>
 80082d8:	f1b9 0f00 	cmp.w	r9, #0
 80082dc:	dd07      	ble.n	80082ee <taabe180+0xe2>
 80082de:	3802      	subs	r0, #2
 80082e0:	f647 73ff 	movw	r3, #32767	; 0x7fff
 80082e4:	19c1      	adds	r1, r0, r7
 80082e6:	f820 3f02 	strh.w	r3, [r0, #2]!
 80082ea:	4281      	cmp	r1, r0
 80082ec:	d1fb      	bne.n	80082e6 <taabe180+0xda>
 80082ee:	42b5      	cmp	r5, r6
 80082f0:	f04f 0300 	mov.w	r3, #0
 80082f4:	bfa8      	it	ge
 80082f6:	4635      	movge	r5, r6
 80082f8:	4618      	mov	r0, r3
 80082fa:	6223      	str	r3, [r4, #32]
 80082fc:	61e5      	str	r5, [r4, #28]
 80082fe:	e8bd 83f8 	ldmia.w	sp!, {r3, r4, r5, r6, r7, r8, r9, pc}
 8008302:	4620      	mov	r0, r4
 8008304:	f7ff ff68 	bl	80081d8 <taabe181.part.0>
 8008308:	2001      	movs	r0, #1
 800830a:	e8bd 83f8 	ldmia.w	sp!, {r3, r4, r5, r6, r7, r8, r9, pc}
 800830e:	2001      	movs	r0, #1
 8008310:	e8bd 83f8 	ldmia.w	sp!, {r3, r4, r5, r6, r7, r8, r9, pc}

08008314 <taabe181>:
 8008314:	b108      	cbz	r0, 800831a <taabe181+0x6>
 8008316:	f7ff bf5f 	b.w	80081d8 <taabe181.part.0>
 800831a:	4770      	bx	lr

0800831c <taabe182>:
 800831c:	e92d 4ff0 	stmdb	sp!, {r4, r5, r6, r7, r8, r9, sl, fp, lr}
 8008320:	b089      	sub	sp, #36	; 0x24
 8008322:	4603      	mov	r3, r0
 8008324:	6885      	ldr	r5, [r0, #8]
 8008326:	691a      	ldr	r2, [r3, #16]
 8008328:	9506      	str	r5, [sp, #24]
 800832a:	9201      	str	r2, [sp, #4]
 800832c:	695a      	ldr	r2, [r3, #20]
 800832e:	f8d3 b018 	ldr.w	fp, [r3, #24]
 8008332:	9207      	str	r2, [sp, #28]
 8008334:	e9cd 1003 	strd	r1, r0, [sp, #12]
 8008338:	6841      	ldr	r1, [r0, #4]
 800833a:	1e48      	subs	r0, r1, #1
 800833c:	9105      	str	r1, [sp, #20]
 800833e:	2800      	cmp	r0, #0
 8008340:	9002      	str	r0, [sp, #8]
 8008342:	dd77      	ble.n	8008434 <taabe182+0x118>
 8008344:	ea4f 0a81 	mov.w	sl, r1, lsl #2
 8008348:	4604      	mov	r4, r0
 800834a:	f1aa 0904 	sub.w	r9, sl, #4
 800834e:	44aa      	add	sl, r5
 8008350:	4491      	add	r9, r2
 8008352:	f85a 3d04 	ldr.w	r3, [sl, #-4]!
 8008356:	2000      	movs	r0, #0
 8008358:	9a03      	ldr	r2, [sp, #12]
 800835a:	00a5      	lsls	r5, r4, #2
 800835c:	f852 1023 	ldr.w	r1, [r2, r3, lsl #2]
 8008360:	f7ff fad0 	bl	8007904 <taabe154>
 8008364:	f510 4f00 	cmn.w	r0, #32768	; 0x8000
 8008368:	f000 80c5 	beq.w	80084f6 <taabe182+0x1da>
 800836c:	4240      	negs	r0, r0
 800836e:	fa0f f880 	sxth.w	r8, r0
 8008372:	46c6      	mov	lr, r8
 8008374:	f104 3cff 	add.w	ip, r4, #4294967295	; 0xffffffff
 8008378:	e959 1201 	ldrd	r1, r2, [r9, #-4]
 800837c:	4663      	mov	r3, ip
 800837e:	4291      	cmp	r1, r2
 8008380:	f280 80b3 	bge.w	80084ea <taabe182+0x1ce>
 8008384:	f1a9 0604 	sub.w	r6, r9, #4
 8008388:	1f2f      	subs	r7, r5, #4
 800838a:	4630      	mov	r0, r6
 800838c:	2c01      	cmp	r4, #1
 800838e:	d00f      	beq.n	80083b0 <taabe182+0x94>
 8008390:	f8da 1000 	ldr.w	r1, [sl]
 8008394:	f85a 2c08 	ldr.w	r2, [sl, #-8]
 8008398:	4291      	cmp	r1, r2
 800839a:	d009      	beq.n	80083b0 <taabe182+0x94>
 800839c:	f859 1c08 	ldr.w	r1, [r9, #-8]
 80083a0:	6802      	ldr	r2, [r0, #0]
 80083a2:	4291      	cmp	r1, r2
 80083a4:	da04      	bge.n	80083b0 <taabe182+0x94>
 80083a6:	f1a5 0708 	sub.w	r7, r5, #8
 80083aa:	1ea3      	subs	r3, r4, #2
 80083ac:	f1a9 0008 	sub.w	r0, r9, #8
 80083b0:	9a02      	ldr	r2, [sp, #8]
 80083b2:	42a2      	cmp	r2, r4
 80083b4:	f000 80b6 	beq.w	8008524 <taabe182+0x208>
 80083b8:	9901      	ldr	r1, [sp, #4]
 80083ba:	2501      	movs	r5, #1
 80083bc:	59ca      	ldr	r2, [r1, r7]
 80083be:	fa85 f282 	qadd	r2, r2, r5
 80083c2:	f841 2024 	str.w	r2, [r1, r4, lsl #2]
 80083c6:	fa44 f205 	asr.w	r2, r4, r5
 80083ca:	f9b0 0000 	ldrsh.w	r0, [r0]
 80083ce:	1951      	adds	r1, r2, r5
 80083d0:	4470      	add	r0, lr
 80083d2:	f300 000f 	ssat	r0, #16, r0
 80083d6:	b200      	sxth	r0, r0
 80083d8:	f8c9 0000 	str.w	r0, [r9]
 80083dc:	46b1      	mov	r9, r6
 80083de:	07e6      	lsls	r6, r4, #31
 80083e0:	ea4f 0663 	mov.w	r6, r3, asr #1
 80083e4:	bf58      	it	pl
 80083e6:	fb01 f002 	mulpl.w	r0, r1, r2
 80083ea:	f106 0401 	add.w	r4, r6, #1
 80083ee:	bf48      	it	mi
 80083f0:	fb01 f001 	mulmi.w	r0, r1, r1
 80083f4:	07dd      	lsls	r5, r3, #31
 80083f6:	bf58      	it	pl
 80083f8:	fb06 f504 	mulpl.w	r5, r6, r4
 80083fc:	eb0b 0040 	add.w	r0, fp, r0, lsl #1
 8008400:	bf48      	it	mi
 8008402:	fb04 f504 	mulmi.w	r5, r4, r4
 8008406:	1e82      	subs	r2, r0, #2
 8008408:	006f      	lsls	r7, r5, #1
 800840a:	eb0b 0546 	add.w	r5, fp, r6, lsl #1
 800840e:	1ebb      	subs	r3, r7, #2
 8008410:	443d      	add	r5, r7
 8008412:	445b      	add	r3, fp
 8008414:	f933 6f02 	ldrsh.w	r6, [r3, #2]!
 8008418:	429d      	cmp	r5, r3
 800841a:	f822 6f02 	strh.w	r6, [r2, #2]!
 800841e:	d1f9      	bne.n	8008414 <taabe182+0xf8>
 8008420:	428c      	cmp	r4, r1
 8008422:	d06c      	beq.n	80084fe <taabe182+0x1e2>
 8008424:	f06f 4300 	mvn.w	r3, #2147483648	; 0x80000000
 8008428:	440b      	add	r3, r1
 800842a:	f820 8013 	strh.w	r8, [r0, r3, lsl #1]
 800842e:	4664      	mov	r4, ip
 8008430:	2c00      	cmp	r4, #0
 8008432:	d18e      	bne.n	8008352 <taabe182+0x36>
 8008434:	9a01      	ldr	r2, [sp, #4]
 8008436:	2301      	movs	r3, #1
 8008438:	2000      	movs	r0, #0
 800843a:	6013      	str	r3, [r2, #0]
 800843c:	9b06      	ldr	r3, [sp, #24]
 800843e:	9a03      	ldr	r2, [sp, #12]
 8008440:	681b      	ldr	r3, [r3, #0]
 8008442:	f852 1023 	ldr.w	r1, [r2, r3, lsl #2]
 8008446:	f7ff fa5d 	bl	8007904 <taabe154>
 800844a:	f510 4f00 	cmn.w	r0, #32768	; 0x8000
 800844e:	d063      	beq.n	8008518 <taabe182+0x1fc>
 8008450:	4242      	negs	r2, r0
 8008452:	b212      	sxth	r2, r2
 8008454:	4611      	mov	r1, r2
 8008456:	9802      	ldr	r0, [sp, #8]
 8008458:	9c07      	ldr	r4, [sp, #28]
 800845a:	1043      	asrs	r3, r0, #1
 800845c:	6021      	str	r1, [r4, #0]
 800845e:	07c1      	lsls	r1, r0, #31
 8008460:	9904      	ldr	r1, [sp, #16]
 8008462:	f8ab 2000 	strh.w	r2, [fp]
 8008466:	f103 0201 	add.w	r2, r3, #1
 800846a:	69cc      	ldr	r4, [r1, #28]
 800846c:	bf54      	ite	pl
 800846e:	4353      	mulpl	r3, r2
 8008470:	fb02 f302 	mulmi.w	r3, r2, r2
 8008474:	1b12      	subs	r2, r2, r4
 8008476:	ea4f 0343 	mov.w	r3, r3, lsl #1
 800847a:	d451      	bmi.n	8008520 <taabe182+0x204>
 800847c:	f10b 0502 	add.w	r5, fp, #2
 8008480:	0066      	lsls	r6, r4, #1
 8008482:	449b      	add	fp, r3
 8008484:	2000      	movs	r0, #0
 8008486:	eb05 0242 	add.w	r2, r5, r2, lsl #1
 800848a:	18d5      	adds	r5, r2, r3
 800848c:	2c00      	cmp	r4, #0
 800848e:	dd41      	ble.n	8008514 <taabe182+0x1f8>
 8008490:	eb0b 0706 	add.w	r7, fp, r6
 8008494:	465a      	mov	r2, fp
 8008496:	2300      	movs	r3, #0
 8008498:	f932 1b02 	ldrsh.w	r1, [r2], #2
 800849c:	4297      	cmp	r7, r2
 800849e:	440b      	add	r3, r1
 80084a0:	d1fa      	bne.n	8008498 <taabe182+0x17c>
 80084a2:	fb93 f3f4 	sdiv	r3, r3, r4
 80084a6:	f303 030f 	ssat	r3, #16, r3
 80084aa:	b21b      	sxth	r3, r3
 80084ac:	f10b 0b02 	add.w	fp, fp, #2
 80084b0:	4298      	cmp	r0, r3
 80084b2:	bfb8      	it	lt
 80084b4:	4618      	movlt	r0, r3
 80084b6:	455d      	cmp	r5, fp
 80084b8:	d1e8      	bne.n	800848c <taabe182+0x170>
 80084ba:	f06f 4340 	mvn.w	r3, #3221225472	; 0xc0000000
 80084be:	9c05      	ldr	r4, [sp, #20]
 80084c0:	9904      	ldr	r1, [sp, #16]
 80084c2:	441c      	add	r4, r3
 80084c4:	68ca      	ldr	r2, [r1, #12]
 80084c6:	4623      	mov	r3, r4
 80084c8:	9c01      	ldr	r4, [sp, #4]
 80084ca:	f854 3023 	ldr.w	r3, [r4, r3, lsl #2]
 80084ce:	4293      	cmp	r3, r2
 80084d0:	dc07      	bgt.n	80084e2 <taabe182+0x1c6>
 80084d2:	6a0b      	ldr	r3, [r1, #32]
 80084d4:	2b07      	cmp	r3, #7
 80084d6:	dc04      	bgt.n	80084e2 <taabe182+0x1c6>
 80084d8:	4240      	negs	r0, r0
 80084da:	b200      	sxth	r0, r0
 80084dc:	b009      	add	sp, #36	; 0x24
 80084de:	e8bd 8ff0 	ldmia.w	sp!, {r4, r5, r6, r7, r8, r9, sl, fp, pc}
 80084e2:	4816      	ldr	r0, [pc, #88]	; (800853c <taabe182+0x220>)
 80084e4:	b009      	add	sp, #36	; 0x24
 80084e6:	e8bd 8ff0 	ldmia.w	sp!, {r4, r5, r6, r7, r8, r9, sl, fp, pc}
 80084ea:	4648      	mov	r0, r9
 80084ec:	462f      	mov	r7, r5
 80084ee:	4623      	mov	r3, r4
 80084f0:	f1a9 0604 	sub.w	r6, r9, #4
 80084f4:	e74a      	b.n	800838c <taabe182+0x70>
 80084f6:	f647 7eff 	movw	lr, #32767	; 0x7fff
 80084fa:	46f0      	mov	r8, lr
 80084fc:	e73a      	b.n	8008374 <taabe182+0x58>
 80084fe:	f06f 4200 	mvn.w	r2, #2147483648	; 0x80000000
 8008502:	4422      	add	r2, r4
 8008504:	f930 3012 	ldrsh.w	r3, [r0, r2, lsl #1]
 8008508:	449e      	add	lr, r3
 800850a:	f30e 0e0f 	ssat	lr, #16, lr
 800850e:	f820 e012 	strh.w	lr, [r0, r2, lsl #1]
 8008512:	e78c      	b.n	800842e <taabe182+0x112>
 8008514:	2300      	movs	r3, #0
 8008516:	e7c6      	b.n	80084a6 <taabe182+0x18a>
 8008518:	f647 71ff 	movw	r1, #32767	; 0x7fff
 800851c:	460a      	mov	r2, r1
 800851e:	e79a      	b.n	8008456 <taabe182+0x13a>
 8008520:	2000      	movs	r0, #0
 8008522:	e7ca      	b.n	80084ba <taabe182+0x19e>
 8008524:	4293      	cmp	r3, r2
 8008526:	d004      	beq.n	8008532 <taabe182+0x216>
 8008528:	9a04      	ldr	r2, [sp, #16]
 800852a:	4611      	mov	r1, r2
 800852c:	2201      	movs	r2, #1
 800852e:	620a      	str	r2, [r1, #32]
 8008530:	e742      	b.n	80083b8 <taabe182+0x9c>
 8008532:	9904      	ldr	r1, [sp, #16]
 8008534:	6a0a      	ldr	r2, [r1, #32]
 8008536:	3201      	adds	r2, #1
 8008538:	620a      	str	r2, [r1, #32]
 800853a:	e73d      	b.n	80083b8 <taabe182+0x9c>
 800853c:	ffff8000 	.word	0xffff8000

08008540 <taabe183>:
 8008540:	6843      	ldr	r3, [r0, #4]
 8008542:	2b00      	cmp	r3, #0
 8008544:	dd30      	ble.n	80085a8 <taabe183+0x68>
 8008546:	6901      	ldr	r1, [r0, #16]
 8008548:	2200      	movs	r2, #0
 800854a:	3904      	subs	r1, #4
 800854c:	68c3      	ldr	r3, [r0, #12]
 800854e:	3201      	adds	r2, #1
 8008550:	3301      	adds	r3, #1
 8008552:	f841 3f04 	str.w	r3, [r1, #4]!
 8008556:	6843      	ldr	r3, [r0, #4]
 8008558:	4293      	cmp	r3, r2
 800855a:	dcf7      	bgt.n	800854c <taabe183+0xc>
 800855c:	2b00      	cmp	r3, #0
 800855e:	dd23      	ble.n	80085a8 <taabe183+0x68>
 8008560:	6941      	ldr	r1, [r0, #20]
 8008562:	2200      	movs	r2, #0
 8008564:	b410      	push	{r4}
 8008566:	3904      	subs	r1, #4
 8008568:	f647 74ff 	movw	r4, #32767	; 0x7fff
 800856c:	f841 4f04 	str.w	r4, [r1, #4]!
 8008570:	3201      	adds	r2, #1
 8008572:	6843      	ldr	r3, [r0, #4]
 8008574:	4293      	cmp	r3, r2
 8008576:	dcf9      	bgt.n	800856c <taabe183+0x2c>
 8008578:	1059      	asrs	r1, r3, #1
 800857a:	07dc      	lsls	r4, r3, #31
 800857c:	f101 0201 	add.w	r2, r1, #1
 8008580:	bf54      	ite	pl
 8008582:	434a      	mulpl	r2, r1
 8008584:	4352      	mulmi	r2, r2
 8008586:	2a00      	cmp	r2, #0
 8008588:	dd09      	ble.n	800859e <taabe183+0x5e>
 800858a:	6983      	ldr	r3, [r0, #24]
 800858c:	f647 71ff 	movw	r1, #32767	; 0x7fff
 8008590:	3b02      	subs	r3, #2
 8008592:	eb03 0242 	add.w	r2, r3, r2, lsl #1
 8008596:	f823 1f02 	strh.w	r1, [r3, #2]!
 800859a:	429a      	cmp	r2, r3
 800859c:	d1fb      	bne.n	8008596 <taabe183+0x56>
 800859e:	2300      	movs	r3, #0
 80085a0:	f85d 4b04 	ldr.w	r4, [sp], #4
 80085a4:	6203      	str	r3, [r0, #32]
 80085a6:	4770      	bx	lr
 80085a8:	1059      	asrs	r1, r3, #1
 80085aa:	07db      	lsls	r3, r3, #31
 80085ac:	f101 0201 	add.w	r2, r1, #1
 80085b0:	bf54      	ite	pl
 80085b2:	434a      	mulpl	r2, r1
 80085b4:	4352      	mulmi	r2, r2
 80085b6:	2a00      	cmp	r2, #0
 80085b8:	dd09      	ble.n	80085ce <taabe183+0x8e>
 80085ba:	6983      	ldr	r3, [r0, #24]
 80085bc:	f647 71ff 	movw	r1, #32767	; 0x7fff
 80085c0:	3b02      	subs	r3, #2
 80085c2:	eb03 0242 	add.w	r2, r3, r2, lsl #1
 80085c6:	f823 1f02 	strh.w	r1, [r3, #2]!
 80085ca:	429a      	cmp	r2, r3
 80085cc:	d1fb      	bne.n	80085c6 <taabe183+0x86>
 80085ce:	2300      	movs	r3, #0
 80085d0:	6203      	str	r3, [r0, #32]
 80085d2:	4770      	bx	lr

080085d4 <__errno>:
 80085d4:	4b01      	ldr	r3, [pc, #4]	; (80085dc <__errno+0x8>)
 80085d6:	6818      	ldr	r0, [r3, #0]
 80085d8:	4770      	bx	lr
 80085da:	bf00      	nop
 80085dc:	2000008c 	.word	0x2000008c

080085e0 <__libc_init_array>:
 80085e0:	b570      	push	{r4, r5, r6, lr}
 80085e2:	4e0d      	ldr	r6, [pc, #52]	; (8008618 <__libc_init_array+0x38>)
 80085e4:	4c0d      	ldr	r4, [pc, #52]	; (800861c <__libc_init_array+0x3c>)
 80085e6:	1ba4      	subs	r4, r4, r6
 80085e8:	10a4      	asrs	r4, r4, #2
 80085ea:	2500      	movs	r5, #0
 80085ec:	42a5      	cmp	r5, r4
 80085ee:	d109      	bne.n	8008604 <__libc_init_array+0x24>
 80085f0:	4e0b      	ldr	r6, [pc, #44]	; (8008620 <__libc_init_array+0x40>)
 80085f2:	4c0c      	ldr	r4, [pc, #48]	; (8008624 <__libc_init_array+0x44>)
 80085f4:	f000 ffba 	bl	800956c <_init>
 80085f8:	1ba4      	subs	r4, r4, r6
 80085fa:	10a4      	asrs	r4, r4, #2
 80085fc:	2500      	movs	r5, #0
 80085fe:	42a5      	cmp	r5, r4
 8008600:	d105      	bne.n	800860e <__libc_init_array+0x2e>
 8008602:	bd70      	pop	{r4, r5, r6, pc}
 8008604:	f856 3025 	ldr.w	r3, [r6, r5, lsl #2]
 8008608:	4798      	blx	r3
 800860a:	3501      	adds	r5, #1
 800860c:	e7ee      	b.n	80085ec <__libc_init_array+0xc>
 800860e:	f856 3025 	ldr.w	r3, [r6, r5, lsl #2]
 8008612:	4798      	blx	r3
 8008614:	3501      	adds	r5, #1
 8008616:	e7f2      	b.n	80085fe <__libc_init_array+0x1e>
 8008618:	080fc520 	.word	0x080fc520
 800861c:	080fc520 	.word	0x080fc520
 8008620:	080fc520 	.word	0x080fc520
 8008624:	080fc524 	.word	0x080fc524

08008628 <malloc>:
 8008628:	4b02      	ldr	r3, [pc, #8]	; (8008634 <malloc+0xc>)
 800862a:	4601      	mov	r1, r0
 800862c:	6818      	ldr	r0, [r3, #0]
 800862e:	f000 b86d 	b.w	800870c <_malloc_r>
 8008632:	bf00      	nop
 8008634:	2000008c 	.word	0x2000008c

08008638 <free>:
 8008638:	4b02      	ldr	r3, [pc, #8]	; (8008644 <free+0xc>)
 800863a:	4601      	mov	r1, r0
 800863c:	6818      	ldr	r0, [r3, #0]
 800863e:	f000 b817 	b.w	8008670 <_free_r>
 8008642:	bf00      	nop
 8008644:	2000008c 	.word	0x2000008c

08008648 <memcpy>:
 8008648:	b510      	push	{r4, lr}
 800864a:	1e43      	subs	r3, r0, #1
 800864c:	440a      	add	r2, r1
 800864e:	4291      	cmp	r1, r2
 8008650:	d100      	bne.n	8008654 <memcpy+0xc>
 8008652:	bd10      	pop	{r4, pc}
 8008654:	f811 4b01 	ldrb.w	r4, [r1], #1
 8008658:	f803 4f01 	strb.w	r4, [r3, #1]!
 800865c:	e7f7      	b.n	800864e <memcpy+0x6>

0800865e <memset>:
 800865e:	4402      	add	r2, r0
 8008660:	4603      	mov	r3, r0
 8008662:	4293      	cmp	r3, r2
 8008664:	d100      	bne.n	8008668 <memset+0xa>
 8008666:	4770      	bx	lr
 8008668:	f803 1b01 	strb.w	r1, [r3], #1
 800866c:	e7f9      	b.n	8008662 <memset+0x4>
	...

08008670 <_free_r>:
 8008670:	b538      	push	{r3, r4, r5, lr}
 8008672:	4605      	mov	r5, r0
 8008674:	2900      	cmp	r1, #0
 8008676:	d045      	beq.n	8008704 <_free_r+0x94>
 8008678:	f851 3c04 	ldr.w	r3, [r1, #-4]
 800867c:	1f0c      	subs	r4, r1, #4
 800867e:	2b00      	cmp	r3, #0
 8008680:	bfb8      	it	lt
 8008682:	18e4      	addlt	r4, r4, r3
 8008684:	f000 fec4 	bl	8009410 <__malloc_lock>
 8008688:	4a1f      	ldr	r2, [pc, #124]	; (8008708 <_free_r+0x98>)
 800868a:	6813      	ldr	r3, [r2, #0]
 800868c:	4610      	mov	r0, r2
 800868e:	b933      	cbnz	r3, 800869e <_free_r+0x2e>
 8008690:	6063      	str	r3, [r4, #4]
 8008692:	6014      	str	r4, [r2, #0]
 8008694:	4628      	mov	r0, r5
 8008696:	e8bd 4038 	ldmia.w	sp!, {r3, r4, r5, lr}
 800869a:	f000 beba 	b.w	8009412 <__malloc_unlock>
 800869e:	42a3      	cmp	r3, r4
 80086a0:	d90c      	bls.n	80086bc <_free_r+0x4c>
 80086a2:	6821      	ldr	r1, [r4, #0]
 80086a4:	1862      	adds	r2, r4, r1
 80086a6:	4293      	cmp	r3, r2
 80086a8:	bf04      	itt	eq
 80086aa:	681a      	ldreq	r2, [r3, #0]
 80086ac:	685b      	ldreq	r3, [r3, #4]
 80086ae:	6063      	str	r3, [r4, #4]
 80086b0:	bf04      	itt	eq
 80086b2:	1852      	addeq	r2, r2, r1
 80086b4:	6022      	streq	r2, [r4, #0]
 80086b6:	6004      	str	r4, [r0, #0]
 80086b8:	e7ec      	b.n	8008694 <_free_r+0x24>
 80086ba:	4613      	mov	r3, r2
 80086bc:	685a      	ldr	r2, [r3, #4]
 80086be:	b10a      	cbz	r2, 80086c4 <_free_r+0x54>
 80086c0:	42a2      	cmp	r2, r4
 80086c2:	d9fa      	bls.n	80086ba <_free_r+0x4a>
 80086c4:	6819      	ldr	r1, [r3, #0]
 80086c6:	1858      	adds	r0, r3, r1
 80086c8:	42a0      	cmp	r0, r4
 80086ca:	d10b      	bne.n	80086e4 <_free_r+0x74>
 80086cc:	6820      	ldr	r0, [r4, #0]
 80086ce:	4401      	add	r1, r0
 80086d0:	1858      	adds	r0, r3, r1
 80086d2:	4282      	cmp	r2, r0
 80086d4:	6019      	str	r1, [r3, #0]
 80086d6:	d1dd      	bne.n	8008694 <_free_r+0x24>
 80086d8:	6810      	ldr	r0, [r2, #0]
 80086da:	6852      	ldr	r2, [r2, #4]
 80086dc:	605a      	str	r2, [r3, #4]
 80086de:	4401      	add	r1, r0
 80086e0:	6019      	str	r1, [r3, #0]
 80086e2:	e7d7      	b.n	8008694 <_free_r+0x24>
 80086e4:	d902      	bls.n	80086ec <_free_r+0x7c>
 80086e6:	230c      	movs	r3, #12
 80086e8:	602b      	str	r3, [r5, #0]
 80086ea:	e7d3      	b.n	8008694 <_free_r+0x24>
 80086ec:	6820      	ldr	r0, [r4, #0]
 80086ee:	1821      	adds	r1, r4, r0
 80086f0:	428a      	cmp	r2, r1
 80086f2:	bf04      	itt	eq
 80086f4:	6811      	ldreq	r1, [r2, #0]
 80086f6:	6852      	ldreq	r2, [r2, #4]
 80086f8:	6062      	str	r2, [r4, #4]
 80086fa:	bf04      	itt	eq
 80086fc:	1809      	addeq	r1, r1, r0
 80086fe:	6021      	streq	r1, [r4, #0]
 8008700:	605c      	str	r4, [r3, #4]
 8008702:	e7c7      	b.n	8008694 <_free_r+0x24>
 8008704:	bd38      	pop	{r3, r4, r5, pc}
 8008706:	bf00      	nop
 8008708:	2000d8d4 	.word	0x2000d8d4

0800870c <_malloc_r>:
 800870c:	b570      	push	{r4, r5, r6, lr}
 800870e:	1ccd      	adds	r5, r1, #3
 8008710:	f025 0503 	bic.w	r5, r5, #3
 8008714:	3508      	adds	r5, #8
 8008716:	2d0c      	cmp	r5, #12
 8008718:	bf38      	it	cc
 800871a:	250c      	movcc	r5, #12
 800871c:	2d00      	cmp	r5, #0
 800871e:	4606      	mov	r6, r0
 8008720:	db01      	blt.n	8008726 <_malloc_r+0x1a>
 8008722:	42a9      	cmp	r1, r5
 8008724:	d903      	bls.n	800872e <_malloc_r+0x22>
 8008726:	230c      	movs	r3, #12
 8008728:	6033      	str	r3, [r6, #0]
 800872a:	2000      	movs	r0, #0
 800872c:	bd70      	pop	{r4, r5, r6, pc}
 800872e:	f000 fe6f 	bl	8009410 <__malloc_lock>
 8008732:	4a21      	ldr	r2, [pc, #132]	; (80087b8 <_malloc_r+0xac>)
 8008734:	6814      	ldr	r4, [r2, #0]
 8008736:	4621      	mov	r1, r4
 8008738:	b991      	cbnz	r1, 8008760 <_malloc_r+0x54>
 800873a:	4c20      	ldr	r4, [pc, #128]	; (80087bc <_malloc_r+0xb0>)
 800873c:	6823      	ldr	r3, [r4, #0]
 800873e:	b91b      	cbnz	r3, 8008748 <_malloc_r+0x3c>
 8008740:	4630      	mov	r0, r6
 8008742:	f000 fb8b 	bl	8008e5c <_sbrk_r>
 8008746:	6020      	str	r0, [r4, #0]
 8008748:	4629      	mov	r1, r5
 800874a:	4630      	mov	r0, r6
 800874c:	f000 fb86 	bl	8008e5c <_sbrk_r>
 8008750:	1c43      	adds	r3, r0, #1
 8008752:	d124      	bne.n	800879e <_malloc_r+0x92>
 8008754:	230c      	movs	r3, #12
 8008756:	6033      	str	r3, [r6, #0]
 8008758:	4630      	mov	r0, r6
 800875a:	f000 fe5a 	bl	8009412 <__malloc_unlock>
 800875e:	e7e4      	b.n	800872a <_malloc_r+0x1e>
 8008760:	680b      	ldr	r3, [r1, #0]
 8008762:	1b5b      	subs	r3, r3, r5
 8008764:	d418      	bmi.n	8008798 <_malloc_r+0x8c>
 8008766:	2b0b      	cmp	r3, #11
 8008768:	d90f      	bls.n	800878a <_malloc_r+0x7e>
 800876a:	600b      	str	r3, [r1, #0]
 800876c:	50cd      	str	r5, [r1, r3]
 800876e:	18cc      	adds	r4, r1, r3
 8008770:	4630      	mov	r0, r6
 8008772:	f000 fe4e 	bl	8009412 <__malloc_unlock>
 8008776:	f104 000b 	add.w	r0, r4, #11
 800877a:	1d23      	adds	r3, r4, #4
 800877c:	f020 0007 	bic.w	r0, r0, #7
 8008780:	1ac3      	subs	r3, r0, r3
 8008782:	d0d3      	beq.n	800872c <_malloc_r+0x20>
 8008784:	425a      	negs	r2, r3
 8008786:	50e2      	str	r2, [r4, r3]
 8008788:	e7d0      	b.n	800872c <_malloc_r+0x20>
 800878a:	428c      	cmp	r4, r1
 800878c:	684b      	ldr	r3, [r1, #4]
 800878e:	bf16      	itet	ne
 8008790:	6063      	strne	r3, [r4, #4]
 8008792:	6013      	streq	r3, [r2, #0]
 8008794:	460c      	movne	r4, r1
 8008796:	e7eb      	b.n	8008770 <_malloc_r+0x64>
 8008798:	460c      	mov	r4, r1
 800879a:	6849      	ldr	r1, [r1, #4]
 800879c:	e7cc      	b.n	8008738 <_malloc_r+0x2c>
 800879e:	1cc4      	adds	r4, r0, #3
 80087a0:	f024 0403 	bic.w	r4, r4, #3
 80087a4:	42a0      	cmp	r0, r4
 80087a6:	d005      	beq.n	80087b4 <_malloc_r+0xa8>
 80087a8:	1a21      	subs	r1, r4, r0
 80087aa:	4630      	mov	r0, r6
 80087ac:	f000 fb56 	bl	8008e5c <_sbrk_r>
 80087b0:	3001      	adds	r0, #1
 80087b2:	d0cf      	beq.n	8008754 <_malloc_r+0x48>
 80087b4:	6025      	str	r5, [r4, #0]
 80087b6:	e7db      	b.n	8008770 <_malloc_r+0x64>
 80087b8:	2000d8d4 	.word	0x2000d8d4
 80087bc:	2000d8d8 	.word	0x2000d8d8

080087c0 <__sfputc_r>:
 80087c0:	6893      	ldr	r3, [r2, #8]
 80087c2:	3b01      	subs	r3, #1
 80087c4:	2b00      	cmp	r3, #0
 80087c6:	b410      	push	{r4}
 80087c8:	6093      	str	r3, [r2, #8]
 80087ca:	da08      	bge.n	80087de <__sfputc_r+0x1e>
 80087cc:	6994      	ldr	r4, [r2, #24]
 80087ce:	42a3      	cmp	r3, r4
 80087d0:	db01      	blt.n	80087d6 <__sfputc_r+0x16>
 80087d2:	290a      	cmp	r1, #10
 80087d4:	d103      	bne.n	80087de <__sfputc_r+0x1e>
 80087d6:	f85d 4b04 	ldr.w	r4, [sp], #4
 80087da:	f000 bb69 	b.w	8008eb0 <__swbuf_r>
 80087de:	6813      	ldr	r3, [r2, #0]
 80087e0:	1c58      	adds	r0, r3, #1
 80087e2:	6010      	str	r0, [r2, #0]
 80087e4:	7019      	strb	r1, [r3, #0]
 80087e6:	4608      	mov	r0, r1
 80087e8:	f85d 4b04 	ldr.w	r4, [sp], #4
 80087ec:	4770      	bx	lr

080087ee <__sfputs_r>:
 80087ee:	b5f8      	push	{r3, r4, r5, r6, r7, lr}
 80087f0:	4606      	mov	r6, r0
 80087f2:	460f      	mov	r7, r1
 80087f4:	4614      	mov	r4, r2
 80087f6:	18d5      	adds	r5, r2, r3
 80087f8:	42ac      	cmp	r4, r5
 80087fa:	d101      	bne.n	8008800 <__sfputs_r+0x12>
 80087fc:	2000      	movs	r0, #0
 80087fe:	e007      	b.n	8008810 <__sfputs_r+0x22>
 8008800:	463a      	mov	r2, r7
 8008802:	f814 1b01 	ldrb.w	r1, [r4], #1
 8008806:	4630      	mov	r0, r6
 8008808:	f7ff ffda 	bl	80087c0 <__sfputc_r>
 800880c:	1c43      	adds	r3, r0, #1
 800880e:	d1f3      	bne.n	80087f8 <__sfputs_r+0xa>
 8008810:	bdf8      	pop	{r3, r4, r5, r6, r7, pc}
	...

08008814 <_vfiprintf_r>:
 8008814:	e92d 4ff0 	stmdb	sp!, {r4, r5, r6, r7, r8, r9, sl, fp, lr}
 8008818:	460c      	mov	r4, r1
 800881a:	b09d      	sub	sp, #116	; 0x74
 800881c:	4617      	mov	r7, r2
 800881e:	461d      	mov	r5, r3
 8008820:	4606      	mov	r6, r0
 8008822:	b118      	cbz	r0, 800882c <_vfiprintf_r+0x18>
 8008824:	6983      	ldr	r3, [r0, #24]
 8008826:	b90b      	cbnz	r3, 800882c <_vfiprintf_r+0x18>
 8008828:	f000 fcf2 	bl	8009210 <__sinit>
 800882c:	4b7c      	ldr	r3, [pc, #496]	; (8008a20 <_vfiprintf_r+0x20c>)
 800882e:	429c      	cmp	r4, r3
 8008830:	d158      	bne.n	80088e4 <_vfiprintf_r+0xd0>
 8008832:	6874      	ldr	r4, [r6, #4]
 8008834:	89a3      	ldrh	r3, [r4, #12]
 8008836:	0718      	lsls	r0, r3, #28
 8008838:	d55e      	bpl.n	80088f8 <_vfiprintf_r+0xe4>
 800883a:	6923      	ldr	r3, [r4, #16]
 800883c:	2b00      	cmp	r3, #0
 800883e:	d05b      	beq.n	80088f8 <_vfiprintf_r+0xe4>
 8008840:	2300      	movs	r3, #0
 8008842:	9309      	str	r3, [sp, #36]	; 0x24
 8008844:	2320      	movs	r3, #32
 8008846:	f88d 3029 	strb.w	r3, [sp, #41]	; 0x29
 800884a:	2330      	movs	r3, #48	; 0x30
 800884c:	f88d 302a 	strb.w	r3, [sp, #42]	; 0x2a
 8008850:	9503      	str	r5, [sp, #12]
 8008852:	f04f 0b01 	mov.w	fp, #1
 8008856:	46b8      	mov	r8, r7
 8008858:	4645      	mov	r5, r8
 800885a:	f815 3b01 	ldrb.w	r3, [r5], #1
 800885e:	b10b      	cbz	r3, 8008864 <_vfiprintf_r+0x50>
 8008860:	2b25      	cmp	r3, #37	; 0x25
 8008862:	d154      	bne.n	800890e <_vfiprintf_r+0xfa>
 8008864:	ebb8 0a07 	subs.w	sl, r8, r7
 8008868:	d00b      	beq.n	8008882 <_vfiprintf_r+0x6e>
 800886a:	4653      	mov	r3, sl
 800886c:	463a      	mov	r2, r7
 800886e:	4621      	mov	r1, r4
 8008870:	4630      	mov	r0, r6
 8008872:	f7ff ffbc 	bl	80087ee <__sfputs_r>
 8008876:	3001      	adds	r0, #1
 8008878:	f000 80c2 	beq.w	8008a00 <_vfiprintf_r+0x1ec>
 800887c:	9b09      	ldr	r3, [sp, #36]	; 0x24
 800887e:	4453      	add	r3, sl
 8008880:	9309      	str	r3, [sp, #36]	; 0x24
 8008882:	f898 3000 	ldrb.w	r3, [r8]
 8008886:	2b00      	cmp	r3, #0
 8008888:	f000 80ba 	beq.w	8008a00 <_vfiprintf_r+0x1ec>
 800888c:	2300      	movs	r3, #0
 800888e:	f04f 32ff 	mov.w	r2, #4294967295	; 0xffffffff
 8008892:	e9cd 2305 	strd	r2, r3, [sp, #20]
 8008896:	9304      	str	r3, [sp, #16]
 8008898:	9307      	str	r3, [sp, #28]
 800889a:	f88d 3053 	strb.w	r3, [sp, #83]	; 0x53
 800889e:	931a      	str	r3, [sp, #104]	; 0x68
 80088a0:	46a8      	mov	r8, r5
 80088a2:	2205      	movs	r2, #5
 80088a4:	f818 1b01 	ldrb.w	r1, [r8], #1
 80088a8:	485e      	ldr	r0, [pc, #376]	; (8008a24 <_vfiprintf_r+0x210>)
 80088aa:	f7f7 fcc9 	bl	8000240 <memchr>
 80088ae:	9b04      	ldr	r3, [sp, #16]
 80088b0:	bb78      	cbnz	r0, 8008912 <_vfiprintf_r+0xfe>
 80088b2:	06d9      	lsls	r1, r3, #27
 80088b4:	bf44      	itt	mi
 80088b6:	2220      	movmi	r2, #32
 80088b8:	f88d 2053 	strbmi.w	r2, [sp, #83]	; 0x53
 80088bc:	071a      	lsls	r2, r3, #28
 80088be:	bf44      	itt	mi
 80088c0:	222b      	movmi	r2, #43	; 0x2b
 80088c2:	f88d 2053 	strbmi.w	r2, [sp, #83]	; 0x53
 80088c6:	782a      	ldrb	r2, [r5, #0]
 80088c8:	2a2a      	cmp	r2, #42	; 0x2a
 80088ca:	d02a      	beq.n	8008922 <_vfiprintf_r+0x10e>
 80088cc:	9a07      	ldr	r2, [sp, #28]
 80088ce:	46a8      	mov	r8, r5
 80088d0:	2000      	movs	r0, #0
 80088d2:	250a      	movs	r5, #10
 80088d4:	4641      	mov	r1, r8
 80088d6:	f811 3b01 	ldrb.w	r3, [r1], #1
 80088da:	3b30      	subs	r3, #48	; 0x30
 80088dc:	2b09      	cmp	r3, #9
 80088de:	d969      	bls.n	80089b4 <_vfiprintf_r+0x1a0>
 80088e0:	b360      	cbz	r0, 800893c <_vfiprintf_r+0x128>
 80088e2:	e024      	b.n	800892e <_vfiprintf_r+0x11a>
 80088e4:	4b50      	ldr	r3, [pc, #320]	; (8008a28 <_vfiprintf_r+0x214>)
 80088e6:	429c      	cmp	r4, r3
 80088e8:	d101      	bne.n	80088ee <_vfiprintf_r+0xda>
 80088ea:	68b4      	ldr	r4, [r6, #8]
 80088ec:	e7a2      	b.n	8008834 <_vfiprintf_r+0x20>
 80088ee:	4b4f      	ldr	r3, [pc, #316]	; (8008a2c <_vfiprintf_r+0x218>)
 80088f0:	429c      	cmp	r4, r3
 80088f2:	bf08      	it	eq
 80088f4:	68f4      	ldreq	r4, [r6, #12]
 80088f6:	e79d      	b.n	8008834 <_vfiprintf_r+0x20>
 80088f8:	4621      	mov	r1, r4
 80088fa:	4630      	mov	r0, r6
 80088fc:	f000 fb2a 	bl	8008f54 <__swsetup_r>
 8008900:	2800      	cmp	r0, #0
 8008902:	d09d      	beq.n	8008840 <_vfiprintf_r+0x2c>
 8008904:	f04f 30ff 	mov.w	r0, #4294967295	; 0xffffffff
 8008908:	b01d      	add	sp, #116	; 0x74
 800890a:	e8bd 8ff0 	ldmia.w	sp!, {r4, r5, r6, r7, r8, r9, sl, fp, pc}
 800890e:	46a8      	mov	r8, r5
 8008910:	e7a2      	b.n	8008858 <_vfiprintf_r+0x44>
 8008912:	4a44      	ldr	r2, [pc, #272]	; (8008a24 <_vfiprintf_r+0x210>)
 8008914:	1a80      	subs	r0, r0, r2
 8008916:	fa0b f000 	lsl.w	r0, fp, r0
 800891a:	4318      	orrs	r0, r3
 800891c:	9004      	str	r0, [sp, #16]
 800891e:	4645      	mov	r5, r8
 8008920:	e7be      	b.n	80088a0 <_vfiprintf_r+0x8c>
 8008922:	9a03      	ldr	r2, [sp, #12]
 8008924:	1d11      	adds	r1, r2, #4
 8008926:	6812      	ldr	r2, [r2, #0]
 8008928:	9103      	str	r1, [sp, #12]
 800892a:	2a00      	cmp	r2, #0
 800892c:	db01      	blt.n	8008932 <_vfiprintf_r+0x11e>
 800892e:	9207      	str	r2, [sp, #28]
 8008930:	e004      	b.n	800893c <_vfiprintf_r+0x128>
 8008932:	4252      	negs	r2, r2
 8008934:	f043 0302 	orr.w	r3, r3, #2
 8008938:	9207      	str	r2, [sp, #28]
 800893a:	9304      	str	r3, [sp, #16]
 800893c:	f898 3000 	ldrb.w	r3, [r8]
 8008940:	2b2e      	cmp	r3, #46	; 0x2e
 8008942:	d10e      	bne.n	8008962 <_vfiprintf_r+0x14e>
 8008944:	f898 3001 	ldrb.w	r3, [r8, #1]
 8008948:	2b2a      	cmp	r3, #42	; 0x2a
 800894a:	d138      	bne.n	80089be <_vfiprintf_r+0x1aa>
 800894c:	9b03      	ldr	r3, [sp, #12]
 800894e:	1d1a      	adds	r2, r3, #4
 8008950:	681b      	ldr	r3, [r3, #0]
 8008952:	9203      	str	r2, [sp, #12]
 8008954:	2b00      	cmp	r3, #0
 8008956:	bfb8      	it	lt
 8008958:	f04f 33ff 	movlt.w	r3, #4294967295	; 0xffffffff
 800895c:	f108 0802 	add.w	r8, r8, #2
 8008960:	9305      	str	r3, [sp, #20]
 8008962:	4d33      	ldr	r5, [pc, #204]	; (8008a30 <_vfiprintf_r+0x21c>)
 8008964:	f898 1000 	ldrb.w	r1, [r8]
 8008968:	2203      	movs	r2, #3
 800896a:	4628      	mov	r0, r5
 800896c:	f7f7 fc68 	bl	8000240 <memchr>
 8008970:	b140      	cbz	r0, 8008984 <_vfiprintf_r+0x170>
 8008972:	2340      	movs	r3, #64	; 0x40
 8008974:	1b40      	subs	r0, r0, r5
 8008976:	fa03 f000 	lsl.w	r0, r3, r0
 800897a:	9b04      	ldr	r3, [sp, #16]
 800897c:	4303      	orrs	r3, r0
 800897e:	f108 0801 	add.w	r8, r8, #1
 8008982:	9304      	str	r3, [sp, #16]
 8008984:	f898 1000 	ldrb.w	r1, [r8]
 8008988:	482a      	ldr	r0, [pc, #168]	; (8008a34 <_vfiprintf_r+0x220>)
 800898a:	f88d 1028 	strb.w	r1, [sp, #40]	; 0x28
 800898e:	2206      	movs	r2, #6
 8008990:	f108 0701 	add.w	r7, r8, #1
 8008994:	f7f7 fc54 	bl	8000240 <memchr>
 8008998:	2800      	cmp	r0, #0
 800899a:	d037      	beq.n	8008a0c <_vfiprintf_r+0x1f8>
 800899c:	4b26      	ldr	r3, [pc, #152]	; (8008a38 <_vfiprintf_r+0x224>)
 800899e:	bb1b      	cbnz	r3, 80089e8 <_vfiprintf_r+0x1d4>
 80089a0:	9b03      	ldr	r3, [sp, #12]
 80089a2:	3307      	adds	r3, #7
 80089a4:	f023 0307 	bic.w	r3, r3, #7
 80089a8:	3308      	adds	r3, #8
 80089aa:	9303      	str	r3, [sp, #12]
 80089ac:	9b09      	ldr	r3, [sp, #36]	; 0x24
 80089ae:	444b      	add	r3, r9
 80089b0:	9309      	str	r3, [sp, #36]	; 0x24
 80089b2:	e750      	b.n	8008856 <_vfiprintf_r+0x42>
 80089b4:	fb05 3202 	mla	r2, r5, r2, r3
 80089b8:	2001      	movs	r0, #1
 80089ba:	4688      	mov	r8, r1
 80089bc:	e78a      	b.n	80088d4 <_vfiprintf_r+0xc0>
 80089be:	2300      	movs	r3, #0
 80089c0:	f108 0801 	add.w	r8, r8, #1
 80089c4:	9305      	str	r3, [sp, #20]
 80089c6:	4619      	mov	r1, r3
 80089c8:	250a      	movs	r5, #10
 80089ca:	4640      	mov	r0, r8
 80089cc:	f810 2b01 	ldrb.w	r2, [r0], #1
 80089d0:	3a30      	subs	r2, #48	; 0x30
 80089d2:	2a09      	cmp	r2, #9
 80089d4:	d903      	bls.n	80089de <_vfiprintf_r+0x1ca>
 80089d6:	2b00      	cmp	r3, #0
 80089d8:	d0c3      	beq.n	8008962 <_vfiprintf_r+0x14e>
 80089da:	9105      	str	r1, [sp, #20]
 80089dc:	e7c1      	b.n	8008962 <_vfiprintf_r+0x14e>
 80089de:	fb05 2101 	mla	r1, r5, r1, r2
 80089e2:	2301      	movs	r3, #1
 80089e4:	4680      	mov	r8, r0
 80089e6:	e7f0      	b.n	80089ca <_vfiprintf_r+0x1b6>
 80089e8:	ab03      	add	r3, sp, #12
 80089ea:	9300      	str	r3, [sp, #0]
 80089ec:	4622      	mov	r2, r4
 80089ee:	4b13      	ldr	r3, [pc, #76]	; (8008a3c <_vfiprintf_r+0x228>)
 80089f0:	a904      	add	r1, sp, #16
 80089f2:	4630      	mov	r0, r6
 80089f4:	f3af 8000 	nop.w
 80089f8:	f1b0 3fff 	cmp.w	r0, #4294967295	; 0xffffffff
 80089fc:	4681      	mov	r9, r0
 80089fe:	d1d5      	bne.n	80089ac <_vfiprintf_r+0x198>
 8008a00:	89a3      	ldrh	r3, [r4, #12]
 8008a02:	065b      	lsls	r3, r3, #25
 8008a04:	f53f af7e 	bmi.w	8008904 <_vfiprintf_r+0xf0>
 8008a08:	9809      	ldr	r0, [sp, #36]	; 0x24
 8008a0a:	e77d      	b.n	8008908 <_vfiprintf_r+0xf4>
 8008a0c:	ab03      	add	r3, sp, #12
 8008a0e:	9300      	str	r3, [sp, #0]
 8008a10:	4622      	mov	r2, r4
 8008a12:	4b0a      	ldr	r3, [pc, #40]	; (8008a3c <_vfiprintf_r+0x228>)
 8008a14:	a904      	add	r1, sp, #16
 8008a16:	4630      	mov	r0, r6
 8008a18:	f000 f892 	bl	8008b40 <_printf_i>
 8008a1c:	e7ec      	b.n	80089f8 <_vfiprintf_r+0x1e4>
 8008a1e:	bf00      	nop
 8008a20:	080fc4d8 	.word	0x080fc4d8
 8008a24:	080fc484 	.word	0x080fc484
 8008a28:	080fc4f8 	.word	0x080fc4f8
 8008a2c:	080fc4b8 	.word	0x080fc4b8
 8008a30:	080fc48a 	.word	0x080fc48a
 8008a34:	080fc48e 	.word	0x080fc48e
 8008a38:	00000000 	.word	0x00000000
 8008a3c:	080087ef 	.word	0x080087ef

08008a40 <vfiprintf>:
 8008a40:	4613      	mov	r3, r2
 8008a42:	460a      	mov	r2, r1
 8008a44:	4601      	mov	r1, r0
 8008a46:	4802      	ldr	r0, [pc, #8]	; (8008a50 <vfiprintf+0x10>)
 8008a48:	6800      	ldr	r0, [r0, #0]
 8008a4a:	f7ff bee3 	b.w	8008814 <_vfiprintf_r>
 8008a4e:	bf00      	nop
 8008a50:	2000008c 	.word	0x2000008c

08008a54 <_printf_common>:
 8008a54:	e92d 47f0 	stmdb	sp!, {r4, r5, r6, r7, r8, r9, sl, lr}
 8008a58:	4691      	mov	r9, r2
 8008a5a:	461f      	mov	r7, r3
 8008a5c:	688a      	ldr	r2, [r1, #8]
 8008a5e:	690b      	ldr	r3, [r1, #16]
 8008a60:	f8dd 8020 	ldr.w	r8, [sp, #32]
 8008a64:	4293      	cmp	r3, r2
 8008a66:	bfb8      	it	lt
 8008a68:	4613      	movlt	r3, r2
 8008a6a:	f8c9 3000 	str.w	r3, [r9]
 8008a6e:	f891 2043 	ldrb.w	r2, [r1, #67]	; 0x43
 8008a72:	4606      	mov	r6, r0
 8008a74:	460c      	mov	r4, r1
 8008a76:	b112      	cbz	r2, 8008a7e <_printf_common+0x2a>
 8008a78:	3301      	adds	r3, #1
 8008a7a:	f8c9 3000 	str.w	r3, [r9]
 8008a7e:	6823      	ldr	r3, [r4, #0]
 8008a80:	0699      	lsls	r1, r3, #26
 8008a82:	bf42      	ittt	mi
 8008a84:	f8d9 3000 	ldrmi.w	r3, [r9]
 8008a88:	3302      	addmi	r3, #2
 8008a8a:	f8c9 3000 	strmi.w	r3, [r9]
 8008a8e:	6825      	ldr	r5, [r4, #0]
 8008a90:	f015 0506 	ands.w	r5, r5, #6
 8008a94:	d107      	bne.n	8008aa6 <_printf_common+0x52>
 8008a96:	f104 0a19 	add.w	sl, r4, #25
 8008a9a:	68e3      	ldr	r3, [r4, #12]
 8008a9c:	f8d9 2000 	ldr.w	r2, [r9]
 8008aa0:	1a9b      	subs	r3, r3, r2
 8008aa2:	42ab      	cmp	r3, r5
 8008aa4:	dc28      	bgt.n	8008af8 <_printf_common+0xa4>
 8008aa6:	f894 3043 	ldrb.w	r3, [r4, #67]	; 0x43
 8008aaa:	6822      	ldr	r2, [r4, #0]
 8008aac:	3300      	adds	r3, #0
 8008aae:	bf18      	it	ne
 8008ab0:	2301      	movne	r3, #1
 8008ab2:	0692      	lsls	r2, r2, #26
 8008ab4:	d42d      	bmi.n	8008b12 <_printf_common+0xbe>
 8008ab6:	f104 0243 	add.w	r2, r4, #67	; 0x43
 8008aba:	4639      	mov	r1, r7
 8008abc:	4630      	mov	r0, r6
 8008abe:	47c0      	blx	r8
 8008ac0:	3001      	adds	r0, #1
 8008ac2:	d020      	beq.n	8008b06 <_printf_common+0xb2>
 8008ac4:	6823      	ldr	r3, [r4, #0]
 8008ac6:	68e5      	ldr	r5, [r4, #12]
 8008ac8:	f8d9 2000 	ldr.w	r2, [r9]
 8008acc:	f003 0306 	and.w	r3, r3, #6
 8008ad0:	2b04      	cmp	r3, #4
 8008ad2:	bf08      	it	eq
 8008ad4:	1aad      	subeq	r5, r5, r2
 8008ad6:	68a3      	ldr	r3, [r4, #8]
 8008ad8:	6922      	ldr	r2, [r4, #16]
 8008ada:	bf0c      	ite	eq
 8008adc:	ea25 75e5 	biceq.w	r5, r5, r5, asr #31
 8008ae0:	2500      	movne	r5, #0
 8008ae2:	4293      	cmp	r3, r2
 8008ae4:	bfc4      	itt	gt
 8008ae6:	1a9b      	subgt	r3, r3, r2
 8008ae8:	18ed      	addgt	r5, r5, r3
 8008aea:	f04f 0900 	mov.w	r9, #0
 8008aee:	341a      	adds	r4, #26
 8008af0:	454d      	cmp	r5, r9
 8008af2:	d11a      	bne.n	8008b2a <_printf_common+0xd6>
 8008af4:	2000      	movs	r0, #0
 8008af6:	e008      	b.n	8008b0a <_printf_common+0xb6>
 8008af8:	2301      	movs	r3, #1
 8008afa:	4652      	mov	r2, sl
 8008afc:	4639      	mov	r1, r7
 8008afe:	4630      	mov	r0, r6
 8008b00:	47c0      	blx	r8
 8008b02:	3001      	adds	r0, #1
 8008b04:	d103      	bne.n	8008b0e <_printf_common+0xba>
 8008b06:	f04f 30ff 	mov.w	r0, #4294967295	; 0xffffffff
 8008b0a:	e8bd 87f0 	ldmia.w	sp!, {r4, r5, r6, r7, r8, r9, sl, pc}
 8008b0e:	3501      	adds	r5, #1
 8008b10:	e7c3      	b.n	8008a9a <_printf_common+0x46>
 8008b12:	18e1      	adds	r1, r4, r3
 8008b14:	1c5a      	adds	r2, r3, #1
 8008b16:	2030      	movs	r0, #48	; 0x30
 8008b18:	f881 0043 	strb.w	r0, [r1, #67]	; 0x43
 8008b1c:	4422      	add	r2, r4
 8008b1e:	f894 1045 	ldrb.w	r1, [r4, #69]	; 0x45
 8008b22:	f882 1043 	strb.w	r1, [r2, #67]	; 0x43
 8008b26:	3302      	adds	r3, #2
 8008b28:	e7c5      	b.n	8008ab6 <_printf_common+0x62>
 8008b2a:	2301      	movs	r3, #1
 8008b2c:	4622      	mov	r2, r4
 8008b2e:	4639      	mov	r1, r7
 8008b30:	4630      	mov	r0, r6
 8008b32:	47c0      	blx	r8
 8008b34:	3001      	adds	r0, #1
 8008b36:	d0e6      	beq.n	8008b06 <_printf_common+0xb2>
 8008b38:	f109 0901 	add.w	r9, r9, #1
 8008b3c:	e7d8      	b.n	8008af0 <_printf_common+0x9c>
	...

08008b40 <_printf_i>:
 8008b40:	e92d 43f0 	stmdb	sp!, {r4, r5, r6, r7, r8, r9, lr}
 8008b44:	f101 0c43 	add.w	ip, r1, #67	; 0x43
 8008b48:	460c      	mov	r4, r1
 8008b4a:	7e09      	ldrb	r1, [r1, #24]
 8008b4c:	b085      	sub	sp, #20
 8008b4e:	296e      	cmp	r1, #110	; 0x6e
 8008b50:	4617      	mov	r7, r2
 8008b52:	4606      	mov	r6, r0
 8008b54:	4698      	mov	r8, r3
 8008b56:	9a0c      	ldr	r2, [sp, #48]	; 0x30
 8008b58:	f000 80b3 	beq.w	8008cc2 <_printf_i+0x182>
 8008b5c:	d822      	bhi.n	8008ba4 <_printf_i+0x64>
 8008b5e:	2963      	cmp	r1, #99	; 0x63
 8008b60:	d036      	beq.n	8008bd0 <_printf_i+0x90>
 8008b62:	d80a      	bhi.n	8008b7a <_printf_i+0x3a>
 8008b64:	2900      	cmp	r1, #0
 8008b66:	f000 80b9 	beq.w	8008cdc <_printf_i+0x19c>
 8008b6a:	2958      	cmp	r1, #88	; 0x58
 8008b6c:	f000 8083 	beq.w	8008c76 <_printf_i+0x136>
 8008b70:	f104 0542 	add.w	r5, r4, #66	; 0x42
 8008b74:	f884 1042 	strb.w	r1, [r4, #66]	; 0x42
 8008b78:	e032      	b.n	8008be0 <_printf_i+0xa0>
 8008b7a:	2964      	cmp	r1, #100	; 0x64
 8008b7c:	d001      	beq.n	8008b82 <_printf_i+0x42>
 8008b7e:	2969      	cmp	r1, #105	; 0x69
 8008b80:	d1f6      	bne.n	8008b70 <_printf_i+0x30>
 8008b82:	6820      	ldr	r0, [r4, #0]
 8008b84:	6813      	ldr	r3, [r2, #0]
 8008b86:	0605      	lsls	r5, r0, #24
 8008b88:	f103 0104 	add.w	r1, r3, #4
 8008b8c:	d52a      	bpl.n	8008be4 <_printf_i+0xa4>
 8008b8e:	681b      	ldr	r3, [r3, #0]
 8008b90:	6011      	str	r1, [r2, #0]
 8008b92:	2b00      	cmp	r3, #0
 8008b94:	da03      	bge.n	8008b9e <_printf_i+0x5e>
 8008b96:	222d      	movs	r2, #45	; 0x2d
 8008b98:	425b      	negs	r3, r3
 8008b9a:	f884 2043 	strb.w	r2, [r4, #67]	; 0x43
 8008b9e:	486f      	ldr	r0, [pc, #444]	; (8008d5c <_printf_i+0x21c>)
 8008ba0:	220a      	movs	r2, #10
 8008ba2:	e039      	b.n	8008c18 <_printf_i+0xd8>
 8008ba4:	2973      	cmp	r1, #115	; 0x73
 8008ba6:	f000 809d 	beq.w	8008ce4 <_printf_i+0x1a4>
 8008baa:	d808      	bhi.n	8008bbe <_printf_i+0x7e>
 8008bac:	296f      	cmp	r1, #111	; 0x6f
 8008bae:	d020      	beq.n	8008bf2 <_printf_i+0xb2>
 8008bb0:	2970      	cmp	r1, #112	; 0x70
 8008bb2:	d1dd      	bne.n	8008b70 <_printf_i+0x30>
 8008bb4:	6823      	ldr	r3, [r4, #0]
 8008bb6:	f043 0320 	orr.w	r3, r3, #32
 8008bba:	6023      	str	r3, [r4, #0]
 8008bbc:	e003      	b.n	8008bc6 <_printf_i+0x86>
 8008bbe:	2975      	cmp	r1, #117	; 0x75
 8008bc0:	d017      	beq.n	8008bf2 <_printf_i+0xb2>
 8008bc2:	2978      	cmp	r1, #120	; 0x78
 8008bc4:	d1d4      	bne.n	8008b70 <_printf_i+0x30>
 8008bc6:	2378      	movs	r3, #120	; 0x78
 8008bc8:	f884 3045 	strb.w	r3, [r4, #69]	; 0x45
 8008bcc:	4864      	ldr	r0, [pc, #400]	; (8008d60 <_printf_i+0x220>)
 8008bce:	e055      	b.n	8008c7c <_printf_i+0x13c>
 8008bd0:	6813      	ldr	r3, [r2, #0]
 8008bd2:	1d19      	adds	r1, r3, #4
 8008bd4:	681b      	ldr	r3, [r3, #0]
 8008bd6:	6011      	str	r1, [r2, #0]
 8008bd8:	f104 0542 	add.w	r5, r4, #66	; 0x42
 8008bdc:	f884 3042 	strb.w	r3, [r4, #66]	; 0x42
 8008be0:	2301      	movs	r3, #1
 8008be2:	e08c      	b.n	8008cfe <_printf_i+0x1be>
 8008be4:	681b      	ldr	r3, [r3, #0]
 8008be6:	6011      	str	r1, [r2, #0]
 8008be8:	f010 0f40 	tst.w	r0, #64	; 0x40
 8008bec:	bf18      	it	ne
 8008bee:	b21b      	sxthne	r3, r3
 8008bf0:	e7cf      	b.n	8008b92 <_printf_i+0x52>
 8008bf2:	6813      	ldr	r3, [r2, #0]
 8008bf4:	6825      	ldr	r5, [r4, #0]
 8008bf6:	1d18      	adds	r0, r3, #4
 8008bf8:	6010      	str	r0, [r2, #0]
 8008bfa:	0628      	lsls	r0, r5, #24
 8008bfc:	d501      	bpl.n	8008c02 <_printf_i+0xc2>
 8008bfe:	681b      	ldr	r3, [r3, #0]
 8008c00:	e002      	b.n	8008c08 <_printf_i+0xc8>
 8008c02:	0668      	lsls	r0, r5, #25
 8008c04:	d5fb      	bpl.n	8008bfe <_printf_i+0xbe>
 8008c06:	881b      	ldrh	r3, [r3, #0]
 8008c08:	4854      	ldr	r0, [pc, #336]	; (8008d5c <_printf_i+0x21c>)
 8008c0a:	296f      	cmp	r1, #111	; 0x6f
 8008c0c:	bf14      	ite	ne
 8008c0e:	220a      	movne	r2, #10
 8008c10:	2208      	moveq	r2, #8
 8008c12:	2100      	movs	r1, #0
 8008c14:	f884 1043 	strb.w	r1, [r4, #67]	; 0x43
 8008c18:	6865      	ldr	r5, [r4, #4]
 8008c1a:	60a5      	str	r5, [r4, #8]
 8008c1c:	2d00      	cmp	r5, #0
 8008c1e:	f2c0 8095 	blt.w	8008d4c <_printf_i+0x20c>
 8008c22:	6821      	ldr	r1, [r4, #0]
 8008c24:	f021 0104 	bic.w	r1, r1, #4
 8008c28:	6021      	str	r1, [r4, #0]
 8008c2a:	2b00      	cmp	r3, #0
 8008c2c:	d13d      	bne.n	8008caa <_printf_i+0x16a>
 8008c2e:	2d00      	cmp	r5, #0
 8008c30:	f040 808e 	bne.w	8008d50 <_printf_i+0x210>
 8008c34:	4665      	mov	r5, ip
 8008c36:	2a08      	cmp	r2, #8
 8008c38:	d10b      	bne.n	8008c52 <_printf_i+0x112>
 8008c3a:	6823      	ldr	r3, [r4, #0]
 8008c3c:	07db      	lsls	r3, r3, #31
 8008c3e:	d508      	bpl.n	8008c52 <_printf_i+0x112>
 8008c40:	6923      	ldr	r3, [r4, #16]
 8008c42:	6862      	ldr	r2, [r4, #4]
 8008c44:	429a      	cmp	r2, r3
 8008c46:	bfde      	ittt	le
 8008c48:	2330      	movle	r3, #48	; 0x30
 8008c4a:	f805 3c01 	strble.w	r3, [r5, #-1]
 8008c4e:	f105 35ff 	addle.w	r5, r5, #4294967295	; 0xffffffff
 8008c52:	ebac 0305 	sub.w	r3, ip, r5
 8008c56:	6123      	str	r3, [r4, #16]
 8008c58:	f8cd 8000 	str.w	r8, [sp]
 8008c5c:	463b      	mov	r3, r7
 8008c5e:	aa03      	add	r2, sp, #12
 8008c60:	4621      	mov	r1, r4
 8008c62:	4630      	mov	r0, r6
 8008c64:	f7ff fef6 	bl	8008a54 <_printf_common>
 8008c68:	3001      	adds	r0, #1
 8008c6a:	d14d      	bne.n	8008d08 <_printf_i+0x1c8>
 8008c6c:	f04f 30ff 	mov.w	r0, #4294967295	; 0xffffffff
 8008c70:	b005      	add	sp, #20
 8008c72:	e8bd 83f0 	ldmia.w	sp!, {r4, r5, r6, r7, r8, r9, pc}
 8008c76:	4839      	ldr	r0, [pc, #228]	; (8008d5c <_printf_i+0x21c>)
 8008c78:	f884 1045 	strb.w	r1, [r4, #69]	; 0x45
 8008c7c:	6813      	ldr	r3, [r2, #0]
 8008c7e:	6821      	ldr	r1, [r4, #0]
 8008c80:	1d1d      	adds	r5, r3, #4
 8008c82:	681b      	ldr	r3, [r3, #0]
 8008c84:	6015      	str	r5, [r2, #0]
 8008c86:	060a      	lsls	r2, r1, #24
 8008c88:	d50b      	bpl.n	8008ca2 <_printf_i+0x162>
 8008c8a:	07ca      	lsls	r2, r1, #31
 8008c8c:	bf44      	itt	mi
 8008c8e:	f041 0120 	orrmi.w	r1, r1, #32
 8008c92:	6021      	strmi	r1, [r4, #0]
 8008c94:	b91b      	cbnz	r3, 8008c9e <_printf_i+0x15e>
 8008c96:	6822      	ldr	r2, [r4, #0]
 8008c98:	f022 0220 	bic.w	r2, r2, #32
 8008c9c:	6022      	str	r2, [r4, #0]
 8008c9e:	2210      	movs	r2, #16
 8008ca0:	e7b7      	b.n	8008c12 <_printf_i+0xd2>
 8008ca2:	064d      	lsls	r5, r1, #25
 8008ca4:	bf48      	it	mi
 8008ca6:	b29b      	uxthmi	r3, r3
 8008ca8:	e7ef      	b.n	8008c8a <_printf_i+0x14a>
 8008caa:	4665      	mov	r5, ip
 8008cac:	fbb3 f1f2 	udiv	r1, r3, r2
 8008cb0:	fb02 3311 	mls	r3, r2, r1, r3
 8008cb4:	5cc3      	ldrb	r3, [r0, r3]
 8008cb6:	f805 3d01 	strb.w	r3, [r5, #-1]!
 8008cba:	460b      	mov	r3, r1
 8008cbc:	2900      	cmp	r1, #0
 8008cbe:	d1f5      	bne.n	8008cac <_printf_i+0x16c>
 8008cc0:	e7b9      	b.n	8008c36 <_printf_i+0xf6>
 8008cc2:	6813      	ldr	r3, [r2, #0]
 8008cc4:	6825      	ldr	r5, [r4, #0]
 8008cc6:	6961      	ldr	r1, [r4, #20]
 8008cc8:	1d18      	adds	r0, r3, #4
 8008cca:	6010      	str	r0, [r2, #0]
 8008ccc:	0628      	lsls	r0, r5, #24
 8008cce:	681b      	ldr	r3, [r3, #0]
 8008cd0:	d501      	bpl.n	8008cd6 <_printf_i+0x196>
 8008cd2:	6019      	str	r1, [r3, #0]
 8008cd4:	e002      	b.n	8008cdc <_printf_i+0x19c>
 8008cd6:	066a      	lsls	r2, r5, #25
 8008cd8:	d5fb      	bpl.n	8008cd2 <_printf_i+0x192>
 8008cda:	8019      	strh	r1, [r3, #0]
 8008cdc:	2300      	movs	r3, #0
 8008cde:	6123      	str	r3, [r4, #16]
 8008ce0:	4665      	mov	r5, ip
 8008ce2:	e7b9      	b.n	8008c58 <_printf_i+0x118>
 8008ce4:	6813      	ldr	r3, [r2, #0]
 8008ce6:	1d19      	adds	r1, r3, #4
 8008ce8:	6011      	str	r1, [r2, #0]
 8008cea:	681d      	ldr	r5, [r3, #0]
 8008cec:	6862      	ldr	r2, [r4, #4]
 8008cee:	2100      	movs	r1, #0
 8008cf0:	4628      	mov	r0, r5
 8008cf2:	f7f7 faa5 	bl	8000240 <memchr>
 8008cf6:	b108      	cbz	r0, 8008cfc <_printf_i+0x1bc>
 8008cf8:	1b40      	subs	r0, r0, r5
 8008cfa:	6060      	str	r0, [r4, #4]
 8008cfc:	6863      	ldr	r3, [r4, #4]
 8008cfe:	6123      	str	r3, [r4, #16]
 8008d00:	2300      	movs	r3, #0
 8008d02:	f884 3043 	strb.w	r3, [r4, #67]	; 0x43
 8008d06:	e7a7      	b.n	8008c58 <_printf_i+0x118>
 8008d08:	6923      	ldr	r3, [r4, #16]
 8008d0a:	462a      	mov	r2, r5
 8008d0c:	4639      	mov	r1, r7
 8008d0e:	4630      	mov	r0, r6
 8008d10:	47c0      	blx	r8
 8008d12:	3001      	adds	r0, #1
 8008d14:	d0aa      	beq.n	8008c6c <_printf_i+0x12c>
 8008d16:	6823      	ldr	r3, [r4, #0]
 8008d18:	079b      	lsls	r3, r3, #30
 8008d1a:	d413      	bmi.n	8008d44 <_printf_i+0x204>
 8008d1c:	68e0      	ldr	r0, [r4, #12]
 8008d1e:	9b03      	ldr	r3, [sp, #12]
 8008d20:	4298      	cmp	r0, r3
 8008d22:	bfb8      	it	lt
 8008d24:	4618      	movlt	r0, r3
 8008d26:	e7a3      	b.n	8008c70 <_printf_i+0x130>
 8008d28:	2301      	movs	r3, #1
 8008d2a:	464a      	mov	r2, r9
 8008d2c:	4639      	mov	r1, r7
 8008d2e:	4630      	mov	r0, r6
 8008d30:	47c0      	blx	r8
 8008d32:	3001      	adds	r0, #1
 8008d34:	d09a      	beq.n	8008c6c <_printf_i+0x12c>
 8008d36:	3501      	adds	r5, #1
 8008d38:	68e3      	ldr	r3, [r4, #12]
 8008d3a:	9a03      	ldr	r2, [sp, #12]
 8008d3c:	1a9b      	subs	r3, r3, r2
 8008d3e:	42ab      	cmp	r3, r5
 8008d40:	dcf2      	bgt.n	8008d28 <_printf_i+0x1e8>
 8008d42:	e7eb      	b.n	8008d1c <_printf_i+0x1dc>
 8008d44:	2500      	movs	r5, #0
 8008d46:	f104 0919 	add.w	r9, r4, #25
 8008d4a:	e7f5      	b.n	8008d38 <_printf_i+0x1f8>
 8008d4c:	2b00      	cmp	r3, #0
 8008d4e:	d1ac      	bne.n	8008caa <_printf_i+0x16a>
 8008d50:	7803      	ldrb	r3, [r0, #0]
 8008d52:	f884 3042 	strb.w	r3, [r4, #66]	; 0x42
 8008d56:	f104 0542 	add.w	r5, r4, #66	; 0x42
 8008d5a:	e76c      	b.n	8008c36 <_printf_i+0xf6>
 8008d5c:	080fc495 	.word	0x080fc495
 8008d60:	080fc4a6 	.word	0x080fc4a6

08008d64 <iprintf>:
 8008d64:	b40f      	push	{r0, r1, r2, r3}
 8008d66:	4b0a      	ldr	r3, [pc, #40]	; (8008d90 <iprintf+0x2c>)
 8008d68:	b513      	push	{r0, r1, r4, lr}
 8008d6a:	681c      	ldr	r4, [r3, #0]
 8008d6c:	b124      	cbz	r4, 8008d78 <iprintf+0x14>
 8008d6e:	69a3      	ldr	r3, [r4, #24]
 8008d70:	b913      	cbnz	r3, 8008d78 <iprintf+0x14>
 8008d72:	4620      	mov	r0, r4
 8008d74:	f000 fa4c 	bl	8009210 <__sinit>
 8008d78:	ab05      	add	r3, sp, #20
 8008d7a:	9a04      	ldr	r2, [sp, #16]
 8008d7c:	68a1      	ldr	r1, [r4, #8]
 8008d7e:	9301      	str	r3, [sp, #4]
 8008d80:	4620      	mov	r0, r4
 8008d82:	f7ff fd47 	bl	8008814 <_vfiprintf_r>
 8008d86:	b002      	add	sp, #8
 8008d88:	e8bd 4010 	ldmia.w	sp!, {r4, lr}
 8008d8c:	b004      	add	sp, #16
 8008d8e:	4770      	bx	lr
 8008d90:	2000008c 	.word	0x2000008c

08008d94 <_puts_r>:
 8008d94:	b570      	push	{r4, r5, r6, lr}
 8008d96:	460e      	mov	r6, r1
 8008d98:	4605      	mov	r5, r0
 8008d9a:	b118      	cbz	r0, 8008da4 <_puts_r+0x10>
 8008d9c:	6983      	ldr	r3, [r0, #24]
 8008d9e:	b90b      	cbnz	r3, 8008da4 <_puts_r+0x10>
 8008da0:	f000 fa36 	bl	8009210 <__sinit>
 8008da4:	69ab      	ldr	r3, [r5, #24]
 8008da6:	68ac      	ldr	r4, [r5, #8]
 8008da8:	b913      	cbnz	r3, 8008db0 <_puts_r+0x1c>
 8008daa:	4628      	mov	r0, r5
 8008dac:	f000 fa30 	bl	8009210 <__sinit>
 8008db0:	4b23      	ldr	r3, [pc, #140]	; (8008e40 <_puts_r+0xac>)
 8008db2:	429c      	cmp	r4, r3
 8008db4:	d117      	bne.n	8008de6 <_puts_r+0x52>
 8008db6:	686c      	ldr	r4, [r5, #4]
 8008db8:	89a3      	ldrh	r3, [r4, #12]
 8008dba:	071b      	lsls	r3, r3, #28
 8008dbc:	d51d      	bpl.n	8008dfa <_puts_r+0x66>
 8008dbe:	6923      	ldr	r3, [r4, #16]
 8008dc0:	b1db      	cbz	r3, 8008dfa <_puts_r+0x66>
 8008dc2:	3e01      	subs	r6, #1
 8008dc4:	68a3      	ldr	r3, [r4, #8]
 8008dc6:	f816 1f01 	ldrb.w	r1, [r6, #1]!
 8008dca:	3b01      	subs	r3, #1
 8008dcc:	60a3      	str	r3, [r4, #8]
 8008dce:	b9e9      	cbnz	r1, 8008e0c <_puts_r+0x78>
 8008dd0:	2b00      	cmp	r3, #0
 8008dd2:	da2e      	bge.n	8008e32 <_puts_r+0x9e>
 8008dd4:	4622      	mov	r2, r4
 8008dd6:	210a      	movs	r1, #10
 8008dd8:	4628      	mov	r0, r5
 8008dda:	f000 f869 	bl	8008eb0 <__swbuf_r>
 8008dde:	3001      	adds	r0, #1
 8008de0:	d011      	beq.n	8008e06 <_puts_r+0x72>
 8008de2:	200a      	movs	r0, #10
 8008de4:	e011      	b.n	8008e0a <_puts_r+0x76>
 8008de6:	4b17      	ldr	r3, [pc, #92]	; (8008e44 <_puts_r+0xb0>)
 8008de8:	429c      	cmp	r4, r3
 8008dea:	d101      	bne.n	8008df0 <_puts_r+0x5c>
 8008dec:	68ac      	ldr	r4, [r5, #8]
 8008dee:	e7e3      	b.n	8008db8 <_puts_r+0x24>
 8008df0:	4b15      	ldr	r3, [pc, #84]	; (8008e48 <_puts_r+0xb4>)
 8008df2:	429c      	cmp	r4, r3
 8008df4:	bf08      	it	eq
 8008df6:	68ec      	ldreq	r4, [r5, #12]
 8008df8:	e7de      	b.n	8008db8 <_puts_r+0x24>
 8008dfa:	4621      	mov	r1, r4
 8008dfc:	4628      	mov	r0, r5
 8008dfe:	f000 f8a9 	bl	8008f54 <__swsetup_r>
 8008e02:	2800      	cmp	r0, #0
 8008e04:	d0dd      	beq.n	8008dc2 <_puts_r+0x2e>
 8008e06:	f04f 30ff 	mov.w	r0, #4294967295	; 0xffffffff
 8008e0a:	bd70      	pop	{r4, r5, r6, pc}
 8008e0c:	2b00      	cmp	r3, #0
 8008e0e:	da04      	bge.n	8008e1a <_puts_r+0x86>
 8008e10:	69a2      	ldr	r2, [r4, #24]
 8008e12:	429a      	cmp	r2, r3
 8008e14:	dc06      	bgt.n	8008e24 <_puts_r+0x90>
 8008e16:	290a      	cmp	r1, #10
 8008e18:	d004      	beq.n	8008e24 <_puts_r+0x90>
 8008e1a:	6823      	ldr	r3, [r4, #0]
 8008e1c:	1c5a      	adds	r2, r3, #1
 8008e1e:	6022      	str	r2, [r4, #0]
 8008e20:	7019      	strb	r1, [r3, #0]
 8008e22:	e7cf      	b.n	8008dc4 <_puts_r+0x30>
 8008e24:	4622      	mov	r2, r4
 8008e26:	4628      	mov	r0, r5
 8008e28:	f000 f842 	bl	8008eb0 <__swbuf_r>
 8008e2c:	3001      	adds	r0, #1
 8008e2e:	d1c9      	bne.n	8008dc4 <_puts_r+0x30>
 8008e30:	e7e9      	b.n	8008e06 <_puts_r+0x72>
 8008e32:	6823      	ldr	r3, [r4, #0]
 8008e34:	200a      	movs	r0, #10
 8008e36:	1c5a      	adds	r2, r3, #1
 8008e38:	6022      	str	r2, [r4, #0]
 8008e3a:	7018      	strb	r0, [r3, #0]
 8008e3c:	e7e5      	b.n	8008e0a <_puts_r+0x76>
 8008e3e:	bf00      	nop
 8008e40:	080fc4d8 	.word	0x080fc4d8
 8008e44:	080fc4f8 	.word	0x080fc4f8
 8008e48:	080fc4b8 	.word	0x080fc4b8

08008e4c <puts>:
 8008e4c:	4b02      	ldr	r3, [pc, #8]	; (8008e58 <puts+0xc>)
 8008e4e:	4601      	mov	r1, r0
 8008e50:	6818      	ldr	r0, [r3, #0]
 8008e52:	f7ff bf9f 	b.w	8008d94 <_puts_r>
 8008e56:	bf00      	nop
 8008e58:	2000008c 	.word	0x2000008c

08008e5c <_sbrk_r>:
 8008e5c:	b538      	push	{r3, r4, r5, lr}
 8008e5e:	4c06      	ldr	r4, [pc, #24]	; (8008e78 <_sbrk_r+0x1c>)
 8008e60:	2300      	movs	r3, #0
 8008e62:	4605      	mov	r5, r0
 8008e64:	4608      	mov	r0, r1
 8008e66:	6023      	str	r3, [r4, #0]
 8008e68:	f7fd f852 	bl	8005f10 <_sbrk>
 8008e6c:	1c43      	adds	r3, r0, #1
 8008e6e:	d102      	bne.n	8008e76 <_sbrk_r+0x1a>
 8008e70:	6823      	ldr	r3, [r4, #0]
 8008e72:	b103      	cbz	r3, 8008e76 <_sbrk_r+0x1a>
 8008e74:	602b      	str	r3, [r5, #0]
 8008e76:	bd38      	pop	{r3, r4, r5, pc}
 8008e78:	2000def0 	.word	0x2000def0

08008e7c <time>:
 8008e7c:	b51f      	push	{r0, r1, r2, r3, r4, lr}
 8008e7e:	4b0b      	ldr	r3, [pc, #44]	; (8008eac <time+0x30>)
 8008e80:	4604      	mov	r4, r0
 8008e82:	2200      	movs	r2, #0
 8008e84:	4669      	mov	r1, sp
 8008e86:	6818      	ldr	r0, [r3, #0]
 8008e88:	f000 fa4c 	bl	8009324 <_gettimeofday_r>
 8008e8c:	2800      	cmp	r0, #0
 8008e8e:	da05      	bge.n	8008e9c <time+0x20>
 8008e90:	f04f 32ff 	mov.w	r2, #4294967295	; 0xffffffff
 8008e94:	f04f 33ff 	mov.w	r3, #4294967295	; 0xffffffff
 8008e98:	e9cd 2300 	strd	r2, r3, [sp]
 8008e9c:	e9dd 0100 	ldrd	r0, r1, [sp]
 8008ea0:	b10c      	cbz	r4, 8008ea6 <time+0x2a>
 8008ea2:	e9c4 0100 	strd	r0, r1, [r4]
 8008ea6:	b004      	add	sp, #16
 8008ea8:	bd10      	pop	{r4, pc}
 8008eaa:	bf00      	nop
 8008eac:	2000008c 	.word	0x2000008c

08008eb0 <__swbuf_r>:
 8008eb0:	b5f8      	push	{r3, r4, r5, r6, r7, lr}
 8008eb2:	460e      	mov	r6, r1
 8008eb4:	4614      	mov	r4, r2
 8008eb6:	4605      	mov	r5, r0
 8008eb8:	b118      	cbz	r0, 8008ec2 <__swbuf_r+0x12>
 8008eba:	6983      	ldr	r3, [r0, #24]
 8008ebc:	b90b      	cbnz	r3, 8008ec2 <__swbuf_r+0x12>
 8008ebe:	f000 f9a7 	bl	8009210 <__sinit>
 8008ec2:	4b21      	ldr	r3, [pc, #132]	; (8008f48 <__swbuf_r+0x98>)
 8008ec4:	429c      	cmp	r4, r3
 8008ec6:	d12a      	bne.n	8008f1e <__swbuf_r+0x6e>
 8008ec8:	686c      	ldr	r4, [r5, #4]
 8008eca:	69a3      	ldr	r3, [r4, #24]
 8008ecc:	60a3      	str	r3, [r4, #8]
 8008ece:	89a3      	ldrh	r3, [r4, #12]
 8008ed0:	071a      	lsls	r2, r3, #28
 8008ed2:	d52e      	bpl.n	8008f32 <__swbuf_r+0x82>
 8008ed4:	6923      	ldr	r3, [r4, #16]
 8008ed6:	b363      	cbz	r3, 8008f32 <__swbuf_r+0x82>
 8008ed8:	6923      	ldr	r3, [r4, #16]
 8008eda:	6820      	ldr	r0, [r4, #0]
 8008edc:	1ac0      	subs	r0, r0, r3
 8008ede:	6963      	ldr	r3, [r4, #20]
 8008ee0:	b2f6      	uxtb	r6, r6
 8008ee2:	4283      	cmp	r3, r0
 8008ee4:	4637      	mov	r7, r6
 8008ee6:	dc04      	bgt.n	8008ef2 <__swbuf_r+0x42>
 8008ee8:	4621      	mov	r1, r4
 8008eea:	4628      	mov	r0, r5
 8008eec:	f000 f926 	bl	800913c <_fflush_r>
 8008ef0:	bb28      	cbnz	r0, 8008f3e <__swbuf_r+0x8e>
 8008ef2:	68a3      	ldr	r3, [r4, #8]
 8008ef4:	3b01      	subs	r3, #1
 8008ef6:	60a3      	str	r3, [r4, #8]
 8008ef8:	6823      	ldr	r3, [r4, #0]
 8008efa:	1c5a      	adds	r2, r3, #1
 8008efc:	6022      	str	r2, [r4, #0]
 8008efe:	701e      	strb	r6, [r3, #0]
 8008f00:	6963      	ldr	r3, [r4, #20]
 8008f02:	3001      	adds	r0, #1
 8008f04:	4283      	cmp	r3, r0
 8008f06:	d004      	beq.n	8008f12 <__swbuf_r+0x62>
 8008f08:	89a3      	ldrh	r3, [r4, #12]
 8008f0a:	07db      	lsls	r3, r3, #31
 8008f0c:	d519      	bpl.n	8008f42 <__swbuf_r+0x92>
 8008f0e:	2e0a      	cmp	r6, #10
 8008f10:	d117      	bne.n	8008f42 <__swbuf_r+0x92>
 8008f12:	4621      	mov	r1, r4
 8008f14:	4628      	mov	r0, r5
 8008f16:	f000 f911 	bl	800913c <_fflush_r>
 8008f1a:	b190      	cbz	r0, 8008f42 <__swbuf_r+0x92>
 8008f1c:	e00f      	b.n	8008f3e <__swbuf_r+0x8e>
 8008f1e:	4b0b      	ldr	r3, [pc, #44]	; (8008f4c <__swbuf_r+0x9c>)
 8008f20:	429c      	cmp	r4, r3
 8008f22:	d101      	bne.n	8008f28 <__swbuf_r+0x78>
 8008f24:	68ac      	ldr	r4, [r5, #8]
 8008f26:	e7d0      	b.n	8008eca <__swbuf_r+0x1a>
 8008f28:	4b09      	ldr	r3, [pc, #36]	; (8008f50 <__swbuf_r+0xa0>)
 8008f2a:	429c      	cmp	r4, r3
 8008f2c:	bf08      	it	eq
 8008f2e:	68ec      	ldreq	r4, [r5, #12]
 8008f30:	e7cb      	b.n	8008eca <__swbuf_r+0x1a>
 8008f32:	4621      	mov	r1, r4
 8008f34:	4628      	mov	r0, r5
 8008f36:	f000 f80d 	bl	8008f54 <__swsetup_r>
 8008f3a:	2800      	cmp	r0, #0
 8008f3c:	d0cc      	beq.n	8008ed8 <__swbuf_r+0x28>
 8008f3e:	f04f 37ff 	mov.w	r7, #4294967295	; 0xffffffff
 8008f42:	4638      	mov	r0, r7
 8008f44:	bdf8      	pop	{r3, r4, r5, r6, r7, pc}
 8008f46:	bf00      	nop
 8008f48:	080fc4d8 	.word	0x080fc4d8
 8008f4c:	080fc4f8 	.word	0x080fc4f8
 8008f50:	080fc4b8 	.word	0x080fc4b8

08008f54 <__swsetup_r>:
 8008f54:	4b32      	ldr	r3, [pc, #200]	; (8009020 <__swsetup_r+0xcc>)
 8008f56:	b570      	push	{r4, r5, r6, lr}
 8008f58:	681d      	ldr	r5, [r3, #0]
 8008f5a:	4606      	mov	r6, r0
 8008f5c:	460c      	mov	r4, r1
 8008f5e:	b125      	cbz	r5, 8008f6a <__swsetup_r+0x16>
 8008f60:	69ab      	ldr	r3, [r5, #24]
 8008f62:	b913      	cbnz	r3, 8008f6a <__swsetup_r+0x16>
 8008f64:	4628      	mov	r0, r5
 8008f66:	f000 f953 	bl	8009210 <__sinit>
 8008f6a:	4b2e      	ldr	r3, [pc, #184]	; (8009024 <__swsetup_r+0xd0>)
 8008f6c:	429c      	cmp	r4, r3
 8008f6e:	d10f      	bne.n	8008f90 <__swsetup_r+0x3c>
 8008f70:	686c      	ldr	r4, [r5, #4]
 8008f72:	f9b4 300c 	ldrsh.w	r3, [r4, #12]
 8008f76:	b29a      	uxth	r2, r3
 8008f78:	0715      	lsls	r5, r2, #28
 8008f7a:	d42c      	bmi.n	8008fd6 <__swsetup_r+0x82>
 8008f7c:	06d0      	lsls	r0, r2, #27
 8008f7e:	d411      	bmi.n	8008fa4 <__swsetup_r+0x50>
 8008f80:	2209      	movs	r2, #9
 8008f82:	6032      	str	r2, [r6, #0]
 8008f84:	f043 0340 	orr.w	r3, r3, #64	; 0x40
 8008f88:	81a3      	strh	r3, [r4, #12]
 8008f8a:	f04f 30ff 	mov.w	r0, #4294967295	; 0xffffffff
 8008f8e:	e03e      	b.n	800900e <__swsetup_r+0xba>
 8008f90:	4b25      	ldr	r3, [pc, #148]	; (8009028 <__swsetup_r+0xd4>)
 8008f92:	429c      	cmp	r4, r3
 8008f94:	d101      	bne.n	8008f9a <__swsetup_r+0x46>
 8008f96:	68ac      	ldr	r4, [r5, #8]
 8008f98:	e7eb      	b.n	8008f72 <__swsetup_r+0x1e>
 8008f9a:	4b24      	ldr	r3, [pc, #144]	; (800902c <__swsetup_r+0xd8>)
 8008f9c:	429c      	cmp	r4, r3
 8008f9e:	bf08      	it	eq
 8008fa0:	68ec      	ldreq	r4, [r5, #12]
 8008fa2:	e7e6      	b.n	8008f72 <__swsetup_r+0x1e>
 8008fa4:	0751      	lsls	r1, r2, #29
 8008fa6:	d512      	bpl.n	8008fce <__swsetup_r+0x7a>
 8008fa8:	6b61      	ldr	r1, [r4, #52]	; 0x34
 8008faa:	b141      	cbz	r1, 8008fbe <__swsetup_r+0x6a>
 8008fac:	f104 0344 	add.w	r3, r4, #68	; 0x44
 8008fb0:	4299      	cmp	r1, r3
 8008fb2:	d002      	beq.n	8008fba <__swsetup_r+0x66>
 8008fb4:	4630      	mov	r0, r6
 8008fb6:	f7ff fb5b 	bl	8008670 <_free_r>
 8008fba:	2300      	movs	r3, #0
 8008fbc:	6363      	str	r3, [r4, #52]	; 0x34
 8008fbe:	89a3      	ldrh	r3, [r4, #12]
 8008fc0:	f023 0324 	bic.w	r3, r3, #36	; 0x24
 8008fc4:	81a3      	strh	r3, [r4, #12]
 8008fc6:	2300      	movs	r3, #0
 8008fc8:	6063      	str	r3, [r4, #4]
 8008fca:	6923      	ldr	r3, [r4, #16]
 8008fcc:	6023      	str	r3, [r4, #0]
 8008fce:	89a3      	ldrh	r3, [r4, #12]
 8008fd0:	f043 0308 	orr.w	r3, r3, #8
 8008fd4:	81a3      	strh	r3, [r4, #12]
 8008fd6:	6923      	ldr	r3, [r4, #16]
 8008fd8:	b94b      	cbnz	r3, 8008fee <__swsetup_r+0x9a>
 8008fda:	89a3      	ldrh	r3, [r4, #12]
 8008fdc:	f403 7320 	and.w	r3, r3, #640	; 0x280
 8008fe0:	f5b3 7f00 	cmp.w	r3, #512	; 0x200
 8008fe4:	d003      	beq.n	8008fee <__swsetup_r+0x9a>
 8008fe6:	4621      	mov	r1, r4
 8008fe8:	4630      	mov	r0, r6
 8008fea:	f000 f9d1 	bl	8009390 <__smakebuf_r>
 8008fee:	89a2      	ldrh	r2, [r4, #12]
 8008ff0:	f012 0301 	ands.w	r3, r2, #1
 8008ff4:	d00c      	beq.n	8009010 <__swsetup_r+0xbc>
 8008ff6:	2300      	movs	r3, #0
 8008ff8:	60a3      	str	r3, [r4, #8]
 8008ffa:	6963      	ldr	r3, [r4, #20]
 8008ffc:	425b      	negs	r3, r3
 8008ffe:	61a3      	str	r3, [r4, #24]
 8009000:	6923      	ldr	r3, [r4, #16]
 8009002:	b953      	cbnz	r3, 800901a <__swsetup_r+0xc6>
 8009004:	f9b4 300c 	ldrsh.w	r3, [r4, #12]
 8009008:	f013 0080 	ands.w	r0, r3, #128	; 0x80
 800900c:	d1ba      	bne.n	8008f84 <__swsetup_r+0x30>
 800900e:	bd70      	pop	{r4, r5, r6, pc}
 8009010:	0792      	lsls	r2, r2, #30
 8009012:	bf58      	it	pl
 8009014:	6963      	ldrpl	r3, [r4, #20]
 8009016:	60a3      	str	r3, [r4, #8]
 8009018:	e7f2      	b.n	8009000 <__swsetup_r+0xac>
 800901a:	2000      	movs	r0, #0
 800901c:	e7f7      	b.n	800900e <__swsetup_r+0xba>
 800901e:	bf00      	nop
 8009020:	2000008c 	.word	0x2000008c
 8009024:	080fc4d8 	.word	0x080fc4d8
 8009028:	080fc4f8 	.word	0x080fc4f8
 800902c:	080fc4b8 	.word	0x080fc4b8

08009030 <__sflush_r>:
 8009030:	898a      	ldrh	r2, [r1, #12]
 8009032:	e92d 41f0 	stmdb	sp!, {r4, r5, r6, r7, r8, lr}
 8009036:	4605      	mov	r5, r0
 8009038:	0710      	lsls	r0, r2, #28
 800903a:	460c      	mov	r4, r1
 800903c:	d458      	bmi.n	80090f0 <__sflush_r+0xc0>
 800903e:	684b      	ldr	r3, [r1, #4]
 8009040:	2b00      	cmp	r3, #0
 8009042:	dc05      	bgt.n	8009050 <__sflush_r+0x20>
 8009044:	6c0b      	ldr	r3, [r1, #64]	; 0x40
 8009046:	2b00      	cmp	r3, #0
 8009048:	dc02      	bgt.n	8009050 <__sflush_r+0x20>
 800904a:	2000      	movs	r0, #0
 800904c:	e8bd 81f0 	ldmia.w	sp!, {r4, r5, r6, r7, r8, pc}
 8009050:	6ae6      	ldr	r6, [r4, #44]	; 0x2c
 8009052:	2e00      	cmp	r6, #0
 8009054:	d0f9      	beq.n	800904a <__sflush_r+0x1a>
 8009056:	2300      	movs	r3, #0
 8009058:	f412 5280 	ands.w	r2, r2, #4096	; 0x1000
 800905c:	682f      	ldr	r7, [r5, #0]
 800905e:	6a21      	ldr	r1, [r4, #32]
 8009060:	602b      	str	r3, [r5, #0]
 8009062:	d032      	beq.n	80090ca <__sflush_r+0x9a>
 8009064:	6d60      	ldr	r0, [r4, #84]	; 0x54
 8009066:	89a3      	ldrh	r3, [r4, #12]
 8009068:	075a      	lsls	r2, r3, #29
 800906a:	d505      	bpl.n	8009078 <__sflush_r+0x48>
 800906c:	6863      	ldr	r3, [r4, #4]
 800906e:	1ac0      	subs	r0, r0, r3
 8009070:	6b63      	ldr	r3, [r4, #52]	; 0x34
 8009072:	b10b      	cbz	r3, 8009078 <__sflush_r+0x48>
 8009074:	6c23      	ldr	r3, [r4, #64]	; 0x40
 8009076:	1ac0      	subs	r0, r0, r3
 8009078:	2300      	movs	r3, #0
 800907a:	4602      	mov	r2, r0
 800907c:	6ae6      	ldr	r6, [r4, #44]	; 0x2c
 800907e:	6a21      	ldr	r1, [r4, #32]
 8009080:	4628      	mov	r0, r5
 8009082:	47b0      	blx	r6
 8009084:	1c43      	adds	r3, r0, #1
 8009086:	89a3      	ldrh	r3, [r4, #12]
 8009088:	d106      	bne.n	8009098 <__sflush_r+0x68>
 800908a:	6829      	ldr	r1, [r5, #0]
 800908c:	291d      	cmp	r1, #29
 800908e:	d848      	bhi.n	8009122 <__sflush_r+0xf2>
 8009090:	4a29      	ldr	r2, [pc, #164]	; (8009138 <__sflush_r+0x108>)
 8009092:	40ca      	lsrs	r2, r1
 8009094:	07d6      	lsls	r6, r2, #31
 8009096:	d544      	bpl.n	8009122 <__sflush_r+0xf2>
 8009098:	2200      	movs	r2, #0
 800909a:	6062      	str	r2, [r4, #4]
 800909c:	04d9      	lsls	r1, r3, #19
 800909e:	6922      	ldr	r2, [r4, #16]
 80090a0:	6022      	str	r2, [r4, #0]
 80090a2:	d504      	bpl.n	80090ae <__sflush_r+0x7e>
 80090a4:	1c42      	adds	r2, r0, #1
 80090a6:	d101      	bne.n	80090ac <__sflush_r+0x7c>
 80090a8:	682b      	ldr	r3, [r5, #0]
 80090aa:	b903      	cbnz	r3, 80090ae <__sflush_r+0x7e>
 80090ac:	6560      	str	r0, [r4, #84]	; 0x54
 80090ae:	6b61      	ldr	r1, [r4, #52]	; 0x34
 80090b0:	602f      	str	r7, [r5, #0]
 80090b2:	2900      	cmp	r1, #0
 80090b4:	d0c9      	beq.n	800904a <__sflush_r+0x1a>
 80090b6:	f104 0344 	add.w	r3, r4, #68	; 0x44
 80090ba:	4299      	cmp	r1, r3
 80090bc:	d002      	beq.n	80090c4 <__sflush_r+0x94>
 80090be:	4628      	mov	r0, r5
 80090c0:	f7ff fad6 	bl	8008670 <_free_r>
 80090c4:	2000      	movs	r0, #0
 80090c6:	6360      	str	r0, [r4, #52]	; 0x34
 80090c8:	e7c0      	b.n	800904c <__sflush_r+0x1c>
 80090ca:	2301      	movs	r3, #1
 80090cc:	4628      	mov	r0, r5
 80090ce:	47b0      	blx	r6
 80090d0:	1c41      	adds	r1, r0, #1
 80090d2:	d1c8      	bne.n	8009066 <__sflush_r+0x36>
 80090d4:	682b      	ldr	r3, [r5, #0]
 80090d6:	2b00      	cmp	r3, #0
 80090d8:	d0c5      	beq.n	8009066 <__sflush_r+0x36>
 80090da:	2b1d      	cmp	r3, #29
 80090dc:	d001      	beq.n	80090e2 <__sflush_r+0xb2>
 80090de:	2b16      	cmp	r3, #22
 80090e0:	d101      	bne.n	80090e6 <__sflush_r+0xb6>
 80090e2:	602f      	str	r7, [r5, #0]
 80090e4:	e7b1      	b.n	800904a <__sflush_r+0x1a>
 80090e6:	89a3      	ldrh	r3, [r4, #12]
 80090e8:	f043 0340 	orr.w	r3, r3, #64	; 0x40
 80090ec:	81a3      	strh	r3, [r4, #12]
 80090ee:	e7ad      	b.n	800904c <__sflush_r+0x1c>
 80090f0:	690f      	ldr	r7, [r1, #16]
 80090f2:	2f00      	cmp	r7, #0
 80090f4:	d0a9      	beq.n	800904a <__sflush_r+0x1a>
 80090f6:	0793      	lsls	r3, r2, #30
 80090f8:	680e      	ldr	r6, [r1, #0]
 80090fa:	bf08      	it	eq
 80090fc:	694b      	ldreq	r3, [r1, #20]
 80090fe:	600f      	str	r7, [r1, #0]
 8009100:	bf18      	it	ne
 8009102:	2300      	movne	r3, #0
 8009104:	eba6 0807 	sub.w	r8, r6, r7
 8009108:	608b      	str	r3, [r1, #8]
 800910a:	f1b8 0f00 	cmp.w	r8, #0
 800910e:	dd9c      	ble.n	800904a <__sflush_r+0x1a>
 8009110:	4643      	mov	r3, r8
 8009112:	463a      	mov	r2, r7
 8009114:	6a21      	ldr	r1, [r4, #32]
 8009116:	6aa6      	ldr	r6, [r4, #40]	; 0x28
 8009118:	4628      	mov	r0, r5
 800911a:	47b0      	blx	r6
 800911c:	2800      	cmp	r0, #0
 800911e:	dc06      	bgt.n	800912e <__sflush_r+0xfe>
 8009120:	89a3      	ldrh	r3, [r4, #12]
 8009122:	f043 0340 	orr.w	r3, r3, #64	; 0x40
 8009126:	81a3      	strh	r3, [r4, #12]
 8009128:	f04f 30ff 	mov.w	r0, #4294967295	; 0xffffffff
 800912c:	e78e      	b.n	800904c <__sflush_r+0x1c>
 800912e:	4407      	add	r7, r0
 8009130:	eba8 0800 	sub.w	r8, r8, r0
 8009134:	e7e9      	b.n	800910a <__sflush_r+0xda>
 8009136:	bf00      	nop
 8009138:	20400001 	.word	0x20400001

0800913c <_fflush_r>:
 800913c:	b538      	push	{r3, r4, r5, lr}
 800913e:	690b      	ldr	r3, [r1, #16]
 8009140:	4605      	mov	r5, r0
 8009142:	460c      	mov	r4, r1
 8009144:	b1db      	cbz	r3, 800917e <_fflush_r+0x42>
 8009146:	b118      	cbz	r0, 8009150 <_fflush_r+0x14>
 8009148:	6983      	ldr	r3, [r0, #24]
 800914a:	b90b      	cbnz	r3, 8009150 <_fflush_r+0x14>
 800914c:	f000 f860 	bl	8009210 <__sinit>
 8009150:	4b0c      	ldr	r3, [pc, #48]	; (8009184 <_fflush_r+0x48>)
 8009152:	429c      	cmp	r4, r3
 8009154:	d109      	bne.n	800916a <_fflush_r+0x2e>
 8009156:	686c      	ldr	r4, [r5, #4]
 8009158:	f9b4 300c 	ldrsh.w	r3, [r4, #12]
 800915c:	b17b      	cbz	r3, 800917e <_fflush_r+0x42>
 800915e:	4621      	mov	r1, r4
 8009160:	4628      	mov	r0, r5
 8009162:	e8bd 4038 	ldmia.w	sp!, {r3, r4, r5, lr}
 8009166:	f7ff bf63 	b.w	8009030 <__sflush_r>
 800916a:	4b07      	ldr	r3, [pc, #28]	; (8009188 <_fflush_r+0x4c>)
 800916c:	429c      	cmp	r4, r3
 800916e:	d101      	bne.n	8009174 <_fflush_r+0x38>
 8009170:	68ac      	ldr	r4, [r5, #8]
 8009172:	e7f1      	b.n	8009158 <_fflush_r+0x1c>
 8009174:	4b05      	ldr	r3, [pc, #20]	; (800918c <_fflush_r+0x50>)
 8009176:	429c      	cmp	r4, r3
 8009178:	bf08      	it	eq
 800917a:	68ec      	ldreq	r4, [r5, #12]
 800917c:	e7ec      	b.n	8009158 <_fflush_r+0x1c>
 800917e:	2000      	movs	r0, #0
 8009180:	bd38      	pop	{r3, r4, r5, pc}
 8009182:	bf00      	nop
 8009184:	080fc4d8 	.word	0x080fc4d8
 8009188:	080fc4f8 	.word	0x080fc4f8
 800918c:	080fc4b8 	.word	0x080fc4b8

08009190 <std>:
 8009190:	2300      	movs	r3, #0
 8009192:	b510      	push	{r4, lr}
 8009194:	4604      	mov	r4, r0
 8009196:	e9c0 3300 	strd	r3, r3, [r0]
 800919a:	6083      	str	r3, [r0, #8]
 800919c:	8181      	strh	r1, [r0, #12]
 800919e:	6643      	str	r3, [r0, #100]	; 0x64
 80091a0:	81c2      	strh	r2, [r0, #14]
 80091a2:	e9c0 3304 	strd	r3, r3, [r0, #16]
 80091a6:	6183      	str	r3, [r0, #24]
 80091a8:	4619      	mov	r1, r3
 80091aa:	2208      	movs	r2, #8
 80091ac:	305c      	adds	r0, #92	; 0x5c
 80091ae:	f7ff fa56 	bl	800865e <memset>
 80091b2:	4b05      	ldr	r3, [pc, #20]	; (80091c8 <std+0x38>)
 80091b4:	6263      	str	r3, [r4, #36]	; 0x24
 80091b6:	4b05      	ldr	r3, [pc, #20]	; (80091cc <std+0x3c>)
 80091b8:	62a3      	str	r3, [r4, #40]	; 0x28
 80091ba:	4b05      	ldr	r3, [pc, #20]	; (80091d0 <std+0x40>)
 80091bc:	62e3      	str	r3, [r4, #44]	; 0x2c
 80091be:	4b05      	ldr	r3, [pc, #20]	; (80091d4 <std+0x44>)
 80091c0:	6224      	str	r4, [r4, #32]
 80091c2:	6323      	str	r3, [r4, #48]	; 0x30
 80091c4:	bd10      	pop	{r4, pc}
 80091c6:	bf00      	nop
 80091c8:	08009415 	.word	0x08009415
 80091cc:	08009437 	.word	0x08009437
 80091d0:	0800946f 	.word	0x0800946f
 80091d4:	08009493 	.word	0x08009493

080091d8 <_cleanup_r>:
 80091d8:	4901      	ldr	r1, [pc, #4]	; (80091e0 <_cleanup_r+0x8>)
 80091da:	f000 b885 	b.w	80092e8 <_fwalk_reent>
 80091de:	bf00      	nop
 80091e0:	0800913d 	.word	0x0800913d

080091e4 <__sfmoreglue>:
 80091e4:	b570      	push	{r4, r5, r6, lr}
 80091e6:	1e4a      	subs	r2, r1, #1
 80091e8:	2568      	movs	r5, #104	; 0x68
 80091ea:	4355      	muls	r5, r2
 80091ec:	460e      	mov	r6, r1
 80091ee:	f105 0174 	add.w	r1, r5, #116	; 0x74
 80091f2:	f7ff fa8b 	bl	800870c <_malloc_r>
 80091f6:	4604      	mov	r4, r0
 80091f8:	b140      	cbz	r0, 800920c <__sfmoreglue+0x28>
 80091fa:	2100      	movs	r1, #0
 80091fc:	e9c0 1600 	strd	r1, r6, [r0]
 8009200:	300c      	adds	r0, #12
 8009202:	60a0      	str	r0, [r4, #8]
 8009204:	f105 0268 	add.w	r2, r5, #104	; 0x68
 8009208:	f7ff fa29 	bl	800865e <memset>
 800920c:	4620      	mov	r0, r4
 800920e:	bd70      	pop	{r4, r5, r6, pc}

08009210 <__sinit>:
 8009210:	6983      	ldr	r3, [r0, #24]
 8009212:	b510      	push	{r4, lr}
 8009214:	4604      	mov	r4, r0
 8009216:	bb33      	cbnz	r3, 8009266 <__sinit+0x56>
 8009218:	e9c0 3312 	strd	r3, r3, [r0, #72]	; 0x48
 800921c:	6503      	str	r3, [r0, #80]	; 0x50
 800921e:	4b12      	ldr	r3, [pc, #72]	; (8009268 <__sinit+0x58>)
 8009220:	4a12      	ldr	r2, [pc, #72]	; (800926c <__sinit+0x5c>)
 8009222:	681b      	ldr	r3, [r3, #0]
 8009224:	6282      	str	r2, [r0, #40]	; 0x28
 8009226:	4298      	cmp	r0, r3
 8009228:	bf04      	itt	eq
 800922a:	2301      	moveq	r3, #1
 800922c:	6183      	streq	r3, [r0, #24]
 800922e:	f000 f81f 	bl	8009270 <__sfp>
 8009232:	6060      	str	r0, [r4, #4]
 8009234:	4620      	mov	r0, r4
 8009236:	f000 f81b 	bl	8009270 <__sfp>
 800923a:	60a0      	str	r0, [r4, #8]
 800923c:	4620      	mov	r0, r4
 800923e:	f000 f817 	bl	8009270 <__sfp>
 8009242:	2200      	movs	r2, #0
 8009244:	60e0      	str	r0, [r4, #12]
 8009246:	2104      	movs	r1, #4
 8009248:	6860      	ldr	r0, [r4, #4]
 800924a:	f7ff ffa1 	bl	8009190 <std>
 800924e:	2201      	movs	r2, #1
 8009250:	2109      	movs	r1, #9
 8009252:	68a0      	ldr	r0, [r4, #8]
 8009254:	f7ff ff9c 	bl	8009190 <std>
 8009258:	2202      	movs	r2, #2
 800925a:	2112      	movs	r1, #18
 800925c:	68e0      	ldr	r0, [r4, #12]
 800925e:	f7ff ff97 	bl	8009190 <std>
 8009262:	2301      	movs	r3, #1
 8009264:	61a3      	str	r3, [r4, #24]
 8009266:	bd10      	pop	{r4, pc}
 8009268:	080fc480 	.word	0x080fc480
 800926c:	080091d9 	.word	0x080091d9

08009270 <__sfp>:
 8009270:	b5f8      	push	{r3, r4, r5, r6, r7, lr}
 8009272:	4b1b      	ldr	r3, [pc, #108]	; (80092e0 <__sfp+0x70>)
 8009274:	681e      	ldr	r6, [r3, #0]
 8009276:	69b3      	ldr	r3, [r6, #24]
 8009278:	4607      	mov	r7, r0
 800927a:	b913      	cbnz	r3, 8009282 <__sfp+0x12>
 800927c:	4630      	mov	r0, r6
 800927e:	f7ff ffc7 	bl	8009210 <__sinit>
 8009282:	3648      	adds	r6, #72	; 0x48
 8009284:	e9d6 3401 	ldrd	r3, r4, [r6, #4]
 8009288:	3b01      	subs	r3, #1
 800928a:	d503      	bpl.n	8009294 <__sfp+0x24>
 800928c:	6833      	ldr	r3, [r6, #0]
 800928e:	b133      	cbz	r3, 800929e <__sfp+0x2e>
 8009290:	6836      	ldr	r6, [r6, #0]
 8009292:	e7f7      	b.n	8009284 <__sfp+0x14>
 8009294:	f9b4 500c 	ldrsh.w	r5, [r4, #12]
 8009298:	b16d      	cbz	r5, 80092b6 <__sfp+0x46>
 800929a:	3468      	adds	r4, #104	; 0x68
 800929c:	e7f4      	b.n	8009288 <__sfp+0x18>
 800929e:	2104      	movs	r1, #4
 80092a0:	4638      	mov	r0, r7
 80092a2:	f7ff ff9f 	bl	80091e4 <__sfmoreglue>
 80092a6:	6030      	str	r0, [r6, #0]
 80092a8:	2800      	cmp	r0, #0
 80092aa:	d1f1      	bne.n	8009290 <__sfp+0x20>
 80092ac:	230c      	movs	r3, #12
 80092ae:	603b      	str	r3, [r7, #0]
 80092b0:	4604      	mov	r4, r0
 80092b2:	4620      	mov	r0, r4
 80092b4:	bdf8      	pop	{r3, r4, r5, r6, r7, pc}
 80092b6:	4b0b      	ldr	r3, [pc, #44]	; (80092e4 <__sfp+0x74>)
 80092b8:	6665      	str	r5, [r4, #100]	; 0x64
 80092ba:	e9c4 5500 	strd	r5, r5, [r4]
 80092be:	60a5      	str	r5, [r4, #8]
 80092c0:	e9c4 3503 	strd	r3, r5, [r4, #12]
 80092c4:	e9c4 5505 	strd	r5, r5, [r4, #20]
 80092c8:	2208      	movs	r2, #8
 80092ca:	4629      	mov	r1, r5
 80092cc:	f104 005c 	add.w	r0, r4, #92	; 0x5c
 80092d0:	f7ff f9c5 	bl	800865e <memset>
 80092d4:	e9c4 550d 	strd	r5, r5, [r4, #52]	; 0x34
 80092d8:	e9c4 5512 	strd	r5, r5, [r4, #72]	; 0x48
 80092dc:	e7e9      	b.n	80092b2 <__sfp+0x42>
 80092de:	bf00      	nop
 80092e0:	080fc480 	.word	0x080fc480
 80092e4:	ffff0001 	.word	0xffff0001

080092e8 <_fwalk_reent>:
 80092e8:	e92d 43f8 	stmdb	sp!, {r3, r4, r5, r6, r7, r8, r9, lr}
 80092ec:	4680      	mov	r8, r0
 80092ee:	4689      	mov	r9, r1
 80092f0:	f100 0448 	add.w	r4, r0, #72	; 0x48
 80092f4:	2600      	movs	r6, #0
 80092f6:	b914      	cbnz	r4, 80092fe <_fwalk_reent+0x16>
 80092f8:	4630      	mov	r0, r6
 80092fa:	e8bd 83f8 	ldmia.w	sp!, {r3, r4, r5, r6, r7, r8, r9, pc}
 80092fe:	e9d4 7501 	ldrd	r7, r5, [r4, #4]
 8009302:	3f01      	subs	r7, #1
 8009304:	d501      	bpl.n	800930a <_fwalk_reent+0x22>
 8009306:	6824      	ldr	r4, [r4, #0]
 8009308:	e7f5      	b.n	80092f6 <_fwalk_reent+0xe>
 800930a:	89ab      	ldrh	r3, [r5, #12]
 800930c:	2b01      	cmp	r3, #1
 800930e:	d907      	bls.n	8009320 <_fwalk_reent+0x38>
 8009310:	f9b5 300e 	ldrsh.w	r3, [r5, #14]
 8009314:	3301      	adds	r3, #1
 8009316:	d003      	beq.n	8009320 <_fwalk_reent+0x38>
 8009318:	4629      	mov	r1, r5
 800931a:	4640      	mov	r0, r8
 800931c:	47c8      	blx	r9
 800931e:	4306      	orrs	r6, r0
 8009320:	3568      	adds	r5, #104	; 0x68
 8009322:	e7ee      	b.n	8009302 <_fwalk_reent+0x1a>

08009324 <_gettimeofday_r>:
 8009324:	b538      	push	{r3, r4, r5, lr}
 8009326:	4c07      	ldr	r4, [pc, #28]	; (8009344 <_gettimeofday_r+0x20>)
 8009328:	2300      	movs	r3, #0
 800932a:	4605      	mov	r5, r0
 800932c:	4608      	mov	r0, r1
 800932e:	4611      	mov	r1, r2
 8009330:	6023      	str	r3, [r4, #0]
 8009332:	f7fc fe0f 	bl	8005f54 <_gettimeofday>
 8009336:	1c43      	adds	r3, r0, #1
 8009338:	d102      	bne.n	8009340 <_gettimeofday_r+0x1c>
 800933a:	6823      	ldr	r3, [r4, #0]
 800933c:	b103      	cbz	r3, 8009340 <_gettimeofday_r+0x1c>
 800933e:	602b      	str	r3, [r5, #0]
 8009340:	bd38      	pop	{r3, r4, r5, pc}
 8009342:	bf00      	nop
 8009344:	2000def0 	.word	0x2000def0

08009348 <__swhatbuf_r>:
 8009348:	b570      	push	{r4, r5, r6, lr}
 800934a:	460e      	mov	r6, r1
 800934c:	f9b1 100e 	ldrsh.w	r1, [r1, #14]
 8009350:	2900      	cmp	r1, #0
 8009352:	b096      	sub	sp, #88	; 0x58
 8009354:	4614      	mov	r4, r2
 8009356:	461d      	mov	r5, r3
 8009358:	da07      	bge.n	800936a <__swhatbuf_r+0x22>
 800935a:	2300      	movs	r3, #0
 800935c:	602b      	str	r3, [r5, #0]
 800935e:	89b3      	ldrh	r3, [r6, #12]
 8009360:	061a      	lsls	r2, r3, #24
 8009362:	d410      	bmi.n	8009386 <__swhatbuf_r+0x3e>
 8009364:	f44f 6380 	mov.w	r3, #1024	; 0x400
 8009368:	e00e      	b.n	8009388 <__swhatbuf_r+0x40>
 800936a:	466a      	mov	r2, sp
 800936c:	f000 f8b8 	bl	80094e0 <_fstat_r>
 8009370:	2800      	cmp	r0, #0
 8009372:	dbf2      	blt.n	800935a <__swhatbuf_r+0x12>
 8009374:	9a01      	ldr	r2, [sp, #4]
 8009376:	f402 4270 	and.w	r2, r2, #61440	; 0xf000
 800937a:	f5a2 5300 	sub.w	r3, r2, #8192	; 0x2000
 800937e:	425a      	negs	r2, r3
 8009380:	415a      	adcs	r2, r3
 8009382:	602a      	str	r2, [r5, #0]
 8009384:	e7ee      	b.n	8009364 <__swhatbuf_r+0x1c>
 8009386:	2340      	movs	r3, #64	; 0x40
 8009388:	2000      	movs	r0, #0
 800938a:	6023      	str	r3, [r4, #0]
 800938c:	b016      	add	sp, #88	; 0x58
 800938e:	bd70      	pop	{r4, r5, r6, pc}

08009390 <__smakebuf_r>:
 8009390:	898b      	ldrh	r3, [r1, #12]
 8009392:	b573      	push	{r0, r1, r4, r5, r6, lr}
 8009394:	079d      	lsls	r5, r3, #30
 8009396:	4606      	mov	r6, r0
 8009398:	460c      	mov	r4, r1
 800939a:	d507      	bpl.n	80093ac <__smakebuf_r+0x1c>
 800939c:	f104 0347 	add.w	r3, r4, #71	; 0x47
 80093a0:	6023      	str	r3, [r4, #0]
 80093a2:	6123      	str	r3, [r4, #16]
 80093a4:	2301      	movs	r3, #1
 80093a6:	6163      	str	r3, [r4, #20]
 80093a8:	b002      	add	sp, #8
 80093aa:	bd70      	pop	{r4, r5, r6, pc}
 80093ac:	ab01      	add	r3, sp, #4
 80093ae:	466a      	mov	r2, sp
 80093b0:	f7ff ffca 	bl	8009348 <__swhatbuf_r>
 80093b4:	9900      	ldr	r1, [sp, #0]
 80093b6:	4605      	mov	r5, r0
 80093b8:	4630      	mov	r0, r6
 80093ba:	f7ff f9a7 	bl	800870c <_malloc_r>
 80093be:	b948      	cbnz	r0, 80093d4 <__smakebuf_r+0x44>
 80093c0:	f9b4 300c 	ldrsh.w	r3, [r4, #12]
 80093c4:	059a      	lsls	r2, r3, #22
 80093c6:	d4ef      	bmi.n	80093a8 <__smakebuf_r+0x18>
 80093c8:	f023 0303 	bic.w	r3, r3, #3
 80093cc:	f043 0302 	orr.w	r3, r3, #2
 80093d0:	81a3      	strh	r3, [r4, #12]
 80093d2:	e7e3      	b.n	800939c <__smakebuf_r+0xc>
 80093d4:	4b0d      	ldr	r3, [pc, #52]	; (800940c <__smakebuf_r+0x7c>)
 80093d6:	62b3      	str	r3, [r6, #40]	; 0x28
 80093d8:	89a3      	ldrh	r3, [r4, #12]
 80093da:	6020      	str	r0, [r4, #0]
 80093dc:	f043 0380 	orr.w	r3, r3, #128	; 0x80
 80093e0:	81a3      	strh	r3, [r4, #12]
 80093e2:	9b00      	ldr	r3, [sp, #0]
 80093e4:	6163      	str	r3, [r4, #20]
 80093e6:	9b01      	ldr	r3, [sp, #4]
 80093e8:	6120      	str	r0, [r4, #16]
 80093ea:	b15b      	cbz	r3, 8009404 <__smakebuf_r+0x74>
 80093ec:	f9b4 100e 	ldrsh.w	r1, [r4, #14]
 80093f0:	4630      	mov	r0, r6
 80093f2:	f000 f887 	bl	8009504 <_isatty_r>
 80093f6:	b128      	cbz	r0, 8009404 <__smakebuf_r+0x74>
 80093f8:	89a3      	ldrh	r3, [r4, #12]
 80093fa:	f023 0303 	bic.w	r3, r3, #3
 80093fe:	f043 0301 	orr.w	r3, r3, #1
 8009402:	81a3      	strh	r3, [r4, #12]
 8009404:	89a3      	ldrh	r3, [r4, #12]
 8009406:	431d      	orrs	r5, r3
 8009408:	81a5      	strh	r5, [r4, #12]
 800940a:	e7cd      	b.n	80093a8 <__smakebuf_r+0x18>
 800940c:	080091d9 	.word	0x080091d9

08009410 <__malloc_lock>:
 8009410:	4770      	bx	lr

08009412 <__malloc_unlock>:
 8009412:	4770      	bx	lr

08009414 <__sread>:
 8009414:	b510      	push	{r4, lr}
 8009416:	460c      	mov	r4, r1
 8009418:	f9b1 100e 	ldrsh.w	r1, [r1, #14]
 800941c:	f000 f894 	bl	8009548 <_read_r>
 8009420:	2800      	cmp	r0, #0
 8009422:	bfab      	itete	ge
 8009424:	6d63      	ldrge	r3, [r4, #84]	; 0x54
 8009426:	89a3      	ldrhlt	r3, [r4, #12]
 8009428:	181b      	addge	r3, r3, r0
 800942a:	f423 5380 	biclt.w	r3, r3, #4096	; 0x1000
 800942e:	bfac      	ite	ge
 8009430:	6563      	strge	r3, [r4, #84]	; 0x54
 8009432:	81a3      	strhlt	r3, [r4, #12]
 8009434:	bd10      	pop	{r4, pc}

08009436 <__swrite>:
 8009436:	e92d 41f0 	stmdb	sp!, {r4, r5, r6, r7, r8, lr}
 800943a:	461f      	mov	r7, r3
 800943c:	898b      	ldrh	r3, [r1, #12]
 800943e:	05db      	lsls	r3, r3, #23
 8009440:	4605      	mov	r5, r0
 8009442:	460c      	mov	r4, r1
 8009444:	4616      	mov	r6, r2
 8009446:	d505      	bpl.n	8009454 <__swrite+0x1e>
 8009448:	2302      	movs	r3, #2
 800944a:	2200      	movs	r2, #0
 800944c:	f9b1 100e 	ldrsh.w	r1, [r1, #14]
 8009450:	f000 f868 	bl	8009524 <_lseek_r>
 8009454:	89a3      	ldrh	r3, [r4, #12]
 8009456:	f9b4 100e 	ldrsh.w	r1, [r4, #14]
 800945a:	f423 5380 	bic.w	r3, r3, #4096	; 0x1000
 800945e:	81a3      	strh	r3, [r4, #12]
 8009460:	4632      	mov	r2, r6
 8009462:	463b      	mov	r3, r7
 8009464:	4628      	mov	r0, r5
 8009466:	e8bd 41f0 	ldmia.w	sp!, {r4, r5, r6, r7, r8, lr}
 800946a:	f000 b817 	b.w	800949c <_write_r>

0800946e <__sseek>:
 800946e:	b510      	push	{r4, lr}
 8009470:	460c      	mov	r4, r1
 8009472:	f9b1 100e 	ldrsh.w	r1, [r1, #14]
 8009476:	f000 f855 	bl	8009524 <_lseek_r>
 800947a:	1c43      	adds	r3, r0, #1
 800947c:	89a3      	ldrh	r3, [r4, #12]
 800947e:	bf15      	itete	ne
 8009480:	6560      	strne	r0, [r4, #84]	; 0x54
 8009482:	f423 5380 	biceq.w	r3, r3, #4096	; 0x1000
 8009486:	f443 5380 	orrne.w	r3, r3, #4096	; 0x1000
 800948a:	81a3      	strheq	r3, [r4, #12]
 800948c:	bf18      	it	ne
 800948e:	81a3      	strhne	r3, [r4, #12]
 8009490:	bd10      	pop	{r4, pc}

08009492 <__sclose>:
 8009492:	f9b1 100e 	ldrsh.w	r1, [r1, #14]
 8009496:	f000 b813 	b.w	80094c0 <_close_r>
	...

0800949c <_write_r>:
 800949c:	b538      	push	{r3, r4, r5, lr}
 800949e:	4c07      	ldr	r4, [pc, #28]	; (80094bc <_write_r+0x20>)
 80094a0:	4605      	mov	r5, r0
 80094a2:	4608      	mov	r0, r1
 80094a4:	4611      	mov	r1, r2
 80094a6:	2200      	movs	r2, #0
 80094a8:	6022      	str	r2, [r4, #0]
 80094aa:	461a      	mov	r2, r3
 80094ac:	f7fc fd58 	bl	8005f60 <_write>
 80094b0:	1c43      	adds	r3, r0, #1
 80094b2:	d102      	bne.n	80094ba <_write_r+0x1e>
 80094b4:	6823      	ldr	r3, [r4, #0]
 80094b6:	b103      	cbz	r3, 80094ba <_write_r+0x1e>
 80094b8:	602b      	str	r3, [r5, #0]
 80094ba:	bd38      	pop	{r3, r4, r5, pc}
 80094bc:	2000def0 	.word	0x2000def0

080094c0 <_close_r>:
 80094c0:	b538      	push	{r3, r4, r5, lr}
 80094c2:	4c06      	ldr	r4, [pc, #24]	; (80094dc <_close_r+0x1c>)
 80094c4:	2300      	movs	r3, #0
 80094c6:	4605      	mov	r5, r0
 80094c8:	4608      	mov	r0, r1
 80094ca:	6023      	str	r3, [r4, #0]
 80094cc:	f7fc fd56 	bl	8005f7c <_close>
 80094d0:	1c43      	adds	r3, r0, #1
 80094d2:	d102      	bne.n	80094da <_close_r+0x1a>
 80094d4:	6823      	ldr	r3, [r4, #0]
 80094d6:	b103      	cbz	r3, 80094da <_close_r+0x1a>
 80094d8:	602b      	str	r3, [r5, #0]
 80094da:	bd38      	pop	{r3, r4, r5, pc}
 80094dc:	2000def0 	.word	0x2000def0

080094e0 <_fstat_r>:
 80094e0:	b538      	push	{r3, r4, r5, lr}
 80094e2:	4c07      	ldr	r4, [pc, #28]	; (8009500 <_fstat_r+0x20>)
 80094e4:	2300      	movs	r3, #0
 80094e6:	4605      	mov	r5, r0
 80094e8:	4608      	mov	r0, r1
 80094ea:	4611      	mov	r1, r2
 80094ec:	6023      	str	r3, [r4, #0]
 80094ee:	f7fc fd49 	bl	8005f84 <_fstat>
 80094f2:	1c43      	adds	r3, r0, #1
 80094f4:	d102      	bne.n	80094fc <_fstat_r+0x1c>
 80094f6:	6823      	ldr	r3, [r4, #0]
 80094f8:	b103      	cbz	r3, 80094fc <_fstat_r+0x1c>
 80094fa:	602b      	str	r3, [r5, #0]
 80094fc:	bd38      	pop	{r3, r4, r5, pc}
 80094fe:	bf00      	nop
 8009500:	2000def0 	.word	0x2000def0

08009504 <_isatty_r>:
 8009504:	b538      	push	{r3, r4, r5, lr}
 8009506:	4c06      	ldr	r4, [pc, #24]	; (8009520 <_isatty_r+0x1c>)
 8009508:	2300      	movs	r3, #0
 800950a:	4605      	mov	r5, r0
 800950c:	4608      	mov	r0, r1
 800950e:	6023      	str	r3, [r4, #0]
 8009510:	f7fc fd3e 	bl	8005f90 <_isatty>
 8009514:	1c43      	adds	r3, r0, #1
 8009516:	d102      	bne.n	800951e <_isatty_r+0x1a>
 8009518:	6823      	ldr	r3, [r4, #0]
 800951a:	b103      	cbz	r3, 800951e <_isatty_r+0x1a>
 800951c:	602b      	str	r3, [r5, #0]
 800951e:	bd38      	pop	{r3, r4, r5, pc}
 8009520:	2000def0 	.word	0x2000def0

08009524 <_lseek_r>:
 8009524:	b538      	push	{r3, r4, r5, lr}
 8009526:	4c07      	ldr	r4, [pc, #28]	; (8009544 <_lseek_r+0x20>)
 8009528:	4605      	mov	r5, r0
 800952a:	4608      	mov	r0, r1
 800952c:	4611      	mov	r1, r2
 800952e:	2200      	movs	r2, #0
 8009530:	6022      	str	r2, [r4, #0]
 8009532:	461a      	mov	r2, r3
 8009534:	f7fc fd2e 	bl	8005f94 <_lseek>
 8009538:	1c43      	adds	r3, r0, #1
 800953a:	d102      	bne.n	8009542 <_lseek_r+0x1e>
 800953c:	6823      	ldr	r3, [r4, #0]
 800953e:	b103      	cbz	r3, 8009542 <_lseek_r+0x1e>
 8009540:	602b      	str	r3, [r5, #0]
 8009542:	bd38      	pop	{r3, r4, r5, pc}
 8009544:	2000def0 	.word	0x2000def0

08009548 <_read_r>:
 8009548:	b538      	push	{r3, r4, r5, lr}
 800954a:	4c07      	ldr	r4, [pc, #28]	; (8009568 <_read_r+0x20>)
 800954c:	4605      	mov	r5, r0
 800954e:	4608      	mov	r0, r1
 8009550:	4611      	mov	r1, r2
 8009552:	2200      	movs	r2, #0
 8009554:	6022      	str	r2, [r4, #0]
 8009556:	461a      	mov	r2, r3
 8009558:	f7fc fd1e 	bl	8005f98 <_read>
 800955c:	1c43      	adds	r3, r0, #1
 800955e:	d102      	bne.n	8009566 <_read_r+0x1e>
 8009560:	6823      	ldr	r3, [r4, #0]
 8009562:	b103      	cbz	r3, 8009566 <_read_r+0x1e>
 8009564:	602b      	str	r3, [r5, #0]
 8009566:	bd38      	pop	{r3, r4, r5, pc}
 8009568:	2000def0 	.word	0x2000def0

0800956c <_init>:
 800956c:	b5f8      	push	{r3, r4, r5, r6, r7, lr}
 800956e:	bf00      	nop
 8009570:	bcf8      	pop	{r3, r4, r5, r6, r7}
 8009572:	bc08      	pop	{r3}
 8009574:	469e      	mov	lr, r3
 8009576:	4770      	bx	lr

08009578 <_fini>:
 8009578:	b5f8      	push	{r3, r4, r5, r6, r7, lr}
 800957a:	bf00      	nop
 800957c:	bcf8      	pop	{r3, r4, r5, r6, r7}
 800957e:	bc08      	pop	{r3}
 8009580:	469e      	mov	lr, r3
 8009582:	4770      	bx	lr
