
stm32f469i-disco-demo.elf:     file format elf32-littlearm

Sections:
Idx Name          Size      VMA       LMA       File off  Algn
  0 .isr_vector   000001b0  08000000  08000000  00010000  2**0
                  CONTENTS, ALLOC, LOAD, READONLY, DATA
  1 .text         0000af64  080001b0  080001b0  000101b0  2**4
                  CONTENTS, ALLOC, LOAD, READONLY, CODE
  2 .rodata       000f2dd4  0800b114  0800b114  0001b114  2**2
                  CONTENTS, ALLOC, LOAD, READONLY, DATA
  3 .ARM.extab    00000000  080fdee8  080fdee8  00110554  2**0
                  CONTENTS
  4 .ARM          00000008  080fdee8  080fdee8  0010dee8  2**2
                  CONTENTS, ALLOC, LOAD, READONLY, DATA
  5 .preinit_array 00000000  080fdef0  080fdef0  00110554  2**0
                  CONTENTS, ALLOC, LOAD, DATA
  6 .init_array   00000004  080fdef0  080fdef0  0010def0  2**2
                  CONTENTS, ALLOC, LOAD, DATA
  7 .fini_array   00000004  080fdef4  080fdef4  0010def4  2**2
                  CONTENTS, ALLOC, LOAD, DATA
  8 .data         00000554  20000000  080fdef8  00110000  2**2
                  CONTENTS, ALLOC, LOAD, DATA
  9 .bss          00005cf4  20000560  080fe44c  00110560  2**4
                  ALLOC
 10 ._user_heap_stack 00000604  20006254  080fe44c  00116254  2**0
                  ALLOC
 11 .ARM.attributes 00000030  00000000  00000000  00110554  2**0
                  CONTENTS, READONLY
 12 .comment      000000fa  00000000  00000000  00110584  2**0
                  CONTENTS, READONLY
 13 .debug_frame  00000ca8  00000000  00000000  00110680  2**2
                  CONTENTS, READONLY, DEBUGGING
 14 .stab         00000024  00000000  00000000  00111328  2**2
                  CONTENTS, READONLY, DEBUGGING
 15 .stabstr      0000004e  00000000  00000000  0011134c  2**0
                  CONTENTS, READONLY, DEBUGGING

Disassembly of section .text:

080001b0 <__do_global_dtors_aux>:
 80001b0:	b510      	push	{r4, lr}
 80001b2:	4c05      	ldr	r4, [pc, #20]	; (80001c8 <__do_global_dtors_aux+0x18>)
 80001b4:	7823      	ldrb	r3, [r4, #0]
 80001b6:	b933      	cbnz	r3, 80001c6 <__do_global_dtors_aux+0x16>
 80001b8:	4b04      	ldr	r3, [pc, #16]	; (80001cc <__do_global_dtors_aux+0x1c>)
 80001ba:	b113      	cbz	r3, 80001c2 <__do_global_dtors_aux+0x12>
 80001bc:	4804      	ldr	r0, [pc, #16]	; (80001d0 <__do_global_dtors_aux+0x20>)
 80001be:	f3af 8000 	nop.w
 80001c2:	2301      	movs	r3, #1
 80001c4:	7023      	strb	r3, [r4, #0]
 80001c6:	bd10      	pop	{r4, pc}
 80001c8:	20000560 	.word	0x20000560
 80001cc:	00000000 	.word	0x00000000
 80001d0:	0800b0fc 	.word	0x0800b0fc

080001d4 <frame_dummy>:
 80001d4:	b508      	push	{r3, lr}
 80001d6:	4b03      	ldr	r3, [pc, #12]	; (80001e4 <frame_dummy+0x10>)
 80001d8:	b11b      	cbz	r3, 80001e2 <frame_dummy+0xe>
 80001da:	4903      	ldr	r1, [pc, #12]	; (80001e8 <frame_dummy+0x14>)
 80001dc:	4803      	ldr	r0, [pc, #12]	; (80001ec <frame_dummy+0x18>)
 80001de:	f3af 8000 	nop.w
 80001e2:	bd08      	pop	{r3, pc}
 80001e4:	00000000 	.word	0x00000000
 80001e8:	20000564 	.word	0x20000564
 80001ec:	0800b0fc 	.word	0x0800b0fc

080001f0 <memchr>:
 80001f0:	f001 01ff 	and.w	r1, r1, #255	; 0xff
 80001f4:	2a10      	cmp	r2, #16
 80001f6:	db2b      	blt.n	8000250 <memchr+0x60>
 80001f8:	f010 0f07 	tst.w	r0, #7
 80001fc:	d008      	beq.n	8000210 <memchr+0x20>
 80001fe:	f810 3b01 	ldrb.w	r3, [r0], #1
 8000202:	3a01      	subs	r2, #1
 8000204:	428b      	cmp	r3, r1
 8000206:	d02d      	beq.n	8000264 <memchr+0x74>
 8000208:	f010 0f07 	tst.w	r0, #7
 800020c:	b342      	cbz	r2, 8000260 <memchr+0x70>
 800020e:	d1f6      	bne.n	80001fe <memchr+0xe>
 8000210:	b4f0      	push	{r4, r5, r6, r7}
 8000212:	ea41 2101 	orr.w	r1, r1, r1, lsl #8
 8000216:	ea41 4101 	orr.w	r1, r1, r1, lsl #16
 800021a:	f022 0407 	bic.w	r4, r2, #7
 800021e:	f07f 0700 	mvns.w	r7, #0
 8000222:	2300      	movs	r3, #0
 8000224:	e8f0 5602 	ldrd	r5, r6, [r0], #8
 8000228:	3c08      	subs	r4, #8
 800022a:	ea85 0501 	eor.w	r5, r5, r1
 800022e:	ea86 0601 	eor.w	r6, r6, r1
 8000232:	fa85 f547 	uadd8	r5, r5, r7
 8000236:	faa3 f587 	sel	r5, r3, r7
 800023a:	fa86 f647 	uadd8	r6, r6, r7
 800023e:	faa5 f687 	sel	r6, r5, r7
 8000242:	b98e      	cbnz	r6, 8000268 <memchr+0x78>
 8000244:	d1ee      	bne.n	8000224 <memchr+0x34>
 8000246:	bcf0      	pop	{r4, r5, r6, r7}
 8000248:	f001 01ff 	and.w	r1, r1, #255	; 0xff
 800024c:	f002 0207 	and.w	r2, r2, #7
 8000250:	b132      	cbz	r2, 8000260 <memchr+0x70>
 8000252:	f810 3b01 	ldrb.w	r3, [r0], #1
 8000256:	3a01      	subs	r2, #1
 8000258:	ea83 0301 	eor.w	r3, r3, r1
 800025c:	b113      	cbz	r3, 8000264 <memchr+0x74>
 800025e:	d1f8      	bne.n	8000252 <memchr+0x62>
 8000260:	2000      	movs	r0, #0
 8000262:	4770      	bx	lr
 8000264:	3801      	subs	r0, #1
 8000266:	4770      	bx	lr
 8000268:	2d00      	cmp	r5, #0
 800026a:	bf06      	itte	eq
 800026c:	4635      	moveq	r5, r6
 800026e:	3803      	subeq	r0, #3
 8000270:	3807      	subne	r0, #7
 8000272:	f015 0f01 	tst.w	r5, #1
 8000276:	d107      	bne.n	8000288 <memchr+0x98>
 8000278:	3001      	adds	r0, #1
 800027a:	f415 7f80 	tst.w	r5, #256	; 0x100
 800027e:	bf02      	ittt	eq
 8000280:	3001      	addeq	r0, #1
 8000282:	f415 3fc0 	tsteq.w	r5, #98304	; 0x18000
 8000286:	3001      	addeq	r0, #1
 8000288:	bcf0      	pop	{r4, r5, r6, r7}
 800028a:	3801      	subs	r0, #1
 800028c:	4770      	bx	lr
 800028e:	bf00      	nop

08000290 <__aeabi_drsub>:
 8000290:	f081 4100 	eor.w	r1, r1, #2147483648	; 0x80000000
 8000294:	e002      	b.n	800029c <__adddf3>
 8000296:	bf00      	nop

08000298 <__aeabi_dsub>:
 8000298:	f083 4300 	eor.w	r3, r3, #2147483648	; 0x80000000

0800029c <__adddf3>:
 800029c:	b530      	push	{r4, r5, lr}
 800029e:	ea4f 0441 	mov.w	r4, r1, lsl #1
 80002a2:	ea4f 0543 	mov.w	r5, r3, lsl #1
 80002a6:	ea94 0f05 	teq	r4, r5
 80002aa:	bf08      	it	eq
 80002ac:	ea90 0f02 	teqeq	r0, r2
 80002b0:	bf1f      	itttt	ne
 80002b2:	ea54 0c00 	orrsne.w	ip, r4, r0
 80002b6:	ea55 0c02 	orrsne.w	ip, r5, r2
 80002ba:	ea7f 5c64 	mvnsne.w	ip, r4, asr #21
 80002be:	ea7f 5c65 	mvnsne.w	ip, r5, asr #21
 80002c2:	f000 80e2 	beq.w	800048a <__adddf3+0x1ee>
 80002c6:	ea4f 5454 	mov.w	r4, r4, lsr #21
 80002ca:	ebd4 5555 	rsbs	r5, r4, r5, lsr #21
 80002ce:	bfb8      	it	lt
 80002d0:	426d      	neglt	r5, r5
 80002d2:	dd0c      	ble.n	80002ee <__adddf3+0x52>
 80002d4:	442c      	add	r4, r5
 80002d6:	ea80 0202 	eor.w	r2, r0, r2
 80002da:	ea81 0303 	eor.w	r3, r1, r3
 80002de:	ea82 0000 	eor.w	r0, r2, r0
 80002e2:	ea83 0101 	eor.w	r1, r3, r1
 80002e6:	ea80 0202 	eor.w	r2, r0, r2
 80002ea:	ea81 0303 	eor.w	r3, r1, r3
 80002ee:	2d36      	cmp	r5, #54	; 0x36
 80002f0:	bf88      	it	hi
 80002f2:	bd30      	pophi	{r4, r5, pc}
 80002f4:	f011 4f00 	tst.w	r1, #2147483648	; 0x80000000
 80002f8:	ea4f 3101 	mov.w	r1, r1, lsl #12
 80002fc:	f44f 1c80 	mov.w	ip, #1048576	; 0x100000
 8000300:	ea4c 3111 	orr.w	r1, ip, r1, lsr #12
 8000304:	d002      	beq.n	800030c <__adddf3+0x70>
 8000306:	4240      	negs	r0, r0
 8000308:	eb61 0141 	sbc.w	r1, r1, r1, lsl #1
 800030c:	f013 4f00 	tst.w	r3, #2147483648	; 0x80000000
 8000310:	ea4f 3303 	mov.w	r3, r3, lsl #12
 8000314:	ea4c 3313 	orr.w	r3, ip, r3, lsr #12
 8000318:	d002      	beq.n	8000320 <__adddf3+0x84>
 800031a:	4252      	negs	r2, r2
 800031c:	eb63 0343 	sbc.w	r3, r3, r3, lsl #1
 8000320:	ea94 0f05 	teq	r4, r5
 8000324:	f000 80a7 	beq.w	8000476 <__adddf3+0x1da>
 8000328:	f1a4 0401 	sub.w	r4, r4, #1
 800032c:	f1d5 0e20 	rsbs	lr, r5, #32
 8000330:	db0d      	blt.n	800034e <__adddf3+0xb2>
 8000332:	fa02 fc0e 	lsl.w	ip, r2, lr
 8000336:	fa22 f205 	lsr.w	r2, r2, r5
 800033a:	1880      	adds	r0, r0, r2
 800033c:	f141 0100 	adc.w	r1, r1, #0
 8000340:	fa03 f20e 	lsl.w	r2, r3, lr
 8000344:	1880      	adds	r0, r0, r2
 8000346:	fa43 f305 	asr.w	r3, r3, r5
 800034a:	4159      	adcs	r1, r3
 800034c:	e00e      	b.n	800036c <__adddf3+0xd0>
 800034e:	f1a5 0520 	sub.w	r5, r5, #32
 8000352:	f10e 0e20 	add.w	lr, lr, #32
 8000356:	2a01      	cmp	r2, #1
 8000358:	fa03 fc0e 	lsl.w	ip, r3, lr
 800035c:	bf28      	it	cs
 800035e:	f04c 0c02 	orrcs.w	ip, ip, #2
 8000362:	fa43 f305 	asr.w	r3, r3, r5
 8000366:	18c0      	adds	r0, r0, r3
 8000368:	eb51 71e3 	adcs.w	r1, r1, r3, asr #31
 800036c:	f001 4500 	and.w	r5, r1, #2147483648	; 0x80000000
 8000370:	d507      	bpl.n	8000382 <__adddf3+0xe6>
 8000372:	f04f 0e00 	mov.w	lr, #0
 8000376:	f1dc 0c00 	rsbs	ip, ip, #0
 800037a:	eb7e 0000 	sbcs.w	r0, lr, r0
 800037e:	eb6e 0101 	sbc.w	r1, lr, r1
 8000382:	f5b1 1f80 	cmp.w	r1, #1048576	; 0x100000
 8000386:	d31b      	bcc.n	80003c0 <__adddf3+0x124>
 8000388:	f5b1 1f00 	cmp.w	r1, #2097152	; 0x200000
 800038c:	d30c      	bcc.n	80003a8 <__adddf3+0x10c>
 800038e:	0849      	lsrs	r1, r1, #1
 8000390:	ea5f 0030 	movs.w	r0, r0, rrx
 8000394:	ea4f 0c3c 	mov.w	ip, ip, rrx
 8000398:	f104 0401 	add.w	r4, r4, #1
 800039c:	ea4f 5244 	mov.w	r2, r4, lsl #21
 80003a0:	f512 0f80 	cmn.w	r2, #4194304	; 0x400000
 80003a4:	f080 809a 	bcs.w	80004dc <__adddf3+0x240>
 80003a8:	f1bc 4f00 	cmp.w	ip, #2147483648	; 0x80000000
 80003ac:	bf08      	it	eq
 80003ae:	ea5f 0c50 	movseq.w	ip, r0, lsr #1
 80003b2:	f150 0000 	adcs.w	r0, r0, #0
 80003b6:	eb41 5104 	adc.w	r1, r1, r4, lsl #20
 80003ba:	ea41 0105 	orr.w	r1, r1, r5
 80003be:	bd30      	pop	{r4, r5, pc}
 80003c0:	ea5f 0c4c 	movs.w	ip, ip, lsl #1
 80003c4:	4140      	adcs	r0, r0
 80003c6:	eb41 0101 	adc.w	r1, r1, r1
 80003ca:	f411 1f80 	tst.w	r1, #1048576	; 0x100000
 80003ce:	f1a4 0401 	sub.w	r4, r4, #1
 80003d2:	d1e9      	bne.n	80003a8 <__adddf3+0x10c>
 80003d4:	f091 0f00 	teq	r1, #0
 80003d8:	bf04      	itt	eq
 80003da:	4601      	moveq	r1, r0
 80003dc:	2000      	moveq	r0, #0
 80003de:	fab1 f381 	clz	r3, r1
 80003e2:	bf08      	it	eq
 80003e4:	3320      	addeq	r3, #32
 80003e6:	f1a3 030b 	sub.w	r3, r3, #11
 80003ea:	f1b3 0220 	subs.w	r2, r3, #32
 80003ee:	da0c      	bge.n	800040a <__adddf3+0x16e>
 80003f0:	320c      	adds	r2, #12
 80003f2:	dd08      	ble.n	8000406 <__adddf3+0x16a>
 80003f4:	f102 0c14 	add.w	ip, r2, #20
 80003f8:	f1c2 020c 	rsb	r2, r2, #12
 80003fc:	fa01 f00c 	lsl.w	r0, r1, ip
 8000400:	fa21 f102 	lsr.w	r1, r1, r2
 8000404:	e00c      	b.n	8000420 <__adddf3+0x184>
 8000406:	f102 0214 	add.w	r2, r2, #20
 800040a:	bfd8      	it	le
 800040c:	f1c2 0c20 	rsble	ip, r2, #32
 8000410:	fa01 f102 	lsl.w	r1, r1, r2
 8000414:	fa20 fc0c 	lsr.w	ip, r0, ip
 8000418:	bfdc      	itt	le
 800041a:	ea41 010c 	orrle.w	r1, r1, ip
 800041e:	4090      	lslle	r0, r2
 8000420:	1ae4      	subs	r4, r4, r3
 8000422:	bfa2      	ittt	ge
 8000424:	eb01 5104 	addge.w	r1, r1, r4, lsl #20
 8000428:	4329      	orrge	r1, r5
 800042a:	bd30      	popge	{r4, r5, pc}
 800042c:	ea6f 0404 	mvn.w	r4, r4
 8000430:	3c1f      	subs	r4, #31
 8000432:	da1c      	bge.n	800046e <__adddf3+0x1d2>
 8000434:	340c      	adds	r4, #12
 8000436:	dc0e      	bgt.n	8000456 <__adddf3+0x1ba>
 8000438:	f104 0414 	add.w	r4, r4, #20
 800043c:	f1c4 0220 	rsb	r2, r4, #32
 8000440:	fa20 f004 	lsr.w	r0, r0, r4
 8000444:	fa01 f302 	lsl.w	r3, r1, r2
 8000448:	ea40 0003 	orr.w	r0, r0, r3
 800044c:	fa21 f304 	lsr.w	r3, r1, r4
 8000450:	ea45 0103 	orr.w	r1, r5, r3
 8000454:	bd30      	pop	{r4, r5, pc}
 8000456:	f1c4 040c 	rsb	r4, r4, #12
 800045a:	f1c4 0220 	rsb	r2, r4, #32
 800045e:	fa20 f002 	lsr.w	r0, r0, r2
 8000462:	fa01 f304 	lsl.w	r3, r1, r4
 8000466:	ea40 0003 	orr.w	r0, r0, r3
 800046a:	4629      	mov	r1, r5
 800046c:	bd30      	pop	{r4, r5, pc}
 800046e:	fa21 f004 	lsr.w	r0, r1, r4
 8000472:	4629      	mov	r1, r5
 8000474:	bd30      	pop	{r4, r5, pc}
 8000476:	f094 0f00 	teq	r4, #0
 800047a:	f483 1380 	eor.w	r3, r3, #1048576	; 0x100000
 800047e:	bf06      	itte	eq
 8000480:	f481 1180 	eoreq.w	r1, r1, #1048576	; 0x100000
 8000484:	3401      	addeq	r4, #1
 8000486:	3d01      	subne	r5, #1
 8000488:	e74e      	b.n	8000328 <__adddf3+0x8c>
 800048a:	ea7f 5c64 	mvns.w	ip, r4, asr #21
 800048e:	bf18      	it	ne
 8000490:	ea7f 5c65 	mvnsne.w	ip, r5, asr #21
 8000494:	d029      	beq.n	80004ea <__adddf3+0x24e>
 8000496:	ea94 0f05 	teq	r4, r5
 800049a:	bf08      	it	eq
 800049c:	ea90 0f02 	teqeq	r0, r2
 80004a0:	d005      	beq.n	80004ae <__adddf3+0x212>
 80004a2:	ea54 0c00 	orrs.w	ip, r4, r0
 80004a6:	bf04      	itt	eq
 80004a8:	4619      	moveq	r1, r3
 80004aa:	4610      	moveq	r0, r2
 80004ac:	bd30      	pop	{r4, r5, pc}
 80004ae:	ea91 0f03 	teq	r1, r3
 80004b2:	bf1e      	ittt	ne
 80004b4:	2100      	movne	r1, #0
 80004b6:	2000      	movne	r0, #0
 80004b8:	bd30      	popne	{r4, r5, pc}
 80004ba:	ea5f 5c54 	movs.w	ip, r4, lsr #21
 80004be:	d105      	bne.n	80004cc <__adddf3+0x230>
 80004c0:	0040      	lsls	r0, r0, #1
 80004c2:	4149      	adcs	r1, r1
 80004c4:	bf28      	it	cs
 80004c6:	f041 4100 	orrcs.w	r1, r1, #2147483648	; 0x80000000
 80004ca:	bd30      	pop	{r4, r5, pc}
 80004cc:	f514 0480 	adds.w	r4, r4, #4194304	; 0x400000
 80004d0:	bf3c      	itt	cc
 80004d2:	f501 1180 	addcc.w	r1, r1, #1048576	; 0x100000
 80004d6:	bd30      	popcc	{r4, r5, pc}
 80004d8:	f001 4500 	and.w	r5, r1, #2147483648	; 0x80000000
 80004dc:	f045 41fe 	orr.w	r1, r5, #2130706432	; 0x7f000000
 80004e0:	f441 0170 	orr.w	r1, r1, #15728640	; 0xf00000
 80004e4:	f04f 0000 	mov.w	r0, #0
 80004e8:	bd30      	pop	{r4, r5, pc}
 80004ea:	ea7f 5c64 	mvns.w	ip, r4, asr #21
 80004ee:	bf1a      	itte	ne
 80004f0:	4619      	movne	r1, r3
 80004f2:	4610      	movne	r0, r2
 80004f4:	ea7f 5c65 	mvnseq.w	ip, r5, asr #21
 80004f8:	bf1c      	itt	ne
 80004fa:	460b      	movne	r3, r1
 80004fc:	4602      	movne	r2, r0
 80004fe:	ea50 3401 	orrs.w	r4, r0, r1, lsl #12
 8000502:	bf06      	itte	eq
 8000504:	ea52 3503 	orrseq.w	r5, r2, r3, lsl #12
 8000508:	ea91 0f03 	teqeq	r1, r3
 800050c:	f441 2100 	orrne.w	r1, r1, #524288	; 0x80000
 8000510:	bd30      	pop	{r4, r5, pc}
 8000512:	bf00      	nop

08000514 <__aeabi_ui2d>:
 8000514:	f090 0f00 	teq	r0, #0
 8000518:	bf04      	itt	eq
 800051a:	2100      	moveq	r1, #0
 800051c:	4770      	bxeq	lr
 800051e:	b530      	push	{r4, r5, lr}
 8000520:	f44f 6480 	mov.w	r4, #1024	; 0x400
 8000524:	f104 0432 	add.w	r4, r4, #50	; 0x32
 8000528:	f04f 0500 	mov.w	r5, #0
 800052c:	f04f 0100 	mov.w	r1, #0
 8000530:	e750      	b.n	80003d4 <__adddf3+0x138>
 8000532:	bf00      	nop

08000534 <__aeabi_i2d>:
 8000534:	f090 0f00 	teq	r0, #0
 8000538:	bf04      	itt	eq
 800053a:	2100      	moveq	r1, #0
 800053c:	4770      	bxeq	lr
 800053e:	b530      	push	{r4, r5, lr}
 8000540:	f44f 6480 	mov.w	r4, #1024	; 0x400
 8000544:	f104 0432 	add.w	r4, r4, #50	; 0x32
 8000548:	f010 4500 	ands.w	r5, r0, #2147483648	; 0x80000000
 800054c:	bf48      	it	mi
 800054e:	4240      	negmi	r0, r0
 8000550:	f04f 0100 	mov.w	r1, #0
 8000554:	e73e      	b.n	80003d4 <__adddf3+0x138>
 8000556:	bf00      	nop

08000558 <__aeabi_f2d>:
 8000558:	0042      	lsls	r2, r0, #1
 800055a:	ea4f 01e2 	mov.w	r1, r2, asr #3
 800055e:	ea4f 0131 	mov.w	r1, r1, rrx
 8000562:	ea4f 7002 	mov.w	r0, r2, lsl #28
 8000566:	bf1f      	itttt	ne
 8000568:	f012 437f 	andsne.w	r3, r2, #4278190080	; 0xff000000
 800056c:	f093 4f7f 	teqne	r3, #4278190080	; 0xff000000
 8000570:	f081 5160 	eorne.w	r1, r1, #939524096	; 0x38000000
 8000574:	4770      	bxne	lr
 8000576:	f032 427f 	bics.w	r2, r2, #4278190080	; 0xff000000
 800057a:	bf08      	it	eq
 800057c:	4770      	bxeq	lr
 800057e:	f093 4f7f 	teq	r3, #4278190080	; 0xff000000
 8000582:	bf04      	itt	eq
 8000584:	f441 2100 	orreq.w	r1, r1, #524288	; 0x80000
 8000588:	4770      	bxeq	lr
 800058a:	b530      	push	{r4, r5, lr}
 800058c:	f44f 7460 	mov.w	r4, #896	; 0x380
 8000590:	f001 4500 	and.w	r5, r1, #2147483648	; 0x80000000
 8000594:	f021 4100 	bic.w	r1, r1, #2147483648	; 0x80000000
 8000598:	e71c      	b.n	80003d4 <__adddf3+0x138>
 800059a:	bf00      	nop

0800059c <__aeabi_ul2d>:
 800059c:	ea50 0201 	orrs.w	r2, r0, r1
 80005a0:	bf08      	it	eq
 80005a2:	4770      	bxeq	lr
 80005a4:	b530      	push	{r4, r5, lr}
 80005a6:	f04f 0500 	mov.w	r5, #0
 80005aa:	e00a      	b.n	80005c2 <__aeabi_l2d+0x16>

080005ac <__aeabi_l2d>:
 80005ac:	ea50 0201 	orrs.w	r2, r0, r1
 80005b0:	bf08      	it	eq
 80005b2:	4770      	bxeq	lr
 80005b4:	b530      	push	{r4, r5, lr}
 80005b6:	f011 4500 	ands.w	r5, r1, #2147483648	; 0x80000000
 80005ba:	d502      	bpl.n	80005c2 <__aeabi_l2d+0x16>
 80005bc:	4240      	negs	r0, r0
 80005be:	eb61 0141 	sbc.w	r1, r1, r1, lsl #1
 80005c2:	f44f 6480 	mov.w	r4, #1024	; 0x400
 80005c6:	f104 0432 	add.w	r4, r4, #50	; 0x32
 80005ca:	ea5f 5c91 	movs.w	ip, r1, lsr #22
 80005ce:	f43f aed8 	beq.w	8000382 <__adddf3+0xe6>
 80005d2:	f04f 0203 	mov.w	r2, #3
 80005d6:	ea5f 0cdc 	movs.w	ip, ip, lsr #3
 80005da:	bf18      	it	ne
 80005dc:	3203      	addne	r2, #3
 80005de:	ea5f 0cdc 	movs.w	ip, ip, lsr #3
 80005e2:	bf18      	it	ne
 80005e4:	3203      	addne	r2, #3
 80005e6:	eb02 02dc 	add.w	r2, r2, ip, lsr #3
 80005ea:	f1c2 0320 	rsb	r3, r2, #32
 80005ee:	fa00 fc03 	lsl.w	ip, r0, r3
 80005f2:	fa20 f002 	lsr.w	r0, r0, r2
 80005f6:	fa01 fe03 	lsl.w	lr, r1, r3
 80005fa:	ea40 000e 	orr.w	r0, r0, lr
 80005fe:	fa21 f102 	lsr.w	r1, r1, r2
 8000602:	4414      	add	r4, r2
 8000604:	e6bd      	b.n	8000382 <__adddf3+0xe6>
 8000606:	bf00      	nop

08000608 <__aeabi_dmul>:
 8000608:	b570      	push	{r4, r5, r6, lr}
 800060a:	f04f 0cff 	mov.w	ip, #255	; 0xff
 800060e:	f44c 6ce0 	orr.w	ip, ip, #1792	; 0x700
 8000612:	ea1c 5411 	ands.w	r4, ip, r1, lsr #20
 8000616:	bf1d      	ittte	ne
 8000618:	ea1c 5513 	andsne.w	r5, ip, r3, lsr #20
 800061c:	ea94 0f0c 	teqne	r4, ip
 8000620:	ea95 0f0c 	teqne	r5, ip
 8000624:	f000 f8de 	bleq	80007e4 <__aeabi_dmul+0x1dc>
 8000628:	442c      	add	r4, r5
 800062a:	ea81 0603 	eor.w	r6, r1, r3
 800062e:	ea21 514c 	bic.w	r1, r1, ip, lsl #21
 8000632:	ea23 534c 	bic.w	r3, r3, ip, lsl #21
 8000636:	ea50 3501 	orrs.w	r5, r0, r1, lsl #12
 800063a:	bf18      	it	ne
 800063c:	ea52 3503 	orrsne.w	r5, r2, r3, lsl #12
 8000640:	f441 1180 	orr.w	r1, r1, #1048576	; 0x100000
 8000644:	f443 1380 	orr.w	r3, r3, #1048576	; 0x100000
 8000648:	d038      	beq.n	80006bc <__aeabi_dmul+0xb4>
 800064a:	fba0 ce02 	umull	ip, lr, r0, r2
 800064e:	f04f 0500 	mov.w	r5, #0
 8000652:	fbe1 e502 	umlal	lr, r5, r1, r2
 8000656:	f006 4200 	and.w	r2, r6, #2147483648	; 0x80000000
 800065a:	fbe0 e503 	umlal	lr, r5, r0, r3
 800065e:	f04f 0600 	mov.w	r6, #0
 8000662:	fbe1 5603 	umlal	r5, r6, r1, r3
 8000666:	f09c 0f00 	teq	ip, #0
 800066a:	bf18      	it	ne
 800066c:	f04e 0e01 	orrne.w	lr, lr, #1
 8000670:	f1a4 04ff 	sub.w	r4, r4, #255	; 0xff
 8000674:	f5b6 7f00 	cmp.w	r6, #512	; 0x200
 8000678:	f564 7440 	sbc.w	r4, r4, #768	; 0x300
 800067c:	d204      	bcs.n	8000688 <__aeabi_dmul+0x80>
 800067e:	ea5f 0e4e 	movs.w	lr, lr, lsl #1
 8000682:	416d      	adcs	r5, r5
 8000684:	eb46 0606 	adc.w	r6, r6, r6
 8000688:	ea42 21c6 	orr.w	r1, r2, r6, lsl #11
 800068c:	ea41 5155 	orr.w	r1, r1, r5, lsr #21
 8000690:	ea4f 20c5 	mov.w	r0, r5, lsl #11
 8000694:	ea40 505e 	orr.w	r0, r0, lr, lsr #21
 8000698:	ea4f 2ece 	mov.w	lr, lr, lsl #11
 800069c:	f1b4 0cfd 	subs.w	ip, r4, #253	; 0xfd
 80006a0:	bf88      	it	hi
 80006a2:	f5bc 6fe0 	cmphi.w	ip, #1792	; 0x700
 80006a6:	d81e      	bhi.n	80006e6 <__aeabi_dmul+0xde>
 80006a8:	f1be 4f00 	cmp.w	lr, #2147483648	; 0x80000000
 80006ac:	bf08      	it	eq
 80006ae:	ea5f 0e50 	movseq.w	lr, r0, lsr #1
 80006b2:	f150 0000 	adcs.w	r0, r0, #0
 80006b6:	eb41 5104 	adc.w	r1, r1, r4, lsl #20
 80006ba:	bd70      	pop	{r4, r5, r6, pc}
 80006bc:	f006 4600 	and.w	r6, r6, #2147483648	; 0x80000000
 80006c0:	ea46 0101 	orr.w	r1, r6, r1
 80006c4:	ea40 0002 	orr.w	r0, r0, r2
 80006c8:	ea81 0103 	eor.w	r1, r1, r3
 80006cc:	ebb4 045c 	subs.w	r4, r4, ip, lsr #1
 80006d0:	bfc2      	ittt	gt
 80006d2:	ebd4 050c 	rsbsgt	r5, r4, ip
 80006d6:	ea41 5104 	orrgt.w	r1, r1, r4, lsl #20
 80006da:	bd70      	popgt	{r4, r5, r6, pc}
 80006dc:	f441 1180 	orr.w	r1, r1, #1048576	; 0x100000
 80006e0:	f04f 0e00 	mov.w	lr, #0
 80006e4:	3c01      	subs	r4, #1
 80006e6:	f300 80ab 	bgt.w	8000840 <__aeabi_dmul+0x238>
 80006ea:	f114 0f36 	cmn.w	r4, #54	; 0x36
 80006ee:	bfde      	ittt	le
 80006f0:	2000      	movle	r0, #0
 80006f2:	f001 4100 	andle.w	r1, r1, #2147483648	; 0x80000000
 80006f6:	bd70      	pople	{r4, r5, r6, pc}
 80006f8:	f1c4 0400 	rsb	r4, r4, #0
 80006fc:	3c20      	subs	r4, #32
 80006fe:	da35      	bge.n	800076c <__aeabi_dmul+0x164>
 8000700:	340c      	adds	r4, #12
 8000702:	dc1b      	bgt.n	800073c <__aeabi_dmul+0x134>
 8000704:	f104 0414 	add.w	r4, r4, #20
 8000708:	f1c4 0520 	rsb	r5, r4, #32
 800070c:	fa00 f305 	lsl.w	r3, r0, r5
 8000710:	fa20 f004 	lsr.w	r0, r0, r4
 8000714:	fa01 f205 	lsl.w	r2, r1, r5
 8000718:	ea40 0002 	orr.w	r0, r0, r2
 800071c:	f001 4200 	and.w	r2, r1, #2147483648	; 0x80000000
 8000720:	f021 4100 	bic.w	r1, r1, #2147483648	; 0x80000000
 8000724:	eb10 70d3 	adds.w	r0, r0, r3, lsr #31
 8000728:	fa21 f604 	lsr.w	r6, r1, r4
 800072c:	eb42 0106 	adc.w	r1, r2, r6
 8000730:	ea5e 0e43 	orrs.w	lr, lr, r3, lsl #1
 8000734:	bf08      	it	eq
 8000736:	ea20 70d3 	biceq.w	r0, r0, r3, lsr #31
 800073a:	bd70      	pop	{r4, r5, r6, pc}
 800073c:	f1c4 040c 	rsb	r4, r4, #12
 8000740:	f1c4 0520 	rsb	r5, r4, #32
 8000744:	fa00 f304 	lsl.w	r3, r0, r4
 8000748:	fa20 f005 	lsr.w	r0, r0, r5
 800074c:	fa01 f204 	lsl.w	r2, r1, r4
 8000750:	ea40 0002 	orr.w	r0, r0, r2
 8000754:	f001 4100 	and.w	r1, r1, #2147483648	; 0x80000000
 8000758:	eb10 70d3 	adds.w	r0, r0, r3, lsr #31
 800075c:	f141 0100 	adc.w	r1, r1, #0
 8000760:	ea5e 0e43 	orrs.w	lr, lr, r3, lsl #1
 8000764:	bf08      	it	eq
 8000766:	ea20 70d3 	biceq.w	r0, r0, r3, lsr #31
 800076a:	bd70      	pop	{r4, r5, r6, pc}
 800076c:	f1c4 0520 	rsb	r5, r4, #32
 8000770:	fa00 f205 	lsl.w	r2, r0, r5
 8000774:	ea4e 0e02 	orr.w	lr, lr, r2
 8000778:	fa20 f304 	lsr.w	r3, r0, r4
 800077c:	fa01 f205 	lsl.w	r2, r1, r5
 8000780:	ea43 0302 	orr.w	r3, r3, r2
 8000784:	fa21 f004 	lsr.w	r0, r1, r4
 8000788:	f001 4100 	and.w	r1, r1, #2147483648	; 0x80000000
 800078c:	fa21 f204 	lsr.w	r2, r1, r4
 8000790:	ea20 0002 	bic.w	r0, r0, r2
 8000794:	eb00 70d3 	add.w	r0, r0, r3, lsr #31
 8000798:	ea5e 0e43 	orrs.w	lr, lr, r3, lsl #1
 800079c:	bf08      	it	eq
 800079e:	ea20 70d3 	biceq.w	r0, r0, r3, lsr #31
 80007a2:	bd70      	pop	{r4, r5, r6, pc}
 80007a4:	f094 0f00 	teq	r4, #0
 80007a8:	d10f      	bne.n	80007ca <__aeabi_dmul+0x1c2>
 80007aa:	f001 4600 	and.w	r6, r1, #2147483648	; 0x80000000
 80007ae:	0040      	lsls	r0, r0, #1
 80007b0:	eb41 0101 	adc.w	r1, r1, r1
 80007b4:	f411 1f80 	tst.w	r1, #1048576	; 0x100000
 80007b8:	bf08      	it	eq
 80007ba:	3c01      	subeq	r4, #1
 80007bc:	d0f7      	beq.n	80007ae <__aeabi_dmul+0x1a6>
 80007be:	ea41 0106 	orr.w	r1, r1, r6
 80007c2:	f095 0f00 	teq	r5, #0
 80007c6:	bf18      	it	ne
 80007c8:	4770      	bxne	lr
 80007ca:	f003 4600 	and.w	r6, r3, #2147483648	; 0x80000000
 80007ce:	0052      	lsls	r2, r2, #1
 80007d0:	eb43 0303 	adc.w	r3, r3, r3
 80007d4:	f413 1f80 	tst.w	r3, #1048576	; 0x100000
 80007d8:	bf08      	it	eq
 80007da:	3d01      	subeq	r5, #1
 80007dc:	d0f7      	beq.n	80007ce <__aeabi_dmul+0x1c6>
 80007de:	ea43 0306 	orr.w	r3, r3, r6
 80007e2:	4770      	bx	lr
 80007e4:	ea94 0f0c 	teq	r4, ip
 80007e8:	ea0c 5513 	and.w	r5, ip, r3, lsr #20
 80007ec:	bf18      	it	ne
 80007ee:	ea95 0f0c 	teqne	r5, ip
 80007f2:	d00c      	beq.n	800080e <__aeabi_dmul+0x206>
 80007f4:	ea50 0641 	orrs.w	r6, r0, r1, lsl #1
 80007f8:	bf18      	it	ne
 80007fa:	ea52 0643 	orrsne.w	r6, r2, r3, lsl #1
 80007fe:	d1d1      	bne.n	80007a4 <__aeabi_dmul+0x19c>
 8000800:	ea81 0103 	eor.w	r1, r1, r3
 8000804:	f001 4100 	and.w	r1, r1, #2147483648	; 0x80000000
 8000808:	f04f 0000 	mov.w	r0, #0
 800080c:	bd70      	pop	{r4, r5, r6, pc}
 800080e:	ea50 0641 	orrs.w	r6, r0, r1, lsl #1
 8000812:	bf06      	itte	eq
 8000814:	4610      	moveq	r0, r2
 8000816:	4619      	moveq	r1, r3
 8000818:	ea52 0643 	orrsne.w	r6, r2, r3, lsl #1
 800081c:	d019      	beq.n	8000852 <__aeabi_dmul+0x24a>
 800081e:	ea94 0f0c 	teq	r4, ip
 8000822:	d102      	bne.n	800082a <__aeabi_dmul+0x222>
 8000824:	ea50 3601 	orrs.w	r6, r0, r1, lsl #12
 8000828:	d113      	bne.n	8000852 <__aeabi_dmul+0x24a>
 800082a:	ea95 0f0c 	teq	r5, ip
 800082e:	d105      	bne.n	800083c <__aeabi_dmul+0x234>
 8000830:	ea52 3603 	orrs.w	r6, r2, r3, lsl #12
 8000834:	bf1c      	itt	ne
 8000836:	4610      	movne	r0, r2
 8000838:	4619      	movne	r1, r3
 800083a:	d10a      	bne.n	8000852 <__aeabi_dmul+0x24a>
 800083c:	ea81 0103 	eor.w	r1, r1, r3
 8000840:	f001 4100 	and.w	r1, r1, #2147483648	; 0x80000000
 8000844:	f041 41fe 	orr.w	r1, r1, #2130706432	; 0x7f000000
 8000848:	f441 0170 	orr.w	r1, r1, #15728640	; 0xf00000
 800084c:	f04f 0000 	mov.w	r0, #0
 8000850:	bd70      	pop	{r4, r5, r6, pc}
 8000852:	f041 41fe 	orr.w	r1, r1, #2130706432	; 0x7f000000
 8000856:	f441 0178 	orr.w	r1, r1, #16252928	; 0xf80000
 800085a:	bd70      	pop	{r4, r5, r6, pc}

0800085c <__aeabi_ddiv>:
 800085c:	b570      	push	{r4, r5, r6, lr}
 800085e:	f04f 0cff 	mov.w	ip, #255	; 0xff
 8000862:	f44c 6ce0 	orr.w	ip, ip, #1792	; 0x700
 8000866:	ea1c 5411 	ands.w	r4, ip, r1, lsr #20
 800086a:	bf1d      	ittte	ne
 800086c:	ea1c 5513 	andsne.w	r5, ip, r3, lsr #20
 8000870:	ea94 0f0c 	teqne	r4, ip
 8000874:	ea95 0f0c 	teqne	r5, ip
 8000878:	f000 f8a7 	bleq	80009ca <__aeabi_ddiv+0x16e>
 800087c:	eba4 0405 	sub.w	r4, r4, r5
 8000880:	ea81 0e03 	eor.w	lr, r1, r3
 8000884:	ea52 3503 	orrs.w	r5, r2, r3, lsl #12
 8000888:	ea4f 3101 	mov.w	r1, r1, lsl #12
 800088c:	f000 8088 	beq.w	80009a0 <__aeabi_ddiv+0x144>
 8000890:	ea4f 3303 	mov.w	r3, r3, lsl #12
 8000894:	f04f 5580 	mov.w	r5, #268435456	; 0x10000000
 8000898:	ea45 1313 	orr.w	r3, r5, r3, lsr #4
 800089c:	ea43 6312 	orr.w	r3, r3, r2, lsr #24
 80008a0:	ea4f 2202 	mov.w	r2, r2, lsl #8
 80008a4:	ea45 1511 	orr.w	r5, r5, r1, lsr #4
 80008a8:	ea45 6510 	orr.w	r5, r5, r0, lsr #24
 80008ac:	ea4f 2600 	mov.w	r6, r0, lsl #8
 80008b0:	f00e 4100 	and.w	r1, lr, #2147483648	; 0x80000000
 80008b4:	429d      	cmp	r5, r3
 80008b6:	bf08      	it	eq
 80008b8:	4296      	cmpeq	r6, r2
 80008ba:	f144 04fd 	adc.w	r4, r4, #253	; 0xfd
 80008be:	f504 7440 	add.w	r4, r4, #768	; 0x300
 80008c2:	d202      	bcs.n	80008ca <__aeabi_ddiv+0x6e>
 80008c4:	085b      	lsrs	r3, r3, #1
 80008c6:	ea4f 0232 	mov.w	r2, r2, rrx
 80008ca:	1ab6      	subs	r6, r6, r2
 80008cc:	eb65 0503 	sbc.w	r5, r5, r3
 80008d0:	085b      	lsrs	r3, r3, #1
 80008d2:	ea4f 0232 	mov.w	r2, r2, rrx
 80008d6:	f44f 1080 	mov.w	r0, #1048576	; 0x100000
 80008da:	f44f 2c00 	mov.w	ip, #524288	; 0x80000
 80008de:	ebb6 0e02 	subs.w	lr, r6, r2
 80008e2:	eb75 0e03 	sbcs.w	lr, r5, r3
 80008e6:	bf22      	ittt	cs
 80008e8:	1ab6      	subcs	r6, r6, r2
 80008ea:	4675      	movcs	r5, lr
 80008ec:	ea40 000c 	orrcs.w	r0, r0, ip
 80008f0:	085b      	lsrs	r3, r3, #1
 80008f2:	ea4f 0232 	mov.w	r2, r2, rrx
 80008f6:	ebb6 0e02 	subs.w	lr, r6, r2
 80008fa:	eb75 0e03 	sbcs.w	lr, r5, r3
 80008fe:	bf22      	ittt	cs
 8000900:	1ab6      	subcs	r6, r6, r2
 8000902:	4675      	movcs	r5, lr
 8000904:	ea40 005c 	orrcs.w	r0, r0, ip, lsr #1
 8000908:	085b      	lsrs	r3, r3, #1
 800090a:	ea4f 0232 	mov.w	r2, r2, rrx
 800090e:	ebb6 0e02 	subs.w	lr, r6, r2
 8000912:	eb75 0e03 	sbcs.w	lr, r5, r3
 8000916:	bf22      	ittt	cs
 8000918:	1ab6      	subcs	r6, r6, r2
 800091a:	4675      	movcs	r5, lr
 800091c:	ea40 009c 	orrcs.w	r0, r0, ip, lsr #2
 8000920:	085b      	lsrs	r3, r3, #1
 8000922:	ea4f 0232 	mov.w	r2, r2, rrx
 8000926:	ebb6 0e02 	subs.w	lr, r6, r2
 800092a:	eb75 0e03 	sbcs.w	lr, r5, r3
 800092e:	bf22      	ittt	cs
 8000930:	1ab6      	subcs	r6, r6, r2
 8000932:	4675      	movcs	r5, lr
 8000934:	ea40 00dc 	orrcs.w	r0, r0, ip, lsr #3
 8000938:	ea55 0e06 	orrs.w	lr, r5, r6
 800093c:	d018      	beq.n	8000970 <__aeabi_ddiv+0x114>
 800093e:	ea4f 1505 	mov.w	r5, r5, lsl #4
 8000942:	ea45 7516 	orr.w	r5, r5, r6, lsr #28
 8000946:	ea4f 1606 	mov.w	r6, r6, lsl #4
 800094a:	ea4f 03c3 	mov.w	r3, r3, lsl #3
 800094e:	ea43 7352 	orr.w	r3, r3, r2, lsr #29
 8000952:	ea4f 02c2 	mov.w	r2, r2, lsl #3
 8000956:	ea5f 1c1c 	movs.w	ip, ip, lsr #4
 800095a:	d1c0      	bne.n	80008de <__aeabi_ddiv+0x82>
 800095c:	f411 1f80 	tst.w	r1, #1048576	; 0x100000
 8000960:	d10b      	bne.n	800097a <__aeabi_ddiv+0x11e>
 8000962:	ea41 0100 	orr.w	r1, r1, r0
 8000966:	f04f 0000 	mov.w	r0, #0
 800096a:	f04f 4c00 	mov.w	ip, #2147483648	; 0x80000000
 800096e:	e7b6      	b.n	80008de <__aeabi_ddiv+0x82>
 8000970:	f411 1f80 	tst.w	r1, #1048576	; 0x100000
 8000974:	bf04      	itt	eq
 8000976:	4301      	orreq	r1, r0
 8000978:	2000      	moveq	r0, #0
 800097a:	f1b4 0cfd 	subs.w	ip, r4, #253	; 0xfd
 800097e:	bf88      	it	hi
 8000980:	f5bc 6fe0 	cmphi.w	ip, #1792	; 0x700
 8000984:	f63f aeaf 	bhi.w	80006e6 <__aeabi_dmul+0xde>
 8000988:	ebb5 0c03 	subs.w	ip, r5, r3
 800098c:	bf04      	itt	eq
 800098e:	ebb6 0c02 	subseq.w	ip, r6, r2
 8000992:	ea5f 0c50 	movseq.w	ip, r0, lsr #1
 8000996:	f150 0000 	adcs.w	r0, r0, #0
 800099a:	eb41 5104 	adc.w	r1, r1, r4, lsl #20
 800099e:	bd70      	pop	{r4, r5, r6, pc}
 80009a0:	f00e 4e00 	and.w	lr, lr, #2147483648	; 0x80000000
 80009a4:	ea4e 3111 	orr.w	r1, lr, r1, lsr #12
 80009a8:	eb14 045c 	adds.w	r4, r4, ip, lsr #1
 80009ac:	bfc2      	ittt	gt
 80009ae:	ebd4 050c 	rsbsgt	r5, r4, ip
 80009b2:	ea41 5104 	orrgt.w	r1, r1, r4, lsl #20
 80009b6:	bd70      	popgt	{r4, r5, r6, pc}
 80009b8:	f441 1180 	orr.w	r1, r1, #1048576	; 0x100000
 80009bc:	f04f 0e00 	mov.w	lr, #0
 80009c0:	3c01      	subs	r4, #1
 80009c2:	e690      	b.n	80006e6 <__aeabi_dmul+0xde>
 80009c4:	ea45 0e06 	orr.w	lr, r5, r6
 80009c8:	e68d      	b.n	80006e6 <__aeabi_dmul+0xde>
 80009ca:	ea0c 5513 	and.w	r5, ip, r3, lsr #20
 80009ce:	ea94 0f0c 	teq	r4, ip
 80009d2:	bf08      	it	eq
 80009d4:	ea95 0f0c 	teqeq	r5, ip
 80009d8:	f43f af3b 	beq.w	8000852 <__aeabi_dmul+0x24a>
 80009dc:	ea94 0f0c 	teq	r4, ip
 80009e0:	d10a      	bne.n	80009f8 <__aeabi_ddiv+0x19c>
 80009e2:	ea50 3401 	orrs.w	r4, r0, r1, lsl #12
 80009e6:	f47f af34 	bne.w	8000852 <__aeabi_dmul+0x24a>
 80009ea:	ea95 0f0c 	teq	r5, ip
 80009ee:	f47f af25 	bne.w	800083c <__aeabi_dmul+0x234>
 80009f2:	4610      	mov	r0, r2
 80009f4:	4619      	mov	r1, r3
 80009f6:	e72c      	b.n	8000852 <__aeabi_dmul+0x24a>
 80009f8:	ea95 0f0c 	teq	r5, ip
 80009fc:	d106      	bne.n	8000a0c <__aeabi_ddiv+0x1b0>
 80009fe:	ea52 3503 	orrs.w	r5, r2, r3, lsl #12
 8000a02:	f43f aefd 	beq.w	8000800 <__aeabi_dmul+0x1f8>
 8000a06:	4610      	mov	r0, r2
 8000a08:	4619      	mov	r1, r3
 8000a0a:	e722      	b.n	8000852 <__aeabi_dmul+0x24a>
 8000a0c:	ea50 0641 	orrs.w	r6, r0, r1, lsl #1
 8000a10:	bf18      	it	ne
 8000a12:	ea52 0643 	orrsne.w	r6, r2, r3, lsl #1
 8000a16:	f47f aec5 	bne.w	80007a4 <__aeabi_dmul+0x19c>
 8000a1a:	ea50 0441 	orrs.w	r4, r0, r1, lsl #1
 8000a1e:	f47f af0d 	bne.w	800083c <__aeabi_dmul+0x234>
 8000a22:	ea52 0543 	orrs.w	r5, r2, r3, lsl #1
 8000a26:	f47f aeeb 	bne.w	8000800 <__aeabi_dmul+0x1f8>
 8000a2a:	e712      	b.n	8000852 <__aeabi_dmul+0x24a>

08000a2c <__aeabi_d2iz>:
 8000a2c:	ea4f 0241 	mov.w	r2, r1, lsl #1
 8000a30:	f512 1200 	adds.w	r2, r2, #2097152	; 0x200000
 8000a34:	d215      	bcs.n	8000a62 <__aeabi_d2iz+0x36>
 8000a36:	d511      	bpl.n	8000a5c <__aeabi_d2iz+0x30>
 8000a38:	f46f 7378 	mvn.w	r3, #992	; 0x3e0
 8000a3c:	ebb3 5262 	subs.w	r2, r3, r2, asr #21
 8000a40:	d912      	bls.n	8000a68 <__aeabi_d2iz+0x3c>
 8000a42:	ea4f 23c1 	mov.w	r3, r1, lsl #11
 8000a46:	f043 4300 	orr.w	r3, r3, #2147483648	; 0x80000000
 8000a4a:	ea43 5350 	orr.w	r3, r3, r0, lsr #21
 8000a4e:	f011 4f00 	tst.w	r1, #2147483648	; 0x80000000
 8000a52:	fa23 f002 	lsr.w	r0, r3, r2
 8000a56:	bf18      	it	ne
 8000a58:	4240      	negne	r0, r0
 8000a5a:	4770      	bx	lr
 8000a5c:	f04f 0000 	mov.w	r0, #0
 8000a60:	4770      	bx	lr
 8000a62:	ea50 3001 	orrs.w	r0, r0, r1, lsl #12
 8000a66:	d105      	bne.n	8000a74 <__aeabi_d2iz+0x48>
 8000a68:	f011 4000 	ands.w	r0, r1, #2147483648	; 0x80000000
 8000a6c:	bf08      	it	eq
 8000a6e:	f06f 4000 	mvneq.w	r0, #2147483648	; 0x80000000
 8000a72:	4770      	bx	lr
 8000a74:	f04f 0000 	mov.w	r0, #0
 8000a78:	4770      	bx	lr
 8000a7a:	bf00      	nop

08000a7c <__aeabi_d2f>:
 8000a7c:	ea4f 0241 	mov.w	r2, r1, lsl #1
 8000a80:	f1b2 43e0 	subs.w	r3, r2, #1879048192	; 0x70000000
 8000a84:	bf24      	itt	cs
 8000a86:	f5b3 1c00 	subscs.w	ip, r3, #2097152	; 0x200000
 8000a8a:	f1dc 5cfe 	rsbscs	ip, ip, #532676608	; 0x1fc00000
 8000a8e:	d90d      	bls.n	8000aac <__aeabi_d2f+0x30>
 8000a90:	f001 4c00 	and.w	ip, r1, #2147483648	; 0x80000000
 8000a94:	ea4f 02c0 	mov.w	r2, r0, lsl #3
 8000a98:	ea4c 7050 	orr.w	r0, ip, r0, lsr #29
 8000a9c:	f1b2 4f00 	cmp.w	r2, #2147483648	; 0x80000000
 8000aa0:	eb40 0083 	adc.w	r0, r0, r3, lsl #2
 8000aa4:	bf08      	it	eq
 8000aa6:	f020 0001 	biceq.w	r0, r0, #1
 8000aaa:	4770      	bx	lr
 8000aac:	f011 4f80 	tst.w	r1, #1073741824	; 0x40000000
 8000ab0:	d121      	bne.n	8000af6 <__aeabi_d2f+0x7a>
 8000ab2:	f113 7238 	adds.w	r2, r3, #48234496	; 0x2e00000
 8000ab6:	bfbc      	itt	lt
 8000ab8:	f001 4000 	andlt.w	r0, r1, #2147483648	; 0x80000000
 8000abc:	4770      	bxlt	lr
 8000abe:	f441 1180 	orr.w	r1, r1, #1048576	; 0x100000
 8000ac2:	ea4f 5252 	mov.w	r2, r2, lsr #21
 8000ac6:	f1c2 0218 	rsb	r2, r2, #24
 8000aca:	f1c2 0c20 	rsb	ip, r2, #32
 8000ace:	fa10 f30c 	lsls.w	r3, r0, ip
 8000ad2:	fa20 f002 	lsr.w	r0, r0, r2
 8000ad6:	bf18      	it	ne
 8000ad8:	f040 0001 	orrne.w	r0, r0, #1
 8000adc:	ea4f 23c1 	mov.w	r3, r1, lsl #11
 8000ae0:	ea4f 23d3 	mov.w	r3, r3, lsr #11
 8000ae4:	fa03 fc0c 	lsl.w	ip, r3, ip
 8000ae8:	ea40 000c 	orr.w	r0, r0, ip
 8000aec:	fa23 f302 	lsr.w	r3, r3, r2
 8000af0:	ea4f 0343 	mov.w	r3, r3, lsl #1
 8000af4:	e7cc      	b.n	8000a90 <__aeabi_d2f+0x14>
 8000af6:	ea7f 5362 	mvns.w	r3, r2, asr #21
 8000afa:	d107      	bne.n	8000b0c <__aeabi_d2f+0x90>
 8000afc:	ea50 3301 	orrs.w	r3, r0, r1, lsl #12
 8000b00:	bf1e      	ittt	ne
 8000b02:	f04f 40fe 	movne.w	r0, #2130706432	; 0x7f000000
 8000b06:	f440 0040 	orrne.w	r0, r0, #12582912	; 0xc00000
 8000b0a:	4770      	bxne	lr
 8000b0c:	f001 4000 	and.w	r0, r1, #2147483648	; 0x80000000
 8000b10:	f040 40fe 	orr.w	r0, r0, #2130706432	; 0x7f000000
 8000b14:	f440 0000 	orr.w	r0, r0, #8388608	; 0x800000
 8000b18:	4770      	bx	lr
 8000b1a:	bf00      	nop

08000b1c <__aeabi_ldivmod>:
 8000b1c:	b97b      	cbnz	r3, 8000b3e <__aeabi_ldivmod+0x22>
 8000b1e:	b972      	cbnz	r2, 8000b3e <__aeabi_ldivmod+0x22>
 8000b20:	2900      	cmp	r1, #0
 8000b22:	bfbe      	ittt	lt
 8000b24:	2000      	movlt	r0, #0
 8000b26:	f04f 4100 	movlt.w	r1, #2147483648	; 0x80000000
 8000b2a:	e006      	blt.n	8000b3a <__aeabi_ldivmod+0x1e>
 8000b2c:	bf08      	it	eq
 8000b2e:	2800      	cmpeq	r0, #0
 8000b30:	bf1c      	itt	ne
 8000b32:	f06f 4100 	mvnne.w	r1, #2147483648	; 0x80000000
 8000b36:	f04f 30ff 	movne.w	r0, #4294967295	; 0xffffffff
 8000b3a:	f000 b9f3 	b.w	8000f24 <__aeabi_idiv0>
 8000b3e:	f1ad 0c08 	sub.w	ip, sp, #8
 8000b42:	e96d ce04 	strd	ip, lr, [sp, #-16]!
 8000b46:	2900      	cmp	r1, #0
 8000b48:	db09      	blt.n	8000b5e <__aeabi_ldivmod+0x42>
 8000b4a:	2b00      	cmp	r3, #0
 8000b4c:	db1a      	blt.n	8000b84 <__aeabi_ldivmod+0x68>
 8000b4e:	f000 f883 	bl	8000c58 <__udivmoddi4>
 8000b52:	f8dd e004 	ldr.w	lr, [sp, #4]
 8000b56:	e9dd 2302 	ldrd	r2, r3, [sp, #8]
 8000b5a:	b004      	add	sp, #16
 8000b5c:	4770      	bx	lr
 8000b5e:	4240      	negs	r0, r0
 8000b60:	eb61 0141 	sbc.w	r1, r1, r1, lsl #1
 8000b64:	2b00      	cmp	r3, #0
 8000b66:	db1b      	blt.n	8000ba0 <__aeabi_ldivmod+0x84>
 8000b68:	f000 f876 	bl	8000c58 <__udivmoddi4>
 8000b6c:	f8dd e004 	ldr.w	lr, [sp, #4]
 8000b70:	e9dd 2302 	ldrd	r2, r3, [sp, #8]
 8000b74:	b004      	add	sp, #16
 8000b76:	4240      	negs	r0, r0
 8000b78:	eb61 0141 	sbc.w	r1, r1, r1, lsl #1
 8000b7c:	4252      	negs	r2, r2
 8000b7e:	eb63 0343 	sbc.w	r3, r3, r3, lsl #1
 8000b82:	4770      	bx	lr
 8000b84:	4252      	negs	r2, r2
 8000b86:	eb63 0343 	sbc.w	r3, r3, r3, lsl #1
 8000b8a:	f000 f865 	bl	8000c58 <__udivmoddi4>
 8000b8e:	f8dd e004 	ldr.w	lr, [sp, #4]
 8000b92:	e9dd 2302 	ldrd	r2, r3, [sp, #8]
 8000b96:	b004      	add	sp, #16
 8000b98:	4240      	negs	r0, r0
 8000b9a:	eb61 0141 	sbc.w	r1, r1, r1, lsl #1
 8000b9e:	4770      	bx	lr
 8000ba0:	4252      	negs	r2, r2
 8000ba2:	eb63 0343 	sbc.w	r3, r3, r3, lsl #1
 8000ba6:	f000 f857 	bl	8000c58 <__udivmoddi4>
 8000baa:	f8dd e004 	ldr.w	lr, [sp, #4]
 8000bae:	e9dd 2302 	ldrd	r2, r3, [sp, #8]
 8000bb2:	b004      	add	sp, #16
 8000bb4:	4252      	negs	r2, r2
 8000bb6:	eb63 0343 	sbc.w	r3, r3, r3, lsl #1
 8000bba:	4770      	bx	lr

08000bbc <__aeabi_uldivmod>:
 8000bbc:	b953      	cbnz	r3, 8000bd4 <__aeabi_uldivmod+0x18>
 8000bbe:	b94a      	cbnz	r2, 8000bd4 <__aeabi_uldivmod+0x18>
 8000bc0:	2900      	cmp	r1, #0
 8000bc2:	bf08      	it	eq
 8000bc4:	2800      	cmpeq	r0, #0
 8000bc6:	bf1c      	itt	ne
 8000bc8:	f04f 31ff 	movne.w	r1, #4294967295	; 0xffffffff
 8000bcc:	f04f 30ff 	movne.w	r0, #4294967295	; 0xffffffff
 8000bd0:	f000 b9a8 	b.w	8000f24 <__aeabi_idiv0>
 8000bd4:	f1ad 0c08 	sub.w	ip, sp, #8
 8000bd8:	e96d ce04 	strd	ip, lr, [sp, #-16]!
 8000bdc:	f000 f83c 	bl	8000c58 <__udivmoddi4>
 8000be0:	f8dd e004 	ldr.w	lr, [sp, #4]
 8000be4:	e9dd 2302 	ldrd	r2, r3, [sp, #8]
 8000be8:	b004      	add	sp, #16
 8000bea:	4770      	bx	lr

08000bec <__aeabi_f2lz>:
 8000bec:	ee07 0a90 	vmov	s15, r0
 8000bf0:	eef5 7ac0 	vcmpe.f32	s15, #0.0
 8000bf4:	eef1 fa10 	vmrs	APSR_nzcv, fpscr
 8000bf8:	d401      	bmi.n	8000bfe <__aeabi_f2lz+0x12>
 8000bfa:	f000 b809 	b.w	8000c10 <__aeabi_f2ulz>
 8000bfe:	b508      	push	{r3, lr}
 8000c00:	f080 4000 	eor.w	r0, r0, #2147483648	; 0x80000000
 8000c04:	f000 f804 	bl	8000c10 <__aeabi_f2ulz>
 8000c08:	4240      	negs	r0, r0
 8000c0a:	eb61 0141 	sbc.w	r1, r1, r1, lsl #1
 8000c0e:	bd08      	pop	{r3, pc}

08000c10 <__aeabi_f2ulz>:
 8000c10:	b5d0      	push	{r4, r6, r7, lr}
 8000c12:	f7ff fca1 	bl	8000558 <__aeabi_f2d>
 8000c16:	2200      	movs	r2, #0
 8000c18:	4b0d      	ldr	r3, [pc, #52]	; (8000c50 <__aeabi_f2ulz+0x40>)
 8000c1a:	4606      	mov	r6, r0
 8000c1c:	460f      	mov	r7, r1
 8000c1e:	f7ff fcf3 	bl	8000608 <__aeabi_dmul>
 8000c22:	f000 f981 	bl	8000f28 <__aeabi_d2uiz>
 8000c26:	4604      	mov	r4, r0
 8000c28:	f7ff fc74 	bl	8000514 <__aeabi_ui2d>
 8000c2c:	2200      	movs	r2, #0
 8000c2e:	4b09      	ldr	r3, [pc, #36]	; (8000c54 <__aeabi_f2ulz+0x44>)
 8000c30:	f7ff fcea 	bl	8000608 <__aeabi_dmul>
 8000c34:	4602      	mov	r2, r0
 8000c36:	460b      	mov	r3, r1
 8000c38:	4630      	mov	r0, r6
 8000c3a:	4639      	mov	r1, r7
 8000c3c:	f7ff fb2c 	bl	8000298 <__aeabi_dsub>
 8000c40:	f000 f972 	bl	8000f28 <__aeabi_d2uiz>
 8000c44:	2200      	movs	r2, #0
 8000c46:	4623      	mov	r3, r4
 8000c48:	4310      	orrs	r0, r2
 8000c4a:	4619      	mov	r1, r3
 8000c4c:	bdd0      	pop	{r4, r6, r7, pc}
 8000c4e:	bf00      	nop
 8000c50:	3df00000 	.word	0x3df00000
 8000c54:	41f00000 	.word	0x41f00000

08000c58 <__udivmoddi4>:
 8000c58:	e92d 47f0 	stmdb	sp!, {r4, r5, r6, r7, r8, r9, sl, lr}
 8000c5c:	9e08      	ldr	r6, [sp, #32]
 8000c5e:	4604      	mov	r4, r0
 8000c60:	4688      	mov	r8, r1
 8000c62:	2b00      	cmp	r3, #0
 8000c64:	d14b      	bne.n	8000cfe <__udivmoddi4+0xa6>
 8000c66:	428a      	cmp	r2, r1
 8000c68:	4615      	mov	r5, r2
 8000c6a:	d967      	bls.n	8000d3c <__udivmoddi4+0xe4>
 8000c6c:	fab2 f282 	clz	r2, r2
 8000c70:	b14a      	cbz	r2, 8000c86 <__udivmoddi4+0x2e>
 8000c72:	f1c2 0720 	rsb	r7, r2, #32
 8000c76:	fa01 f302 	lsl.w	r3, r1, r2
 8000c7a:	fa20 f707 	lsr.w	r7, r0, r7
 8000c7e:	4095      	lsls	r5, r2
 8000c80:	ea47 0803 	orr.w	r8, r7, r3
 8000c84:	4094      	lsls	r4, r2
 8000c86:	ea4f 4e15 	mov.w	lr, r5, lsr #16
 8000c8a:	0c23      	lsrs	r3, r4, #16
 8000c8c:	fbb8 f7fe 	udiv	r7, r8, lr
 8000c90:	fa1f fc85 	uxth.w	ip, r5
 8000c94:	fb0e 8817 	mls	r8, lr, r7, r8
 8000c98:	ea43 4308 	orr.w	r3, r3, r8, lsl #16
 8000c9c:	fb07 f10c 	mul.w	r1, r7, ip
 8000ca0:	4299      	cmp	r1, r3
 8000ca2:	d909      	bls.n	8000cb8 <__udivmoddi4+0x60>
 8000ca4:	18eb      	adds	r3, r5, r3
 8000ca6:	f107 30ff 	add.w	r0, r7, #4294967295	; 0xffffffff
 8000caa:	f080 811b 	bcs.w	8000ee4 <__udivmoddi4+0x28c>
 8000cae:	4299      	cmp	r1, r3
 8000cb0:	f240 8118 	bls.w	8000ee4 <__udivmoddi4+0x28c>
 8000cb4:	3f02      	subs	r7, #2
 8000cb6:	442b      	add	r3, r5
 8000cb8:	1a5b      	subs	r3, r3, r1
 8000cba:	b2a4      	uxth	r4, r4
 8000cbc:	fbb3 f0fe 	udiv	r0, r3, lr
 8000cc0:	fb0e 3310 	mls	r3, lr, r0, r3
 8000cc4:	ea44 4403 	orr.w	r4, r4, r3, lsl #16
 8000cc8:	fb00 fc0c 	mul.w	ip, r0, ip
 8000ccc:	45a4      	cmp	ip, r4
 8000cce:	d909      	bls.n	8000ce4 <__udivmoddi4+0x8c>
 8000cd0:	192c      	adds	r4, r5, r4
 8000cd2:	f100 33ff 	add.w	r3, r0, #4294967295	; 0xffffffff
 8000cd6:	f080 8107 	bcs.w	8000ee8 <__udivmoddi4+0x290>
 8000cda:	45a4      	cmp	ip, r4
 8000cdc:	f240 8104 	bls.w	8000ee8 <__udivmoddi4+0x290>
 8000ce0:	3802      	subs	r0, #2
 8000ce2:	442c      	add	r4, r5
 8000ce4:	ea40 4007 	orr.w	r0, r0, r7, lsl #16
 8000ce8:	eba4 040c 	sub.w	r4, r4, ip
 8000cec:	2700      	movs	r7, #0
 8000cee:	b11e      	cbz	r6, 8000cf8 <__udivmoddi4+0xa0>
 8000cf0:	40d4      	lsrs	r4, r2
 8000cf2:	2300      	movs	r3, #0
 8000cf4:	e9c6 4300 	strd	r4, r3, [r6]
 8000cf8:	4639      	mov	r1, r7
 8000cfa:	e8bd 87f0 	ldmia.w	sp!, {r4, r5, r6, r7, r8, r9, sl, pc}
 8000cfe:	428b      	cmp	r3, r1
 8000d00:	d909      	bls.n	8000d16 <__udivmoddi4+0xbe>
 8000d02:	2e00      	cmp	r6, #0
 8000d04:	f000 80eb 	beq.w	8000ede <__udivmoddi4+0x286>
 8000d08:	2700      	movs	r7, #0
 8000d0a:	e9c6 0100 	strd	r0, r1, [r6]
 8000d0e:	4638      	mov	r0, r7
 8000d10:	4639      	mov	r1, r7
 8000d12:	e8bd 87f0 	ldmia.w	sp!, {r4, r5, r6, r7, r8, r9, sl, pc}
 8000d16:	fab3 f783 	clz	r7, r3
 8000d1a:	2f00      	cmp	r7, #0
 8000d1c:	d147      	bne.n	8000dae <__udivmoddi4+0x156>
 8000d1e:	428b      	cmp	r3, r1
 8000d20:	d302      	bcc.n	8000d28 <__udivmoddi4+0xd0>
 8000d22:	4282      	cmp	r2, r0
 8000d24:	f200 80fa 	bhi.w	8000f1c <__udivmoddi4+0x2c4>
 8000d28:	1a84      	subs	r4, r0, r2
 8000d2a:	eb61 0303 	sbc.w	r3, r1, r3
 8000d2e:	2001      	movs	r0, #1
 8000d30:	4698      	mov	r8, r3
 8000d32:	2e00      	cmp	r6, #0
 8000d34:	d0e0      	beq.n	8000cf8 <__udivmoddi4+0xa0>
 8000d36:	e9c6 4800 	strd	r4, r8, [r6]
 8000d3a:	e7dd      	b.n	8000cf8 <__udivmoddi4+0xa0>
 8000d3c:	b902      	cbnz	r2, 8000d40 <__udivmoddi4+0xe8>
 8000d3e:	deff      	udf	#255	; 0xff
 8000d40:	fab2 f282 	clz	r2, r2
 8000d44:	2a00      	cmp	r2, #0
 8000d46:	f040 808f 	bne.w	8000e68 <__udivmoddi4+0x210>
 8000d4a:	1b49      	subs	r1, r1, r5
 8000d4c:	ea4f 4e15 	mov.w	lr, r5, lsr #16
 8000d50:	fa1f f885 	uxth.w	r8, r5
 8000d54:	2701      	movs	r7, #1
 8000d56:	fbb1 fcfe 	udiv	ip, r1, lr
 8000d5a:	0c23      	lsrs	r3, r4, #16
 8000d5c:	fb0e 111c 	mls	r1, lr, ip, r1
 8000d60:	ea43 4301 	orr.w	r3, r3, r1, lsl #16
 8000d64:	fb08 f10c 	mul.w	r1, r8, ip
 8000d68:	4299      	cmp	r1, r3
 8000d6a:	d907      	bls.n	8000d7c <__udivmoddi4+0x124>
 8000d6c:	18eb      	adds	r3, r5, r3
 8000d6e:	f10c 30ff 	add.w	r0, ip, #4294967295	; 0xffffffff
 8000d72:	d202      	bcs.n	8000d7a <__udivmoddi4+0x122>
 8000d74:	4299      	cmp	r1, r3
 8000d76:	f200 80cd 	bhi.w	8000f14 <__udivmoddi4+0x2bc>
 8000d7a:	4684      	mov	ip, r0
 8000d7c:	1a59      	subs	r1, r3, r1
 8000d7e:	b2a3      	uxth	r3, r4
 8000d80:	fbb1 f0fe 	udiv	r0, r1, lr
 8000d84:	fb0e 1410 	mls	r4, lr, r0, r1
 8000d88:	ea43 4404 	orr.w	r4, r3, r4, lsl #16
 8000d8c:	fb08 f800 	mul.w	r8, r8, r0
 8000d90:	45a0      	cmp	r8, r4
 8000d92:	d907      	bls.n	8000da4 <__udivmoddi4+0x14c>
 8000d94:	192c      	adds	r4, r5, r4
 8000d96:	f100 33ff 	add.w	r3, r0, #4294967295	; 0xffffffff
 8000d9a:	d202      	bcs.n	8000da2 <__udivmoddi4+0x14a>
 8000d9c:	45a0      	cmp	r8, r4
 8000d9e:	f200 80b6 	bhi.w	8000f0e <__udivmoddi4+0x2b6>
 8000da2:	4618      	mov	r0, r3
 8000da4:	eba4 0408 	sub.w	r4, r4, r8
 8000da8:	ea40 400c 	orr.w	r0, r0, ip, lsl #16
 8000dac:	e79f      	b.n	8000cee <__udivmoddi4+0x96>
 8000dae:	f1c7 0c20 	rsb	ip, r7, #32
 8000db2:	40bb      	lsls	r3, r7
 8000db4:	fa22 fe0c 	lsr.w	lr, r2, ip
 8000db8:	ea4e 0e03 	orr.w	lr, lr, r3
 8000dbc:	fa01 f407 	lsl.w	r4, r1, r7
 8000dc0:	fa20 f50c 	lsr.w	r5, r0, ip
 8000dc4:	fa21 f30c 	lsr.w	r3, r1, ip
 8000dc8:	ea4f 481e 	mov.w	r8, lr, lsr #16
 8000dcc:	4325      	orrs	r5, r4
 8000dce:	fbb3 f9f8 	udiv	r9, r3, r8
 8000dd2:	0c2c      	lsrs	r4, r5, #16
 8000dd4:	fb08 3319 	mls	r3, r8, r9, r3
 8000dd8:	fa1f fa8e 	uxth.w	sl, lr
 8000ddc:	ea44 4303 	orr.w	r3, r4, r3, lsl #16
 8000de0:	fb09 f40a 	mul.w	r4, r9, sl
 8000de4:	429c      	cmp	r4, r3
 8000de6:	fa02 f207 	lsl.w	r2, r2, r7
 8000dea:	fa00 f107 	lsl.w	r1, r0, r7
 8000dee:	d90b      	bls.n	8000e08 <__udivmoddi4+0x1b0>
 8000df0:	eb1e 0303 	adds.w	r3, lr, r3
 8000df4:	f109 30ff 	add.w	r0, r9, #4294967295	; 0xffffffff
 8000df8:	f080 8087 	bcs.w	8000f0a <__udivmoddi4+0x2b2>
 8000dfc:	429c      	cmp	r4, r3
 8000dfe:	f240 8084 	bls.w	8000f0a <__udivmoddi4+0x2b2>
 8000e02:	f1a9 0902 	sub.w	r9, r9, #2
 8000e06:	4473      	add	r3, lr
 8000e08:	1b1b      	subs	r3, r3, r4
 8000e0a:	b2ad      	uxth	r5, r5
 8000e0c:	fbb3 f0f8 	udiv	r0, r3, r8
 8000e10:	fb08 3310 	mls	r3, r8, r0, r3
 8000e14:	ea45 4403 	orr.w	r4, r5, r3, lsl #16
 8000e18:	fb00 fa0a 	mul.w	sl, r0, sl
 8000e1c:	45a2      	cmp	sl, r4
 8000e1e:	d908      	bls.n	8000e32 <__udivmoddi4+0x1da>
 8000e20:	eb1e 0404 	adds.w	r4, lr, r4
 8000e24:	f100 33ff 	add.w	r3, r0, #4294967295	; 0xffffffff
 8000e28:	d26b      	bcs.n	8000f02 <__udivmoddi4+0x2aa>
 8000e2a:	45a2      	cmp	sl, r4
 8000e2c:	d969      	bls.n	8000f02 <__udivmoddi4+0x2aa>
 8000e2e:	3802      	subs	r0, #2
 8000e30:	4474      	add	r4, lr
 8000e32:	ea40 4009 	orr.w	r0, r0, r9, lsl #16
 8000e36:	fba0 8902 	umull	r8, r9, r0, r2
 8000e3a:	eba4 040a 	sub.w	r4, r4, sl
 8000e3e:	454c      	cmp	r4, r9
 8000e40:	46c2      	mov	sl, r8
 8000e42:	464b      	mov	r3, r9
 8000e44:	d354      	bcc.n	8000ef0 <__udivmoddi4+0x298>
 8000e46:	d051      	beq.n	8000eec <__udivmoddi4+0x294>
 8000e48:	2e00      	cmp	r6, #0
 8000e4a:	d069      	beq.n	8000f20 <__udivmoddi4+0x2c8>
 8000e4c:	ebb1 050a 	subs.w	r5, r1, sl
 8000e50:	eb64 0403 	sbc.w	r4, r4, r3
 8000e54:	fa04 fc0c 	lsl.w	ip, r4, ip
 8000e58:	40fd      	lsrs	r5, r7
 8000e5a:	40fc      	lsrs	r4, r7
 8000e5c:	ea4c 0505 	orr.w	r5, ip, r5
 8000e60:	e9c6 5400 	strd	r5, r4, [r6]
 8000e64:	2700      	movs	r7, #0
 8000e66:	e747      	b.n	8000cf8 <__udivmoddi4+0xa0>
 8000e68:	f1c2 0320 	rsb	r3, r2, #32
 8000e6c:	fa20 f703 	lsr.w	r7, r0, r3
 8000e70:	4095      	lsls	r5, r2
 8000e72:	fa01 f002 	lsl.w	r0, r1, r2
 8000e76:	fa21 f303 	lsr.w	r3, r1, r3
 8000e7a:	ea4f 4e15 	mov.w	lr, r5, lsr #16
 8000e7e:	4338      	orrs	r0, r7
 8000e80:	0c01      	lsrs	r1, r0, #16
 8000e82:	fbb3 f7fe 	udiv	r7, r3, lr
 8000e86:	fa1f f885 	uxth.w	r8, r5
 8000e8a:	fb0e 3317 	mls	r3, lr, r7, r3
 8000e8e:	ea41 4103 	orr.w	r1, r1, r3, lsl #16
 8000e92:	fb07 f308 	mul.w	r3, r7, r8
 8000e96:	428b      	cmp	r3, r1
 8000e98:	fa04 f402 	lsl.w	r4, r4, r2
 8000e9c:	d907      	bls.n	8000eae <__udivmoddi4+0x256>
 8000e9e:	1869      	adds	r1, r5, r1
 8000ea0:	f107 3cff 	add.w	ip, r7, #4294967295	; 0xffffffff
 8000ea4:	d22f      	bcs.n	8000f06 <__udivmoddi4+0x2ae>
 8000ea6:	428b      	cmp	r3, r1
 8000ea8:	d92d      	bls.n	8000f06 <__udivmoddi4+0x2ae>
 8000eaa:	3f02      	subs	r7, #2
 8000eac:	4429      	add	r1, r5
 8000eae:	1acb      	subs	r3, r1, r3
 8000eb0:	b281      	uxth	r1, r0
 8000eb2:	fbb3 f0fe 	udiv	r0, r3, lr
 8000eb6:	fb0e 3310 	mls	r3, lr, r0, r3
 8000eba:	ea41 4103 	orr.w	r1, r1, r3, lsl #16
 8000ebe:	fb00 f308 	mul.w	r3, r0, r8
 8000ec2:	428b      	cmp	r3, r1
 8000ec4:	d907      	bls.n	8000ed6 <__udivmoddi4+0x27e>
 8000ec6:	1869      	adds	r1, r5, r1
 8000ec8:	f100 3cff 	add.w	ip, r0, #4294967295	; 0xffffffff
 8000ecc:	d217      	bcs.n	8000efe <__udivmoddi4+0x2a6>
 8000ece:	428b      	cmp	r3, r1
 8000ed0:	d915      	bls.n	8000efe <__udivmoddi4+0x2a6>
 8000ed2:	3802      	subs	r0, #2
 8000ed4:	4429      	add	r1, r5
 8000ed6:	1ac9      	subs	r1, r1, r3
 8000ed8:	ea40 4707 	orr.w	r7, r0, r7, lsl #16
 8000edc:	e73b      	b.n	8000d56 <__udivmoddi4+0xfe>
 8000ede:	4637      	mov	r7, r6
 8000ee0:	4630      	mov	r0, r6
 8000ee2:	e709      	b.n	8000cf8 <__udivmoddi4+0xa0>
 8000ee4:	4607      	mov	r7, r0
 8000ee6:	e6e7      	b.n	8000cb8 <__udivmoddi4+0x60>
 8000ee8:	4618      	mov	r0, r3
 8000eea:	e6fb      	b.n	8000ce4 <__udivmoddi4+0x8c>
 8000eec:	4541      	cmp	r1, r8
 8000eee:	d2ab      	bcs.n	8000e48 <__udivmoddi4+0x1f0>
 8000ef0:	ebb8 0a02 	subs.w	sl, r8, r2
 8000ef4:	eb69 020e 	sbc.w	r2, r9, lr
 8000ef8:	3801      	subs	r0, #1
 8000efa:	4613      	mov	r3, r2
 8000efc:	e7a4      	b.n	8000e48 <__udivmoddi4+0x1f0>
 8000efe:	4660      	mov	r0, ip
 8000f00:	e7e9      	b.n	8000ed6 <__udivmoddi4+0x27e>
 8000f02:	4618      	mov	r0, r3
 8000f04:	e795      	b.n	8000e32 <__udivmoddi4+0x1da>
 8000f06:	4667      	mov	r7, ip
 8000f08:	e7d1      	b.n	8000eae <__udivmoddi4+0x256>
 8000f0a:	4681      	mov	r9, r0
 8000f0c:	e77c      	b.n	8000e08 <__udivmoddi4+0x1b0>
 8000f0e:	3802      	subs	r0, #2
 8000f10:	442c      	add	r4, r5
 8000f12:	e747      	b.n	8000da4 <__udivmoddi4+0x14c>
 8000f14:	f1ac 0c02 	sub.w	ip, ip, #2
 8000f18:	442b      	add	r3, r5
 8000f1a:	e72f      	b.n	8000d7c <__udivmoddi4+0x124>
 8000f1c:	4638      	mov	r0, r7
 8000f1e:	e708      	b.n	8000d32 <__udivmoddi4+0xda>
 8000f20:	4637      	mov	r7, r6
 8000f22:	e6e9      	b.n	8000cf8 <__udivmoddi4+0xa0>

08000f24 <__aeabi_idiv0>:
 8000f24:	4770      	bx	lr
 8000f26:	bf00      	nop

08000f28 <__aeabi_d2uiz>:
 8000f28:	004a      	lsls	r2, r1, #1
 8000f2a:	d211      	bcs.n	8000f50 <__aeabi_d2uiz+0x28>
 8000f2c:	f512 1200 	adds.w	r2, r2, #2097152	; 0x200000
 8000f30:	d211      	bcs.n	8000f56 <__aeabi_d2uiz+0x2e>
 8000f32:	d50d      	bpl.n	8000f50 <__aeabi_d2uiz+0x28>
 8000f34:	f46f 7378 	mvn.w	r3, #992	; 0x3e0
 8000f38:	ebb3 5262 	subs.w	r2, r3, r2, asr #21
 8000f3c:	d40e      	bmi.n	8000f5c <__aeabi_d2uiz+0x34>
 8000f3e:	ea4f 23c1 	mov.w	r3, r1, lsl #11
 8000f42:	f043 4300 	orr.w	r3, r3, #2147483648	; 0x80000000
 8000f46:	ea43 5350 	orr.w	r3, r3, r0, lsr #21
 8000f4a:	fa23 f002 	lsr.w	r0, r3, r2
 8000f4e:	4770      	bx	lr
 8000f50:	f04f 0000 	mov.w	r0, #0
 8000f54:	4770      	bx	lr
 8000f56:	ea50 3001 	orrs.w	r0, r0, r1, lsl #12
 8000f5a:	d102      	bne.n	8000f62 <__aeabi_d2uiz+0x3a>
 8000f5c:	f04f 30ff 	mov.w	r0, #4294967295	; 0xffffffff
 8000f60:	4770      	bx	lr
 8000f62:	f04f 0000 	mov.w	r0, #0
 8000f66:	4770      	bx	lr

08000f68 <BSP_LED_Init>:
 8000f68:	2803      	cmp	r0, #3
 8000f6a:	d82d      	bhi.n	8000fc8 <BSP_LED_Init+0x60>
 8000f6c:	b570      	push	{r4, r5, r6, lr}
 8000f6e:	4d29      	ldr	r5, [pc, #164]	; (8001014 <BSP_LED_Init+0xac>)
 8000f70:	b08a      	sub	sp, #40	; 0x28
 8000f72:	f855 2020 	ldr.w	r2, [r5, r0, lsl #2]
 8000f76:	9205      	str	r2, [sp, #20]
 8000f78:	2301      	movs	r3, #1
 8000f7a:	2203      	movs	r2, #3
 8000f7c:	2802      	cmp	r0, #2
 8000f7e:	e9cd 3306 	strd	r3, r3, [sp, #24]
 8000f82:	9208      	str	r2, [sp, #32]
 8000f84:	d021      	beq.n	8000fca <BSP_LED_Init+0x62>
 8000f86:	4290      	cmp	r0, r2
 8000f88:	f04f 0200 	mov.w	r2, #0
 8000f8c:	d035      	beq.n	8000ffa <BSP_LED_Init+0x92>
 8000f8e:	4298      	cmp	r0, r3
 8000f90:	4b21      	ldr	r3, [pc, #132]	; (8001018 <BSP_LED_Init+0xb0>)
 8000f92:	d027      	beq.n	8000fe4 <BSP_LED_Init+0x7c>
 8000f94:	9201      	str	r2, [sp, #4]
 8000f96:	6b1a      	ldr	r2, [r3, #48]	; 0x30
 8000f98:	f042 0240 	orr.w	r2, r2, #64	; 0x40
 8000f9c:	631a      	str	r2, [r3, #48]	; 0x30
 8000f9e:	6b1b      	ldr	r3, [r3, #48]	; 0x30
 8000fa0:	f003 0340 	and.w	r3, r3, #64	; 0x40
 8000fa4:	9301      	str	r3, [sp, #4]
 8000fa6:	9b01      	ldr	r3, [sp, #4]
 8000fa8:	4e1c      	ldr	r6, [pc, #112]	; (800101c <BSP_LED_Init+0xb4>)
 8000faa:	4604      	mov	r4, r0
 8000fac:	a905      	add	r1, sp, #20
 8000fae:	f856 0020 	ldr.w	r0, [r6, r0, lsl #2]
 8000fb2:	f000 fe51 	bl	8001c58 <HAL_GPIO_Init>
 8000fb6:	f856 0024 	ldr.w	r0, [r6, r4, lsl #2]
 8000fba:	f835 1024 	ldrh.w	r1, [r5, r4, lsl #2]
 8000fbe:	2201      	movs	r2, #1
 8000fc0:	f000 ffe0 	bl	8001f84 <HAL_GPIO_WritePin>
 8000fc4:	b00a      	add	sp, #40	; 0x28
 8000fc6:	bd70      	pop	{r4, r5, r6, pc}
 8000fc8:	4770      	bx	lr
 8000fca:	4b13      	ldr	r3, [pc, #76]	; (8001018 <BSP_LED_Init+0xb0>)
 8000fcc:	2200      	movs	r2, #0
 8000fce:	9203      	str	r2, [sp, #12]
 8000fd0:	6b1a      	ldr	r2, [r3, #48]	; 0x30
 8000fd2:	f042 0208 	orr.w	r2, r2, #8
 8000fd6:	631a      	str	r2, [r3, #48]	; 0x30
 8000fd8:	6b1b      	ldr	r3, [r3, #48]	; 0x30
 8000fda:	f003 0308 	and.w	r3, r3, #8
 8000fde:	9303      	str	r3, [sp, #12]
 8000fe0:	9b03      	ldr	r3, [sp, #12]
 8000fe2:	e7e1      	b.n	8000fa8 <BSP_LED_Init+0x40>
 8000fe4:	9202      	str	r2, [sp, #8]
 8000fe6:	6b1a      	ldr	r2, [r3, #48]	; 0x30
 8000fe8:	f042 0208 	orr.w	r2, r2, #8
 8000fec:	631a      	str	r2, [r3, #48]	; 0x30
 8000fee:	6b1b      	ldr	r3, [r3, #48]	; 0x30
 8000ff0:	f003 0308 	and.w	r3, r3, #8
 8000ff4:	9302      	str	r3, [sp, #8]
 8000ff6:	9b02      	ldr	r3, [sp, #8]
 8000ff8:	e7d6      	b.n	8000fa8 <BSP_LED_Init+0x40>
 8000ffa:	4b07      	ldr	r3, [pc, #28]	; (8001018 <BSP_LED_Init+0xb0>)
 8000ffc:	9204      	str	r2, [sp, #16]
 8000ffe:	6b1a      	ldr	r2, [r3, #48]	; 0x30
 8001000:	f442 6280 	orr.w	r2, r2, #1024	; 0x400
 8001004:	631a      	str	r2, [r3, #48]	; 0x30
 8001006:	6b1b      	ldr	r3, [r3, #48]	; 0x30
 8001008:	f403 6380 	and.w	r3, r3, #1024	; 0x400
 800100c:	9304      	str	r3, [sp, #16]
 800100e:	9b04      	ldr	r3, [sp, #16]
 8001010:	e7ca      	b.n	8000fa8 <BSP_LED_Init+0x40>
 8001012:	bf00      	nop
 8001014:	20000400 	.word	0x20000400
 8001018:	40023800 	.word	0x40023800
 800101c:	20000410 	.word	0x20000410

08001020 <BSP_LED_On>:
 8001020:	2803      	cmp	r0, #3
 8001022:	d900      	bls.n	8001026 <BSP_LED_On+0x6>
 8001024:	4770      	bx	lr
 8001026:	4a04      	ldr	r2, [pc, #16]	; (8001038 <BSP_LED_On+0x18>)
 8001028:	4b04      	ldr	r3, [pc, #16]	; (800103c <BSP_LED_On+0x1c>)
 800102a:	f832 1020 	ldrh.w	r1, [r2, r0, lsl #2]
 800102e:	f853 0020 	ldr.w	r0, [r3, r0, lsl #2]
 8001032:	2200      	movs	r2, #0
 8001034:	f000 bfa6 	b.w	8001f84 <HAL_GPIO_WritePin>
 8001038:	20000400 	.word	0x20000400
 800103c:	20000410 	.word	0x20000410

08001040 <BSP_LED_Off>:
 8001040:	2803      	cmp	r0, #3
 8001042:	d900      	bls.n	8001046 <BSP_LED_Off+0x6>
 8001044:	4770      	bx	lr
 8001046:	4a04      	ldr	r2, [pc, #16]	; (8001058 <BSP_LED_Off+0x18>)
 8001048:	4b04      	ldr	r3, [pc, #16]	; (800105c <BSP_LED_Off+0x1c>)
 800104a:	f832 1020 	ldrh.w	r1, [r2, r0, lsl #2]
 800104e:	f853 0020 	ldr.w	r0, [r3, r0, lsl #2]
 8001052:	2201      	movs	r2, #1
 8001054:	f000 bf96 	b.w	8001f84 <HAL_GPIO_WritePin>
 8001058:	20000400 	.word	0x20000400
 800105c:	20000410 	.word	0x20000410

08001060 <BSP_AUDIO_IN_Record>:
 8001060:	b508      	push	{r3, lr}
 8001062:	b28a      	uxth	r2, r1
 8001064:	4601      	mov	r1, r0
 8001066:	4802      	ldr	r0, [pc, #8]	; (8001070 <BSP_AUDIO_IN_Record+0x10>)
 8001068:	f001 f908 	bl	800227c <HAL_I2S_Receive_DMA>
 800106c:	2000      	movs	r0, #0
 800106e:	bd08      	pop	{r3, pc}
 8001070:	200061b0 	.word	0x200061b0

08001074 <BSP_AUDIO_IN_SetVolume>:
 8001074:	4b01      	ldr	r3, [pc, #4]	; (800107c <BSP_AUDIO_IN_SetVolume+0x8>)
 8001076:	8018      	strh	r0, [r3, #0]
 8001078:	2000      	movs	r0, #0
 800107a:	4770      	bx	lr
 800107c:	20000420 	.word	0x20000420

08001080 <BSP_AUDIO_IN_PDMToPCM>:
 8001080:	b5f0      	push	{r4, r5, r6, r7, lr}
 8001082:	4c1a      	ldr	r4, [pc, #104]	; (80010ec <BSP_AUDIO_IN_PDMToPCM+0x6c>)
 8001084:	f5ad 7d01 	sub.w	sp, sp, #516	; 0x204
 8001088:	460d      	mov	r5, r1
 800108a:	3802      	subs	r0, #2
 800108c:	4669      	mov	r1, sp
 800108e:	af40      	add	r7, sp, #256	; 0x100
 8001090:	f830 3f02 	ldrh.w	r3, [r0, #2]!
 8001094:	0a1a      	lsrs	r2, r3, #8
 8001096:	b2db      	uxtb	r3, r3
 8001098:	ea4f 0c52 	mov.w	ip, r2, lsr #1
 800109c:	085e      	lsrs	r6, r3, #1
 800109e:	f00c 0c55 	and.w	ip, ip, #85	; 0x55
 80010a2:	f002 0255 	and.w	r2, r2, #85	; 0x55
 80010a6:	f006 0655 	and.w	r6, r6, #85	; 0x55
 80010aa:	f003 0355 	and.w	r3, r3, #85	; 0x55
 80010ae:	f814 e00c 	ldrb.w	lr, [r4, ip]
 80010b2:	f814 c002 	ldrb.w	ip, [r4, r2]
 80010b6:	5da2      	ldrb	r2, [r4, r6]
 80010b8:	5ce6      	ldrb	r6, [r4, r3]
 80010ba:	ea42 130e 	orr.w	r3, r2, lr, lsl #4
 80010be:	ea46 120c 	orr.w	r2, r6, ip, lsl #4
 80010c2:	704a      	strb	r2, [r1, #1]
 80010c4:	f801 3b02 	strb.w	r3, [r1], #2
 80010c8:	428f      	cmp	r7, r1
 80010ca:	d1e1      	bne.n	8001090 <BSP_AUDIO_IN_PDMToPCM+0x10>
 80010cc:	4629      	mov	r1, r5
 80010ce:	4668      	mov	r0, sp
 80010d0:	4a07      	ldr	r2, [pc, #28]	; (80010f0 <BSP_AUDIO_IN_PDMToPCM+0x70>)
 80010d2:	f008 fab9 	bl	8009648 <PDM_Filter>
 80010d6:	1ca9      	adds	r1, r5, #2
 80010d8:	4a06      	ldr	r2, [pc, #24]	; (80010f4 <BSP_AUDIO_IN_PDMToPCM+0x74>)
 80010da:	f10d 0001 	add.w	r0, sp, #1
 80010de:	f008 fab3 	bl	8009648 <PDM_Filter>
 80010e2:	2000      	movs	r0, #0
 80010e4:	f50d 7d01 	add.w	sp, sp, #516	; 0x204
 80010e8:	bdf0      	pop	{r4, r5, r6, r7, pc}
 80010ea:	bf00      	nop
 80010ec:	20000424 	.word	0x20000424
 80010f0:	20006118 	.word	0x20006118
 80010f4:	20006164 	.word	0x20006164

080010f8 <BSP_AUDIO_IN_ClockConfig>:
 80010f8:	b500      	push	{lr}
 80010fa:	b091      	sub	sp, #68	; 0x44
 80010fc:	a801      	add	r0, sp, #4
 80010fe:	f001 ff19 	bl	8002f34 <HAL_RCCEx_GetPeriphCLKConfig>
 8001102:	2101      	movs	r1, #1
 8001104:	f44f 72c0 	mov.w	r2, #384	; 0x180
 8001108:	2302      	movs	r3, #2
 800110a:	a801      	add	r0, sp, #4
 800110c:	e9cd 1201 	strd	r1, r2, [sp, #4]
 8001110:	9303      	str	r3, [sp, #12]
 8001112:	f001 fcab 	bl	8002a6c <HAL_RCCEx_PeriphCLKConfig>
 8001116:	b011      	add	sp, #68	; 0x44
 8001118:	f85d fb04 	ldr.w	pc, [sp], #4

0800111c <HAL_I2S_RxCpltCallback>:
 800111c:	b508      	push	{r3, lr}
 800111e:	f003 ff83 	bl	8005028 <BSP_AUDIO_IN_TransferComplete_CallBack>
 8001122:	bd08      	pop	{r3, pc}

08001124 <HAL_I2S_RxHalfCpltCallback>:
 8001124:	b508      	push	{r3, lr}
 8001126:	f003 ffb1 	bl	800508c <BSP_AUDIO_IN_HalfTransfer_CallBack>
 800112a:	bd08      	pop	{r3, pc}

0800112c <BSP_AUDIO_IN_Error_Callback>:
 800112c:	4770      	bx	lr
 800112e:	bf00      	nop

08001130 <HAL_I2S_ErrorCallback>:
 8001130:	b508      	push	{r3, lr}
 8001132:	f7ff fffb 	bl	800112c <BSP_AUDIO_IN_Error_Callback>
 8001136:	bd08      	pop	{r3, pc}

08001138 <BSP_AUDIO_IN_MspInit>:
 8001138:	e92d 4ff0 	stmdb	sp!, {r4, r5, r6, r7, r8, r9, sl, fp, lr}
 800113c:	b099      	sub	sp, #100	; 0x64
 800113e:	2400      	movs	r4, #0
 8001140:	4d71      	ldr	r5, [pc, #452]	; (8001308 <BSP_AUDIO_IN_MspInit+0x1d0>)
 8001142:	4e72      	ldr	r6, [pc, #456]	; (800130c <BSP_AUDIO_IN_MspInit+0x1d4>)
 8001144:	9402      	str	r4, [sp, #8]
 8001146:	4b72      	ldr	r3, [pc, #456]	; (8001310 <BSP_AUDIO_IN_MspInit+0x1d8>)
 8001148:	6033      	str	r3, [r6, #0]
 800114a:	6c2b      	ldr	r3, [r5, #64]	; 0x40
 800114c:	6074      	str	r4, [r6, #4]
 800114e:	f043 0304 	orr.w	r3, r3, #4
 8001152:	642b      	str	r3, [r5, #64]	; 0x40
 8001154:	6c2b      	ldr	r3, [r5, #64]	; 0x40
 8001156:	6134      	str	r4, [r6, #16]
 8001158:	f003 0304 	and.w	r3, r3, #4
 800115c:	9302      	str	r3, [sp, #8]
 800115e:	9b02      	ldr	r3, [sp, #8]
 8001160:	9403      	str	r4, [sp, #12]
 8001162:	6b2b      	ldr	r3, [r5, #48]	; 0x30
 8001164:	60b4      	str	r4, [r6, #8]
 8001166:	f043 0308 	orr.w	r3, r3, #8
 800116a:	632b      	str	r3, [r5, #48]	; 0x30
 800116c:	af18      	add	r7, sp, #96	; 0x60
 800116e:	6b2a      	ldr	r2, [r5, #48]	; 0x30
 8001170:	9413      	str	r4, [sp, #76]	; 0x4c
 8001172:	f44f 5380 	mov.w	r3, #4096	; 0x1000
 8001176:	f847 3d1c 	str.w	r3, [r7, #-28]!
 800117a:	f002 0208 	and.w	r2, r2, #8
 800117e:	f04f 0802 	mov.w	r8, #2
 8001182:	2303      	movs	r3, #3
 8001184:	f04f 0901 	mov.w	r9, #1
 8001188:	4682      	mov	sl, r0
 800118a:	9203      	str	r2, [sp, #12]
 800118c:	4639      	mov	r1, r7
 800118e:	4861      	ldr	r0, [pc, #388]	; (8001314 <BSP_AUDIO_IN_MspInit+0x1dc>)
 8001190:	9314      	str	r3, [sp, #80]	; 0x50
 8001192:	9a03      	ldr	r2, [sp, #12]
 8001194:	f8c6 900c 	str.w	r9, [r6, #12]
 8001198:	f8cd 8048 	str.w	r8, [sp, #72]	; 0x48
 800119c:	f8cd 8054 	str.w	r8, [sp, #84]	; 0x54
 80011a0:	f44f 5b00 	mov.w	fp, #8192	; 0x2000
 80011a4:	f000 fd58 	bl	8001c58 <HAL_GPIO_Init>
 80011a8:	4639      	mov	r1, r7
 80011aa:	485a      	ldr	r0, [pc, #360]	; (8001314 <BSP_AUDIO_IN_MspInit+0x1dc>)
 80011ac:	f8cd b044 	str.w	fp, [sp, #68]	; 0x44
 80011b0:	f000 fd52 	bl	8001c58 <HAL_GPIO_Init>
 80011b4:	4630      	mov	r0, r6
 80011b6:	f002 ffb3 	bl	8004120 <HAL_TIM_IC_Init>
 80011ba:	4622      	mov	r2, r4
 80011bc:	4630      	mov	r0, r6
 80011be:	a904      	add	r1, sp, #16
 80011c0:	e9cd 8904 	strd	r8, r9, [sp, #16]
 80011c4:	e9cd 4406 	strd	r4, r4, [sp, #24]
 80011c8:	f003 fa1c 	bl	8004604 <HAL_TIM_IC_ConfigChannel>
 80011cc:	2270      	movs	r2, #112	; 0x70
 80011ce:	4630      	mov	r0, r6
 80011d0:	a908      	add	r1, sp, #32
 80011d2:	9208      	str	r2, [sp, #32]
 80011d4:	e9cd 4409 	strd	r4, r4, [sp, #36]	; 0x24
 80011d8:	940b      	str	r4, [sp, #44]	; 0x2c
 80011da:	f002 fc53 	bl	8003a84 <HAL_TIM_ConfigClockSource>
 80011de:	2350      	movs	r3, #80	; 0x50
 80011e0:	2207      	movs	r2, #7
 80011e2:	4630      	mov	r0, r6
 80011e4:	a90c      	add	r1, sp, #48	; 0x30
 80011e6:	e9cd 230c 	strd	r2, r3, [sp, #48]	; 0x30
 80011ea:	e9cd 440e 	strd	r4, r4, [sp, #56]	; 0x38
 80011ee:	9410      	str	r4, [sp, #64]	; 0x40
 80011f0:	f002 febe 	bl	8003f70 <HAL_TIM_SlaveConfigSynchro>
 80011f4:	2260      	movs	r2, #96	; 0x60
 80011f6:	f44f 7c00 	mov.w	ip, #512	; 0x200
 80011fa:	f44f 7380 	mov.w	r3, #256	; 0x100
 80011fe:	4639      	mov	r1, r7
 8001200:	4630      	mov	r0, r6
 8001202:	9211      	str	r2, [sp, #68]	; 0x44
 8001204:	2204      	movs	r2, #4
 8001206:	e9cd 3c16 	strd	r3, ip, [sp, #88]	; 0x58
 800120a:	f8cd 9048 	str.w	r9, [sp, #72]	; 0x48
 800120e:	e9cd 4413 	strd	r4, r4, [sp, #76]	; 0x4c
 8001212:	9415      	str	r4, [sp, #84]	; 0x54
 8001214:	f003 f880 	bl	8004318 <HAL_TIM_PWM_ConfigChannel>
 8001218:	4630      	mov	r0, r6
 800121a:	2104      	movs	r1, #4
 800121c:	f003 fba0 	bl	8004960 <HAL_TIM_PWM_Start>
 8001220:	4621      	mov	r1, r4
 8001222:	4630      	mov	r0, r6
 8001224:	f003 fc04 	bl	8004a30 <HAL_TIM_IC_Start>
 8001228:	9401      	str	r4, [sp, #4]
 800122a:	6c2a      	ldr	r2, [r5, #64]	; 0x40
 800122c:	483a      	ldr	r0, [pc, #232]	; (8001318 <BSP_AUDIO_IN_MspInit+0x1e0>)
 800122e:	f442 4200 	orr.w	r2, r2, #32768	; 0x8000
 8001232:	642a      	str	r2, [r5, #64]	; 0x40
 8001234:	6c2a      	ldr	r2, [r5, #64]	; 0x40
 8001236:	f402 4200 	and.w	r2, r2, #32768	; 0x8000
 800123a:	9201      	str	r2, [sp, #4]
 800123c:	9a01      	ldr	r2, [sp, #4]
 800123e:	9404      	str	r4, [sp, #16]
 8001240:	6b2a      	ldr	r2, [r5, #48]	; 0x30
 8001242:	f042 0208 	orr.w	r2, r2, #8
 8001246:	632a      	str	r2, [r5, #48]	; 0x30
 8001248:	6b2a      	ldr	r2, [r5, #48]	; 0x30
 800124a:	f002 0208 	and.w	r2, r2, #8
 800124e:	9204      	str	r2, [sp, #16]
 8001250:	9a04      	ldr	r2, [sp, #16]
 8001252:	9408      	str	r4, [sp, #32]
 8001254:	6b2a      	ldr	r2, [r5, #48]	; 0x30
 8001256:	ea42 0208 	orr.w	r2, r2, r8
 800125a:	632a      	str	r2, [r5, #48]	; 0x30
 800125c:	6b2a      	ldr	r2, [r5, #48]	; 0x30
 800125e:	f8cd 8048 	str.w	r8, [sp, #72]	; 0x48
 8001262:	ea02 0208 	and.w	r2, r2, r8
 8001266:	9208      	str	r2, [sp, #32]
 8001268:	4639      	mov	r1, r7
 800126a:	2206      	movs	r2, #6
 800126c:	2608      	movs	r6, #8
 800126e:	9b08      	ldr	r3, [sp, #32]
 8001270:	9611      	str	r6, [sp, #68]	; 0x44
 8001272:	9215      	str	r2, [sp, #84]	; 0x54
 8001274:	e9cd 4813 	strd	r4, r8, [sp, #76]	; 0x4c
 8001278:	2640      	movs	r6, #64	; 0x40
 800127a:	f000 fced 	bl	8001c58 <HAL_GPIO_Init>
 800127e:	2205      	movs	r2, #5
 8001280:	4639      	mov	r1, r7
 8001282:	4824      	ldr	r0, [pc, #144]	; (8001314 <BSP_AUDIO_IN_MspInit+0x1dc>)
 8001284:	9215      	str	r2, [sp, #84]	; 0x54
 8001286:	9611      	str	r6, [sp, #68]	; 0x44
 8001288:	f000 fce6 	bl	8001c58 <HAL_GPIO_Init>
 800128c:	940c      	str	r4, [sp, #48]	; 0x30
 800128e:	6b2a      	ldr	r2, [r5, #48]	; 0x30
 8001290:	f8da 0000 	ldr.w	r0, [sl]
 8001294:	4921      	ldr	r1, [pc, #132]	; (800131c <BSP_AUDIO_IN_MspInit+0x1e4>)
 8001296:	f442 1200 	orr.w	r2, r2, #2097152	; 0x200000
 800129a:	632a      	str	r2, [r5, #48]	; 0x30
 800129c:	6b2a      	ldr	r2, [r5, #48]	; 0x30
 800129e:	f402 1200 	and.w	r2, r2, #2097152	; 0x200000
 80012a2:	920c      	str	r2, [sp, #48]	; 0x30
 80012a4:	4288      	cmp	r0, r1
 80012a6:	9a0c      	ldr	r2, [sp, #48]	; 0x30
 80012a8:	d00a      	beq.n	80012c0 <BSP_AUDIO_IN_MspInit+0x188>
 80012aa:	2200      	movs	r2, #0
 80012ac:	2106      	movs	r1, #6
 80012ae:	200d      	movs	r0, #13
 80012b0:	f000 f940 	bl	8001534 <HAL_NVIC_SetPriority>
 80012b4:	200d      	movs	r0, #13
 80012b6:	f000 f983 	bl	80015c0 <HAL_NVIC_EnableIRQ>
 80012ba:	b019      	add	sp, #100	; 0x64
 80012bc:	e8bd 8ff0 	ldmia.w	sp!, {r4, r5, r6, r7, r8, r9, sl, fp, pc}
 80012c0:	4d17      	ldr	r5, [pc, #92]	; (8001320 <BSP_AUDIO_IN_MspInit+0x1e8>)
 80012c2:	4a18      	ldr	r2, [pc, #96]	; (8001324 <BSP_AUDIO_IN_MspInit+0x1ec>)
 80012c4:	f8ca 503c 	str.w	r5, [sl, #60]	; 0x3c
 80012c8:	f44f 7380 	mov.w	r3, #256	; 0x100
 80012cc:	61eb      	str	r3, [r5, #28]
 80012ce:	f44f 3100 	mov.w	r1, #131072	; 0x20000
 80012d2:	2303      	movs	r3, #3
 80012d4:	f44f 6780 	mov.w	r7, #1024	; 0x400
 80012d8:	f44f 6600 	mov.w	r6, #2048	; 0x800
 80012dc:	4628      	mov	r0, r5
 80012de:	e9c5 4401 	strd	r4, r4, [r5, #4]
 80012e2:	60ec      	str	r4, [r5, #12]
 80012e4:	f8c5 b018 	str.w	fp, [r5, #24]
 80012e8:	626c      	str	r4, [r5, #36]	; 0x24
 80012ea:	62ab      	str	r3, [r5, #40]	; 0x28
 80012ec:	e9c5 440b 	strd	r4, r4, [r5, #44]	; 0x2c
 80012f0:	f8c5 a038 	str.w	sl, [r5, #56]	; 0x38
 80012f4:	e9c5 7604 	strd	r7, r6, [r5, #16]
 80012f8:	6229      	str	r1, [r5, #32]
 80012fa:	602a      	str	r2, [r5, #0]
 80012fc:	f000 fb04 	bl	8001908 <HAL_DMA_DeInit>
 8001300:	4628      	mov	r0, r5
 8001302:	f000 f98b 	bl	800161c <HAL_DMA_Init>
 8001306:	e7d0      	b.n	80012aa <BSP_AUDIO_IN_MspInit+0x172>
 8001308:	40023800 	.word	0x40023800
 800130c:	200060d4 	.word	0x200060d4
 8001310:	40000800 	.word	0x40000800
 8001314:	40020c00 	.word	0x40020c00
 8001318:	40020400 	.word	0x40020400
 800131c:	40003c00 	.word	0x40003c00
 8001320:	20000580 	.word	0x20000580
 8001324:	40026040 	.word	0x40026040

08001328 <BSP_AUDIO_IN_Init>:
 8001328:	e92d 4ff0 	stmdb	sp!, {r4, r5, r6, r7, r8, r9, sl, fp, lr}
 800132c:	4b43      	ldr	r3, [pc, #268]	; (800143c <BSP_AUDIO_IN_Init+0x114>)
 800132e:	4c44      	ldr	r4, [pc, #272]	; (8001440 <BSP_AUDIO_IN_Init+0x118>)
 8001330:	69d9      	ldr	r1, [r3, #28]
 8001332:	6023      	str	r3, [r4, #0]
 8001334:	f421 6180 	bic.w	r1, r1, #1024	; 0x400
 8001338:	b085      	sub	sp, #20
 800133a:	61d9      	str	r1, [r3, #28]
 800133c:	4606      	mov	r6, r0
 800133e:	4620      	mov	r0, r4
 8001340:	4691      	mov	r9, r2
 8001342:	f000 ff71 	bl	8002228 <HAL_I2S_DeInit>
 8001346:	4620      	mov	r0, r4
 8001348:	2100      	movs	r1, #0
 800134a:	f7ff fed5 	bl	80010f8 <BSP_AUDIO_IN_ClockConfig>
 800134e:	f04f 0a00 	mov.w	sl, #0
 8001352:	4b3c      	ldr	r3, [pc, #240]	; (8001444 <BSP_AUDIO_IN_Init+0x11c>)
 8001354:	f8cd a00c 	str.w	sl, [sp, #12]
 8001358:	6b1a      	ldr	r2, [r3, #48]	; 0x30
 800135a:	f442 5280 	orr.w	r2, r2, #4096	; 0x1000
 800135e:	631a      	str	r2, [r3, #48]	; 0x30
 8001360:	6b1b      	ldr	r3, [r3, #48]	; 0x30
 8001362:	f403 5380 	and.w	r3, r3, #4096	; 0x1000
 8001366:	9303      	str	r3, [sp, #12]
 8001368:	9b03      	ldr	r3, [sp, #12]
 800136a:	f1b9 0f00 	cmp.w	r9, #0
 800136e:	d03c      	beq.n	80013ea <BSP_AUDIO_IN_Init+0xc2>
 8001370:	4b35      	ldr	r3, [pc, #212]	; (8001448 <BSP_AUDIO_IN_Init+0x120>)
 8001372:	4d36      	ldr	r5, [pc, #216]	; (800144c <BSP_AUDIO_IN_Init+0x124>)
 8001374:	4a36      	ldr	r2, [pc, #216]	; (8001450 <BSP_AUDIO_IN_Init+0x128>)
 8001376:	4f37      	ldr	r7, [pc, #220]	; (8001454 <BSP_AUDIO_IN_Init+0x12c>)
 8001378:	606a      	str	r2, [r5, #4]
 800137a:	fba3 3806 	umull	r3, r8, r3, r6
 800137e:	fa1f f389 	uxth.w	r3, r9
 8001382:	816b      	strh	r3, [r5, #10]
 8001384:	812b      	strh	r3, [r5, #8]
 8001386:	f8c5 a000 	str.w	sl, [r5]
 800138a:	4628      	mov	r0, r5
 800138c:	9201      	str	r2, [sp, #4]
 800138e:	9300      	str	r3, [sp, #0]
 8001390:	f3c8 188f 	ubfx	r8, r8, #6, #16
 8001394:	f007 ffdc 	bl	8009350 <PDM_Filter_Init>
 8001398:	f04f 0b02 	mov.w	fp, #2
 800139c:	f04f 0318 	mov.w	r3, #24
 80013a0:	4639      	mov	r1, r7
 80013a2:	4628      	mov	r0, r5
 80013a4:	f8a7 8002 	strh.w	r8, [r7, #2]
 80013a8:	80bb      	strh	r3, [r7, #4]
 80013aa:	f8a7 b000 	strh.w	fp, [r7]
 80013ae:	f008 f859 	bl	8009464 <PDM_Filter_setConfig>
 80013b2:	f1b9 0f01 	cmp.w	r9, #1
 80013b6:	d918      	bls.n	80013ea <BSP_AUDIO_IN_Init+0xc2>
 80013b8:	9b00      	ldr	r3, [sp, #0]
 80013ba:	9a01      	ldr	r2, [sp, #4]
 80013bc:	f8a5 3056 	strh.w	r3, [r5, #86]	; 0x56
 80013c0:	f8a5 3054 	strh.w	r3, [r5, #84]	; 0x54
 80013c4:	f105 004c 	add.w	r0, r5, #76	; 0x4c
 80013c8:	f8c5 a04c 	str.w	sl, [r5, #76]	; 0x4c
 80013cc:	652a      	str	r2, [r5, #80]	; 0x50
 80013ce:	f007 ffbf 	bl	8009350 <PDM_Filter_Init>
 80013d2:	4639      	mov	r1, r7
 80013d4:	f04f 0318 	mov.w	r3, #24
 80013d8:	f105 004c 	add.w	r0, r5, #76	; 0x4c
 80013dc:	f821 bf06 	strh.w	fp, [r1, #6]!
 80013e0:	f8a7 8008 	strh.w	r8, [r7, #8]
 80013e4:	817b      	strh	r3, [r7, #10]
 80013e6:	f008 f83d 	bl	8009464 <PDM_Filter_setConfig>
 80013ea:	4b14      	ldr	r3, [pc, #80]	; (800143c <BSP_AUDIO_IN_Init+0x114>)
 80013ec:	4814      	ldr	r0, [pc, #80]	; (8001440 <BSP_AUDIO_IN_Init+0x118>)
 80013ee:	6023      	str	r3, [r4, #0]
 80013f0:	f001 f868 	bl	80024c4 <HAL_I2S_GetState>
 80013f4:	b918      	cbnz	r0, 80013fe <BSP_AUDIO_IN_Init+0xd6>
 80013f6:	4601      	mov	r1, r0
 80013f8:	4811      	ldr	r0, [pc, #68]	; (8001440 <BSP_AUDIO_IN_Init+0x118>)
 80013fa:	f7ff fe9d 	bl	8001138 <BSP_AUDIO_IN_MspInit>
 80013fe:	4b0f      	ldr	r3, [pc, #60]	; (800143c <BSP_AUDIO_IN_Init+0x114>)
 8001400:	6023      	str	r3, [r4, #0]
 8001402:	69da      	ldr	r2, [r3, #28]
 8001404:	480e      	ldr	r0, [pc, #56]	; (8001440 <BSP_AUDIO_IN_Init+0x118>)
 8001406:	f422 6280 	bic.w	r2, r2, #1024	; 0x400
 800140a:	61da      	str	r2, [r3, #28]
 800140c:	2500      	movs	r5, #0
 800140e:	f44f 7240 	mov.w	r2, #768	; 0x300
 8001412:	2320      	movs	r3, #32
 8001414:	00b6      	lsls	r6, r6, #2
 8001416:	e9c4 2301 	strd	r2, r3, [r4, #4]
 800141a:	6166      	str	r6, [r4, #20]
 800141c:	e9c4 5506 	strd	r5, r5, [r4, #24]
 8001420:	e9c4 5503 	strd	r5, r5, [r4, #12]
 8001424:	f000 fdca 	bl	8001fbc <HAL_I2S_Init>
 8001428:	6822      	ldr	r2, [r4, #0]
 800142a:	69d3      	ldr	r3, [r2, #28]
 800142c:	4628      	mov	r0, r5
 800142e:	f443 6380 	orr.w	r3, r3, #1024	; 0x400
 8001432:	61d3      	str	r3, [r2, #28]
 8001434:	b005      	add	sp, #20
 8001436:	e8bd 8ff0 	ldmia.w	sp!, {r4, r5, r6, r7, r8, r9, sl, fp, pc}
 800143a:	bf00      	nop
 800143c:	40003c00 	.word	0x40003c00
 8001440:	200061b0 	.word	0x200061b0
 8001444:	40023800 	.word	0x40023800
 8001448:	10624dd3 	.word	0x10624dd3
 800144c:	20006118 	.word	0x20006118
 8001450:	7e809d48 	.word	0x7e809d48
 8001454:	20006040 	.word	0x20006040

08001458 <HAL_MspInit>:
 8001458:	4770      	bx	lr
 800145a:	bf00      	nop

0800145c <HAL_InitTick>:
 800145c:	b538      	push	{r3, r4, r5, lr}
 800145e:	4a0e      	ldr	r2, [pc, #56]	; (8001498 <HAL_InitTick+0x3c>)
 8001460:	4b0e      	ldr	r3, [pc, #56]	; (800149c <HAL_InitTick+0x40>)
 8001462:	7812      	ldrb	r2, [r2, #0]
 8001464:	681b      	ldr	r3, [r3, #0]
 8001466:	4605      	mov	r5, r0
 8001468:	f44f 707a 	mov.w	r0, #1000	; 0x3e8
 800146c:	fbb0 f0f2 	udiv	r0, r0, r2
 8001470:	fbb3 f0f0 	udiv	r0, r3, r0
 8001474:	f000 f8b8 	bl	80015e8 <HAL_SYSTICK_Config>
 8001478:	b908      	cbnz	r0, 800147e <HAL_InitTick+0x22>
 800147a:	2d0f      	cmp	r5, #15
 800147c:	d901      	bls.n	8001482 <HAL_InitTick+0x26>
 800147e:	2001      	movs	r0, #1
 8001480:	bd38      	pop	{r3, r4, r5, pc}
 8001482:	4604      	mov	r4, r0
 8001484:	4602      	mov	r2, r0
 8001486:	4629      	mov	r1, r5
 8001488:	f04f 30ff 	mov.w	r0, #4294967295	; 0xffffffff
 800148c:	f000 f852 	bl	8001534 <HAL_NVIC_SetPriority>
 8001490:	4b03      	ldr	r3, [pc, #12]	; (80014a0 <HAL_InitTick+0x44>)
 8001492:	4620      	mov	r0, r4
 8001494:	601d      	str	r5, [r3, #0]
 8001496:	bd38      	pop	{r3, r4, r5, pc}
 8001498:	200004a4 	.word	0x200004a4
 800149c:	200004bc 	.word	0x200004bc
 80014a0:	200004a8 	.word	0x200004a8

080014a4 <HAL_Init>:
 80014a4:	b508      	push	{r3, lr}
 80014a6:	4b0b      	ldr	r3, [pc, #44]	; (80014d4 <HAL_Init+0x30>)
 80014a8:	681a      	ldr	r2, [r3, #0]
 80014aa:	f442 7200 	orr.w	r2, r2, #512	; 0x200
 80014ae:	601a      	str	r2, [r3, #0]
 80014b0:	681a      	ldr	r2, [r3, #0]
 80014b2:	f442 6280 	orr.w	r2, r2, #1024	; 0x400
 80014b6:	601a      	str	r2, [r3, #0]
 80014b8:	681a      	ldr	r2, [r3, #0]
 80014ba:	f442 7280 	orr.w	r2, r2, #256	; 0x100
 80014be:	601a      	str	r2, [r3, #0]
 80014c0:	2003      	movs	r0, #3
 80014c2:	f000 f81b 	bl	80014fc <HAL_NVIC_SetPriorityGrouping>
 80014c6:	200f      	movs	r0, #15
 80014c8:	f7ff ffc8 	bl	800145c <HAL_InitTick>
 80014cc:	f7ff ffc4 	bl	8001458 <HAL_MspInit>
 80014d0:	2000      	movs	r0, #0
 80014d2:	bd08      	pop	{r3, pc}
 80014d4:	40023c00 	.word	0x40023c00

080014d8 <HAL_IncTick>:
 80014d8:	4a03      	ldr	r2, [pc, #12]	; (80014e8 <HAL_IncTick+0x10>)
 80014da:	4b04      	ldr	r3, [pc, #16]	; (80014ec <HAL_IncTick+0x14>)
 80014dc:	6811      	ldr	r1, [r2, #0]
 80014de:	781b      	ldrb	r3, [r3, #0]
 80014e0:	440b      	add	r3, r1
 80014e2:	6013      	str	r3, [r2, #0]
 80014e4:	4770      	bx	lr
 80014e6:	bf00      	nop
 80014e8:	200061f8 	.word	0x200061f8
 80014ec:	200004a4 	.word	0x200004a4

080014f0 <HAL_GetTick>:
 80014f0:	4b01      	ldr	r3, [pc, #4]	; (80014f8 <HAL_GetTick+0x8>)
 80014f2:	6818      	ldr	r0, [r3, #0]
 80014f4:	4770      	bx	lr
 80014f6:	bf00      	nop
 80014f8:	200061f8 	.word	0x200061f8

080014fc <HAL_NVIC_SetPriorityGrouping>:
 80014fc:	1ec3      	subs	r3, r0, #3
 80014fe:	2b04      	cmp	r3, #4
 8001500:	b510      	push	{r4, lr}
 8001502:	4604      	mov	r4, r0
 8001504:	d903      	bls.n	800150e <HAL_NVIC_SetPriorityGrouping+0x12>
 8001506:	2192      	movs	r1, #146	; 0x92
 8001508:	4808      	ldr	r0, [pc, #32]	; (800152c <HAL_NVIC_SetPriorityGrouping+0x30>)
 800150a:	f003 feab 	bl	8005264 <assert_failed>
 800150e:	4a08      	ldr	r2, [pc, #32]	; (8001530 <HAL_NVIC_SetPriorityGrouping+0x34>)
 8001510:	68d3      	ldr	r3, [r2, #12]
 8001512:	f64f 01ff 	movw	r1, #63743	; 0xf8ff
 8001516:	400b      	ands	r3, r1
 8001518:	0224      	lsls	r4, r4, #8
 800151a:	f043 63bf 	orr.w	r3, r3, #100139008	; 0x5f80000
 800151e:	f404 64e0 	and.w	r4, r4, #1792	; 0x700
 8001522:	f443 3300 	orr.w	r3, r3, #131072	; 0x20000
 8001526:	431c      	orrs	r4, r3
 8001528:	60d4      	str	r4, [r2, #12]
 800152a:	bd10      	pop	{r4, pc}
 800152c:	0800b14c 	.word	0x0800b14c
 8001530:	e000ed00 	.word	0xe000ed00

08001534 <HAL_NVIC_SetPriority>:
 8001534:	2a0f      	cmp	r2, #15
 8001536:	b570      	push	{r4, r5, r6, lr}
 8001538:	4616      	mov	r6, r2
 800153a:	4605      	mov	r5, r0
 800153c:	460c      	mov	r4, r1
 800153e:	d834      	bhi.n	80015aa <HAL_NVIC_SetPriority+0x76>
 8001540:	2c0f      	cmp	r4, #15
 8001542:	d82d      	bhi.n	80015a0 <HAL_NVIC_SetPriority+0x6c>
 8001544:	4b1b      	ldr	r3, [pc, #108]	; (80015b4 <HAL_NVIC_SetPriority+0x80>)
 8001546:	68db      	ldr	r3, [r3, #12]
 8001548:	f3c3 2302 	ubfx	r3, r3, #8, #3
 800154c:	f1c3 0107 	rsb	r1, r3, #7
 8001550:	2904      	cmp	r1, #4
 8001552:	f103 0204 	add.w	r2, r3, #4
 8001556:	bf28      	it	cs
 8001558:	2104      	movcs	r1, #4
 800155a:	2a06      	cmp	r2, #6
 800155c:	d917      	bls.n	800158e <HAL_NVIC_SetPriority+0x5a>
 800155e:	3b03      	subs	r3, #3
 8001560:	f04f 32ff 	mov.w	r2, #4294967295	; 0xffffffff
 8001564:	409a      	lsls	r2, r3
 8001566:	ea26 0602 	bic.w	r6, r6, r2
 800156a:	f04f 32ff 	mov.w	r2, #4294967295	; 0xffffffff
 800156e:	408a      	lsls	r2, r1
 8001570:	ea24 0202 	bic.w	r2, r4, r2
 8001574:	409a      	lsls	r2, r3
 8001576:	4332      	orrs	r2, r6
 8001578:	0112      	lsls	r2, r2, #4
 800157a:	2d00      	cmp	r5, #0
 800157c:	b2d2      	uxtb	r2, r2
 800157e:	db09      	blt.n	8001594 <HAL_NVIC_SetPriority+0x60>
 8001580:	f105 4560 	add.w	r5, r5, #3758096384	; 0xe0000000
 8001584:	f505 4561 	add.w	r5, r5, #57600	; 0xe100
 8001588:	f885 2300 	strb.w	r2, [r5, #768]	; 0x300
 800158c:	bd70      	pop	{r4, r5, r6, pc}
 800158e:	2600      	movs	r6, #0
 8001590:	4633      	mov	r3, r6
 8001592:	e7ea      	b.n	800156a <HAL_NVIC_SetPriority+0x36>
 8001594:	4b08      	ldr	r3, [pc, #32]	; (80015b8 <HAL_NVIC_SetPriority+0x84>)
 8001596:	f005 050f 	and.w	r5, r5, #15
 800159a:	442b      	add	r3, r5
 800159c:	761a      	strb	r2, [r3, #24]
 800159e:	bd70      	pop	{r4, r5, r6, pc}
 80015a0:	21ab      	movs	r1, #171	; 0xab
 80015a2:	4806      	ldr	r0, [pc, #24]	; (80015bc <HAL_NVIC_SetPriority+0x88>)
 80015a4:	f003 fe5e 	bl	8005264 <assert_failed>
 80015a8:	e7cc      	b.n	8001544 <HAL_NVIC_SetPriority+0x10>
 80015aa:	21aa      	movs	r1, #170	; 0xaa
 80015ac:	4803      	ldr	r0, [pc, #12]	; (80015bc <HAL_NVIC_SetPriority+0x88>)
 80015ae:	f003 fe59 	bl	8005264 <assert_failed>
 80015b2:	e7c5      	b.n	8001540 <HAL_NVIC_SetPriority+0xc>
 80015b4:	e000ed00 	.word	0xe000ed00
 80015b8:	e000ecfc 	.word	0xe000ecfc
 80015bc:	0800b14c 	.word	0x0800b14c

080015c0 <HAL_NVIC_EnableIRQ>:
 80015c0:	2800      	cmp	r0, #0
 80015c2:	db08      	blt.n	80015d6 <HAL_NVIC_EnableIRQ+0x16>
 80015c4:	f000 011f 	and.w	r1, r0, #31
 80015c8:	2301      	movs	r3, #1
 80015ca:	0940      	lsrs	r0, r0, #5
 80015cc:	4a04      	ldr	r2, [pc, #16]	; (80015e0 <HAL_NVIC_EnableIRQ+0x20>)
 80015ce:	408b      	lsls	r3, r1
 80015d0:	f842 3020 	str.w	r3, [r2, r0, lsl #2]
 80015d4:	4770      	bx	lr
 80015d6:	21be      	movs	r1, #190	; 0xbe
 80015d8:	4802      	ldr	r0, [pc, #8]	; (80015e4 <HAL_NVIC_EnableIRQ+0x24>)
 80015da:	f003 be43 	b.w	8005264 <assert_failed>
 80015de:	bf00      	nop
 80015e0:	e000e100 	.word	0xe000e100
 80015e4:	0800b14c 	.word	0x0800b14c

080015e8 <HAL_SYSTICK_Config>:
 80015e8:	3801      	subs	r0, #1
 80015ea:	f1b0 7f80 	cmp.w	r0, #16777216	; 0x1000000
 80015ee:	d20e      	bcs.n	800160e <HAL_SYSTICK_Config+0x26>
 80015f0:	4b08      	ldr	r3, [pc, #32]	; (8001614 <HAL_SYSTICK_Config+0x2c>)
 80015f2:	b410      	push	{r4}
 80015f4:	4c08      	ldr	r4, [pc, #32]	; (8001618 <HAL_SYSTICK_Config+0x30>)
 80015f6:	6058      	str	r0, [r3, #4]
 80015f8:	20f0      	movs	r0, #240	; 0xf0
 80015fa:	f884 0023 	strb.w	r0, [r4, #35]	; 0x23
 80015fe:	2200      	movs	r2, #0
 8001600:	2107      	movs	r1, #7
 8001602:	4610      	mov	r0, r2
 8001604:	609a      	str	r2, [r3, #8]
 8001606:	6019      	str	r1, [r3, #0]
 8001608:	f85d 4b04 	ldr.w	r4, [sp], #4
 800160c:	4770      	bx	lr
 800160e:	2001      	movs	r0, #1
 8001610:	4770      	bx	lr
 8001612:	bf00      	nop
 8001614:	e000e010 	.word	0xe000e010
 8001618:	e000ed00 	.word	0xe000ed00

0800161c <HAL_DMA_Init>:
 800161c:	b5f8      	push	{r3, r4, r5, r6, r7, lr}
 800161e:	4604      	mov	r4, r0
 8001620:	f7ff ff66 	bl	80014f0 <HAL_GetTick>
 8001624:	2c00      	cmp	r4, #0
 8001626:	f000 80e4 	beq.w	80017f2 <HAL_DMA_Init+0x1d6>
 800162a:	6823      	ldr	r3, [r4, #0]
 800162c:	4ab1      	ldr	r2, [pc, #708]	; (80018f4 <HAL_DMA_Init+0x2d8>)
 800162e:	4293      	cmp	r3, r2
 8001630:	4605      	mov	r5, r0
 8001632:	d031      	beq.n	8001698 <HAL_DMA_Init+0x7c>
 8001634:	3218      	adds	r2, #24
 8001636:	4293      	cmp	r3, r2
 8001638:	d02e      	beq.n	8001698 <HAL_DMA_Init+0x7c>
 800163a:	3218      	adds	r2, #24
 800163c:	4293      	cmp	r3, r2
 800163e:	d02b      	beq.n	8001698 <HAL_DMA_Init+0x7c>
 8001640:	3218      	adds	r2, #24
 8001642:	4293      	cmp	r3, r2
 8001644:	d028      	beq.n	8001698 <HAL_DMA_Init+0x7c>
 8001646:	3218      	adds	r2, #24
 8001648:	4293      	cmp	r3, r2
 800164a:	d025      	beq.n	8001698 <HAL_DMA_Init+0x7c>
 800164c:	3218      	adds	r2, #24
 800164e:	4293      	cmp	r3, r2
 8001650:	d022      	beq.n	8001698 <HAL_DMA_Init+0x7c>
 8001652:	3218      	adds	r2, #24
 8001654:	4293      	cmp	r3, r2
 8001656:	d01f      	beq.n	8001698 <HAL_DMA_Init+0x7c>
 8001658:	3218      	adds	r2, #24
 800165a:	4293      	cmp	r3, r2
 800165c:	d01c      	beq.n	8001698 <HAL_DMA_Init+0x7c>
 800165e:	f502 7256 	add.w	r2, r2, #856	; 0x358
 8001662:	4293      	cmp	r3, r2
 8001664:	d018      	beq.n	8001698 <HAL_DMA_Init+0x7c>
 8001666:	3218      	adds	r2, #24
 8001668:	4293      	cmp	r3, r2
 800166a:	d015      	beq.n	8001698 <HAL_DMA_Init+0x7c>
 800166c:	3218      	adds	r2, #24
 800166e:	4293      	cmp	r3, r2
 8001670:	d012      	beq.n	8001698 <HAL_DMA_Init+0x7c>
 8001672:	3218      	adds	r2, #24
 8001674:	4293      	cmp	r3, r2
 8001676:	d00f      	beq.n	8001698 <HAL_DMA_Init+0x7c>
 8001678:	3218      	adds	r2, #24
 800167a:	4293      	cmp	r3, r2
 800167c:	d00c      	beq.n	8001698 <HAL_DMA_Init+0x7c>
 800167e:	3218      	adds	r2, #24
 8001680:	4293      	cmp	r3, r2
 8001682:	d009      	beq.n	8001698 <HAL_DMA_Init+0x7c>
 8001684:	3218      	adds	r2, #24
 8001686:	4293      	cmp	r3, r2
 8001688:	d006      	beq.n	8001698 <HAL_DMA_Init+0x7c>
 800168a:	3218      	adds	r2, #24
 800168c:	4293      	cmp	r3, r2
 800168e:	d003      	beq.n	8001698 <HAL_DMA_Init+0x7c>
 8001690:	21b8      	movs	r1, #184	; 0xb8
 8001692:	4899      	ldr	r0, [pc, #612]	; (80018f8 <HAL_DMA_Init+0x2dc>)
 8001694:	f003 fde6 	bl	8005264 <assert_failed>
 8001698:	6863      	ldr	r3, [r4, #4]
 800169a:	f033 63c0 	bics.w	r3, r3, #100663296	; 0x6000000
 800169e:	d006      	beq.n	80016ae <HAL_DMA_Init+0x92>
 80016a0:	f1b3 6f00 	cmp.w	r3, #134217728	; 0x8000000
 80016a4:	d003      	beq.n	80016ae <HAL_DMA_Init+0x92>
 80016a6:	21b9      	movs	r1, #185	; 0xb9
 80016a8:	4893      	ldr	r0, [pc, #588]	; (80018f8 <HAL_DMA_Init+0x2dc>)
 80016aa:	f003 fddb 	bl	8005264 <assert_failed>
 80016ae:	68a3      	ldr	r3, [r4, #8]
 80016b0:	f033 0240 	bics.w	r2, r3, #64	; 0x40
 80016b4:	d002      	beq.n	80016bc <HAL_DMA_Init+0xa0>
 80016b6:	2b80      	cmp	r3, #128	; 0x80
 80016b8:	f040 80cb 	bne.w	8001852 <HAL_DMA_Init+0x236>
 80016bc:	68e3      	ldr	r3, [r4, #12]
 80016be:	f433 7300 	bics.w	r3, r3, #512	; 0x200
 80016c2:	f040 80a2 	bne.w	800180a <HAL_DMA_Init+0x1ee>
 80016c6:	6923      	ldr	r3, [r4, #16]
 80016c8:	f433 6380 	bics.w	r3, r3, #1024	; 0x400
 80016cc:	f040 8093 	bne.w	80017f6 <HAL_DMA_Init+0x1da>
 80016d0:	6963      	ldr	r3, [r4, #20]
 80016d2:	f433 6200 	bics.w	r2, r3, #2048	; 0x800
 80016d6:	d003      	beq.n	80016e0 <HAL_DMA_Init+0xc4>
 80016d8:	f5b3 5f80 	cmp.w	r3, #4096	; 0x1000
 80016dc:	f040 80c3 	bne.w	8001866 <HAL_DMA_Init+0x24a>
 80016e0:	69a3      	ldr	r3, [r4, #24]
 80016e2:	f433 5200 	bics.w	r2, r3, #8192	; 0x2000
 80016e6:	d003      	beq.n	80016f0 <HAL_DMA_Init+0xd4>
 80016e8:	f5b3 4f80 	cmp.w	r3, #16384	; 0x4000
 80016ec:	f040 80a7 	bne.w	800183e <HAL_DMA_Init+0x222>
 80016f0:	69e3      	ldr	r3, [r4, #28]
 80016f2:	f033 0220 	bics.w	r2, r3, #32
 80016f6:	d006      	beq.n	8001706 <HAL_DMA_Init+0xea>
 80016f8:	f5b3 7f80 	cmp.w	r3, #256	; 0x100
 80016fc:	d003      	beq.n	8001706 <HAL_DMA_Init+0xea>
 80016fe:	21bf      	movs	r1, #191	; 0xbf
 8001700:	487d      	ldr	r0, [pc, #500]	; (80018f8 <HAL_DMA_Init+0x2dc>)
 8001702:	f003 fdaf 	bl	8005264 <assert_failed>
 8001706:	6a23      	ldr	r3, [r4, #32]
 8001708:	f433 3340 	bics.w	r3, r3, #196608	; 0x30000
 800170c:	d003      	beq.n	8001716 <HAL_DMA_Init+0xfa>
 800170e:	21c0      	movs	r1, #192	; 0xc0
 8001710:	4879      	ldr	r0, [pc, #484]	; (80018f8 <HAL_DMA_Init+0x2dc>)
 8001712:	f003 fda7 	bl	8005264 <assert_failed>
 8001716:	6a63      	ldr	r3, [r4, #36]	; 0x24
 8001718:	2b00      	cmp	r3, #0
 800171a:	d14d      	bne.n	80017b8 <HAL_DMA_Init+0x19c>
 800171c:	2202      	movs	r2, #2
 800171e:	6823      	ldr	r3, [r4, #0]
 8001720:	f884 2035 	strb.w	r2, [r4, #53]	; 0x35
 8001724:	681a      	ldr	r2, [r3, #0]
 8001726:	2100      	movs	r1, #0
 8001728:	f022 0201 	bic.w	r2, r2, #1
 800172c:	f884 1034 	strb.w	r1, [r4, #52]	; 0x34
 8001730:	601a      	str	r2, [r3, #0]
 8001732:	e005      	b.n	8001740 <HAL_DMA_Init+0x124>
 8001734:	f7ff fedc 	bl	80014f0 <HAL_GetTick>
 8001738:	1b40      	subs	r0, r0, r5
 800173a:	2805      	cmp	r0, #5
 800173c:	d852      	bhi.n	80017e4 <HAL_DMA_Init+0x1c8>
 800173e:	6823      	ldr	r3, [r4, #0]
 8001740:	681a      	ldr	r2, [r3, #0]
 8001742:	07d1      	lsls	r1, r2, #31
 8001744:	d4f6      	bmi.n	8001734 <HAL_DMA_Init+0x118>
 8001746:	e9d4 2601 	ldrd	r2, r6, [r4, #4]
 800174a:	e9d4 5103 	ldrd	r5, r1, [r4, #12]
 800174e:	4332      	orrs	r2, r6
 8001750:	6960      	ldr	r0, [r4, #20]
 8001752:	681f      	ldr	r7, [r3, #0]
 8001754:	432a      	orrs	r2, r5
 8001756:	e9d4 6506 	ldrd	r6, r5, [r4, #24]
 800175a:	430a      	orrs	r2, r1
 800175c:	4302      	orrs	r2, r0
 800175e:	6a21      	ldr	r1, [r4, #32]
 8001760:	4866      	ldr	r0, [pc, #408]	; (80018fc <HAL_DMA_Init+0x2e0>)
 8001762:	4332      	orrs	r2, r6
 8001764:	432a      	orrs	r2, r5
 8001766:	430a      	orrs	r2, r1
 8001768:	6a61      	ldr	r1, [r4, #36]	; 0x24
 800176a:	4038      	ands	r0, r7
 800176c:	2904      	cmp	r1, #4
 800176e:	ea42 0200 	orr.w	r2, r2, r0
 8001772:	f000 8082 	beq.w	800187a <HAL_DMA_Init+0x25e>
 8001776:	601a      	str	r2, [r3, #0]
 8001778:	695a      	ldr	r2, [r3, #20]
 800177a:	f022 0207 	bic.w	r2, r2, #7
 800177e:	4311      	orrs	r1, r2
 8001780:	b2da      	uxtb	r2, r3
 8001782:	485f      	ldr	r0, [pc, #380]	; (8001900 <HAL_DMA_Init+0x2e4>)
 8001784:	6159      	str	r1, [r3, #20]
 8001786:	3a10      	subs	r2, #16
 8001788:	fba0 1202 	umull	r1, r2, r0, r2
 800178c:	0912      	lsrs	r2, r2, #4
 800178e:	495d      	ldr	r1, [pc, #372]	; (8001904 <HAL_DMA_Init+0x2e8>)
 8001790:	f423 737f 	bic.w	r3, r3, #1020	; 0x3fc
 8001794:	5c89      	ldrb	r1, [r1, r2]
 8001796:	65e1      	str	r1, [r4, #92]	; 0x5c
 8001798:	f023 0303 	bic.w	r3, r3, #3
 800179c:	2a03      	cmp	r2, #3
 800179e:	bf88      	it	hi
 80017a0:	3304      	addhi	r3, #4
 80017a2:	223f      	movs	r2, #63	; 0x3f
 80017a4:	408a      	lsls	r2, r1
 80017a6:	2501      	movs	r5, #1
 80017a8:	2100      	movs	r1, #0
 80017aa:	65a3      	str	r3, [r4, #88]	; 0x58
 80017ac:	4608      	mov	r0, r1
 80017ae:	609a      	str	r2, [r3, #8]
 80017b0:	6561      	str	r1, [r4, #84]	; 0x54
 80017b2:	f884 5035 	strb.w	r5, [r4, #53]	; 0x35
 80017b6:	bdf8      	pop	{r3, r4, r5, r6, r7, pc}
 80017b8:	2b04      	cmp	r3, #4
 80017ba:	d130      	bne.n	800181e <HAL_DMA_Init+0x202>
 80017bc:	6aa3      	ldr	r3, [r4, #40]	; 0x28
 80017be:	2b03      	cmp	r3, #3
 80017c0:	d838      	bhi.n	8001834 <HAL_DMA_Init+0x218>
 80017c2:	6ae3      	ldr	r3, [r4, #44]	; 0x2c
 80017c4:	f033 73c0 	bics.w	r3, r3, #25165824	; 0x1800000
 80017c8:	d003      	beq.n	80017d2 <HAL_DMA_Init+0x1b6>
 80017ca:	21c7      	movs	r1, #199	; 0xc7
 80017cc:	484a      	ldr	r0, [pc, #296]	; (80018f8 <HAL_DMA_Init+0x2dc>)
 80017ce:	f003 fd49 	bl	8005264 <assert_failed>
 80017d2:	6b23      	ldr	r3, [r4, #48]	; 0x30
 80017d4:	f433 03c0 	bics.w	r3, r3, #6291456	; 0x600000
 80017d8:	d0a0      	beq.n	800171c <HAL_DMA_Init+0x100>
 80017da:	21c8      	movs	r1, #200	; 0xc8
 80017dc:	4846      	ldr	r0, [pc, #280]	; (80018f8 <HAL_DMA_Init+0x2dc>)
 80017de:	f003 fd41 	bl	8005264 <assert_failed>
 80017e2:	e79b      	b.n	800171c <HAL_DMA_Init+0x100>
 80017e4:	2303      	movs	r3, #3
 80017e6:	2220      	movs	r2, #32
 80017e8:	6562      	str	r2, [r4, #84]	; 0x54
 80017ea:	4618      	mov	r0, r3
 80017ec:	f884 3035 	strb.w	r3, [r4, #53]	; 0x35
 80017f0:	bdf8      	pop	{r3, r4, r5, r6, r7, pc}
 80017f2:	2001      	movs	r0, #1
 80017f4:	bdf8      	pop	{r3, r4, r5, r6, r7, pc}
 80017f6:	21bc      	movs	r1, #188	; 0xbc
 80017f8:	483f      	ldr	r0, [pc, #252]	; (80018f8 <HAL_DMA_Init+0x2dc>)
 80017fa:	f003 fd33 	bl	8005264 <assert_failed>
 80017fe:	6963      	ldr	r3, [r4, #20]
 8001800:	f433 6200 	bics.w	r2, r3, #2048	; 0x800
 8001804:	f43f af6c 	beq.w	80016e0 <HAL_DMA_Init+0xc4>
 8001808:	e766      	b.n	80016d8 <HAL_DMA_Init+0xbc>
 800180a:	21bb      	movs	r1, #187	; 0xbb
 800180c:	483a      	ldr	r0, [pc, #232]	; (80018f8 <HAL_DMA_Init+0x2dc>)
 800180e:	f003 fd29 	bl	8005264 <assert_failed>
 8001812:	6923      	ldr	r3, [r4, #16]
 8001814:	f433 6380 	bics.w	r3, r3, #1024	; 0x400
 8001818:	f43f af5a 	beq.w	80016d0 <HAL_DMA_Init+0xb4>
 800181c:	e7eb      	b.n	80017f6 <HAL_DMA_Init+0x1da>
 800181e:	21c1      	movs	r1, #193	; 0xc1
 8001820:	4835      	ldr	r0, [pc, #212]	; (80018f8 <HAL_DMA_Init+0x2dc>)
 8001822:	f003 fd1f 	bl	8005264 <assert_failed>
 8001826:	6a63      	ldr	r3, [r4, #36]	; 0x24
 8001828:	2b00      	cmp	r3, #0
 800182a:	f43f af77 	beq.w	800171c <HAL_DMA_Init+0x100>
 800182e:	6aa3      	ldr	r3, [r4, #40]	; 0x28
 8001830:	2b03      	cmp	r3, #3
 8001832:	d9c6      	bls.n	80017c2 <HAL_DMA_Init+0x1a6>
 8001834:	21c6      	movs	r1, #198	; 0xc6
 8001836:	4830      	ldr	r0, [pc, #192]	; (80018f8 <HAL_DMA_Init+0x2dc>)
 8001838:	f003 fd14 	bl	8005264 <assert_failed>
 800183c:	e7c1      	b.n	80017c2 <HAL_DMA_Init+0x1a6>
 800183e:	21be      	movs	r1, #190	; 0xbe
 8001840:	482d      	ldr	r0, [pc, #180]	; (80018f8 <HAL_DMA_Init+0x2dc>)
 8001842:	f003 fd0f 	bl	8005264 <assert_failed>
 8001846:	69e3      	ldr	r3, [r4, #28]
 8001848:	f033 0220 	bics.w	r2, r3, #32
 800184c:	f43f af5b 	beq.w	8001706 <HAL_DMA_Init+0xea>
 8001850:	e752      	b.n	80016f8 <HAL_DMA_Init+0xdc>
 8001852:	21ba      	movs	r1, #186	; 0xba
 8001854:	4828      	ldr	r0, [pc, #160]	; (80018f8 <HAL_DMA_Init+0x2dc>)
 8001856:	f003 fd05 	bl	8005264 <assert_failed>
 800185a:	68e3      	ldr	r3, [r4, #12]
 800185c:	f433 7300 	bics.w	r3, r3, #512	; 0x200
 8001860:	f43f af31 	beq.w	80016c6 <HAL_DMA_Init+0xaa>
 8001864:	e7d1      	b.n	800180a <HAL_DMA_Init+0x1ee>
 8001866:	21bd      	movs	r1, #189	; 0xbd
 8001868:	4823      	ldr	r0, [pc, #140]	; (80018f8 <HAL_DMA_Init+0x2dc>)
 800186a:	f003 fcfb 	bl	8005264 <assert_failed>
 800186e:	69a3      	ldr	r3, [r4, #24]
 8001870:	f433 5200 	bics.w	r2, r3, #8192	; 0x2000
 8001874:	f43f af3c 	beq.w	80016f0 <HAL_DMA_Init+0xd4>
 8001878:	e736      	b.n	80016e8 <HAL_DMA_Init+0xcc>
 800187a:	e9d4 010b 	ldrd	r0, r1, [r4, #44]	; 0x2c
 800187e:	4301      	orrs	r1, r0
 8001880:	430a      	orrs	r2, r1
 8001882:	6aa5      	ldr	r5, [r4, #40]	; 0x28
 8001884:	601a      	str	r2, [r3, #0]
 8001886:	695a      	ldr	r2, [r3, #20]
 8001888:	f045 0104 	orr.w	r1, r5, #4
 800188c:	f022 0207 	bic.w	r2, r2, #7
 8001890:	4311      	orrs	r1, r2
 8001892:	2800      	cmp	r0, #0
 8001894:	f43f af74 	beq.w	8001780 <HAL_DMA_Init+0x164>
 8001898:	b18e      	cbz	r6, 80018be <HAL_DMA_Init+0x2a2>
 800189a:	f5b6 5f00 	cmp.w	r6, #8192	; 0x2000
 800189e:	d01a      	beq.n	80018d6 <HAL_DMA_Init+0x2ba>
 80018a0:	2d02      	cmp	r5, #2
 80018a2:	d905      	bls.n	80018b0 <HAL_DMA_Init+0x294>
 80018a4:	2d03      	cmp	r5, #3
 80018a6:	f47f af6b 	bne.w	8001780 <HAL_DMA_Init+0x164>
 80018aa:	01c2      	lsls	r2, r0, #7
 80018ac:	f57f af68 	bpl.w	8001780 <HAL_DMA_Init+0x164>
 80018b0:	2301      	movs	r3, #1
 80018b2:	2240      	movs	r2, #64	; 0x40
 80018b4:	6562      	str	r2, [r4, #84]	; 0x54
 80018b6:	4618      	mov	r0, r3
 80018b8:	f884 3035 	strb.w	r3, [r4, #53]	; 0x35
 80018bc:	bdf8      	pop	{r3, r4, r5, r6, r7, pc}
 80018be:	2d01      	cmp	r5, #1
 80018c0:	d004      	beq.n	80018cc <HAL_DMA_Init+0x2b0>
 80018c2:	d3f2      	bcc.n	80018aa <HAL_DMA_Init+0x28e>
 80018c4:	2d02      	cmp	r5, #2
 80018c6:	f47f af5b 	bne.w	8001780 <HAL_DMA_Init+0x164>
 80018ca:	e7ee      	b.n	80018aa <HAL_DMA_Init+0x28e>
 80018cc:	f1b0 7fc0 	cmp.w	r0, #25165824	; 0x1800000
 80018d0:	f47f af56 	bne.w	8001780 <HAL_DMA_Init+0x164>
 80018d4:	e7ec      	b.n	80018b0 <HAL_DMA_Init+0x294>
 80018d6:	2d03      	cmp	r5, #3
 80018d8:	f63f af52 	bhi.w	8001780 <HAL_DMA_Init+0x164>
 80018dc:	a201      	add	r2, pc, #4	; (adr r2, 80018e4 <HAL_DMA_Init+0x2c8>)
 80018de:	f852 f025 	ldr.w	pc, [r2, r5, lsl #2]
 80018e2:	bf00      	nop
 80018e4:	080018b1 	.word	0x080018b1
 80018e8:	080018ab 	.word	0x080018ab
 80018ec:	080018b1 	.word	0x080018b1
 80018f0:	080018cd 	.word	0x080018cd
 80018f4:	40026010 	.word	0x40026010
 80018f8:	0800b188 	.word	0x0800b188
 80018fc:	f010803f 	.word	0xf010803f
 8001900:	aaaaaaab 	.word	0xaaaaaaab
 8001904:	0800b1c0 	.word	0x0800b1c0

08001908 <HAL_DMA_DeInit>:
 8001908:	2800      	cmp	r0, #0
 800190a:	d06c      	beq.n	80019e6 <HAL_DMA_DeInit+0xde>
 800190c:	b538      	push	{r3, r4, r5, lr}
 800190e:	f890 3035 	ldrb.w	r3, [r0, #53]	; 0x35
 8001912:	b2db      	uxtb	r3, r3
 8001914:	2b02      	cmp	r3, #2
 8001916:	d068      	beq.n	80019ea <HAL_DMA_DeInit+0xe2>
 8001918:	6803      	ldr	r3, [r0, #0]
 800191a:	4a35      	ldr	r2, [pc, #212]	; (80019f0 <HAL_DMA_DeInit+0xe8>)
 800191c:	4293      	cmp	r3, r2
 800191e:	4604      	mov	r4, r0
 8001920:	d033      	beq.n	800198a <HAL_DMA_DeInit+0x82>
 8001922:	3218      	adds	r2, #24
 8001924:	4293      	cmp	r3, r2
 8001926:	d030      	beq.n	800198a <HAL_DMA_DeInit+0x82>
 8001928:	3218      	adds	r2, #24
 800192a:	4293      	cmp	r3, r2
 800192c:	d02d      	beq.n	800198a <HAL_DMA_DeInit+0x82>
 800192e:	3218      	adds	r2, #24
 8001930:	4293      	cmp	r3, r2
 8001932:	d02a      	beq.n	800198a <HAL_DMA_DeInit+0x82>
 8001934:	3218      	adds	r2, #24
 8001936:	4293      	cmp	r3, r2
 8001938:	d027      	beq.n	800198a <HAL_DMA_DeInit+0x82>
 800193a:	3218      	adds	r2, #24
 800193c:	4293      	cmp	r3, r2
 800193e:	d024      	beq.n	800198a <HAL_DMA_DeInit+0x82>
 8001940:	3218      	adds	r2, #24
 8001942:	4293      	cmp	r3, r2
 8001944:	d021      	beq.n	800198a <HAL_DMA_DeInit+0x82>
 8001946:	3218      	adds	r2, #24
 8001948:	4293      	cmp	r3, r2
 800194a:	d01e      	beq.n	800198a <HAL_DMA_DeInit+0x82>
 800194c:	f502 7256 	add.w	r2, r2, #856	; 0x358
 8001950:	4293      	cmp	r3, r2
 8001952:	d01a      	beq.n	800198a <HAL_DMA_DeInit+0x82>
 8001954:	3218      	adds	r2, #24
 8001956:	4293      	cmp	r3, r2
 8001958:	d017      	beq.n	800198a <HAL_DMA_DeInit+0x82>
 800195a:	3218      	adds	r2, #24
 800195c:	4293      	cmp	r3, r2
 800195e:	d014      	beq.n	800198a <HAL_DMA_DeInit+0x82>
 8001960:	3218      	adds	r2, #24
 8001962:	4293      	cmp	r3, r2
 8001964:	d011      	beq.n	800198a <HAL_DMA_DeInit+0x82>
 8001966:	3218      	adds	r2, #24
 8001968:	4293      	cmp	r3, r2
 800196a:	d00e      	beq.n	800198a <HAL_DMA_DeInit+0x82>
 800196c:	3218      	adds	r2, #24
 800196e:	4293      	cmp	r3, r2
 8001970:	d00b      	beq.n	800198a <HAL_DMA_DeInit+0x82>
 8001972:	3218      	adds	r2, #24
 8001974:	4293      	cmp	r3, r2
 8001976:	d008      	beq.n	800198a <HAL_DMA_DeInit+0x82>
 8001978:	3218      	adds	r2, #24
 800197a:	4293      	cmp	r3, r2
 800197c:	d005      	beq.n	800198a <HAL_DMA_DeInit+0x82>
 800197e:	f44f 71a4 	mov.w	r1, #328	; 0x148
 8001982:	481c      	ldr	r0, [pc, #112]	; (80019f4 <HAL_DMA_DeInit+0xec>)
 8001984:	f003 fc6e 	bl	8005264 <assert_failed>
 8001988:	6823      	ldr	r3, [r4, #0]
 800198a:	6819      	ldr	r1, [r3, #0]
 800198c:	4d1a      	ldr	r5, [pc, #104]	; (80019f8 <HAL_DMA_DeInit+0xf0>)
 800198e:	481b      	ldr	r0, [pc, #108]	; (80019fc <HAL_DMA_DeInit+0xf4>)
 8001990:	b2da      	uxtb	r2, r3
 8001992:	3a10      	subs	r2, #16
 8001994:	fba5 5202 	umull	r5, r2, r5, r2
 8001998:	f021 0101 	bic.w	r1, r1, #1
 800199c:	6019      	str	r1, [r3, #0]
 800199e:	0912      	lsrs	r2, r2, #4
 80019a0:	2100      	movs	r1, #0
 80019a2:	6019      	str	r1, [r3, #0]
 80019a4:	6059      	str	r1, [r3, #4]
 80019a6:	6099      	str	r1, [r3, #8]
 80019a8:	60d9      	str	r1, [r3, #12]
 80019aa:	6119      	str	r1, [r3, #16]
 80019ac:	f423 717f 	bic.w	r1, r3, #1020	; 0x3fc
 80019b0:	5c80      	ldrb	r0, [r0, r2]
 80019b2:	f021 0103 	bic.w	r1, r1, #3
 80019b6:	2a03      	cmp	r2, #3
 80019b8:	bf88      	it	hi
 80019ba:	3104      	addhi	r1, #4
 80019bc:	2521      	movs	r5, #33	; 0x21
 80019be:	223f      	movs	r2, #63	; 0x3f
 80019c0:	615d      	str	r5, [r3, #20]
 80019c2:	4082      	lsls	r2, r0
 80019c4:	2300      	movs	r3, #0
 80019c6:	65e0      	str	r0, [r4, #92]	; 0x5c
 80019c8:	65a1      	str	r1, [r4, #88]	; 0x58
 80019ca:	e9c4 330f 	strd	r3, r3, [r4, #60]	; 0x3c
 80019ce:	e9c4 3311 	strd	r3, r3, [r4, #68]	; 0x44
 80019d2:	e9c4 3313 	strd	r3, r3, [r4, #76]	; 0x4c
 80019d6:	4618      	mov	r0, r3
 80019d8:	608a      	str	r2, [r1, #8]
 80019da:	6563      	str	r3, [r4, #84]	; 0x54
 80019dc:	f884 3034 	strb.w	r3, [r4, #52]	; 0x34
 80019e0:	f884 3035 	strb.w	r3, [r4, #53]	; 0x35
 80019e4:	bd38      	pop	{r3, r4, r5, pc}
 80019e6:	2001      	movs	r0, #1
 80019e8:	4770      	bx	lr
 80019ea:	4618      	mov	r0, r3
 80019ec:	bd38      	pop	{r3, r4, r5, pc}
 80019ee:	bf00      	nop
 80019f0:	40026010 	.word	0x40026010
 80019f4:	0800b188 	.word	0x0800b188
 80019f8:	aaaaaaab 	.word	0xaaaaaaab
 80019fc:	0800b1c0 	.word	0x0800b1c0

08001a00 <HAL_DMA_Start_IT>:
 8001a00:	e92d 41f0 	stmdb	sp!, {r4, r5, r6, r7, r8, lr}
 8001a04:	4604      	mov	r4, r0
 8001a06:	461d      	mov	r5, r3
 8001a08:	1e58      	subs	r0, r3, #1
 8001a0a:	f64f 73fe 	movw	r3, #65534	; 0xfffe
 8001a0e:	4298      	cmp	r0, r3
 8001a10:	460f      	mov	r7, r1
 8001a12:	4690      	mov	r8, r2
 8001a14:	6da6      	ldr	r6, [r4, #88]	; 0x58
 8001a16:	d83a      	bhi.n	8001a8e <HAL_DMA_Start_IT+0x8e>
 8001a18:	f894 3034 	ldrb.w	r3, [r4, #52]	; 0x34
 8001a1c:	2b01      	cmp	r3, #1
 8001a1e:	d03f      	beq.n	8001aa0 <HAL_DMA_Start_IT+0xa0>
 8001a20:	f894 3035 	ldrb.w	r3, [r4, #53]	; 0x35
 8001a24:	2201      	movs	r2, #1
 8001a26:	4293      	cmp	r3, r2
 8001a28:	f884 2034 	strb.w	r2, [r4, #52]	; 0x34
 8001a2c:	d129      	bne.n	8001a82 <HAL_DMA_Start_IT+0x82>
 8001a2e:	6821      	ldr	r1, [r4, #0]
 8001a30:	6de0      	ldr	r0, [r4, #92]	; 0x5c
 8001a32:	2202      	movs	r2, #2
 8001a34:	2300      	movs	r3, #0
 8001a36:	f884 2035 	strb.w	r2, [r4, #53]	; 0x35
 8001a3a:	6563      	str	r3, [r4, #84]	; 0x54
 8001a3c:	680b      	ldr	r3, [r1, #0]
 8001a3e:	68a2      	ldr	r2, [r4, #8]
 8001a40:	f423 2380 	bic.w	r3, r3, #262144	; 0x40000
 8001a44:	600b      	str	r3, [r1, #0]
 8001a46:	233f      	movs	r3, #63	; 0x3f
 8001a48:	2a40      	cmp	r2, #64	; 0x40
 8001a4a:	fa03 f300 	lsl.w	r3, r3, r0
 8001a4e:	604d      	str	r5, [r1, #4]
 8001a50:	6c22      	ldr	r2, [r4, #64]	; 0x40
 8001a52:	bf0b      	itete	eq
 8001a54:	f8c1 8008 	streq.w	r8, [r1, #8]
 8001a58:	608f      	strne	r7, [r1, #8]
 8001a5a:	60cf      	streq	r7, [r1, #12]
 8001a5c:	f8c1 800c 	strne.w	r8, [r1, #12]
 8001a60:	60b3      	str	r3, [r6, #8]
 8001a62:	680b      	ldr	r3, [r1, #0]
 8001a64:	f043 0316 	orr.w	r3, r3, #22
 8001a68:	600b      	str	r3, [r1, #0]
 8001a6a:	b11a      	cbz	r2, 8001a74 <HAL_DMA_Start_IT+0x74>
 8001a6c:	680b      	ldr	r3, [r1, #0]
 8001a6e:	f043 0308 	orr.w	r3, r3, #8
 8001a72:	600b      	str	r3, [r1, #0]
 8001a74:	680b      	ldr	r3, [r1, #0]
 8001a76:	f043 0301 	orr.w	r3, r3, #1
 8001a7a:	600b      	str	r3, [r1, #0]
 8001a7c:	2000      	movs	r0, #0
 8001a7e:	e8bd 81f0 	ldmia.w	sp!, {r4, r5, r6, r7, r8, pc}
 8001a82:	2300      	movs	r3, #0
 8001a84:	f884 3034 	strb.w	r3, [r4, #52]	; 0x34
 8001a88:	2002      	movs	r0, #2
 8001a8a:	e8bd 81f0 	ldmia.w	sp!, {r4, r5, r6, r7, r8, pc}
 8001a8e:	f44f 71e6 	mov.w	r1, #460	; 0x1cc
 8001a92:	4805      	ldr	r0, [pc, #20]	; (8001aa8 <HAL_DMA_Start_IT+0xa8>)
 8001a94:	f003 fbe6 	bl	8005264 <assert_failed>
 8001a98:	f894 3034 	ldrb.w	r3, [r4, #52]	; 0x34
 8001a9c:	2b01      	cmp	r3, #1
 8001a9e:	d1bf      	bne.n	8001a20 <HAL_DMA_Start_IT+0x20>
 8001aa0:	2002      	movs	r0, #2
 8001aa2:	e8bd 81f0 	ldmia.w	sp!, {r4, r5, r6, r7, r8, pc}
 8001aa6:	bf00      	nop
 8001aa8:	0800b188 	.word	0x0800b188

08001aac <HAL_DMA_IRQHandler>:
 8001aac:	b5f0      	push	{r4, r5, r6, r7, lr}
 8001aae:	b083      	sub	sp, #12
 8001ab0:	2300      	movs	r3, #0
 8001ab2:	6d87      	ldr	r7, [r0, #88]	; 0x58
 8001ab4:	9301      	str	r3, [sp, #4]
 8001ab6:	6dc3      	ldr	r3, [r0, #92]	; 0x5c
 8001ab8:	683d      	ldr	r5, [r7, #0]
 8001aba:	4965      	ldr	r1, [pc, #404]	; (8001c50 <HAL_DMA_IRQHandler+0x1a4>)
 8001abc:	2208      	movs	r2, #8
 8001abe:	409a      	lsls	r2, r3
 8001ac0:	422a      	tst	r2, r5
 8001ac2:	4604      	mov	r4, r0
 8001ac4:	680e      	ldr	r6, [r1, #0]
 8001ac6:	d003      	beq.n	8001ad0 <HAL_DMA_IRQHandler+0x24>
 8001ac8:	6801      	ldr	r1, [r0, #0]
 8001aca:	6808      	ldr	r0, [r1, #0]
 8001acc:	0740      	lsls	r0, r0, #29
 8001ace:	d459      	bmi.n	8001b84 <HAL_DMA_IRQHandler+0xd8>
 8001ad0:	2201      	movs	r2, #1
 8001ad2:	409a      	lsls	r2, r3
 8001ad4:	422a      	tst	r2, r5
 8001ad6:	d003      	beq.n	8001ae0 <HAL_DMA_IRQHandler+0x34>
 8001ad8:	6821      	ldr	r1, [r4, #0]
 8001ada:	6949      	ldr	r1, [r1, #20]
 8001adc:	0608      	lsls	r0, r1, #24
 8001ade:	d474      	bmi.n	8001bca <HAL_DMA_IRQHandler+0x11e>
 8001ae0:	2204      	movs	r2, #4
 8001ae2:	409a      	lsls	r2, r3
 8001ae4:	422a      	tst	r2, r5
 8001ae6:	d003      	beq.n	8001af0 <HAL_DMA_IRQHandler+0x44>
 8001ae8:	6821      	ldr	r1, [r4, #0]
 8001aea:	6809      	ldr	r1, [r1, #0]
 8001aec:	0789      	lsls	r1, r1, #30
 8001aee:	d466      	bmi.n	8001bbe <HAL_DMA_IRQHandler+0x112>
 8001af0:	2210      	movs	r2, #16
 8001af2:	409a      	lsls	r2, r3
 8001af4:	422a      	tst	r2, r5
 8001af6:	d003      	beq.n	8001b00 <HAL_DMA_IRQHandler+0x54>
 8001af8:	6821      	ldr	r1, [r4, #0]
 8001afa:	6808      	ldr	r0, [r1, #0]
 8001afc:	0700      	lsls	r0, r0, #28
 8001afe:	d44b      	bmi.n	8001b98 <HAL_DMA_IRQHandler+0xec>
 8001b00:	2220      	movs	r2, #32
 8001b02:	409a      	lsls	r2, r3
 8001b04:	422a      	tst	r2, r5
 8001b06:	d014      	beq.n	8001b32 <HAL_DMA_IRQHandler+0x86>
 8001b08:	6821      	ldr	r1, [r4, #0]
 8001b0a:	6808      	ldr	r0, [r1, #0]
 8001b0c:	06c0      	lsls	r0, r0, #27
 8001b0e:	d510      	bpl.n	8001b32 <HAL_DMA_IRQHandler+0x86>
 8001b10:	60ba      	str	r2, [r7, #8]
 8001b12:	f894 2035 	ldrb.w	r2, [r4, #53]	; 0x35
 8001b16:	2a05      	cmp	r2, #5
 8001b18:	d063      	beq.n	8001be2 <HAL_DMA_IRQHandler+0x136>
 8001b1a:	680b      	ldr	r3, [r1, #0]
 8001b1c:	f413 2f80 	tst.w	r3, #262144	; 0x40000
 8001b20:	680b      	ldr	r3, [r1, #0]
 8001b22:	d07e      	beq.n	8001c22 <HAL_DMA_IRQHandler+0x176>
 8001b24:	0319      	lsls	r1, r3, #12
 8001b26:	f140 8089 	bpl.w	8001c3c <HAL_DMA_IRQHandler+0x190>
 8001b2a:	6be3      	ldr	r3, [r4, #60]	; 0x3c
 8001b2c:	b10b      	cbz	r3, 8001b32 <HAL_DMA_IRQHandler+0x86>
 8001b2e:	4620      	mov	r0, r4
 8001b30:	4798      	blx	r3
 8001b32:	6d63      	ldr	r3, [r4, #84]	; 0x54
 8001b34:	b323      	cbz	r3, 8001b80 <HAL_DMA_IRQHandler+0xd4>
 8001b36:	6d63      	ldr	r3, [r4, #84]	; 0x54
 8001b38:	07da      	lsls	r2, r3, #31
 8001b3a:	d51a      	bpl.n	8001b72 <HAL_DMA_IRQHandler+0xc6>
 8001b3c:	2305      	movs	r3, #5
 8001b3e:	6822      	ldr	r2, [r4, #0]
 8001b40:	f884 3035 	strb.w	r3, [r4, #53]	; 0x35
 8001b44:	6813      	ldr	r3, [r2, #0]
 8001b46:	4943      	ldr	r1, [pc, #268]	; (8001c54 <HAL_DMA_IRQHandler+0x1a8>)
 8001b48:	f023 0301 	bic.w	r3, r3, #1
 8001b4c:	fba1 1606 	umull	r1, r6, r1, r6
 8001b50:	6013      	str	r3, [r2, #0]
 8001b52:	0ab6      	lsrs	r6, r6, #10
 8001b54:	e002      	b.n	8001b5c <HAL_DMA_IRQHandler+0xb0>
 8001b56:	6813      	ldr	r3, [r2, #0]
 8001b58:	07db      	lsls	r3, r3, #31
 8001b5a:	d504      	bpl.n	8001b66 <HAL_DMA_IRQHandler+0xba>
 8001b5c:	9b01      	ldr	r3, [sp, #4]
 8001b5e:	3301      	adds	r3, #1
 8001b60:	42b3      	cmp	r3, r6
 8001b62:	9301      	str	r3, [sp, #4]
 8001b64:	d9f7      	bls.n	8001b56 <HAL_DMA_IRQHandler+0xaa>
 8001b66:	2200      	movs	r2, #0
 8001b68:	2301      	movs	r3, #1
 8001b6a:	f884 2034 	strb.w	r2, [r4, #52]	; 0x34
 8001b6e:	f884 3035 	strb.w	r3, [r4, #53]	; 0x35
 8001b72:	6ce3      	ldr	r3, [r4, #76]	; 0x4c
 8001b74:	b123      	cbz	r3, 8001b80 <HAL_DMA_IRQHandler+0xd4>
 8001b76:	4620      	mov	r0, r4
 8001b78:	b003      	add	sp, #12
 8001b7a:	e8bd 40f0 	ldmia.w	sp!, {r4, r5, r6, r7, lr}
 8001b7e:	4718      	bx	r3
 8001b80:	b003      	add	sp, #12
 8001b82:	bdf0      	pop	{r4, r5, r6, r7, pc}
 8001b84:	6808      	ldr	r0, [r1, #0]
 8001b86:	f020 0004 	bic.w	r0, r0, #4
 8001b8a:	6008      	str	r0, [r1, #0]
 8001b8c:	60ba      	str	r2, [r7, #8]
 8001b8e:	6d62      	ldr	r2, [r4, #84]	; 0x54
 8001b90:	f042 0201 	orr.w	r2, r2, #1
 8001b94:	6562      	str	r2, [r4, #84]	; 0x54
 8001b96:	e79b      	b.n	8001ad0 <HAL_DMA_IRQHandler+0x24>
 8001b98:	60ba      	str	r2, [r7, #8]
 8001b9a:	680a      	ldr	r2, [r1, #0]
 8001b9c:	f412 2f80 	tst.w	r2, #262144	; 0x40000
 8001ba0:	680a      	ldr	r2, [r1, #0]
 8001ba2:	d118      	bne.n	8001bd6 <HAL_DMA_IRQHandler+0x12a>
 8001ba4:	05d2      	lsls	r2, r2, #23
 8001ba6:	d403      	bmi.n	8001bb0 <HAL_DMA_IRQHandler+0x104>
 8001ba8:	680a      	ldr	r2, [r1, #0]
 8001baa:	f022 0208 	bic.w	r2, r2, #8
 8001bae:	600a      	str	r2, [r1, #0]
 8001bb0:	6c22      	ldr	r2, [r4, #64]	; 0x40
 8001bb2:	2a00      	cmp	r2, #0
 8001bb4:	d0a4      	beq.n	8001b00 <HAL_DMA_IRQHandler+0x54>
 8001bb6:	4620      	mov	r0, r4
 8001bb8:	4790      	blx	r2
 8001bba:	6de3      	ldr	r3, [r4, #92]	; 0x5c
 8001bbc:	e7a0      	b.n	8001b00 <HAL_DMA_IRQHandler+0x54>
 8001bbe:	60ba      	str	r2, [r7, #8]
 8001bc0:	6d62      	ldr	r2, [r4, #84]	; 0x54
 8001bc2:	f042 0204 	orr.w	r2, r2, #4
 8001bc6:	6562      	str	r2, [r4, #84]	; 0x54
 8001bc8:	e792      	b.n	8001af0 <HAL_DMA_IRQHandler+0x44>
 8001bca:	60ba      	str	r2, [r7, #8]
 8001bcc:	6d62      	ldr	r2, [r4, #84]	; 0x54
 8001bce:	f042 0202 	orr.w	r2, r2, #2
 8001bd2:	6562      	str	r2, [r4, #84]	; 0x54
 8001bd4:	e784      	b.n	8001ae0 <HAL_DMA_IRQHandler+0x34>
 8001bd6:	0311      	lsls	r1, r2, #12
 8001bd8:	d5ea      	bpl.n	8001bb0 <HAL_DMA_IRQHandler+0x104>
 8001bda:	6ca2      	ldr	r2, [r4, #72]	; 0x48
 8001bdc:	2a00      	cmp	r2, #0
 8001bde:	d1ea      	bne.n	8001bb6 <HAL_DMA_IRQHandler+0x10a>
 8001be0:	e78e      	b.n	8001b00 <HAL_DMA_IRQHandler+0x54>
 8001be2:	680a      	ldr	r2, [r1, #0]
 8001be4:	6c20      	ldr	r0, [r4, #64]	; 0x40
 8001be6:	f022 0216 	bic.w	r2, r2, #22
 8001bea:	600a      	str	r2, [r1, #0]
 8001bec:	694a      	ldr	r2, [r1, #20]
 8001bee:	f022 0280 	bic.w	r2, r2, #128	; 0x80
 8001bf2:	614a      	str	r2, [r1, #20]
 8001bf4:	b338      	cbz	r0, 8001c46 <HAL_DMA_IRQHandler+0x19a>
 8001bf6:	680a      	ldr	r2, [r1, #0]
 8001bf8:	f022 0208 	bic.w	r2, r2, #8
 8001bfc:	600a      	str	r2, [r1, #0]
 8001bfe:	223f      	movs	r2, #63	; 0x3f
 8001c00:	6d21      	ldr	r1, [r4, #80]	; 0x50
 8001c02:	fa02 f303 	lsl.w	r3, r2, r3
 8001c06:	2000      	movs	r0, #0
 8001c08:	2201      	movs	r2, #1
 8001c0a:	60bb      	str	r3, [r7, #8]
 8001c0c:	f884 0034 	strb.w	r0, [r4, #52]	; 0x34
 8001c10:	f884 2035 	strb.w	r2, [r4, #53]	; 0x35
 8001c14:	2900      	cmp	r1, #0
 8001c16:	d0b3      	beq.n	8001b80 <HAL_DMA_IRQHandler+0xd4>
 8001c18:	4620      	mov	r0, r4
 8001c1a:	b003      	add	sp, #12
 8001c1c:	e8bd 40f0 	ldmia.w	sp!, {r4, r5, r6, r7, lr}
 8001c20:	4708      	bx	r1
 8001c22:	f413 7380 	ands.w	r3, r3, #256	; 0x100
 8001c26:	d180      	bne.n	8001b2a <HAL_DMA_IRQHandler+0x7e>
 8001c28:	680a      	ldr	r2, [r1, #0]
 8001c2a:	2001      	movs	r0, #1
 8001c2c:	f022 0210 	bic.w	r2, r2, #16
 8001c30:	600a      	str	r2, [r1, #0]
 8001c32:	f884 3034 	strb.w	r3, [r4, #52]	; 0x34
 8001c36:	f884 0035 	strb.w	r0, [r4, #53]	; 0x35
 8001c3a:	e776      	b.n	8001b2a <HAL_DMA_IRQHandler+0x7e>
 8001c3c:	6c63      	ldr	r3, [r4, #68]	; 0x44
 8001c3e:	2b00      	cmp	r3, #0
 8001c40:	f47f af75 	bne.w	8001b2e <HAL_DMA_IRQHandler+0x82>
 8001c44:	e775      	b.n	8001b32 <HAL_DMA_IRQHandler+0x86>
 8001c46:	6ca2      	ldr	r2, [r4, #72]	; 0x48
 8001c48:	2a00      	cmp	r2, #0
 8001c4a:	d1d4      	bne.n	8001bf6 <HAL_DMA_IRQHandler+0x14a>
 8001c4c:	e7d7      	b.n	8001bfe <HAL_DMA_IRQHandler+0x152>
 8001c4e:	bf00      	nop
 8001c50:	200004bc 	.word	0x200004bc
 8001c54:	1b4e81b5 	.word	0x1b4e81b5

08001c58 <HAL_GPIO_Init>:
 8001c58:	e92d 4ff0 	stmdb	sp!, {r4, r5, r6, r7, r8, r9, sl, fp, lr}
 8001c5c:	4bba      	ldr	r3, [pc, #744]	; (8001f48 <HAL_GPIO_Init+0x2f0>)
 8001c5e:	4298      	cmp	r0, r3
 8001c60:	b083      	sub	sp, #12
 8001c62:	4681      	mov	r9, r0
 8001c64:	468b      	mov	fp, r1
 8001c66:	d02b      	beq.n	8001cc0 <HAL_GPIO_Init+0x68>
 8001c68:	f503 6380 	add.w	r3, r3, #1024	; 0x400
 8001c6c:	4298      	cmp	r0, r3
 8001c6e:	d027      	beq.n	8001cc0 <HAL_GPIO_Init+0x68>
 8001c70:	f503 6380 	add.w	r3, r3, #1024	; 0x400
 8001c74:	4298      	cmp	r0, r3
 8001c76:	d023      	beq.n	8001cc0 <HAL_GPIO_Init+0x68>
 8001c78:	f503 6380 	add.w	r3, r3, #1024	; 0x400
 8001c7c:	4298      	cmp	r0, r3
 8001c7e:	d01f      	beq.n	8001cc0 <HAL_GPIO_Init+0x68>
 8001c80:	f503 6380 	add.w	r3, r3, #1024	; 0x400
 8001c84:	4298      	cmp	r0, r3
 8001c86:	d01b      	beq.n	8001cc0 <HAL_GPIO_Init+0x68>
 8001c88:	f503 6380 	add.w	r3, r3, #1024	; 0x400
 8001c8c:	4298      	cmp	r0, r3
 8001c8e:	d017      	beq.n	8001cc0 <HAL_GPIO_Init+0x68>
 8001c90:	f503 6380 	add.w	r3, r3, #1024	; 0x400
 8001c94:	4298      	cmp	r0, r3
 8001c96:	d013      	beq.n	8001cc0 <HAL_GPIO_Init+0x68>
 8001c98:	f503 6380 	add.w	r3, r3, #1024	; 0x400
 8001c9c:	4298      	cmp	r0, r3
 8001c9e:	d00f      	beq.n	8001cc0 <HAL_GPIO_Init+0x68>
 8001ca0:	f503 6380 	add.w	r3, r3, #1024	; 0x400
 8001ca4:	4298      	cmp	r0, r3
 8001ca6:	d00b      	beq.n	8001cc0 <HAL_GPIO_Init+0x68>
 8001ca8:	f503 6380 	add.w	r3, r3, #1024	; 0x400
 8001cac:	4298      	cmp	r0, r3
 8001cae:	d007      	beq.n	8001cc0 <HAL_GPIO_Init+0x68>
 8001cb0:	f503 6380 	add.w	r3, r3, #1024	; 0x400
 8001cb4:	4298      	cmp	r0, r3
 8001cb6:	d003      	beq.n	8001cc0 <HAL_GPIO_Init+0x68>
 8001cb8:	21b3      	movs	r1, #179	; 0xb3
 8001cba:	48a4      	ldr	r0, [pc, #656]	; (8001f4c <HAL_GPIO_Init+0x2f4>)
 8001cbc:	f003 fad2 	bl	8005264 <assert_failed>
 8001cc0:	f8db 3000 	ldr.w	r3, [fp]
 8001cc4:	b29a      	uxth	r2, r3
 8001cc6:	2a00      	cmp	r2, #0
 8001cc8:	f000 80cb 	beq.w	8001e62 <HAL_GPIO_Init+0x20a>
 8001ccc:	0c1b      	lsrs	r3, r3, #16
 8001cce:	041b      	lsls	r3, r3, #16
 8001cd0:	2b00      	cmp	r3, #0
 8001cd2:	f040 80c6 	bne.w	8001e62 <HAL_GPIO_Init+0x20a>
 8001cd6:	f8db 3004 	ldr.w	r3, [fp, #4]
 8001cda:	2b03      	cmp	r3, #3
 8001cdc:	d917      	bls.n	8001d0e <HAL_GPIO_Init+0xb6>
 8001cde:	f1a3 0211 	sub.w	r2, r3, #17
 8001ce2:	2a01      	cmp	r2, #1
 8001ce4:	d913      	bls.n	8001d0e <HAL_GPIO_Init+0xb6>
 8001ce6:	499a      	ldr	r1, [pc, #616]	; (8001f50 <HAL_GPIO_Init+0x2f8>)
 8001ce8:	f423 1200 	bic.w	r2, r3, #2097152	; 0x200000
 8001cec:	428a      	cmp	r2, r1
 8001cee:	d00e      	beq.n	8001d0e <HAL_GPIO_Init+0xb6>
 8001cf0:	f501 1180 	add.w	r1, r1, #1048576	; 0x100000
 8001cf4:	428b      	cmp	r3, r1
 8001cf6:	d00a      	beq.n	8001d0e <HAL_GPIO_Init+0xb6>
 8001cf8:	f5a1 2170 	sub.w	r1, r1, #983040	; 0xf0000
 8001cfc:	428a      	cmp	r2, r1
 8001cfe:	d006      	beq.n	8001d0e <HAL_GPIO_Init+0xb6>
 8001d00:	4a94      	ldr	r2, [pc, #592]	; (8001f54 <HAL_GPIO_Init+0x2fc>)
 8001d02:	4293      	cmp	r3, r2
 8001d04:	d003      	beq.n	8001d0e <HAL_GPIO_Init+0xb6>
 8001d06:	21b5      	movs	r1, #181	; 0xb5
 8001d08:	4890      	ldr	r0, [pc, #576]	; (8001f4c <HAL_GPIO_Init+0x2f4>)
 8001d0a:	f003 faab 	bl	8005264 <assert_failed>
 8001d0e:	f8db 3008 	ldr.w	r3, [fp, #8]
 8001d12:	2b02      	cmp	r3, #2
 8001d14:	f200 80f4 	bhi.w	8001f00 <HAL_GPIO_Init+0x2a8>
 8001d18:	f8df a264 	ldr.w	sl, [pc, #612]	; 8001f80 <HAL_GPIO_Init+0x328>
 8001d1c:	f04f 0800 	mov.w	r8, #0
 8001d20:	e005      	b.n	8001d2e <HAL_GPIO_Init+0xd6>
 8001d22:	f108 0801 	add.w	r8, r8, #1
 8001d26:	f1b8 0f10 	cmp.w	r8, #16
 8001d2a:	f000 8097 	beq.w	8001e5c <HAL_GPIO_Init+0x204>
 8001d2e:	2401      	movs	r4, #1
 8001d30:	f8db 5000 	ldr.w	r5, [fp]
 8001d34:	fa04 f408 	lsl.w	r4, r4, r8
 8001d38:	4025      	ands	r5, r4
 8001d3a:	42ac      	cmp	r4, r5
 8001d3c:	d1f1      	bne.n	8001d22 <HAL_GPIO_Init+0xca>
 8001d3e:	f8db 2004 	ldr.w	r2, [fp, #4]
 8001d42:	f022 0110 	bic.w	r1, r2, #16
 8001d46:	ea4f 0748 	mov.w	r7, r8, lsl #1
 8001d4a:	2603      	movs	r6, #3
 8001d4c:	1e4b      	subs	r3, r1, #1
 8001d4e:	40be      	lsls	r6, r7
 8001d50:	2b01      	cmp	r3, #1
 8001d52:	ea6f 0606 	mvn.w	r6, r6
 8001d56:	f240 8089 	bls.w	8001e6c <HAL_GPIO_Init+0x214>
 8001d5a:	f8d9 000c 	ldr.w	r0, [r9, #12]
 8001d5e:	f8db 3008 	ldr.w	r3, [fp, #8]
 8001d62:	4030      	ands	r0, r6
 8001d64:	40bb      	lsls	r3, r7
 8001d66:	4303      	orrs	r3, r0
 8001d68:	2902      	cmp	r1, #2
 8001d6a:	f8c9 300c 	str.w	r3, [r9, #12]
 8001d6e:	f000 8094 	beq.w	8001e9a <HAL_GPIO_Init+0x242>
 8001d72:	f8d9 1000 	ldr.w	r1, [r9]
 8001d76:	f002 0303 	and.w	r3, r2, #3
 8001d7a:	40bb      	lsls	r3, r7
 8001d7c:	400e      	ands	r6, r1
 8001d7e:	4333      	orrs	r3, r6
 8001d80:	00d7      	lsls	r7, r2, #3
 8001d82:	f8c9 3000 	str.w	r3, [r9]
 8001d86:	d5cc      	bpl.n	8001d22 <HAL_GPIO_Init+0xca>
 8001d88:	4b73      	ldr	r3, [pc, #460]	; (8001f58 <HAL_GPIO_Init+0x300>)
 8001d8a:	4c6f      	ldr	r4, [pc, #444]	; (8001f48 <HAL_GPIO_Init+0x2f0>)
 8001d8c:	2100      	movs	r1, #0
 8001d8e:	9101      	str	r1, [sp, #4]
 8001d90:	6c59      	ldr	r1, [r3, #68]	; 0x44
 8001d92:	f441 4180 	orr.w	r1, r1, #16384	; 0x4000
 8001d96:	6459      	str	r1, [r3, #68]	; 0x44
 8001d98:	6c59      	ldr	r1, [r3, #68]	; 0x44
 8001d9a:	f028 0303 	bic.w	r3, r8, #3
 8001d9e:	f103 4380 	add.w	r3, r3, #1073741824	; 0x40000000
 8001da2:	f401 4180 	and.w	r1, r1, #16384	; 0x4000
 8001da6:	f503 339c 	add.w	r3, r3, #79872	; 0x13800
 8001daa:	9101      	str	r1, [sp, #4]
 8001dac:	f008 0103 	and.w	r1, r8, #3
 8001db0:	9801      	ldr	r0, [sp, #4]
 8001db2:	689e      	ldr	r6, [r3, #8]
 8001db4:	0089      	lsls	r1, r1, #2
 8001db6:	200f      	movs	r0, #15
 8001db8:	4088      	lsls	r0, r1
 8001dba:	45a1      	cmp	r9, r4
 8001dbc:	ea26 0000 	bic.w	r0, r6, r0
 8001dc0:	d026      	beq.n	8001e10 <HAL_GPIO_Init+0x1b8>
 8001dc2:	45d1      	cmp	r9, sl
 8001dc4:	f000 8092 	beq.w	8001eec <HAL_GPIO_Init+0x294>
 8001dc8:	4c64      	ldr	r4, [pc, #400]	; (8001f5c <HAL_GPIO_Init+0x304>)
 8001dca:	45a1      	cmp	r9, r4
 8001dcc:	f000 8093 	beq.w	8001ef6 <HAL_GPIO_Init+0x29e>
 8001dd0:	4c63      	ldr	r4, [pc, #396]	; (8001f60 <HAL_GPIO_Init+0x308>)
 8001dd2:	45a1      	cmp	r9, r4
 8001dd4:	f000 8099 	beq.w	8001f0a <HAL_GPIO_Init+0x2b2>
 8001dd8:	4c62      	ldr	r4, [pc, #392]	; (8001f64 <HAL_GPIO_Init+0x30c>)
 8001dda:	45a1      	cmp	r9, r4
 8001ddc:	f000 809a 	beq.w	8001f14 <HAL_GPIO_Init+0x2bc>
 8001de0:	4c61      	ldr	r4, [pc, #388]	; (8001f68 <HAL_GPIO_Init+0x310>)
 8001de2:	45a1      	cmp	r9, r4
 8001de4:	f000 80a0 	beq.w	8001f28 <HAL_GPIO_Init+0x2d0>
 8001de8:	4c60      	ldr	r4, [pc, #384]	; (8001f6c <HAL_GPIO_Init+0x314>)
 8001dea:	45a1      	cmp	r9, r4
 8001dec:	f000 80a1 	beq.w	8001f32 <HAL_GPIO_Init+0x2da>
 8001df0:	4c5f      	ldr	r4, [pc, #380]	; (8001f70 <HAL_GPIO_Init+0x318>)
 8001df2:	45a1      	cmp	r9, r4
 8001df4:	f000 8093 	beq.w	8001f1e <HAL_GPIO_Init+0x2c6>
 8001df8:	4c5e      	ldr	r4, [pc, #376]	; (8001f74 <HAL_GPIO_Init+0x31c>)
 8001dfa:	45a1      	cmp	r9, r4
 8001dfc:	f000 809e 	beq.w	8001f3c <HAL_GPIO_Init+0x2e4>
 8001e00:	4c5d      	ldr	r4, [pc, #372]	; (8001f78 <HAL_GPIO_Init+0x320>)
 8001e02:	45a1      	cmp	r9, r4
 8001e04:	bf0c      	ite	eq
 8001e06:	2409      	moveq	r4, #9
 8001e08:	240a      	movne	r4, #10
 8001e0a:	fa04 f101 	lsl.w	r1, r4, r1
 8001e0e:	4308      	orrs	r0, r1
 8001e10:	495a      	ldr	r1, [pc, #360]	; (8001f7c <HAL_GPIO_Init+0x324>)
 8001e12:	6098      	str	r0, [r3, #8]
 8001e14:	680b      	ldr	r3, [r1, #0]
 8001e16:	4859      	ldr	r0, [pc, #356]	; (8001f7c <HAL_GPIO_Init+0x324>)
 8001e18:	43e9      	mvns	r1, r5
 8001e1a:	03d6      	lsls	r6, r2, #15
 8001e1c:	bf4c      	ite	mi
 8001e1e:	432b      	orrmi	r3, r5
 8001e20:	400b      	andpl	r3, r1
 8001e22:	6003      	str	r3, [r0, #0]
 8001e24:	6843      	ldr	r3, [r0, #4]
 8001e26:	4855      	ldr	r0, [pc, #340]	; (8001f7c <HAL_GPIO_Init+0x324>)
 8001e28:	0394      	lsls	r4, r2, #14
 8001e2a:	bf4c      	ite	mi
 8001e2c:	432b      	orrmi	r3, r5
 8001e2e:	400b      	andpl	r3, r1
 8001e30:	6043      	str	r3, [r0, #4]
 8001e32:	6883      	ldr	r3, [r0, #8]
 8001e34:	02d0      	lsls	r0, r2, #11
 8001e36:	4851      	ldr	r0, [pc, #324]	; (8001f7c <HAL_GPIO_Init+0x324>)
 8001e38:	bf4c      	ite	mi
 8001e3a:	432b      	orrmi	r3, r5
 8001e3c:	400b      	andpl	r3, r1
 8001e3e:	6083      	str	r3, [r0, #8]
 8001e40:	68c3      	ldr	r3, [r0, #12]
 8001e42:	0292      	lsls	r2, r2, #10
 8001e44:	bf54      	ite	pl
 8001e46:	ea01 0503 	andpl.w	r5, r1, r3
 8001e4a:	431d      	orrmi	r5, r3
 8001e4c:	f108 0801 	add.w	r8, r8, #1
 8001e50:	4b4a      	ldr	r3, [pc, #296]	; (8001f7c <HAL_GPIO_Init+0x324>)
 8001e52:	f1b8 0f10 	cmp.w	r8, #16
 8001e56:	60dd      	str	r5, [r3, #12]
 8001e58:	f47f af69 	bne.w	8001d2e <HAL_GPIO_Init+0xd6>
 8001e5c:	b003      	add	sp, #12
 8001e5e:	e8bd 8ff0 	ldmia.w	sp!, {r4, r5, r6, r7, r8, r9, sl, fp, pc}
 8001e62:	21b4      	movs	r1, #180	; 0xb4
 8001e64:	4839      	ldr	r0, [pc, #228]	; (8001f4c <HAL_GPIO_Init+0x2f4>)
 8001e66:	f003 f9fd 	bl	8005264 <assert_failed>
 8001e6a:	e734      	b.n	8001cd6 <HAL_GPIO_Init+0x7e>
 8001e6c:	f8db 300c 	ldr.w	r3, [fp, #12]
 8001e70:	2b03      	cmp	r3, #3
 8001e72:	d830      	bhi.n	8001ed6 <HAL_GPIO_Init+0x27e>
 8001e74:	f8d9 0008 	ldr.w	r0, [r9, #8]
 8001e78:	40bb      	lsls	r3, r7
 8001e7a:	4030      	ands	r0, r6
 8001e7c:	4303      	orrs	r3, r0
 8001e7e:	f8c9 3008 	str.w	r3, [r9, #8]
 8001e82:	f8d9 0004 	ldr.w	r0, [r9, #4]
 8001e86:	f3c2 1300 	ubfx	r3, r2, #4, #1
 8001e8a:	ea20 0004 	bic.w	r0, r0, r4
 8001e8e:	fa03 f408 	lsl.w	r4, r3, r8
 8001e92:	4304      	orrs	r4, r0
 8001e94:	f8c9 4004 	str.w	r4, [r9, #4]
 8001e98:	e75f      	b.n	8001d5a <HAL_GPIO_Init+0x102>
 8001e9a:	f8db 3010 	ldr.w	r3, [fp, #16]
 8001e9e:	2b0f      	cmp	r3, #15
 8001ea0:	d907      	bls.n	8001eb2 <HAL_GPIO_Init+0x25a>
 8001ea2:	21e0      	movs	r1, #224	; 0xe0
 8001ea4:	4829      	ldr	r0, [pc, #164]	; (8001f4c <HAL_GPIO_Init+0x2f4>)
 8001ea6:	f003 f9dd 	bl	8005264 <assert_failed>
 8001eaa:	f8db 3010 	ldr.w	r3, [fp, #16]
 8001eae:	f8db 2004 	ldr.w	r2, [fp, #4]
 8001eb2:	ea4f 00d8 	mov.w	r0, r8, lsr #3
 8001eb6:	eb09 0080 	add.w	r0, r9, r0, lsl #2
 8001eba:	f008 0107 	and.w	r1, r8, #7
 8001ebe:	6a04      	ldr	r4, [r0, #32]
 8001ec0:	0089      	lsls	r1, r1, #2
 8001ec2:	f04f 0c0f 	mov.w	ip, #15
 8001ec6:	fa0c fc01 	lsl.w	ip, ip, r1
 8001eca:	408b      	lsls	r3, r1
 8001ecc:	ea24 040c 	bic.w	r4, r4, ip
 8001ed0:	4323      	orrs	r3, r4
 8001ed2:	6203      	str	r3, [r0, #32]
 8001ed4:	e74d      	b.n	8001d72 <HAL_GPIO_Init+0x11a>
 8001ed6:	21c8      	movs	r1, #200	; 0xc8
 8001ed8:	481c      	ldr	r0, [pc, #112]	; (8001f4c <HAL_GPIO_Init+0x2f4>)
 8001eda:	f003 f9c3 	bl	8005264 <assert_failed>
 8001ede:	f8db 2004 	ldr.w	r2, [fp, #4]
 8001ee2:	f8db 300c 	ldr.w	r3, [fp, #12]
 8001ee6:	f022 0110 	bic.w	r1, r2, #16
 8001eea:	e7c3      	b.n	8001e74 <HAL_GPIO_Init+0x21c>
 8001eec:	2401      	movs	r4, #1
 8001eee:	fa04 f101 	lsl.w	r1, r4, r1
 8001ef2:	4308      	orrs	r0, r1
 8001ef4:	e78c      	b.n	8001e10 <HAL_GPIO_Init+0x1b8>
 8001ef6:	2402      	movs	r4, #2
 8001ef8:	fa04 f101 	lsl.w	r1, r4, r1
 8001efc:	4308      	orrs	r0, r1
 8001efe:	e787      	b.n	8001e10 <HAL_GPIO_Init+0x1b8>
 8001f00:	21b6      	movs	r1, #182	; 0xb6
 8001f02:	4812      	ldr	r0, [pc, #72]	; (8001f4c <HAL_GPIO_Init+0x2f4>)
 8001f04:	f003 f9ae 	bl	8005264 <assert_failed>
 8001f08:	e706      	b.n	8001d18 <HAL_GPIO_Init+0xc0>
 8001f0a:	2403      	movs	r4, #3
 8001f0c:	fa04 f101 	lsl.w	r1, r4, r1
 8001f10:	4308      	orrs	r0, r1
 8001f12:	e77d      	b.n	8001e10 <HAL_GPIO_Init+0x1b8>
 8001f14:	2404      	movs	r4, #4
 8001f16:	fa04 f101 	lsl.w	r1, r4, r1
 8001f1a:	4308      	orrs	r0, r1
 8001f1c:	e778      	b.n	8001e10 <HAL_GPIO_Init+0x1b8>
 8001f1e:	2407      	movs	r4, #7
 8001f20:	fa04 f101 	lsl.w	r1, r4, r1
 8001f24:	4308      	orrs	r0, r1
 8001f26:	e773      	b.n	8001e10 <HAL_GPIO_Init+0x1b8>
 8001f28:	2405      	movs	r4, #5
 8001f2a:	fa04 f101 	lsl.w	r1, r4, r1
 8001f2e:	4308      	orrs	r0, r1
 8001f30:	e76e      	b.n	8001e10 <HAL_GPIO_Init+0x1b8>
 8001f32:	2406      	movs	r4, #6
 8001f34:	fa04 f101 	lsl.w	r1, r4, r1
 8001f38:	4308      	orrs	r0, r1
 8001f3a:	e769      	b.n	8001e10 <HAL_GPIO_Init+0x1b8>
 8001f3c:	2408      	movs	r4, #8
 8001f3e:	fa04 f101 	lsl.w	r1, r4, r1
 8001f42:	4308      	orrs	r0, r1
 8001f44:	e764      	b.n	8001e10 <HAL_GPIO_Init+0x1b8>
 8001f46:	bf00      	nop
 8001f48:	40020000 	.word	0x40020000
 8001f4c:	0800b1c8 	.word	0x0800b1c8
 8001f50:	10110000 	.word	0x10110000
 8001f54:	10220000 	.word	0x10220000
 8001f58:	40023800 	.word	0x40023800
 8001f5c:	40020800 	.word	0x40020800
 8001f60:	40020c00 	.word	0x40020c00
 8001f64:	40021000 	.word	0x40021000
 8001f68:	40021400 	.word	0x40021400
 8001f6c:	40021800 	.word	0x40021800
 8001f70:	40021c00 	.word	0x40021c00
 8001f74:	40022000 	.word	0x40022000
 8001f78:	40022400 	.word	0x40022400
 8001f7c:	40013c00 	.word	0x40013c00
 8001f80:	40020400 	.word	0x40020400

08001f84 <HAL_GPIO_WritePin>:
 8001f84:	b570      	push	{r4, r5, r6, lr}
 8001f86:	4606      	mov	r6, r0
 8001f88:	4615      	mov	r5, r2
 8001f8a:	460c      	mov	r4, r1
 8001f8c:	b161      	cbz	r1, 8001fa8 <HAL_GPIO_WritePin+0x24>
 8001f8e:	2d01      	cmp	r5, #1
 8001f90:	d803      	bhi.n	8001f9a <HAL_GPIO_WritePin+0x16>
 8001f92:	b905      	cbnz	r5, 8001f96 <HAL_GPIO_WritePin+0x12>
 8001f94:	0424      	lsls	r4, r4, #16
 8001f96:	61b4      	str	r4, [r6, #24]
 8001f98:	bd70      	pop	{r4, r5, r6, pc}
 8001f9a:	f44f 71d0 	mov.w	r1, #416	; 0x1a0
 8001f9e:	4805      	ldr	r0, [pc, #20]	; (8001fb4 <HAL_GPIO_WritePin+0x30>)
 8001fa0:	f003 f960 	bl	8005264 <assert_failed>
 8001fa4:	61b4      	str	r4, [r6, #24]
 8001fa6:	bd70      	pop	{r4, r5, r6, pc}
 8001fa8:	f240 119f 	movw	r1, #415	; 0x19f
 8001fac:	4801      	ldr	r0, [pc, #4]	; (8001fb4 <HAL_GPIO_WritePin+0x30>)
 8001fae:	f003 f959 	bl	8005264 <assert_failed>
 8001fb2:	e7ec      	b.n	8001f8e <HAL_GPIO_WritePin+0xa>
 8001fb4:	0800b1c8 	.word	0x0800b1c8

08001fb8 <HAL_I2S_MspInit>:
 8001fb8:	4770      	bx	lr
 8001fba:	bf00      	nop

08001fbc <HAL_I2S_Init>:
 8001fbc:	2800      	cmp	r0, #0
 8001fbe:	f000 80ea 	beq.w	8002196 <HAL_I2S_Init+0x1da>
 8001fc2:	b5f8      	push	{r3, r4, r5, r6, r7, lr}
 8001fc4:	4a90      	ldr	r2, [pc, #576]	; (8002208 <HAL_I2S_Init+0x24c>)
 8001fc6:	6803      	ldr	r3, [r0, #0]
 8001fc8:	4293      	cmp	r3, r2
 8001fca:	4604      	mov	r4, r0
 8001fcc:	d008      	beq.n	8001fe0 <HAL_I2S_Init+0x24>
 8001fce:	f502 6280 	add.w	r2, r2, #1024	; 0x400
 8001fd2:	4293      	cmp	r3, r2
 8001fd4:	d004      	beq.n	8001fe0 <HAL_I2S_Init+0x24>
 8001fd6:	f240 111b 	movw	r1, #283	; 0x11b
 8001fda:	488c      	ldr	r0, [pc, #560]	; (800220c <HAL_I2S_Init+0x250>)
 8001fdc:	f003 f942 	bl	8005264 <assert_failed>
 8001fe0:	6863      	ldr	r3, [r4, #4]
 8001fe2:	f433 7340 	bics.w	r3, r3, #768	; 0x300
 8001fe6:	d004      	beq.n	8001ff2 <HAL_I2S_Init+0x36>
 8001fe8:	f44f 718e 	mov.w	r1, #284	; 0x11c
 8001fec:	4887      	ldr	r0, [pc, #540]	; (800220c <HAL_I2S_Init+0x250>)
 8001fee:	f003 f939 	bl	8005264 <assert_failed>
 8001ff2:	68a3      	ldr	r3, [r4, #8]
 8001ff4:	f033 0230 	bics.w	r2, r3, #48	; 0x30
 8001ff8:	d006      	beq.n	8002008 <HAL_I2S_Init+0x4c>
 8001ffa:	2bb0      	cmp	r3, #176	; 0xb0
 8001ffc:	d004      	beq.n	8002008 <HAL_I2S_Init+0x4c>
 8001ffe:	f240 111d 	movw	r1, #285	; 0x11d
 8002002:	4882      	ldr	r0, [pc, #520]	; (800220c <HAL_I2S_Init+0x250>)
 8002004:	f003 f92e 	bl	8005264 <assert_failed>
 8002008:	68e2      	ldr	r2, [r4, #12]
 800200a:	2a05      	cmp	r2, #5
 800200c:	f200 80c5 	bhi.w	800219a <HAL_I2S_Init+0x1de>
 8002010:	232b      	movs	r3, #43	; 0x2b
 8002012:	40d3      	lsrs	r3, r2
 8002014:	07db      	lsls	r3, r3, #31
 8002016:	f140 80c0 	bpl.w	800219a <HAL_I2S_Init+0x1de>
 800201a:	6923      	ldr	r3, [r4, #16]
 800201c:	f433 7300 	bics.w	r3, r3, #512	; 0x200
 8002020:	f040 80c5 	bne.w	80021ae <HAL_I2S_Init+0x1f2>
 8002024:	6963      	ldr	r3, [r4, #20]
 8002026:	4a7a      	ldr	r2, [pc, #488]	; (8002210 <HAL_I2S_Init+0x254>)
 8002028:	f5a3 51fa 	sub.w	r1, r3, #8000	; 0x1f40
 800202c:	4291      	cmp	r1, r2
 800202e:	d902      	bls.n	8002036 <HAL_I2S_Init+0x7a>
 8002030:	2b02      	cmp	r3, #2
 8002032:	f040 80c9 	bne.w	80021c8 <HAL_I2S_Init+0x20c>
 8002036:	69a3      	ldr	r3, [r4, #24]
 8002038:	f033 0308 	bics.w	r3, r3, #8
 800203c:	d004      	beq.n	8002048 <HAL_I2S_Init+0x8c>
 800203e:	f240 1121 	movw	r1, #289	; 0x121
 8002042:	4872      	ldr	r0, [pc, #456]	; (800220c <HAL_I2S_Init+0x250>)
 8002044:	f003 f90e 	bl	8005264 <assert_failed>
 8002048:	69e3      	ldr	r3, [r4, #28]
 800204a:	2b01      	cmp	r3, #1
 800204c:	d83f      	bhi.n	80020ce <HAL_I2S_Init+0x112>
 800204e:	f894 3041 	ldrb.w	r3, [r4, #65]	; 0x41
 8002052:	f003 02ff 	and.w	r2, r3, #255	; 0xff
 8002056:	2b00      	cmp	r3, #0
 8002058:	f000 8095 	beq.w	8002186 <HAL_I2S_Init+0x1ca>
 800205c:	2302      	movs	r3, #2
 800205e:	6821      	ldr	r1, [r4, #0]
 8002060:	f884 3041 	strb.w	r3, [r4, #65]	; 0x41
 8002064:	69c8      	ldr	r0, [r1, #28]
 8002066:	6965      	ldr	r5, [r4, #20]
 8002068:	68e6      	ldr	r6, [r4, #12]
 800206a:	f420 607b 	bic.w	r0, r0, #4016	; 0xfb0
 800206e:	f020 000f 	bic.w	r0, r0, #15
 8002072:	429d      	cmp	r5, r3
 8002074:	61c8      	str	r0, [r1, #28]
 8002076:	620b      	str	r3, [r1, #32]
 8002078:	d035      	beq.n	80020e6 <HAL_I2S_Init+0x12a>
 800207a:	68a3      	ldr	r3, [r4, #8]
 800207c:	2e00      	cmp	r6, #0
 800207e:	bf0c      	ite	eq
 8002080:	2510      	moveq	r5, #16
 8002082:	2520      	movne	r5, #32
 8002084:	2001      	movs	r0, #1
 8002086:	2b20      	cmp	r3, #32
 8002088:	bf98      	it	ls
 800208a:	006d      	lslls	r5, r5, #1
 800208c:	f000 ffa0 	bl	8002fd0 <HAL_RCCEx_GetPeriphCLKFreq>
 8002090:	6922      	ldr	r2, [r4, #16]
 8002092:	f5b2 7f00 	cmp.w	r2, #512	; 0x200
 8002096:	f000 80a2 	beq.w	80021de <HAL_I2S_Init+0x222>
 800209a:	fbb0 f0f5 	udiv	r0, r0, r5
 800209e:	eb00 0080 	add.w	r0, r0, r0, lsl #2
 80020a2:	0043      	lsls	r3, r0, #1
 80020a4:	6960      	ldr	r0, [r4, #20]
 80020a6:	fbb3 f3f0 	udiv	r3, r3, r0
 80020aa:	3305      	adds	r3, #5
 80020ac:	4959      	ldr	r1, [pc, #356]	; (8002214 <HAL_I2S_Init+0x258>)
 80020ae:	fba1 1303 	umull	r1, r3, r1, r3
 80020b2:	08db      	lsrs	r3, r3, #3
 80020b4:	085d      	lsrs	r5, r3, #1
 80020b6:	1ea9      	subs	r1, r5, #2
 80020b8:	29fd      	cmp	r1, #253	; 0xfd
 80020ba:	f003 0301 	and.w	r3, r3, #1
 80020be:	f240 809b 	bls.w	80021f8 <HAL_I2S_Init+0x23c>
 80020c2:	6c63      	ldr	r3, [r4, #68]	; 0x44
 80020c4:	f043 0310 	orr.w	r3, r3, #16
 80020c8:	6463      	str	r3, [r4, #68]	; 0x44
 80020ca:	2001      	movs	r0, #1
 80020cc:	bdf8      	pop	{r3, r4, r5, r6, r7, pc}
 80020ce:	f44f 7191 	mov.w	r1, #290	; 0x122
 80020d2:	484e      	ldr	r0, [pc, #312]	; (800220c <HAL_I2S_Init+0x250>)
 80020d4:	f003 f8c6 	bl	8005264 <assert_failed>
 80020d8:	f894 3041 	ldrb.w	r3, [r4, #65]	; 0x41
 80020dc:	f003 02ff 	and.w	r2, r3, #255	; 0xff
 80020e0:	2b00      	cmp	r3, #0
 80020e2:	d1bb      	bne.n	800205c <HAL_I2S_Init+0xa0>
 80020e4:	e04f      	b.n	8002186 <HAL_I2S_Init+0x1ca>
 80020e6:	6922      	ldr	r2, [r4, #16]
 80020e8:	69a7      	ldr	r7, [r4, #24]
 80020ea:	e9d4 3001 	ldrd	r3, r0, [r4, #4]
 80020ee:	432a      	orrs	r2, r5
 80020f0:	620a      	str	r2, [r1, #32]
 80020f2:	69ca      	ldr	r2, [r1, #28]
 80020f4:	4303      	orrs	r3, r0
 80020f6:	f443 6300 	orr.w	r3, r3, #2048	; 0x800
 80020fa:	f422 627b 	bic.w	r2, r2, #4016	; 0xfb0
 80020fe:	433b      	orrs	r3, r7
 8002100:	f022 020f 	bic.w	r2, r2, #15
 8002104:	4333      	orrs	r3, r6
 8002106:	f020 0080 	bic.w	r0, r0, #128	; 0x80
 800210a:	4313      	orrs	r3, r2
 800210c:	2830      	cmp	r0, #48	; 0x30
 800210e:	61cb      	str	r3, [r1, #28]
 8002110:	d103      	bne.n	800211a <HAL_I2S_Init+0x15e>
 8002112:	69cb      	ldr	r3, [r1, #28]
 8002114:	f443 5380 	orr.w	r3, r3, #4096	; 0x1000
 8002118:	61cb      	str	r3, [r1, #28]
 800211a:	6a23      	ldr	r3, [r4, #32]
 800211c:	2b01      	cmp	r3, #1
 800211e:	d905      	bls.n	800212c <HAL_I2S_Init+0x170>
 8002120:	f240 11bd 	movw	r1, #445	; 0x1bd
 8002124:	4839      	ldr	r0, [pc, #228]	; (800220c <HAL_I2S_Init+0x250>)
 8002126:	f003 f89d 	bl	8005264 <assert_failed>
 800212a:	6a23      	ldr	r3, [r4, #32]
 800212c:	2b01      	cmp	r3, #1
 800212e:	d124      	bne.n	800217a <HAL_I2S_Init+0x1be>
 8002130:	6820      	ldr	r0, [r4, #0]
 8002132:	4935      	ldr	r1, [pc, #212]	; (8002208 <HAL_I2S_Init+0x24c>)
 8002134:	4a38      	ldr	r2, [pc, #224]	; (8002218 <HAL_I2S_Init+0x25c>)
 8002136:	4288      	cmp	r0, r1
 8002138:	bf18      	it	ne
 800213a:	f04f 2240 	movne.w	r2, #1073758208	; 0x40004000
 800213e:	e9d4 3502 	ldrd	r3, r5, [r4, #8]
 8002142:	69d1      	ldr	r1, [r2, #28]
 8002144:	4835      	ldr	r0, [pc, #212]	; (800221c <HAL_I2S_Init+0x260>)
 8002146:	6360      	str	r0, [r4, #52]	; 0x34
 8002148:	f421 617b 	bic.w	r1, r1, #4016	; 0xfb0
 800214c:	f021 010f 	bic.w	r1, r1, #15
 8002150:	2002      	movs	r0, #2
 8002152:	61d1      	str	r1, [r2, #28]
 8002154:	432b      	orrs	r3, r5
 8002156:	6210      	str	r0, [r2, #32]
 8002158:	69a5      	ldr	r5, [r4, #24]
 800215a:	6861      	ldr	r1, [r4, #4]
 800215c:	69d0      	ldr	r0, [r2, #28]
 800215e:	f443 6300 	orr.w	r3, r3, #2048	; 0x800
 8002162:	432b      	orrs	r3, r5
 8002164:	f431 7100 	bics.w	r1, r1, #512	; 0x200
 8002168:	ea43 0300 	orr.w	r3, r3, r0
 800216c:	b29b      	uxth	r3, r3
 800216e:	bf14      	ite	ne
 8002170:	2100      	movne	r1, #0
 8002172:	f44f 7180 	moveq.w	r1, #256	; 0x100
 8002176:	430b      	orrs	r3, r1
 8002178:	61d3      	str	r3, [r2, #28]
 800217a:	2000      	movs	r0, #0
 800217c:	2301      	movs	r3, #1
 800217e:	6460      	str	r0, [r4, #68]	; 0x44
 8002180:	f884 3041 	strb.w	r3, [r4, #65]	; 0x41
 8002184:	bdf8      	pop	{r3, r4, r5, r6, r7, pc}
 8002186:	4b26      	ldr	r3, [pc, #152]	; (8002220 <HAL_I2S_Init+0x264>)
 8002188:	f884 2040 	strb.w	r2, [r4, #64]	; 0x40
 800218c:	6363      	str	r3, [r4, #52]	; 0x34
 800218e:	4620      	mov	r0, r4
 8002190:	f7ff ff12 	bl	8001fb8 <HAL_I2S_MspInit>
 8002194:	e762      	b.n	800205c <HAL_I2S_Init+0xa0>
 8002196:	2001      	movs	r0, #1
 8002198:	4770      	bx	lr
 800219a:	f44f 718f 	mov.w	r1, #286	; 0x11e
 800219e:	481b      	ldr	r0, [pc, #108]	; (800220c <HAL_I2S_Init+0x250>)
 80021a0:	f003 f860 	bl	8005264 <assert_failed>
 80021a4:	6923      	ldr	r3, [r4, #16]
 80021a6:	f433 7300 	bics.w	r3, r3, #512	; 0x200
 80021aa:	f43f af3b 	beq.w	8002024 <HAL_I2S_Init+0x68>
 80021ae:	f240 111f 	movw	r1, #287	; 0x11f
 80021b2:	4816      	ldr	r0, [pc, #88]	; (800220c <HAL_I2S_Init+0x250>)
 80021b4:	f003 f856 	bl	8005264 <assert_failed>
 80021b8:	6963      	ldr	r3, [r4, #20]
 80021ba:	4a15      	ldr	r2, [pc, #84]	; (8002210 <HAL_I2S_Init+0x254>)
 80021bc:	f5a3 51fa 	sub.w	r1, r3, #8000	; 0x1f40
 80021c0:	4291      	cmp	r1, r2
 80021c2:	f67f af38 	bls.w	8002036 <HAL_I2S_Init+0x7a>
 80021c6:	e733      	b.n	8002030 <HAL_I2S_Init+0x74>
 80021c8:	f44f 7190 	mov.w	r1, #288	; 0x120
 80021cc:	480f      	ldr	r0, [pc, #60]	; (800220c <HAL_I2S_Init+0x250>)
 80021ce:	f003 f849 	bl	8005264 <assert_failed>
 80021d2:	69a3      	ldr	r3, [r4, #24]
 80021d4:	f033 0308 	bics.w	r3, r3, #8
 80021d8:	f43f af36 	beq.w	8002048 <HAL_I2S_Init+0x8c>
 80021dc:	e72f      	b.n	800203e <HAL_I2S_Init+0x82>
 80021de:	68e3      	ldr	r3, [r4, #12]
 80021e0:	6961      	ldr	r1, [r4, #20]
 80021e2:	b173      	cbz	r3, 8002202 <HAL_I2S_Init+0x246>
 80021e4:	00ad      	lsls	r5, r5, #2
 80021e6:	fbb0 f0f5 	udiv	r0, r0, r5
 80021ea:	eb00 0080 	add.w	r0, r0, r0, lsl #2
 80021ee:	0043      	lsls	r3, r0, #1
 80021f0:	fbb3 f3f1 	udiv	r3, r3, r1
 80021f4:	3305      	adds	r3, #5
 80021f6:	e759      	b.n	80020ac <HAL_I2S_Init+0xf0>
 80021f8:	ea45 2503 	orr.w	r5, r5, r3, lsl #8
 80021fc:	6821      	ldr	r1, [r4, #0]
 80021fe:	68e6      	ldr	r6, [r4, #12]
 8002200:	e772      	b.n	80020e8 <HAL_I2S_Init+0x12c>
 8002202:	00ed      	lsls	r5, r5, #3
 8002204:	e7ef      	b.n	80021e6 <HAL_I2S_Init+0x22a>
 8002206:	bf00      	nop
 8002208:	40003800 	.word	0x40003800
 800220c:	0800b204 	.word	0x0800b204
 8002210:	0002cec0 	.word	0x0002cec0
 8002214:	cccccccd 	.word	0xcccccccd
 8002218:	40003400 	.word	0x40003400
 800221c:	080024d1 	.word	0x080024d1
 8002220:	08002395 	.word	0x08002395

08002224 <HAL_I2S_MspDeInit>:
 8002224:	4770      	bx	lr
 8002226:	bf00      	nop

08002228 <HAL_I2S_DeInit>:
 8002228:	b308      	cbz	r0, 800226e <HAL_I2S_DeInit+0x46>
 800222a:	6803      	ldr	r3, [r0, #0]
 800222c:	4a11      	ldr	r2, [pc, #68]	; (8002274 <HAL_I2S_DeInit+0x4c>)
 800222e:	4293      	cmp	r3, r2
 8002230:	b510      	push	{r4, lr}
 8002232:	4604      	mov	r4, r0
 8002234:	d009      	beq.n	800224a <HAL_I2S_DeInit+0x22>
 8002236:	f502 6280 	add.w	r2, r2, #1024	; 0x400
 800223a:	4293      	cmp	r3, r2
 800223c:	d005      	beq.n	800224a <HAL_I2S_DeInit+0x22>
 800223e:	f44f 71fb 	mov.w	r1, #502	; 0x1f6
 8002242:	480d      	ldr	r0, [pc, #52]	; (8002278 <HAL_I2S_DeInit+0x50>)
 8002244:	f003 f80e 	bl	8005264 <assert_failed>
 8002248:	6823      	ldr	r3, [r4, #0]
 800224a:	2202      	movs	r2, #2
 800224c:	f884 2041 	strb.w	r2, [r4, #65]	; 0x41
 8002250:	69da      	ldr	r2, [r3, #28]
 8002252:	f422 6280 	bic.w	r2, r2, #1024	; 0x400
 8002256:	61da      	str	r2, [r3, #28]
 8002258:	4620      	mov	r0, r4
 800225a:	f7ff ffe3 	bl	8002224 <HAL_I2S_MspDeInit>
 800225e:	2300      	movs	r3, #0
 8002260:	6463      	str	r3, [r4, #68]	; 0x44
 8002262:	4618      	mov	r0, r3
 8002264:	f884 3041 	strb.w	r3, [r4, #65]	; 0x41
 8002268:	f884 3040 	strb.w	r3, [r4, #64]	; 0x40
 800226c:	bd10      	pop	{r4, pc}
 800226e:	2001      	movs	r0, #1
 8002270:	4770      	bx	lr
 8002272:	bf00      	nop
 8002274:	40003800 	.word	0x40003800
 8002278:	0800b204 	.word	0x0800b204

0800227c <HAL_I2S_Receive_DMA>:
 800227c:	2900      	cmp	r1, #0
 800227e:	d04b      	beq.n	8002318 <HAL_I2S_Receive_DMA+0x9c>
 8002280:	2a00      	cmp	r2, #0
 8002282:	d049      	beq.n	8002318 <HAL_I2S_Receive_DMA+0x9c>
 8002284:	f890 3040 	ldrb.w	r3, [r0, #64]	; 0x40
 8002288:	2b01      	cmp	r3, #1
 800228a:	d05d      	beq.n	8002348 <HAL_I2S_Receive_DMA+0xcc>
 800228c:	2301      	movs	r3, #1
 800228e:	f880 3040 	strb.w	r3, [r0, #64]	; 0x40
 8002292:	f890 3041 	ldrb.w	r3, [r0, #65]	; 0x41
 8002296:	2b01      	cmp	r3, #1
 8002298:	d140      	bne.n	800231c <HAL_I2S_Receive_DMA+0xa0>
 800229a:	b570      	push	{r4, r5, r6, lr}
 800229c:	2300      	movs	r3, #0
 800229e:	2404      	movs	r4, #4
 80022a0:	6806      	ldr	r6, [r0, #0]
 80022a2:	f880 4041 	strb.w	r4, [r0, #65]	; 0x41
 80022a6:	6443      	str	r3, [r0, #68]	; 0x44
 80022a8:	69f3      	ldr	r3, [r6, #28]
 80022aa:	62c1      	str	r1, [r0, #44]	; 0x2c
 80022ac:	f003 0307 	and.w	r3, r3, #7
 80022b0:	2b03      	cmp	r3, #3
 80022b2:	b082      	sub	sp, #8
 80022b4:	d037      	beq.n	8002326 <HAL_I2S_Receive_DMA+0xaa>
 80022b6:	2b05      	cmp	r3, #5
 80022b8:	d035      	beq.n	8002326 <HAL_I2S_Receive_DMA+0xaa>
 80022ba:	8602      	strh	r2, [r0, #48]	; 0x30
 80022bc:	8642      	strh	r2, [r0, #50]	; 0x32
 80022be:	69f3      	ldr	r3, [r6, #28]
 80022c0:	6bc4      	ldr	r4, [r0, #60]	; 0x3c
 80022c2:	4a25      	ldr	r2, [pc, #148]	; (8002358 <HAL_I2S_Receive_DMA+0xdc>)
 80022c4:	4d25      	ldr	r5, [pc, #148]	; (800235c <HAL_I2S_Receive_DMA+0xe0>)
 80022c6:	6422      	str	r2, [r4, #64]	; 0x40
 80022c8:	f403 7340 	and.w	r3, r3, #768	; 0x300
 80022cc:	4a24      	ldr	r2, [pc, #144]	; (8002360 <HAL_I2S_Receive_DMA+0xe4>)
 80022ce:	63e5      	str	r5, [r4, #60]	; 0x3c
 80022d0:	f5b3 7f40 	cmp.w	r3, #768	; 0x300
 80022d4:	64e2      	str	r2, [r4, #76]	; 0x4c
 80022d6:	d106      	bne.n	80022e6 <HAL_I2S_Receive_DMA+0x6a>
 80022d8:	2300      	movs	r3, #0
 80022da:	9301      	str	r3, [sp, #4]
 80022dc:	68f3      	ldr	r3, [r6, #12]
 80022de:	9301      	str	r3, [sp, #4]
 80022e0:	68b3      	ldr	r3, [r6, #8]
 80022e2:	9301      	str	r3, [sp, #4]
 80022e4:	9b01      	ldr	r3, [sp, #4]
 80022e6:	8e03      	ldrh	r3, [r0, #48]	; 0x30
 80022e8:	460a      	mov	r2, r1
 80022ea:	4605      	mov	r5, r0
 80022ec:	f106 010c 	add.w	r1, r6, #12
 80022f0:	4620      	mov	r0, r4
 80022f2:	f7ff fb85 	bl	8001a00 <HAL_DMA_Start_IT>
 80022f6:	b9d8      	cbnz	r0, 8002330 <HAL_I2S_Receive_DMA+0xb4>
 80022f8:	682b      	ldr	r3, [r5, #0]
 80022fa:	69da      	ldr	r2, [r3, #28]
 80022fc:	0551      	lsls	r1, r2, #21
 80022fe:	d403      	bmi.n	8002308 <HAL_I2S_Receive_DMA+0x8c>
 8002300:	69da      	ldr	r2, [r3, #28]
 8002302:	f442 6280 	orr.w	r2, r2, #1024	; 0x400
 8002306:	61da      	str	r2, [r3, #28]
 8002308:	685a      	ldr	r2, [r3, #4]
 800230a:	07d2      	lsls	r2, r2, #31
 800230c:	d51e      	bpl.n	800234c <HAL_I2S_Receive_DMA+0xd0>
 800230e:	2300      	movs	r3, #0
 8002310:	f885 3040 	strb.w	r3, [r5, #64]	; 0x40
 8002314:	b002      	add	sp, #8
 8002316:	bd70      	pop	{r4, r5, r6, pc}
 8002318:	2001      	movs	r0, #1
 800231a:	4770      	bx	lr
 800231c:	2300      	movs	r3, #0
 800231e:	f880 3040 	strb.w	r3, [r0, #64]	; 0x40
 8002322:	2002      	movs	r0, #2
 8002324:	4770      	bx	lr
 8002326:	0052      	lsls	r2, r2, #1
 8002328:	b292      	uxth	r2, r2
 800232a:	8602      	strh	r2, [r0, #48]	; 0x30
 800232c:	8642      	strh	r2, [r0, #50]	; 0x32
 800232e:	e7c6      	b.n	80022be <HAL_I2S_Receive_DMA+0x42>
 8002330:	6c6b      	ldr	r3, [r5, #68]	; 0x44
 8002332:	2201      	movs	r2, #1
 8002334:	f043 0308 	orr.w	r3, r3, #8
 8002338:	2100      	movs	r1, #0
 800233a:	646b      	str	r3, [r5, #68]	; 0x44
 800233c:	4610      	mov	r0, r2
 800233e:	f885 2041 	strb.w	r2, [r5, #65]	; 0x41
 8002342:	f885 1040 	strb.w	r1, [r5, #64]	; 0x40
 8002346:	e7e5      	b.n	8002314 <HAL_I2S_Receive_DMA+0x98>
 8002348:	2002      	movs	r0, #2
 800234a:	4770      	bx	lr
 800234c:	685a      	ldr	r2, [r3, #4]
 800234e:	f042 0201 	orr.w	r2, r2, #1
 8002352:	605a      	str	r2, [r3, #4]
 8002354:	e7db      	b.n	800230e <HAL_I2S_Receive_DMA+0x92>
 8002356:	bf00      	nop
 8002358:	08002369 	.word	0x08002369
 800235c:	08002375 	.word	0x08002375
 8002360:	0800249d 	.word	0x0800249d

08002364 <HAL_I2S_TxCpltCallback>:
 8002364:	4770      	bx	lr
 8002366:	bf00      	nop

08002368 <I2S_DMARxHalfCplt>:
 8002368:	b508      	push	{r3, lr}
 800236a:	6b80      	ldr	r0, [r0, #56]	; 0x38
 800236c:	f7fe feda 	bl	8001124 <HAL_I2S_RxHalfCpltCallback>
 8002370:	bd08      	pop	{r3, pc}
 8002372:	bf00      	nop

08002374 <I2S_DMARxCplt>:
 8002374:	69c3      	ldr	r3, [r0, #28]
 8002376:	6b80      	ldr	r0, [r0, #56]	; 0x38
 8002378:	b510      	push	{r4, lr}
 800237a:	b943      	cbnz	r3, 800238e <I2S_DMARxCplt+0x1a>
 800237c:	6801      	ldr	r1, [r0, #0]
 800237e:	684a      	ldr	r2, [r1, #4]
 8002380:	2401      	movs	r4, #1
 8002382:	f022 0201 	bic.w	r2, r2, #1
 8002386:	604a      	str	r2, [r1, #4]
 8002388:	8643      	strh	r3, [r0, #50]	; 0x32
 800238a:	f880 4041 	strb.w	r4, [r0, #65]	; 0x41
 800238e:	f7fe fec5 	bl	800111c <HAL_I2S_RxCpltCallback>
 8002392:	bd10      	pop	{r4, pc}

08002394 <I2S_IRQHandler>:
 8002394:	b510      	push	{r4, lr}
 8002396:	6803      	ldr	r3, [r0, #0]
 8002398:	b084      	sub	sp, #16
 800239a:	689a      	ldr	r2, [r3, #8]
 800239c:	9201      	str	r2, [sp, #4]
 800239e:	f890 2041 	ldrb.w	r2, [r0, #65]	; 0x41
 80023a2:	2a04      	cmp	r2, #4
 80023a4:	4604      	mov	r4, r0
 80023a6:	d034      	beq.n	8002412 <I2S_IRQHandler+0x7e>
 80023a8:	f894 3041 	ldrb.w	r3, [r4, #65]	; 0x41
 80023ac:	2b03      	cmp	r3, #3
 80023ae:	d001      	beq.n	80023b4 <I2S_IRQHandler+0x20>
 80023b0:	b004      	add	sp, #16
 80023b2:	bd10      	pop	{r4, pc}
 80023b4:	9b01      	ldr	r3, [sp, #4]
 80023b6:	079b      	lsls	r3, r3, #30
 80023b8:	d510      	bpl.n	80023dc <I2S_IRQHandler+0x48>
 80023ba:	6823      	ldr	r3, [r4, #0]
 80023bc:	685a      	ldr	r2, [r3, #4]
 80023be:	0610      	lsls	r0, r2, #24
 80023c0:	d50c      	bpl.n	80023dc <I2S_IRQHandler+0x48>
 80023c2:	6a61      	ldr	r1, [r4, #36]	; 0x24
 80023c4:	f831 2b02 	ldrh.w	r2, [r1], #2
 80023c8:	60da      	str	r2, [r3, #12]
 80023ca:	8d62      	ldrh	r2, [r4, #42]	; 0x2a
 80023cc:	6261      	str	r1, [r4, #36]	; 0x24
 80023ce:	3a01      	subs	r2, #1
 80023d0:	b292      	uxth	r2, r2
 80023d2:	8562      	strh	r2, [r4, #42]	; 0x2a
 80023d4:	8d62      	ldrh	r2, [r4, #42]	; 0x2a
 80023d6:	b292      	uxth	r2, r2
 80023d8:	2a00      	cmp	r2, #0
 80023da:	d049      	beq.n	8002470 <I2S_IRQHandler+0xdc>
 80023dc:	9b01      	ldr	r3, [sp, #4]
 80023de:	0719      	lsls	r1, r3, #28
 80023e0:	d5e6      	bpl.n	80023b0 <I2S_IRQHandler+0x1c>
 80023e2:	6823      	ldr	r3, [r4, #0]
 80023e4:	685a      	ldr	r2, [r3, #4]
 80023e6:	0692      	lsls	r2, r2, #26
 80023e8:	d5e2      	bpl.n	80023b0 <I2S_IRQHandler+0x1c>
 80023ea:	685a      	ldr	r2, [r3, #4]
 80023ec:	2100      	movs	r1, #0
 80023ee:	f022 02a0 	bic.w	r2, r2, #160	; 0xa0
 80023f2:	605a      	str	r2, [r3, #4]
 80023f4:	9103      	str	r1, [sp, #12]
 80023f6:	689b      	ldr	r3, [r3, #8]
 80023f8:	9303      	str	r3, [sp, #12]
 80023fa:	2301      	movs	r3, #1
 80023fc:	9a03      	ldr	r2, [sp, #12]
 80023fe:	f884 3041 	strb.w	r3, [r4, #65]	; 0x41
 8002402:	6c63      	ldr	r3, [r4, #68]	; 0x44
 8002404:	f043 0304 	orr.w	r3, r3, #4
 8002408:	6463      	str	r3, [r4, #68]	; 0x44
 800240a:	4620      	mov	r0, r4
 800240c:	f7fe fe90 	bl	8001130 <HAL_I2S_ErrorCallback>
 8002410:	e7ce      	b.n	80023b0 <I2S_IRQHandler+0x1c>
 8002412:	9a01      	ldr	r2, [sp, #4]
 8002414:	07d1      	lsls	r1, r2, #31
 8002416:	d50e      	bpl.n	8002436 <I2S_IRQHandler+0xa2>
 8002418:	685a      	ldr	r2, [r3, #4]
 800241a:	0652      	lsls	r2, r2, #25
 800241c:	d50b      	bpl.n	8002436 <I2S_IRQHandler+0xa2>
 800241e:	6ac1      	ldr	r1, [r0, #44]	; 0x2c
 8002420:	68da      	ldr	r2, [r3, #12]
 8002422:	f821 2b02 	strh.w	r2, [r1], #2
 8002426:	8e42      	ldrh	r2, [r0, #50]	; 0x32
 8002428:	62c1      	str	r1, [r0, #44]	; 0x2c
 800242a:	3a01      	subs	r2, #1
 800242c:	b292      	uxth	r2, r2
 800242e:	8642      	strh	r2, [r0, #50]	; 0x32
 8002430:	8e42      	ldrh	r2, [r0, #50]	; 0x32
 8002432:	b292      	uxth	r2, r2
 8002434:	b33a      	cbz	r2, 8002486 <I2S_IRQHandler+0xf2>
 8002436:	9b01      	ldr	r3, [sp, #4]
 8002438:	0659      	lsls	r1, r3, #25
 800243a:	d5b5      	bpl.n	80023a8 <I2S_IRQHandler+0x14>
 800243c:	6823      	ldr	r3, [r4, #0]
 800243e:	685a      	ldr	r2, [r3, #4]
 8002440:	0692      	lsls	r2, r2, #26
 8002442:	d5b1      	bpl.n	80023a8 <I2S_IRQHandler+0x14>
 8002444:	685a      	ldr	r2, [r3, #4]
 8002446:	2100      	movs	r1, #0
 8002448:	f022 0260 	bic.w	r2, r2, #96	; 0x60
 800244c:	605a      	str	r2, [r3, #4]
 800244e:	9102      	str	r1, [sp, #8]
 8002450:	68da      	ldr	r2, [r3, #12]
 8002452:	9202      	str	r2, [sp, #8]
 8002454:	689b      	ldr	r3, [r3, #8]
 8002456:	9302      	str	r3, [sp, #8]
 8002458:	2301      	movs	r3, #1
 800245a:	9a02      	ldr	r2, [sp, #8]
 800245c:	f884 3041 	strb.w	r3, [r4, #65]	; 0x41
 8002460:	6c63      	ldr	r3, [r4, #68]	; 0x44
 8002462:	f043 0302 	orr.w	r3, r3, #2
 8002466:	6463      	str	r3, [r4, #68]	; 0x44
 8002468:	4620      	mov	r0, r4
 800246a:	f7fe fe61 	bl	8001130 <HAL_I2S_ErrorCallback>
 800246e:	e79b      	b.n	80023a8 <I2S_IRQHandler+0x14>
 8002470:	685a      	ldr	r2, [r3, #4]
 8002472:	2101      	movs	r1, #1
 8002474:	f022 02a0 	bic.w	r2, r2, #160	; 0xa0
 8002478:	605a      	str	r2, [r3, #4]
 800247a:	4620      	mov	r0, r4
 800247c:	f884 1041 	strb.w	r1, [r4, #65]	; 0x41
 8002480:	f7ff ff70 	bl	8002364 <HAL_I2S_TxCpltCallback>
 8002484:	e7aa      	b.n	80023dc <I2S_IRQHandler+0x48>
 8002486:	685a      	ldr	r2, [r3, #4]
 8002488:	2101      	movs	r1, #1
 800248a:	f022 0260 	bic.w	r2, r2, #96	; 0x60
 800248e:	605a      	str	r2, [r3, #4]
 8002490:	f880 1041 	strb.w	r1, [r0, #65]	; 0x41
 8002494:	f7fe fe42 	bl	800111c <HAL_I2S_RxCpltCallback>
 8002498:	e7cd      	b.n	8002436 <I2S_IRQHandler+0xa2>
 800249a:	bf00      	nop

0800249c <I2S_DMAError>:
 800249c:	6b80      	ldr	r0, [r0, #56]	; 0x38
 800249e:	6801      	ldr	r1, [r0, #0]
 80024a0:	684b      	ldr	r3, [r1, #4]
 80024a2:	b510      	push	{r4, lr}
 80024a4:	2200      	movs	r2, #0
 80024a6:	f023 0303 	bic.w	r3, r3, #3
 80024aa:	2401      	movs	r4, #1
 80024ac:	604b      	str	r3, [r1, #4]
 80024ae:	8542      	strh	r2, [r0, #42]	; 0x2a
 80024b0:	8642      	strh	r2, [r0, #50]	; 0x32
 80024b2:	f880 4041 	strb.w	r4, [r0, #65]	; 0x41
 80024b6:	6c43      	ldr	r3, [r0, #68]	; 0x44
 80024b8:	f043 0308 	orr.w	r3, r3, #8
 80024bc:	6443      	str	r3, [r0, #68]	; 0x44
 80024be:	f7fe fe37 	bl	8001130 <HAL_I2S_ErrorCallback>
 80024c2:	bd10      	pop	{r4, pc}

080024c4 <HAL_I2S_GetState>:
 80024c4:	f890 0041 	ldrb.w	r0, [r0, #65]	; 0x41
 80024c8:	4770      	bx	lr
 80024ca:	bf00      	nop

080024cc <HAL_I2SEx_TxRxCpltCallback>:
 80024cc:	4770      	bx	lr
 80024ce:	bf00      	nop

080024d0 <HAL_I2SEx_FullDuplex_IRQHandler>:
 80024d0:	b530      	push	{r4, r5, lr}
 80024d2:	4a93      	ldr	r2, [pc, #588]	; (8002720 <HAL_I2SEx_FullDuplex_IRQHandler+0x250>)
 80024d4:	6805      	ldr	r5, [r0, #0]
 80024d6:	4b93      	ldr	r3, [pc, #588]	; (8002724 <HAL_I2SEx_FullDuplex_IRQHandler+0x254>)
 80024d8:	68a9      	ldr	r1, [r5, #8]
 80024da:	b087      	sub	sp, #28
 80024dc:	4295      	cmp	r5, r2
 80024de:	bf18      	it	ne
 80024e0:	f04f 2340 	movne.w	r3, #1073758208	; 0x40004000
 80024e4:	9100      	str	r1, [sp, #0]
 80024e6:	6899      	ldr	r1, [r3, #8]
 80024e8:	9101      	str	r1, [sp, #4]
 80024ea:	6869      	ldr	r1, [r5, #4]
 80024ec:	6842      	ldr	r2, [r0, #4]
 80024ee:	9102      	str	r1, [sp, #8]
 80024f0:	6859      	ldr	r1, [r3, #4]
 80024f2:	9103      	str	r1, [sp, #12]
 80024f4:	f432 7200 	bics.w	r2, r2, #512	; 0x200
 80024f8:	4604      	mov	r4, r0
 80024fa:	d075      	beq.n	80025e8 <HAL_I2SEx_FullDuplex_IRQHandler+0x118>
 80024fc:	9a01      	ldr	r2, [sp, #4]
 80024fe:	0791      	lsls	r1, r2, #30
 8002500:	d51a      	bpl.n	8002538 <HAL_I2SEx_FullDuplex_IRQHandler+0x68>
 8002502:	9a03      	ldr	r2, [sp, #12]
 8002504:	0612      	lsls	r2, r2, #24
 8002506:	d517      	bpl.n	8002538 <HAL_I2SEx_FullDuplex_IRQHandler+0x68>
 8002508:	6a42      	ldr	r2, [r0, #36]	; 0x24
 800250a:	1c91      	adds	r1, r2, #2
 800250c:	8812      	ldrh	r2, [r2, #0]
 800250e:	6241      	str	r1, [r0, #36]	; 0x24
 8002510:	60da      	str	r2, [r3, #12]
 8002512:	8d42      	ldrh	r2, [r0, #42]	; 0x2a
 8002514:	3a01      	subs	r2, #1
 8002516:	b292      	uxth	r2, r2
 8002518:	8542      	strh	r2, [r0, #42]	; 0x2a
 800251a:	8d42      	ldrh	r2, [r0, #42]	; 0x2a
 800251c:	b292      	uxth	r2, r2
 800251e:	b95a      	cbnz	r2, 8002538 <HAL_I2SEx_FullDuplex_IRQHandler+0x68>
 8002520:	685a      	ldr	r2, [r3, #4]
 8002522:	f022 02a0 	bic.w	r2, r2, #160	; 0xa0
 8002526:	605a      	str	r2, [r3, #4]
 8002528:	8e43      	ldrh	r3, [r0, #50]	; 0x32
 800252a:	b29b      	uxth	r3, r3
 800252c:	b923      	cbnz	r3, 8002538 <HAL_I2SEx_FullDuplex_IRQHandler+0x68>
 800252e:	2301      	movs	r3, #1
 8002530:	f880 3041 	strb.w	r3, [r0, #65]	; 0x41
 8002534:	f7ff ffca 	bl	80024cc <HAL_I2SEx_TxRxCpltCallback>
 8002538:	9b00      	ldr	r3, [sp, #0]
 800253a:	07db      	lsls	r3, r3, #31
 800253c:	d51c      	bpl.n	8002578 <HAL_I2SEx_FullDuplex_IRQHandler+0xa8>
 800253e:	9b02      	ldr	r3, [sp, #8]
 8002540:	065d      	lsls	r5, r3, #25
 8002542:	d519      	bpl.n	8002578 <HAL_I2SEx_FullDuplex_IRQHandler+0xa8>
 8002544:	6ae3      	ldr	r3, [r4, #44]	; 0x2c
 8002546:	6822      	ldr	r2, [r4, #0]
 8002548:	1c98      	adds	r0, r3, #2
 800254a:	68d1      	ldr	r1, [r2, #12]
 800254c:	62e0      	str	r0, [r4, #44]	; 0x2c
 800254e:	8019      	strh	r1, [r3, #0]
 8002550:	8e63      	ldrh	r3, [r4, #50]	; 0x32
 8002552:	3b01      	subs	r3, #1
 8002554:	b29b      	uxth	r3, r3
 8002556:	8663      	strh	r3, [r4, #50]	; 0x32
 8002558:	8e63      	ldrh	r3, [r4, #50]	; 0x32
 800255a:	b29b      	uxth	r3, r3
 800255c:	b963      	cbnz	r3, 8002578 <HAL_I2SEx_FullDuplex_IRQHandler+0xa8>
 800255e:	6853      	ldr	r3, [r2, #4]
 8002560:	f023 0360 	bic.w	r3, r3, #96	; 0x60
 8002564:	6053      	str	r3, [r2, #4]
 8002566:	8d63      	ldrh	r3, [r4, #42]	; 0x2a
 8002568:	b29b      	uxth	r3, r3
 800256a:	b92b      	cbnz	r3, 8002578 <HAL_I2SEx_FullDuplex_IRQHandler+0xa8>
 800256c:	2301      	movs	r3, #1
 800256e:	f884 3041 	strb.w	r3, [r4, #65]	; 0x41
 8002572:	4620      	mov	r0, r4
 8002574:	f7ff ffaa 	bl	80024cc <HAL_I2SEx_TxRxCpltCallback>
 8002578:	9b00      	ldr	r3, [sp, #0]
 800257a:	0658      	lsls	r0, r3, #25
 800257c:	d51b      	bpl.n	80025b6 <HAL_I2SEx_FullDuplex_IRQHandler+0xe6>
 800257e:	9b02      	ldr	r3, [sp, #8]
 8002580:	0699      	lsls	r1, r3, #26
 8002582:	d518      	bpl.n	80025b6 <HAL_I2SEx_FullDuplex_IRQHandler+0xe6>
 8002584:	6822      	ldr	r2, [r4, #0]
 8002586:	4866      	ldr	r0, [pc, #408]	; (8002720 <HAL_I2SEx_FullDuplex_IRQHandler+0x250>)
 8002588:	6851      	ldr	r1, [r2, #4]
 800258a:	4b66      	ldr	r3, [pc, #408]	; (8002724 <HAL_I2SEx_FullDuplex_IRQHandler+0x254>)
 800258c:	f021 0160 	bic.w	r1, r1, #96	; 0x60
 8002590:	4282      	cmp	r2, r0
 8002592:	bf18      	it	ne
 8002594:	f04f 2340 	movne.w	r3, #1073758208	; 0x40004000
 8002598:	6051      	str	r1, [r2, #4]
 800259a:	685a      	ldr	r2, [r3, #4]
 800259c:	2101      	movs	r1, #1
 800259e:	f022 02a0 	bic.w	r2, r2, #160	; 0xa0
 80025a2:	605a      	str	r2, [r3, #4]
 80025a4:	f884 1041 	strb.w	r1, [r4, #65]	; 0x41
 80025a8:	6c63      	ldr	r3, [r4, #68]	; 0x44
 80025aa:	f043 0302 	orr.w	r3, r3, #2
 80025ae:	6463      	str	r3, [r4, #68]	; 0x44
 80025b0:	4620      	mov	r0, r4
 80025b2:	f7fe fdbd 	bl	8001130 <HAL_I2S_ErrorCallback>
 80025b6:	9b01      	ldr	r3, [sp, #4]
 80025b8:	071a      	lsls	r2, r3, #28
 80025ba:	d56e      	bpl.n	800269a <HAL_I2SEx_FullDuplex_IRQHandler+0x1ca>
 80025bc:	9b03      	ldr	r3, [sp, #12]
 80025be:	069b      	lsls	r3, r3, #26
 80025c0:	d56b      	bpl.n	800269a <HAL_I2SEx_FullDuplex_IRQHandler+0x1ca>
 80025c2:	6822      	ldr	r2, [r4, #0]
 80025c4:	4956      	ldr	r1, [pc, #344]	; (8002720 <HAL_I2SEx_FullDuplex_IRQHandler+0x250>)
 80025c6:	4b57      	ldr	r3, [pc, #348]	; (8002724 <HAL_I2SEx_FullDuplex_IRQHandler+0x254>)
 80025c8:	428a      	cmp	r2, r1
 80025ca:	bf18      	it	ne
 80025cc:	f04f 2340 	movne.w	r3, #1073758208	; 0x40004000
 80025d0:	2001      	movs	r0, #1
 80025d2:	6859      	ldr	r1, [r3, #4]
 80025d4:	f021 01a0 	bic.w	r1, r1, #160	; 0xa0
 80025d8:	6059      	str	r1, [r3, #4]
 80025da:	6853      	ldr	r3, [r2, #4]
 80025dc:	f023 0360 	bic.w	r3, r3, #96	; 0x60
 80025e0:	6053      	str	r3, [r2, #4]
 80025e2:	f884 0041 	strb.w	r0, [r4, #65]	; 0x41
 80025e6:	e04e      	b.n	8002686 <HAL_I2SEx_FullDuplex_IRQHandler+0x1b6>
 80025e8:	9b00      	ldr	r3, [sp, #0]
 80025ea:	079a      	lsls	r2, r3, #30
 80025ec:	d502      	bpl.n	80025f4 <HAL_I2SEx_FullDuplex_IRQHandler+0x124>
 80025ee:	9b02      	ldr	r3, [sp, #8]
 80025f0:	061b      	lsls	r3, r3, #24
 80025f2:	d477      	bmi.n	80026e4 <HAL_I2SEx_FullDuplex_IRQHandler+0x214>
 80025f4:	9b01      	ldr	r3, [sp, #4]
 80025f6:	07d8      	lsls	r0, r3, #31
 80025f8:	d502      	bpl.n	8002600 <HAL_I2SEx_FullDuplex_IRQHandler+0x130>
 80025fa:	9b03      	ldr	r3, [sp, #12]
 80025fc:	0659      	lsls	r1, r3, #25
 80025fe:	d44e      	bmi.n	800269e <HAL_I2SEx_FullDuplex_IRQHandler+0x1ce>
 8002600:	9b01      	ldr	r3, [sp, #4]
 8002602:	065a      	lsls	r2, r3, #25
 8002604:	d522      	bpl.n	800264c <HAL_I2SEx_FullDuplex_IRQHandler+0x17c>
 8002606:	9b03      	ldr	r3, [sp, #12]
 8002608:	069b      	lsls	r3, r3, #26
 800260a:	d51f      	bpl.n	800264c <HAL_I2SEx_FullDuplex_IRQHandler+0x17c>
 800260c:	6823      	ldr	r3, [r4, #0]
 800260e:	4944      	ldr	r1, [pc, #272]	; (8002720 <HAL_I2SEx_FullDuplex_IRQHandler+0x250>)
 8002610:	4a44      	ldr	r2, [pc, #272]	; (8002724 <HAL_I2SEx_FullDuplex_IRQHandler+0x254>)
 8002612:	428b      	cmp	r3, r1
 8002614:	bf18      	it	ne
 8002616:	f04f 2240 	movne.w	r2, #1073758208	; 0x40004000
 800261a:	2000      	movs	r0, #0
 800261c:	6851      	ldr	r1, [r2, #4]
 800261e:	f021 0160 	bic.w	r1, r1, #96	; 0x60
 8002622:	6051      	str	r1, [r2, #4]
 8002624:	685a      	ldr	r2, [r3, #4]
 8002626:	f022 02a0 	bic.w	r2, r2, #160	; 0xa0
 800262a:	605a      	str	r2, [r3, #4]
 800262c:	9004      	str	r0, [sp, #16]
 800262e:	68da      	ldr	r2, [r3, #12]
 8002630:	9204      	str	r2, [sp, #16]
 8002632:	689b      	ldr	r3, [r3, #8]
 8002634:	9304      	str	r3, [sp, #16]
 8002636:	2301      	movs	r3, #1
 8002638:	9a04      	ldr	r2, [sp, #16]
 800263a:	f884 3041 	strb.w	r3, [r4, #65]	; 0x41
 800263e:	6c63      	ldr	r3, [r4, #68]	; 0x44
 8002640:	f043 0302 	orr.w	r3, r3, #2
 8002644:	6463      	str	r3, [r4, #68]	; 0x44
 8002646:	4620      	mov	r0, r4
 8002648:	f7fe fd72 	bl	8001130 <HAL_I2S_ErrorCallback>
 800264c:	9b00      	ldr	r3, [sp, #0]
 800264e:	071d      	lsls	r5, r3, #28
 8002650:	d523      	bpl.n	800269a <HAL_I2SEx_FullDuplex_IRQHandler+0x1ca>
 8002652:	9b02      	ldr	r3, [sp, #8]
 8002654:	0698      	lsls	r0, r3, #26
 8002656:	d520      	bpl.n	800269a <HAL_I2SEx_FullDuplex_IRQHandler+0x1ca>
 8002658:	6823      	ldr	r3, [r4, #0]
 800265a:	4831      	ldr	r0, [pc, #196]	; (8002720 <HAL_I2SEx_FullDuplex_IRQHandler+0x250>)
 800265c:	6859      	ldr	r1, [r3, #4]
 800265e:	4a31      	ldr	r2, [pc, #196]	; (8002724 <HAL_I2SEx_FullDuplex_IRQHandler+0x254>)
 8002660:	f021 01a0 	bic.w	r1, r1, #160	; 0xa0
 8002664:	4283      	cmp	r3, r0
 8002666:	bf18      	it	ne
 8002668:	f04f 2240 	movne.w	r2, #1073758208	; 0x40004000
 800266c:	6059      	str	r1, [r3, #4]
 800266e:	6851      	ldr	r1, [r2, #4]
 8002670:	2000      	movs	r0, #0
 8002672:	f021 0160 	bic.w	r1, r1, #96	; 0x60
 8002676:	6051      	str	r1, [r2, #4]
 8002678:	9005      	str	r0, [sp, #20]
 800267a:	689b      	ldr	r3, [r3, #8]
 800267c:	9305      	str	r3, [sp, #20]
 800267e:	2301      	movs	r3, #1
 8002680:	9a05      	ldr	r2, [sp, #20]
 8002682:	f884 3041 	strb.w	r3, [r4, #65]	; 0x41
 8002686:	6c63      	ldr	r3, [r4, #68]	; 0x44
 8002688:	4620      	mov	r0, r4
 800268a:	f043 0304 	orr.w	r3, r3, #4
 800268e:	6463      	str	r3, [r4, #68]	; 0x44
 8002690:	b007      	add	sp, #28
 8002692:	e8bd 4030 	ldmia.w	sp!, {r4, r5, lr}
 8002696:	f7fe bd4b 	b.w	8001130 <HAL_I2S_ErrorCallback>
 800269a:	b007      	add	sp, #28
 800269c:	bd30      	pop	{r4, r5, pc}
 800269e:	6820      	ldr	r0, [r4, #0]
 80026a0:	491f      	ldr	r1, [pc, #124]	; (8002720 <HAL_I2SEx_FullDuplex_IRQHandler+0x250>)
 80026a2:	4a20      	ldr	r2, [pc, #128]	; (8002724 <HAL_I2SEx_FullDuplex_IRQHandler+0x254>)
 80026a4:	6ae3      	ldr	r3, [r4, #44]	; 0x2c
 80026a6:	4288      	cmp	r0, r1
 80026a8:	bf18      	it	ne
 80026aa:	f04f 2240 	movne.w	r2, #1073758208	; 0x40004000
 80026ae:	1c98      	adds	r0, r3, #2
 80026b0:	68d1      	ldr	r1, [r2, #12]
 80026b2:	62e0      	str	r0, [r4, #44]	; 0x2c
 80026b4:	8019      	strh	r1, [r3, #0]
 80026b6:	8e63      	ldrh	r3, [r4, #50]	; 0x32
 80026b8:	3b01      	subs	r3, #1
 80026ba:	b29b      	uxth	r3, r3
 80026bc:	8663      	strh	r3, [r4, #50]	; 0x32
 80026be:	8e63      	ldrh	r3, [r4, #50]	; 0x32
 80026c0:	b29b      	uxth	r3, r3
 80026c2:	2b00      	cmp	r3, #0
 80026c4:	d19c      	bne.n	8002600 <HAL_I2SEx_FullDuplex_IRQHandler+0x130>
 80026c6:	6853      	ldr	r3, [r2, #4]
 80026c8:	f023 0360 	bic.w	r3, r3, #96	; 0x60
 80026cc:	6053      	str	r3, [r2, #4]
 80026ce:	8d63      	ldrh	r3, [r4, #42]	; 0x2a
 80026d0:	b29b      	uxth	r3, r3
 80026d2:	2b00      	cmp	r3, #0
 80026d4:	d194      	bne.n	8002600 <HAL_I2SEx_FullDuplex_IRQHandler+0x130>
 80026d6:	2301      	movs	r3, #1
 80026d8:	f884 3041 	strb.w	r3, [r4, #65]	; 0x41
 80026dc:	4620      	mov	r0, r4
 80026de:	f7ff fef5 	bl	80024cc <HAL_I2SEx_TxRxCpltCallback>
 80026e2:	e78d      	b.n	8002600 <HAL_I2SEx_FullDuplex_IRQHandler+0x130>
 80026e4:	6a43      	ldr	r3, [r0, #36]	; 0x24
 80026e6:	1c9a      	adds	r2, r3, #2
 80026e8:	881b      	ldrh	r3, [r3, #0]
 80026ea:	6242      	str	r2, [r0, #36]	; 0x24
 80026ec:	60eb      	str	r3, [r5, #12]
 80026ee:	8d43      	ldrh	r3, [r0, #42]	; 0x2a
 80026f0:	3b01      	subs	r3, #1
 80026f2:	b29b      	uxth	r3, r3
 80026f4:	8543      	strh	r3, [r0, #42]	; 0x2a
 80026f6:	8d43      	ldrh	r3, [r0, #42]	; 0x2a
 80026f8:	b29b      	uxth	r3, r3
 80026fa:	2b00      	cmp	r3, #0
 80026fc:	f47f af7a 	bne.w	80025f4 <HAL_I2SEx_FullDuplex_IRQHandler+0x124>
 8002700:	686b      	ldr	r3, [r5, #4]
 8002702:	f023 03a0 	bic.w	r3, r3, #160	; 0xa0
 8002706:	606b      	str	r3, [r5, #4]
 8002708:	8e43      	ldrh	r3, [r0, #50]	; 0x32
 800270a:	b29b      	uxth	r3, r3
 800270c:	2b00      	cmp	r3, #0
 800270e:	f47f af71 	bne.w	80025f4 <HAL_I2SEx_FullDuplex_IRQHandler+0x124>
 8002712:	2301      	movs	r3, #1
 8002714:	f880 3041 	strb.w	r3, [r0, #65]	; 0x41
 8002718:	f7ff fed8 	bl	80024cc <HAL_I2SEx_TxRxCpltCallback>
 800271c:	e76a      	b.n	80025f4 <HAL_I2SEx_FullDuplex_IRQHandler+0x124>
 800271e:	bf00      	nop
 8002720:	40003800 	.word	0x40003800
 8002724:	40003400 	.word	0x40003400

08002728 <HAL_PWREx_EnableOverDrive>:
 8002728:	b530      	push	{r4, r5, lr}
 800272a:	b083      	sub	sp, #12
 800272c:	4b19      	ldr	r3, [pc, #100]	; (8002794 <HAL_PWREx_EnableOverDrive+0x6c>)
 800272e:	491a      	ldr	r1, [pc, #104]	; (8002798 <HAL_PWREx_EnableOverDrive+0x70>)
 8002730:	4c1a      	ldr	r4, [pc, #104]	; (800279c <HAL_PWREx_EnableOverDrive+0x74>)
 8002732:	2200      	movs	r2, #0
 8002734:	9201      	str	r2, [sp, #4]
 8002736:	6c1a      	ldr	r2, [r3, #64]	; 0x40
 8002738:	f042 5280 	orr.w	r2, r2, #268435456	; 0x10000000
 800273c:	641a      	str	r2, [r3, #64]	; 0x40
 800273e:	6c1b      	ldr	r3, [r3, #64]	; 0x40
 8002740:	f003 5380 	and.w	r3, r3, #268435456	; 0x10000000
 8002744:	9301      	str	r3, [sp, #4]
 8002746:	2301      	movs	r3, #1
 8002748:	9a01      	ldr	r2, [sp, #4]
 800274a:	600b      	str	r3, [r1, #0]
 800274c:	f7fe fed0 	bl	80014f0 <HAL_GetTick>
 8002750:	4605      	mov	r5, r0
 8002752:	e005      	b.n	8002760 <HAL_PWREx_EnableOverDrive+0x38>
 8002754:	f7fe fecc 	bl	80014f0 <HAL_GetTick>
 8002758:	1b40      	subs	r0, r0, r5
 800275a:	f5b0 7f7a 	cmp.w	r0, #1000	; 0x3e8
 800275e:	d816      	bhi.n	800278e <HAL_PWREx_EnableOverDrive+0x66>
 8002760:	6863      	ldr	r3, [r4, #4]
 8002762:	03da      	lsls	r2, r3, #15
 8002764:	d5f6      	bpl.n	8002754 <HAL_PWREx_EnableOverDrive+0x2c>
 8002766:	4b0e      	ldr	r3, [pc, #56]	; (80027a0 <HAL_PWREx_EnableOverDrive+0x78>)
 8002768:	4c0c      	ldr	r4, [pc, #48]	; (800279c <HAL_PWREx_EnableOverDrive+0x74>)
 800276a:	2201      	movs	r2, #1
 800276c:	601a      	str	r2, [r3, #0]
 800276e:	f7fe febf 	bl	80014f0 <HAL_GetTick>
 8002772:	4605      	mov	r5, r0
 8002774:	e005      	b.n	8002782 <HAL_PWREx_EnableOverDrive+0x5a>
 8002776:	f7fe febb 	bl	80014f0 <HAL_GetTick>
 800277a:	1b40      	subs	r0, r0, r5
 800277c:	f5b0 7f7a 	cmp.w	r0, #1000	; 0x3e8
 8002780:	d805      	bhi.n	800278e <HAL_PWREx_EnableOverDrive+0x66>
 8002782:	6863      	ldr	r3, [r4, #4]
 8002784:	039b      	lsls	r3, r3, #14
 8002786:	d5f6      	bpl.n	8002776 <HAL_PWREx_EnableOverDrive+0x4e>
 8002788:	2000      	movs	r0, #0
 800278a:	b003      	add	sp, #12
 800278c:	bd30      	pop	{r4, r5, pc}
 800278e:	2003      	movs	r0, #3
 8002790:	b003      	add	sp, #12
 8002792:	bd30      	pop	{r4, r5, pc}
 8002794:	40023800 	.word	0x40023800
 8002798:	420e0040 	.word	0x420e0040
 800279c:	40007000 	.word	0x40007000
 80027a0:	420e0044 	.word	0x420e0044

080027a4 <HAL_RCC_GetSysClockFreq>:
 80027a4:	4917      	ldr	r1, [pc, #92]	; (8002804 <HAL_RCC_GetSysClockFreq+0x60>)
 80027a6:	b508      	push	{r3, lr}
 80027a8:	688b      	ldr	r3, [r1, #8]
 80027aa:	f003 030c 	and.w	r3, r3, #12
 80027ae:	2b04      	cmp	r3, #4
 80027b0:	d01b      	beq.n	80027ea <HAL_RCC_GetSysClockFreq+0x46>
 80027b2:	2b08      	cmp	r3, #8
 80027b4:	d117      	bne.n	80027e6 <HAL_RCC_GetSysClockFreq+0x42>
 80027b6:	684a      	ldr	r2, [r1, #4]
 80027b8:	684b      	ldr	r3, [r1, #4]
 80027ba:	f413 0380 	ands.w	r3, r3, #4194304	; 0x400000
 80027be:	f002 023f 	and.w	r2, r2, #63	; 0x3f
 80027c2:	d114      	bne.n	80027ee <HAL_RCC_GetSysClockFreq+0x4a>
 80027c4:	6849      	ldr	r1, [r1, #4]
 80027c6:	4810      	ldr	r0, [pc, #64]	; (8002808 <HAL_RCC_GetSysClockFreq+0x64>)
 80027c8:	f3c1 1188 	ubfx	r1, r1, #6, #9
 80027cc:	fba1 0100 	umull	r0, r1, r1, r0
 80027d0:	f7fe f9f4 	bl	8000bbc <__aeabi_uldivmod>
 80027d4:	4b0b      	ldr	r3, [pc, #44]	; (8002804 <HAL_RCC_GetSysClockFreq+0x60>)
 80027d6:	685b      	ldr	r3, [r3, #4]
 80027d8:	f3c3 4301 	ubfx	r3, r3, #16, #2
 80027dc:	3301      	adds	r3, #1
 80027de:	005b      	lsls	r3, r3, #1
 80027e0:	fbb0 f0f3 	udiv	r0, r0, r3
 80027e4:	bd08      	pop	{r3, pc}
 80027e6:	4808      	ldr	r0, [pc, #32]	; (8002808 <HAL_RCC_GetSysClockFreq+0x64>)
 80027e8:	bd08      	pop	{r3, pc}
 80027ea:	4808      	ldr	r0, [pc, #32]	; (800280c <HAL_RCC_GetSysClockFreq+0x68>)
 80027ec:	bd08      	pop	{r3, pc}
 80027ee:	684b      	ldr	r3, [r1, #4]
 80027f0:	4806      	ldr	r0, [pc, #24]	; (800280c <HAL_RCC_GetSysClockFreq+0x68>)
 80027f2:	f3c3 1388 	ubfx	r3, r3, #6, #9
 80027f6:	fba3 0100 	umull	r0, r1, r3, r0
 80027fa:	2300      	movs	r3, #0
 80027fc:	f7fe f9de 	bl	8000bbc <__aeabi_uldivmod>
 8002800:	e7e8      	b.n	80027d4 <HAL_RCC_GetSysClockFreq+0x30>
 8002802:	bf00      	nop
 8002804:	40023800 	.word	0x40023800
 8002808:	00f42400 	.word	0x00f42400
 800280c:	007a1200 	.word	0x007a1200

08002810 <HAL_RCC_ClockConfig>:
 8002810:	2800      	cmp	r0, #0
 8002812:	f000 80ee 	beq.w	80029f2 <HAL_RCC_ClockConfig+0x1e2>
 8002816:	6803      	ldr	r3, [r0, #0]
 8002818:	3b01      	subs	r3, #1
 800281a:	2b0e      	cmp	r3, #14
 800281c:	e92d 41f0 	stmdb	sp!, {r4, r5, r6, r7, r8, lr}
 8002820:	4604      	mov	r4, r0
 8002822:	460d      	mov	r5, r1
 8002824:	f200 80b5 	bhi.w	8002992 <HAL_RCC_ClockConfig+0x182>
 8002828:	2d0f      	cmp	r5, #15
 800282a:	f200 80a5 	bhi.w	8002978 <HAL_RCC_ClockConfig+0x168>
 800282e:	4a79      	ldr	r2, [pc, #484]	; (8002a14 <HAL_RCC_ClockConfig+0x204>)
 8002830:	6813      	ldr	r3, [r2, #0]
 8002832:	f003 030f 	and.w	r3, r3, #15
 8002836:	42ab      	cmp	r3, r5
 8002838:	f0c0 80dd 	bcc.w	80029f6 <HAL_RCC_ClockConfig+0x1e6>
 800283c:	6823      	ldr	r3, [r4, #0]
 800283e:	0798      	lsls	r0, r3, #30
 8002840:	d518      	bpl.n	8002874 <HAL_RCC_ClockConfig+0x64>
 8002842:	0759      	lsls	r1, r3, #29
 8002844:	d504      	bpl.n	8002850 <HAL_RCC_ClockConfig+0x40>
 8002846:	4974      	ldr	r1, [pc, #464]	; (8002a18 <HAL_RCC_ClockConfig+0x208>)
 8002848:	688a      	ldr	r2, [r1, #8]
 800284a:	f442 52e0 	orr.w	r2, r2, #7168	; 0x1c00
 800284e:	608a      	str	r2, [r1, #8]
 8002850:	071a      	lsls	r2, r3, #28
 8002852:	d504      	bpl.n	800285e <HAL_RCC_ClockConfig+0x4e>
 8002854:	4970      	ldr	r1, [pc, #448]	; (8002a18 <HAL_RCC_ClockConfig+0x208>)
 8002856:	688a      	ldr	r2, [r1, #8]
 8002858:	f442 4260 	orr.w	r2, r2, #57344	; 0xe000
 800285c:	608a      	str	r2, [r1, #8]
 800285e:	68a1      	ldr	r1, [r4, #8]
 8002860:	f031 0280 	bics.w	r2, r1, #128	; 0x80
 8002864:	f040 809e 	bne.w	80029a4 <HAL_RCC_ClockConfig+0x194>
 8002868:	486b      	ldr	r0, [pc, #428]	; (8002a18 <HAL_RCC_ClockConfig+0x208>)
 800286a:	6882      	ldr	r2, [r0, #8]
 800286c:	f022 02f0 	bic.w	r2, r2, #240	; 0xf0
 8002870:	430a      	orrs	r2, r1
 8002872:	6082      	str	r2, [r0, #8]
 8002874:	07df      	lsls	r7, r3, #31
 8002876:	d528      	bpl.n	80028ca <HAL_RCC_ClockConfig+0xba>
 8002878:	6863      	ldr	r3, [r4, #4]
 800287a:	2b03      	cmp	r3, #3
 800287c:	f200 80b2 	bhi.w	80029e4 <HAL_RCC_ClockConfig+0x1d4>
 8002880:	2b01      	cmp	r3, #1
 8002882:	f000 80a9 	beq.w	80029d8 <HAL_RCC_ClockConfig+0x1c8>
 8002886:	1e9a      	subs	r2, r3, #2
 8002888:	2a01      	cmp	r2, #1
 800288a:	4a63      	ldr	r2, [pc, #396]	; (8002a18 <HAL_RCC_ClockConfig+0x208>)
 800288c:	6812      	ldr	r2, [r2, #0]
 800288e:	f240 80bd 	bls.w	8002a0c <HAL_RCC_ClockConfig+0x1fc>
 8002892:	0791      	lsls	r1, r2, #30
 8002894:	d57a      	bpl.n	800298c <HAL_RCC_ClockConfig+0x17c>
 8002896:	4e60      	ldr	r6, [pc, #384]	; (8002a18 <HAL_RCC_ClockConfig+0x208>)
 8002898:	68b2      	ldr	r2, [r6, #8]
 800289a:	f022 0203 	bic.w	r2, r2, #3
 800289e:	4313      	orrs	r3, r2
 80028a0:	60b3      	str	r3, [r6, #8]
 80028a2:	f7fe fe25 	bl	80014f0 <HAL_GetTick>
 80028a6:	f241 3788 	movw	r7, #5000	; 0x1388
 80028aa:	4680      	mov	r8, r0
 80028ac:	e006      	b.n	80028bc <HAL_RCC_ClockConfig+0xac>
 80028ae:	f7fe fe1f 	bl	80014f0 <HAL_GetTick>
 80028b2:	eba0 0008 	sub.w	r0, r0, r8
 80028b6:	42b8      	cmp	r0, r7
 80028b8:	f200 80a6 	bhi.w	8002a08 <HAL_RCC_ClockConfig+0x1f8>
 80028bc:	68b3      	ldr	r3, [r6, #8]
 80028be:	6862      	ldr	r2, [r4, #4]
 80028c0:	f003 030c 	and.w	r3, r3, #12
 80028c4:	ebb3 0f82 	cmp.w	r3, r2, lsl #2
 80028c8:	d1f1      	bne.n	80028ae <HAL_RCC_ClockConfig+0x9e>
 80028ca:	4a52      	ldr	r2, [pc, #328]	; (8002a14 <HAL_RCC_ClockConfig+0x204>)
 80028cc:	6813      	ldr	r3, [r2, #0]
 80028ce:	f003 030f 	and.w	r3, r3, #15
 80028d2:	42ab      	cmp	r3, r5
 80028d4:	d906      	bls.n	80028e4 <HAL_RCC_ClockConfig+0xd4>
 80028d6:	b2eb      	uxtb	r3, r5
 80028d8:	7013      	strb	r3, [r2, #0]
 80028da:	6813      	ldr	r3, [r2, #0]
 80028dc:	f003 030f 	and.w	r3, r3, #15
 80028e0:	42ab      	cmp	r3, r5
 80028e2:	d153      	bne.n	800298c <HAL_RCC_ClockConfig+0x17c>
 80028e4:	6823      	ldr	r3, [r4, #0]
 80028e6:	075a      	lsls	r2, r3, #29
 80028e8:	d518      	bpl.n	800291c <HAL_RCC_ClockConfig+0x10c>
 80028ea:	68e1      	ldr	r1, [r4, #12]
 80028ec:	f431 5280 	bics.w	r2, r1, #4096	; 0x1000
 80028f0:	d00e      	beq.n	8002910 <HAL_RCC_ClockConfig+0x100>
 80028f2:	f421 6200 	bic.w	r2, r1, #2048	; 0x800
 80028f6:	f5b2 5fa0 	cmp.w	r2, #5120	; 0x1400
 80028fa:	d009      	beq.n	8002910 <HAL_RCC_ClockConfig+0x100>
 80028fc:	f5b1 5fc0 	cmp.w	r1, #6144	; 0x1800
 8002900:	d006      	beq.n	8002910 <HAL_RCC_ClockConfig+0x100>
 8002902:	f240 21ba 	movw	r1, #698	; 0x2ba
 8002906:	4845      	ldr	r0, [pc, #276]	; (8002a1c <HAL_RCC_ClockConfig+0x20c>)
 8002908:	f002 fcac 	bl	8005264 <assert_failed>
 800290c:	68e1      	ldr	r1, [r4, #12]
 800290e:	6823      	ldr	r3, [r4, #0]
 8002910:	4841      	ldr	r0, [pc, #260]	; (8002a18 <HAL_RCC_ClockConfig+0x208>)
 8002912:	6882      	ldr	r2, [r0, #8]
 8002914:	f422 52e0 	bic.w	r2, r2, #7168	; 0x1c00
 8002918:	430a      	orrs	r2, r1
 800291a:	6082      	str	r2, [r0, #8]
 800291c:	071b      	lsls	r3, r3, #28
 800291e:	d518      	bpl.n	8002952 <HAL_RCC_ClockConfig+0x142>
 8002920:	6922      	ldr	r2, [r4, #16]
 8002922:	f432 5380 	bics.w	r3, r2, #4096	; 0x1000
 8002926:	d00d      	beq.n	8002944 <HAL_RCC_ClockConfig+0x134>
 8002928:	f422 6300 	bic.w	r3, r2, #2048	; 0x800
 800292c:	f5b3 5fa0 	cmp.w	r3, #5120	; 0x1400
 8002930:	d008      	beq.n	8002944 <HAL_RCC_ClockConfig+0x134>
 8002932:	f5b2 5fc0 	cmp.w	r2, #6144	; 0x1800
 8002936:	d005      	beq.n	8002944 <HAL_RCC_ClockConfig+0x134>
 8002938:	f240 21c1 	movw	r1, #705	; 0x2c1
 800293c:	4837      	ldr	r0, [pc, #220]	; (8002a1c <HAL_RCC_ClockConfig+0x20c>)
 800293e:	f002 fc91 	bl	8005264 <assert_failed>
 8002942:	6922      	ldr	r2, [r4, #16]
 8002944:	4934      	ldr	r1, [pc, #208]	; (8002a18 <HAL_RCC_ClockConfig+0x208>)
 8002946:	688b      	ldr	r3, [r1, #8]
 8002948:	f423 4360 	bic.w	r3, r3, #57344	; 0xe000
 800294c:	ea43 03c2 	orr.w	r3, r3, r2, lsl #3
 8002950:	608b      	str	r3, [r1, #8]
 8002952:	f7ff ff27 	bl	80027a4 <HAL_RCC_GetSysClockFreq>
 8002956:	4b30      	ldr	r3, [pc, #192]	; (8002a18 <HAL_RCC_ClockConfig+0x208>)
 8002958:	4c31      	ldr	r4, [pc, #196]	; (8002a20 <HAL_RCC_ClockConfig+0x210>)
 800295a:	689b      	ldr	r3, [r3, #8]
 800295c:	4931      	ldr	r1, [pc, #196]	; (8002a24 <HAL_RCC_ClockConfig+0x214>)
 800295e:	4a32      	ldr	r2, [pc, #200]	; (8002a28 <HAL_RCC_ClockConfig+0x218>)
 8002960:	f3c3 1303 	ubfx	r3, r3, #4, #4
 8002964:	5ce3      	ldrb	r3, [r4, r3]
 8002966:	fa20 f303 	lsr.w	r3, r0, r3
 800296a:	6808      	ldr	r0, [r1, #0]
 800296c:	6013      	str	r3, [r2, #0]
 800296e:	f7fe fd75 	bl	800145c <HAL_InitTick>
 8002972:	2000      	movs	r0, #0
 8002974:	e8bd 81f0 	ldmia.w	sp!, {r4, r5, r6, r7, r8, pc}
 8002978:	f240 2152 	movw	r1, #594	; 0x252
 800297c:	4827      	ldr	r0, [pc, #156]	; (8002a1c <HAL_RCC_ClockConfig+0x20c>)
 800297e:	f002 fc71 	bl	8005264 <assert_failed>
 8002982:	4b24      	ldr	r3, [pc, #144]	; (8002a14 <HAL_RCC_ClockConfig+0x204>)
 8002984:	b2ed      	uxtb	r5, r5
 8002986:	681a      	ldr	r2, [r3, #0]
 8002988:	701d      	strb	r5, [r3, #0]
 800298a:	681b      	ldr	r3, [r3, #0]
 800298c:	2001      	movs	r0, #1
 800298e:	e8bd 81f0 	ldmia.w	sp!, {r4, r5, r6, r7, r8, pc}
 8002992:	f240 2151 	movw	r1, #593	; 0x251
 8002996:	4821      	ldr	r0, [pc, #132]	; (8002a1c <HAL_RCC_ClockConfig+0x20c>)
 8002998:	f002 fc64 	bl	8005264 <assert_failed>
 800299c:	2d0f      	cmp	r5, #15
 800299e:	f67f af46 	bls.w	800282e <HAL_RCC_ClockConfig+0x1e>
 80029a2:	e7e9      	b.n	8002978 <HAL_RCC_ClockConfig+0x168>
 80029a4:	f021 0220 	bic.w	r2, r1, #32
 80029a8:	2a90      	cmp	r2, #144	; 0x90
 80029aa:	f43f af5d 	beq.w	8002868 <HAL_RCC_ClockConfig+0x58>
 80029ae:	f021 0240 	bic.w	r2, r1, #64	; 0x40
 80029b2:	2aa0      	cmp	r2, #160	; 0xa0
 80029b4:	f43f af58 	beq.w	8002868 <HAL_RCC_ClockConfig+0x58>
 80029b8:	f021 0210 	bic.w	r2, r1, #16
 80029bc:	2ac0      	cmp	r2, #192	; 0xc0
 80029be:	f43f af53 	beq.w	8002868 <HAL_RCC_ClockConfig+0x58>
 80029c2:	29f0      	cmp	r1, #240	; 0xf0
 80029c4:	f43f af50 	beq.w	8002868 <HAL_RCC_ClockConfig+0x58>
 80029c8:	f240 2175 	movw	r1, #629	; 0x275
 80029cc:	4813      	ldr	r0, [pc, #76]	; (8002a1c <HAL_RCC_ClockConfig+0x20c>)
 80029ce:	f002 fc49 	bl	8005264 <assert_failed>
 80029d2:	68a1      	ldr	r1, [r4, #8]
 80029d4:	6823      	ldr	r3, [r4, #0]
 80029d6:	e747      	b.n	8002868 <HAL_RCC_ClockConfig+0x58>
 80029d8:	4a0f      	ldr	r2, [pc, #60]	; (8002a18 <HAL_RCC_ClockConfig+0x208>)
 80029da:	6812      	ldr	r2, [r2, #0]
 80029dc:	0396      	lsls	r6, r2, #14
 80029de:	f53f af5a 	bmi.w	8002896 <HAL_RCC_ClockConfig+0x86>
 80029e2:	e7d3      	b.n	800298c <HAL_RCC_ClockConfig+0x17c>
 80029e4:	f44f 711f 	mov.w	r1, #636	; 0x27c
 80029e8:	480c      	ldr	r0, [pc, #48]	; (8002a1c <HAL_RCC_ClockConfig+0x20c>)
 80029ea:	f002 fc3b 	bl	8005264 <assert_failed>
 80029ee:	6863      	ldr	r3, [r4, #4]
 80029f0:	e746      	b.n	8002880 <HAL_RCC_ClockConfig+0x70>
 80029f2:	2001      	movs	r0, #1
 80029f4:	4770      	bx	lr
 80029f6:	b2eb      	uxtb	r3, r5
 80029f8:	7013      	strb	r3, [r2, #0]
 80029fa:	6813      	ldr	r3, [r2, #0]
 80029fc:	f003 030f 	and.w	r3, r3, #15
 8002a00:	42ab      	cmp	r3, r5
 8002a02:	f43f af1b 	beq.w	800283c <HAL_RCC_ClockConfig+0x2c>
 8002a06:	e7c1      	b.n	800298c <HAL_RCC_ClockConfig+0x17c>
 8002a08:	2003      	movs	r0, #3
 8002a0a:	e7c0      	b.n	800298e <HAL_RCC_ClockConfig+0x17e>
 8002a0c:	0190      	lsls	r0, r2, #6
 8002a0e:	f53f af42 	bmi.w	8002896 <HAL_RCC_ClockConfig+0x86>
 8002a12:	e7bb      	b.n	800298c <HAL_RCC_ClockConfig+0x17c>
 8002a14:	40023c00 	.word	0x40023c00
 8002a18:	40023800 	.word	0x40023800
 8002a1c:	0800b23c 	.word	0x0800b23c
 8002a20:	0800ba98 	.word	0x0800ba98
 8002a24:	200004a8 	.word	0x200004a8
 8002a28:	200004bc 	.word	0x200004bc

08002a2c <HAL_RCC_GetPCLK1Freq>:
 8002a2c:	4b04      	ldr	r3, [pc, #16]	; (8002a40 <HAL_RCC_GetPCLK1Freq+0x14>)
 8002a2e:	4a05      	ldr	r2, [pc, #20]	; (8002a44 <HAL_RCC_GetPCLK1Freq+0x18>)
 8002a30:	689b      	ldr	r3, [r3, #8]
 8002a32:	4905      	ldr	r1, [pc, #20]	; (8002a48 <HAL_RCC_GetPCLK1Freq+0x1c>)
 8002a34:	f3c3 2382 	ubfx	r3, r3, #10, #3
 8002a38:	6808      	ldr	r0, [r1, #0]
 8002a3a:	5cd3      	ldrb	r3, [r2, r3]
 8002a3c:	40d8      	lsrs	r0, r3
 8002a3e:	4770      	bx	lr
 8002a40:	40023800 	.word	0x40023800
 8002a44:	0800baa8 	.word	0x0800baa8
 8002a48:	200004bc 	.word	0x200004bc

08002a4c <HAL_RCC_GetPCLK2Freq>:
 8002a4c:	4b04      	ldr	r3, [pc, #16]	; (8002a60 <HAL_RCC_GetPCLK2Freq+0x14>)
 8002a4e:	4a05      	ldr	r2, [pc, #20]	; (8002a64 <HAL_RCC_GetPCLK2Freq+0x18>)
 8002a50:	689b      	ldr	r3, [r3, #8]
 8002a52:	4905      	ldr	r1, [pc, #20]	; (8002a68 <HAL_RCC_GetPCLK2Freq+0x1c>)
 8002a54:	f3c3 3342 	ubfx	r3, r3, #13, #3
 8002a58:	6808      	ldr	r0, [r1, #0]
 8002a5a:	5cd3      	ldrb	r3, [r2, r3]
 8002a5c:	40d8      	lsrs	r0, r3
 8002a5e:	4770      	bx	lr
 8002a60:	40023800 	.word	0x40023800
 8002a64:	0800baa8 	.word	0x0800baa8
 8002a68:	200004bc 	.word	0x200004bc

08002a6c <HAL_RCCEx_PeriphCLKConfig>:
 8002a6c:	b5f0      	push	{r4, r5, r6, r7, lr}
 8002a6e:	4604      	mov	r4, r0
 8002a70:	6800      	ldr	r0, [r0, #0]
 8002a72:	1e43      	subs	r3, r0, #1
 8002a74:	f5b3 7fff 	cmp.w	r3, #510	; 0x1fe
 8002a78:	b083      	sub	sp, #12
 8002a7a:	f200 81ca 	bhi.w	8002e12 <HAL_RCCEx_PeriphCLKConfig+0x3a6>
 8002a7e:	0602      	lsls	r2, r0, #24
 8002a80:	d50c      	bpl.n	8002a9c <HAL_RCCEx_PeriphCLKConfig+0x30>
 8002a82:	6b62      	ldr	r2, [r4, #52]	; 0x34
 8002a84:	f032 6300 	bics.w	r3, r2, #134217728	; 0x8000000
 8002a88:	f040 81d2 	bne.w	8002e30 <HAL_RCCEx_PeriphCLKConfig+0x3c4>
 8002a8c:	49aa      	ldr	r1, [pc, #680]	; (8002d38 <HAL_RCCEx_PeriphCLKConfig+0x2cc>)
 8002a8e:	f8d1 308c 	ldr.w	r3, [r1, #140]	; 0x8c
 8002a92:	f023 6300 	bic.w	r3, r3, #134217728	; 0x8000000
 8002a96:	4313      	orrs	r3, r2
 8002a98:	f8c1 308c 	str.w	r3, [r1, #140]	; 0x8c
 8002a9c:	05c3      	lsls	r3, r0, #23
 8002a9e:	d50c      	bpl.n	8002aba <HAL_RCCEx_PeriphCLKConfig+0x4e>
 8002aa0:	6ba2      	ldr	r2, [r4, #56]	; 0x38
 8002aa2:	f032 5380 	bics.w	r3, r2, #268435456	; 0x10000000
 8002aa6:	f040 81bb 	bne.w	8002e20 <HAL_RCCEx_PeriphCLKConfig+0x3b4>
 8002aaa:	49a3      	ldr	r1, [pc, #652]	; (8002d38 <HAL_RCCEx_PeriphCLKConfig+0x2cc>)
 8002aac:	f8d1 308c 	ldr.w	r3, [r1, #140]	; 0x8c
 8002ab0:	f023 5380 	bic.w	r3, r3, #268435456	; 0x10000000
 8002ab4:	4313      	orrs	r3, r2
 8002ab6:	f8c1 308c 	str.w	r3, [r1, #140]	; 0x8c
 8002aba:	f010 0f43 	tst.w	r0, #67	; 0x43
 8002abe:	d06e      	beq.n	8002b9e <HAL_RCCEx_PeriphCLKConfig+0x132>
 8002ac0:	6863      	ldr	r3, [r4, #4]
 8002ac2:	3b32      	subs	r3, #50	; 0x32
 8002ac4:	f5b3 7fbf 	cmp.w	r3, #382	; 0x17e
 8002ac8:	f200 81ba 	bhi.w	8002e40 <HAL_RCCEx_PeriphCLKConfig+0x3d4>
 8002acc:	4b9b      	ldr	r3, [pc, #620]	; (8002d3c <HAL_RCCEx_PeriphCLKConfig+0x2d0>)
 8002ace:	4d9a      	ldr	r5, [pc, #616]	; (8002d38 <HAL_RCCEx_PeriphCLKConfig+0x2cc>)
 8002ad0:	2200      	movs	r2, #0
 8002ad2:	601a      	str	r2, [r3, #0]
 8002ad4:	f7fe fd0c 	bl	80014f0 <HAL_GetTick>
 8002ad8:	4606      	mov	r6, r0
 8002ada:	e005      	b.n	8002ae8 <HAL_RCCEx_PeriphCLKConfig+0x7c>
 8002adc:	f7fe fd08 	bl	80014f0 <HAL_GetTick>
 8002ae0:	1b80      	subs	r0, r0, r6
 8002ae2:	2802      	cmp	r0, #2
 8002ae4:	f200 8181 	bhi.w	8002dea <HAL_RCCEx_PeriphCLKConfig+0x37e>
 8002ae8:	682b      	ldr	r3, [r5, #0]
 8002aea:	011f      	lsls	r7, r3, #4
 8002aec:	d4f6      	bmi.n	8002adc <HAL_RCCEx_PeriphCLKConfig+0x70>
 8002aee:	6823      	ldr	r3, [r4, #0]
 8002af0:	07dd      	lsls	r5, r3, #31
 8002af2:	d50b      	bpl.n	8002b0c <HAL_RCCEx_PeriphCLKConfig+0xa0>
 8002af4:	68a2      	ldr	r2, [r4, #8]
 8002af6:	1e91      	subs	r1, r2, #2
 8002af8:	2905      	cmp	r1, #5
 8002afa:	f200 81ae 	bhi.w	8002e5a <HAL_RCCEx_PeriphCLKConfig+0x3ee>
 8002afe:	6860      	ldr	r0, [r4, #4]
 8002b00:	498d      	ldr	r1, [pc, #564]	; (8002d38 <HAL_RCCEx_PeriphCLKConfig+0x2cc>)
 8002b02:	0712      	lsls	r2, r2, #28
 8002b04:	ea42 1280 	orr.w	r2, r2, r0, lsl #6
 8002b08:	f8c1 2084 	str.w	r2, [r1, #132]	; 0x84
 8002b0c:	0798      	lsls	r0, r3, #30
 8002b0e:	d51e      	bpl.n	8002b4e <HAL_RCCEx_PeriphCLKConfig+0xe2>
 8002b10:	68e3      	ldr	r3, [r4, #12]
 8002b12:	3b02      	subs	r3, #2
 8002b14:	2b0d      	cmp	r3, #13
 8002b16:	f200 81b0 	bhi.w	8002e7a <HAL_RCCEx_PeriphCLKConfig+0x40e>
 8002b1a:	6a23      	ldr	r3, [r4, #32]
 8002b1c:	1e5a      	subs	r2, r3, #1
 8002b1e:	2a1f      	cmp	r2, #31
 8002b20:	f200 81a3 	bhi.w	8002e6a <HAL_RCCEx_PeriphCLKConfig+0x3fe>
 8002b24:	4984      	ldr	r1, [pc, #528]	; (8002d38 <HAL_RCCEx_PeriphCLKConfig+0x2cc>)
 8002b26:	68e3      	ldr	r3, [r4, #12]
 8002b28:	f8d1 0084 	ldr.w	r0, [r1, #132]	; 0x84
 8002b2c:	6865      	ldr	r5, [r4, #4]
 8002b2e:	061b      	lsls	r3, r3, #24
 8002b30:	f000 40e0 	and.w	r0, r0, #1879048192	; 0x70000000
 8002b34:	ea43 1385 	orr.w	r3, r3, r5, lsl #6
 8002b38:	4303      	orrs	r3, r0
 8002b3a:	f8c1 3084 	str.w	r3, [r1, #132]	; 0x84
 8002b3e:	f8d1 308c 	ldr.w	r3, [r1, #140]	; 0x8c
 8002b42:	f023 031f 	bic.w	r3, r3, #31
 8002b46:	4313      	orrs	r3, r2
 8002b48:	f8c1 308c 	str.w	r3, [r1, #140]	; 0x8c
 8002b4c:	6823      	ldr	r3, [r4, #0]
 8002b4e:	0659      	lsls	r1, r3, #25
 8002b50:	d513      	bpl.n	8002b7a <HAL_RCCEx_PeriphCLKConfig+0x10e>
 8002b52:	68e3      	ldr	r3, [r4, #12]
 8002b54:	3b02      	subs	r3, #2
 8002b56:	2b0d      	cmp	r3, #13
 8002b58:	f200 819c 	bhi.w	8002e94 <HAL_RCCEx_PeriphCLKConfig+0x428>
 8002b5c:	68a2      	ldr	r2, [r4, #8]
 8002b5e:	1e93      	subs	r3, r2, #2
 8002b60:	2b05      	cmp	r3, #5
 8002b62:	f200 8190 	bhi.w	8002e86 <HAL_RCCEx_PeriphCLKConfig+0x41a>
 8002b66:	68e3      	ldr	r3, [r4, #12]
 8002b68:	6860      	ldr	r0, [r4, #4]
 8002b6a:	4973      	ldr	r1, [pc, #460]	; (8002d38 <HAL_RCCEx_PeriphCLKConfig+0x2cc>)
 8002b6c:	061b      	lsls	r3, r3, #24
 8002b6e:	ea43 1380 	orr.w	r3, r3, r0, lsl #6
 8002b72:	ea43 7302 	orr.w	r3, r3, r2, lsl #28
 8002b76:	f8c1 3084 	str.w	r3, [r1, #132]	; 0x84
 8002b7a:	4b70      	ldr	r3, [pc, #448]	; (8002d3c <HAL_RCCEx_PeriphCLKConfig+0x2d0>)
 8002b7c:	4d6e      	ldr	r5, [pc, #440]	; (8002d38 <HAL_RCCEx_PeriphCLKConfig+0x2cc>)
 8002b7e:	2201      	movs	r2, #1
 8002b80:	601a      	str	r2, [r3, #0]
 8002b82:	f7fe fcb5 	bl	80014f0 <HAL_GetTick>
 8002b86:	4606      	mov	r6, r0
 8002b88:	e005      	b.n	8002b96 <HAL_RCCEx_PeriphCLKConfig+0x12a>
 8002b8a:	f7fe fcb1 	bl	80014f0 <HAL_GetTick>
 8002b8e:	1b80      	subs	r0, r0, r6
 8002b90:	2802      	cmp	r0, #2
 8002b92:	f200 812a 	bhi.w	8002dea <HAL_RCCEx_PeriphCLKConfig+0x37e>
 8002b96:	682b      	ldr	r3, [r5, #0]
 8002b98:	011a      	lsls	r2, r3, #4
 8002b9a:	d5f6      	bpl.n	8002b8a <HAL_RCCEx_PeriphCLKConfig+0x11e>
 8002b9c:	6820      	ldr	r0, [r4, #0]
 8002b9e:	f010 0f0c 	tst.w	r0, #12
 8002ba2:	f000 8125 	beq.w	8002df0 <HAL_RCCEx_PeriphCLKConfig+0x384>
 8002ba6:	6923      	ldr	r3, [r4, #16]
 8002ba8:	3b32      	subs	r3, #50	; 0x32
 8002baa:	f5b3 7fbf 	cmp.w	r3, #382	; 0x17e
 8002bae:	f200 812a 	bhi.w	8002e06 <HAL_RCCEx_PeriphCLKConfig+0x39a>
 8002bb2:	4b63      	ldr	r3, [pc, #396]	; (8002d40 <HAL_RCCEx_PeriphCLKConfig+0x2d4>)
 8002bb4:	4d60      	ldr	r5, [pc, #384]	; (8002d38 <HAL_RCCEx_PeriphCLKConfig+0x2cc>)
 8002bb6:	2200      	movs	r2, #0
 8002bb8:	601a      	str	r2, [r3, #0]
 8002bba:	f7fe fc99 	bl	80014f0 <HAL_GetTick>
 8002bbe:	4606      	mov	r6, r0
 8002bc0:	e005      	b.n	8002bce <HAL_RCCEx_PeriphCLKConfig+0x162>
 8002bc2:	f7fe fc95 	bl	80014f0 <HAL_GetTick>
 8002bc6:	1b80      	subs	r0, r0, r6
 8002bc8:	2802      	cmp	r0, #2
 8002bca:	f200 810e 	bhi.w	8002dea <HAL_RCCEx_PeriphCLKConfig+0x37e>
 8002bce:	682b      	ldr	r3, [r5, #0]
 8002bd0:	009f      	lsls	r7, r3, #2
 8002bd2:	d4f6      	bmi.n	8002bc2 <HAL_RCCEx_PeriphCLKConfig+0x156>
 8002bd4:	6823      	ldr	r3, [r4, #0]
 8002bd6:	0758      	lsls	r0, r3, #29
 8002bd8:	d524      	bpl.n	8002c24 <HAL_RCCEx_PeriphCLKConfig+0x1b8>
 8002bda:	69a3      	ldr	r3, [r4, #24]
 8002bdc:	3b02      	subs	r3, #2
 8002bde:	2b0d      	cmp	r3, #13
 8002be0:	f200 818f 	bhi.w	8002f02 <HAL_RCCEx_PeriphCLKConfig+0x496>
 8002be4:	6a63      	ldr	r3, [r4, #36]	; 0x24
 8002be6:	1e59      	subs	r1, r3, #1
 8002be8:	291f      	cmp	r1, #31
 8002bea:	f200 8182 	bhi.w	8002ef2 <HAL_RCCEx_PeriphCLKConfig+0x486>
 8002bee:	4a52      	ldr	r2, [pc, #328]	; (8002d38 <HAL_RCCEx_PeriphCLKConfig+0x2cc>)
 8002bf0:	6925      	ldr	r5, [r4, #16]
 8002bf2:	f8d2 3088 	ldr.w	r3, [r2, #136]	; 0x88
 8002bf6:	f8d2 0088 	ldr.w	r0, [r2, #136]	; 0x88
 8002bfa:	f403 3340 	and.w	r3, r3, #196608	; 0x30000
 8002bfe:	f000 40e0 	and.w	r0, r0, #1879048192	; 0x70000000
 8002c02:	4303      	orrs	r3, r0
 8002c04:	69a0      	ldr	r0, [r4, #24]
 8002c06:	ea43 1385 	orr.w	r3, r3, r5, lsl #6
 8002c0a:	ea43 6300 	orr.w	r3, r3, r0, lsl #24
 8002c0e:	f8c2 3088 	str.w	r3, [r2, #136]	; 0x88
 8002c12:	f8d2 308c 	ldr.w	r3, [r2, #140]	; 0x8c
 8002c16:	f423 53f8 	bic.w	r3, r3, #7936	; 0x1f00
 8002c1a:	ea43 2301 	orr.w	r3, r3, r1, lsl #8
 8002c1e:	f8c2 308c 	str.w	r3, [r2, #140]	; 0x8c
 8002c22:	6823      	ldr	r3, [r4, #0]
 8002c24:	0719      	lsls	r1, r3, #28
 8002c26:	d523      	bpl.n	8002c70 <HAL_RCCEx_PeriphCLKConfig+0x204>
 8002c28:	69e3      	ldr	r3, [r4, #28]
 8002c2a:	3b02      	subs	r3, #2
 8002c2c:	2b05      	cmp	r3, #5
 8002c2e:	f200 815a 	bhi.w	8002ee6 <HAL_RCCEx_PeriphCLKConfig+0x47a>
 8002c32:	6aa5      	ldr	r5, [r4, #40]	; 0x28
 8002c34:	f435 3340 	bics.w	r3, r5, #196608	; 0x30000
 8002c38:	f040 8108 	bne.w	8002e4c <HAL_RCCEx_PeriphCLKConfig+0x3e0>
 8002c3c:	4a3e      	ldr	r2, [pc, #248]	; (8002d38 <HAL_RCCEx_PeriphCLKConfig+0x2cc>)
 8002c3e:	6920      	ldr	r0, [r4, #16]
 8002c40:	f8d2 3088 	ldr.w	r3, [r2, #136]	; 0x88
 8002c44:	f8d2 1088 	ldr.w	r1, [r2, #136]	; 0x88
 8002c48:	f403 3340 	and.w	r3, r3, #196608	; 0x30000
 8002c4c:	f001 6170 	and.w	r1, r1, #251658240	; 0xf000000
 8002c50:	430b      	orrs	r3, r1
 8002c52:	69e1      	ldr	r1, [r4, #28]
 8002c54:	ea43 1380 	orr.w	r3, r3, r0, lsl #6
 8002c58:	ea43 7301 	orr.w	r3, r3, r1, lsl #28
 8002c5c:	f8c2 3088 	str.w	r3, [r2, #136]	; 0x88
 8002c60:	f8d2 308c 	ldr.w	r3, [r2, #140]	; 0x8c
 8002c64:	f423 3340 	bic.w	r3, r3, #196608	; 0x30000
 8002c68:	432b      	orrs	r3, r5
 8002c6a:	f8c2 308c 	str.w	r3, [r2, #140]	; 0x8c
 8002c6e:	6823      	ldr	r3, [r4, #0]
 8002c70:	061a      	lsls	r2, r3, #24
 8002c72:	d504      	bpl.n	8002c7e <HAL_RCCEx_PeriphCLKConfig+0x212>
 8002c74:	6b63      	ldr	r3, [r4, #52]	; 0x34
 8002c76:	f1b3 6f00 	cmp.w	r3, #134217728	; 0x8000000
 8002c7a:	f000 8111 	beq.w	8002ea0 <HAL_RCCEx_PeriphCLKConfig+0x434>
 8002c7e:	4b30      	ldr	r3, [pc, #192]	; (8002d40 <HAL_RCCEx_PeriphCLKConfig+0x2d4>)
 8002c80:	4d2d      	ldr	r5, [pc, #180]	; (8002d38 <HAL_RCCEx_PeriphCLKConfig+0x2cc>)
 8002c82:	2201      	movs	r2, #1
 8002c84:	601a      	str	r2, [r3, #0]
 8002c86:	f7fe fc33 	bl	80014f0 <HAL_GetTick>
 8002c8a:	4606      	mov	r6, r0
 8002c8c:	e005      	b.n	8002c9a <HAL_RCCEx_PeriphCLKConfig+0x22e>
 8002c8e:	f7fe fc2f 	bl	80014f0 <HAL_GetTick>
 8002c92:	1b80      	subs	r0, r0, r6
 8002c94:	2802      	cmp	r0, #2
 8002c96:	f200 80a8 	bhi.w	8002dea <HAL_RCCEx_PeriphCLKConfig+0x37e>
 8002c9a:	682b      	ldr	r3, [r5, #0]
 8002c9c:	009f      	lsls	r7, r3, #2
 8002c9e:	d5f6      	bpl.n	8002c8e <HAL_RCCEx_PeriphCLKConfig+0x222>
 8002ca0:	6820      	ldr	r0, [r4, #0]
 8002ca2:	0685      	lsls	r5, r0, #26
 8002ca4:	f140 8089 	bpl.w	8002dba <HAL_RCCEx_PeriphCLKConfig+0x34e>
 8002ca8:	6ae3      	ldr	r3, [r4, #44]	; 0x2c
 8002caa:	f5b3 7f80 	cmp.w	r3, #256	; 0x100
 8002cae:	d02e      	beq.n	8002d0e <HAL_RCCEx_PeriphCLKConfig+0x2a2>
 8002cb0:	f5b3 7f00 	cmp.w	r3, #512	; 0x200
 8002cb4:	d02b      	beq.n	8002d0e <HAL_RCCEx_PeriphCLKConfig+0x2a2>
 8002cb6:	4a23      	ldr	r2, [pc, #140]	; (8002d44 <HAL_RCCEx_PeriphCLKConfig+0x2d8>)
 8002cb8:	f423 21a0 	bic.w	r1, r3, #327680	; 0x50000
 8002cbc:	4291      	cmp	r1, r2
 8002cbe:	f423 3080 	bic.w	r0, r3, #65536	; 0x10000
 8002cc2:	d024      	beq.n	8002d0e <HAL_RCCEx_PeriphCLKConfig+0x2a2>
 8002cc4:	f502 3200 	add.w	r2, r2, #131072	; 0x20000
 8002cc8:	f423 2110 	bic.w	r1, r3, #589824	; 0x90000
 8002ccc:	4291      	cmp	r1, r2
 8002cce:	d01e      	beq.n	8002d0e <HAL_RCCEx_PeriphCLKConfig+0x2a2>
 8002cd0:	491d      	ldr	r1, [pc, #116]	; (8002d48 <HAL_RCCEx_PeriphCLKConfig+0x2dc>)
 8002cd2:	f423 3240 	bic.w	r2, r3, #196608	; 0x30000
 8002cd6:	428a      	cmp	r2, r1
 8002cd8:	d019      	beq.n	8002d0e <HAL_RCCEx_PeriphCLKConfig+0x2a2>
 8002cda:	f501 21c0 	add.w	r1, r1, #393216	; 0x60000
 8002cde:	f423 1388 	bic.w	r3, r3, #1114112	; 0x110000
 8002ce2:	428b      	cmp	r3, r1
 8002ce4:	d013      	beq.n	8002d0e <HAL_RCCEx_PeriphCLKConfig+0x2a2>
 8002ce6:	4b19      	ldr	r3, [pc, #100]	; (8002d4c <HAL_RCCEx_PeriphCLKConfig+0x2e0>)
 8002ce8:	429a      	cmp	r2, r3
 8002cea:	d010      	beq.n	8002d0e <HAL_RCCEx_PeriphCLKConfig+0x2a2>
 8002cec:	f503 2380 	add.w	r3, r3, #262144	; 0x40000
 8002cf0:	429a      	cmp	r2, r3
 8002cf2:	d00c      	beq.n	8002d0e <HAL_RCCEx_PeriphCLKConfig+0x2a2>
 8002cf4:	f503 2380 	add.w	r3, r3, #262144	; 0x40000
 8002cf8:	429a      	cmp	r2, r3
 8002cfa:	d008      	beq.n	8002d0e <HAL_RCCEx_PeriphCLKConfig+0x2a2>
 8002cfc:	f503 2380 	add.w	r3, r3, #262144	; 0x40000
 8002d00:	4298      	cmp	r0, r3
 8002d02:	d004      	beq.n	8002d0e <HAL_RCCEx_PeriphCLKConfig+0x2a2>
 8002d04:	f44f 6188 	mov.w	r1, #1088	; 0x440
 8002d08:	4811      	ldr	r0, [pc, #68]	; (8002d50 <HAL_RCCEx_PeriphCLKConfig+0x2e4>)
 8002d0a:	f002 faab 	bl	8005264 <assert_failed>
 8002d0e:	4b0a      	ldr	r3, [pc, #40]	; (8002d38 <HAL_RCCEx_PeriphCLKConfig+0x2cc>)
 8002d10:	4d10      	ldr	r5, [pc, #64]	; (8002d54 <HAL_RCCEx_PeriphCLKConfig+0x2e8>)
 8002d12:	2200      	movs	r2, #0
 8002d14:	9201      	str	r2, [sp, #4]
 8002d16:	6c1a      	ldr	r2, [r3, #64]	; 0x40
 8002d18:	f042 5280 	orr.w	r2, r2, #268435456	; 0x10000000
 8002d1c:	641a      	str	r2, [r3, #64]	; 0x40
 8002d1e:	6c1b      	ldr	r3, [r3, #64]	; 0x40
 8002d20:	f003 5380 	and.w	r3, r3, #268435456	; 0x10000000
 8002d24:	9301      	str	r3, [sp, #4]
 8002d26:	9b01      	ldr	r3, [sp, #4]
 8002d28:	682b      	ldr	r3, [r5, #0]
 8002d2a:	f443 7380 	orr.w	r3, r3, #256	; 0x100
 8002d2e:	602b      	str	r3, [r5, #0]
 8002d30:	f7fe fbde 	bl	80014f0 <HAL_GetTick>
 8002d34:	4606      	mov	r6, r0
 8002d36:	e014      	b.n	8002d62 <HAL_RCCEx_PeriphCLKConfig+0x2f6>
 8002d38:	40023800 	.word	0x40023800
 8002d3c:	42470068 	.word	0x42470068
 8002d40:	42470070 	.word	0x42470070
 8002d44:	00020300 	.word	0x00020300
 8002d48:	00080300 	.word	0x00080300
 8002d4c:	00100300 	.word	0x00100300
 8002d50:	0800b274 	.word	0x0800b274
 8002d54:	40007000 	.word	0x40007000
 8002d58:	f7fe fbca 	bl	80014f0 <HAL_GetTick>
 8002d5c:	1b80      	subs	r0, r0, r6
 8002d5e:	2802      	cmp	r0, #2
 8002d60:	d843      	bhi.n	8002dea <HAL_RCCEx_PeriphCLKConfig+0x37e>
 8002d62:	682b      	ldr	r3, [r5, #0]
 8002d64:	05d9      	lsls	r1, r3, #23
 8002d66:	d5f7      	bpl.n	8002d58 <HAL_RCCEx_PeriphCLKConfig+0x2ec>
 8002d68:	496e      	ldr	r1, [pc, #440]	; (8002f24 <HAL_RCCEx_PeriphCLKConfig+0x4b8>)
 8002d6a:	6ae3      	ldr	r3, [r4, #44]	; 0x2c
 8002d6c:	6f0a      	ldr	r2, [r1, #112]	; 0x70
 8002d6e:	f412 7240 	ands.w	r2, r2, #768	; 0x300
 8002d72:	f403 7040 	and.w	r0, r3, #768	; 0x300
 8002d76:	d010      	beq.n	8002d9a <HAL_RCCEx_PeriphCLKConfig+0x32e>
 8002d78:	4282      	cmp	r2, r0
 8002d7a:	d00e      	beq.n	8002d9a <HAL_RCCEx_PeriphCLKConfig+0x32e>
 8002d7c:	6f0b      	ldr	r3, [r1, #112]	; 0x70
 8002d7e:	4a6a      	ldr	r2, [pc, #424]	; (8002f28 <HAL_RCCEx_PeriphCLKConfig+0x4bc>)
 8002d80:	f423 7340 	bic.w	r3, r3, #768	; 0x300
 8002d84:	2501      	movs	r5, #1
 8002d86:	2000      	movs	r0, #0
 8002d88:	6015      	str	r5, [r2, #0]
 8002d8a:	6010      	str	r0, [r2, #0]
 8002d8c:	670b      	str	r3, [r1, #112]	; 0x70
 8002d8e:	6f0b      	ldr	r3, [r1, #112]	; 0x70
 8002d90:	07da      	lsls	r2, r3, #31
 8002d92:	d41c      	bmi.n	8002dce <HAL_RCCEx_PeriphCLKConfig+0x362>
 8002d94:	6ae3      	ldr	r3, [r4, #44]	; 0x2c
 8002d96:	f403 7040 	and.w	r0, r3, #768	; 0x300
 8002d9a:	f5b0 7f40 	cmp.w	r0, #768	; 0x300
 8002d9e:	f000 80b6 	beq.w	8002f0e <HAL_RCCEx_PeriphCLKConfig+0x4a2>
 8002da2:	4960      	ldr	r1, [pc, #384]	; (8002f24 <HAL_RCCEx_PeriphCLKConfig+0x4b8>)
 8002da4:	688a      	ldr	r2, [r1, #8]
 8002da6:	f422 12f8 	bic.w	r2, r2, #2031616	; 0x1f0000
 8002daa:	608a      	str	r2, [r1, #8]
 8002dac:	4a5d      	ldr	r2, [pc, #372]	; (8002f24 <HAL_RCCEx_PeriphCLKConfig+0x4b8>)
 8002dae:	6f11      	ldr	r1, [r2, #112]	; 0x70
 8002db0:	f3c3 030b 	ubfx	r3, r3, #0, #12
 8002db4:	430b      	orrs	r3, r1
 8002db6:	6713      	str	r3, [r2, #112]	; 0x70
 8002db8:	6820      	ldr	r0, [r4, #0]
 8002dba:	f010 0010 	ands.w	r0, r0, #16
 8002dbe:	d015      	beq.n	8002dec <HAL_RCCEx_PeriphCLKConfig+0x380>
 8002dc0:	4b5a      	ldr	r3, [pc, #360]	; (8002f2c <HAL_RCCEx_PeriphCLKConfig+0x4c0>)
 8002dc2:	f894 2030 	ldrb.w	r2, [r4, #48]	; 0x30
 8002dc6:	601a      	str	r2, [r3, #0]
 8002dc8:	2000      	movs	r0, #0
 8002dca:	b003      	add	sp, #12
 8002dcc:	bdf0      	pop	{r4, r5, r6, r7, pc}
 8002dce:	460d      	mov	r5, r1
 8002dd0:	f7fe fb8e 	bl	80014f0 <HAL_GetTick>
 8002dd4:	f241 3688 	movw	r6, #5000	; 0x1388
 8002dd8:	4607      	mov	r7, r0
 8002dda:	6f2b      	ldr	r3, [r5, #112]	; 0x70
 8002ddc:	079b      	lsls	r3, r3, #30
 8002dde:	d4d9      	bmi.n	8002d94 <HAL_RCCEx_PeriphCLKConfig+0x328>
 8002de0:	f7fe fb86 	bl	80014f0 <HAL_GetTick>
 8002de4:	1bc0      	subs	r0, r0, r7
 8002de6:	42b0      	cmp	r0, r6
 8002de8:	d9f7      	bls.n	8002dda <HAL_RCCEx_PeriphCLKConfig+0x36e>
 8002dea:	2003      	movs	r0, #3
 8002dec:	b003      	add	sp, #12
 8002dee:	bdf0      	pop	{r4, r5, r6, r7, pc}
 8002df0:	0603      	lsls	r3, r0, #24
 8002df2:	f57f af56 	bpl.w	8002ca2 <HAL_RCCEx_PeriphCLKConfig+0x236>
 8002df6:	6b63      	ldr	r3, [r4, #52]	; 0x34
 8002df8:	f1b3 6f00 	cmp.w	r3, #134217728	; 0x8000000
 8002dfc:	f43f aed3 	beq.w	8002ba6 <HAL_RCCEx_PeriphCLKConfig+0x13a>
 8002e00:	0685      	lsls	r5, r0, #26
 8002e02:	d5da      	bpl.n	8002dba <HAL_RCCEx_PeriphCLKConfig+0x34e>
 8002e04:	e750      	b.n	8002ca8 <HAL_RCCEx_PeriphCLKConfig+0x23c>
 8002e06:	f44f 7179 	mov.w	r1, #996	; 0x3e4
 8002e0a:	4849      	ldr	r0, [pc, #292]	; (8002f30 <HAL_RCCEx_PeriphCLKConfig+0x4c4>)
 8002e0c:	f002 fa2a 	bl	8005264 <assert_failed>
 8002e10:	e6cf      	b.n	8002bb2 <HAL_RCCEx_PeriphCLKConfig+0x146>
 8002e12:	4847      	ldr	r0, [pc, #284]	; (8002f30 <HAL_RCCEx_PeriphCLKConfig+0x4c4>)
 8002e14:	f240 316d 	movw	r1, #877	; 0x36d
 8002e18:	f002 fa24 	bl	8005264 <assert_failed>
 8002e1c:	6820      	ldr	r0, [r4, #0]
 8002e1e:	e62e      	b.n	8002a7e <HAL_RCCEx_PeriphCLKConfig+0x12>
 8002e20:	4843      	ldr	r0, [pc, #268]	; (8002f30 <HAL_RCCEx_PeriphCLKConfig+0x4c4>)
 8002e22:	f240 317e 	movw	r1, #894	; 0x37e
 8002e26:	f002 fa1d 	bl	8005264 <assert_failed>
 8002e2a:	6ba2      	ldr	r2, [r4, #56]	; 0x38
 8002e2c:	6820      	ldr	r0, [r4, #0]
 8002e2e:	e63c      	b.n	8002aaa <HAL_RCCEx_PeriphCLKConfig+0x3e>
 8002e30:	483f      	ldr	r0, [pc, #252]	; (8002f30 <HAL_RCCEx_PeriphCLKConfig+0x4c4>)
 8002e32:	f240 3173 	movw	r1, #883	; 0x373
 8002e36:	f002 fa15 	bl	8005264 <assert_failed>
 8002e3a:	6b62      	ldr	r2, [r4, #52]	; 0x34
 8002e3c:	6820      	ldr	r0, [r4, #0]
 8002e3e:	e625      	b.n	8002a8c <HAL_RCCEx_PeriphCLKConfig+0x20>
 8002e40:	f240 318e 	movw	r1, #910	; 0x38e
 8002e44:	483a      	ldr	r0, [pc, #232]	; (8002f30 <HAL_RCCEx_PeriphCLKConfig+0x4c4>)
 8002e46:	f002 fa0d 	bl	8005264 <assert_failed>
 8002e4a:	e63f      	b.n	8002acc <HAL_RCCEx_PeriphCLKConfig+0x60>
 8002e4c:	f240 410c 	movw	r1, #1036	; 0x40c
 8002e50:	4837      	ldr	r0, [pc, #220]	; (8002f30 <HAL_RCCEx_PeriphCLKConfig+0x4c4>)
 8002e52:	f002 fa07 	bl	8005264 <assert_failed>
 8002e56:	6aa5      	ldr	r5, [r4, #40]	; 0x28
 8002e58:	e6f0      	b.n	8002c3c <HAL_RCCEx_PeriphCLKConfig+0x1d0>
 8002e5a:	f44f 7169 	mov.w	r1, #932	; 0x3a4
 8002e5e:	4834      	ldr	r0, [pc, #208]	; (8002f30 <HAL_RCCEx_PeriphCLKConfig+0x4c4>)
 8002e60:	f002 fa00 	bl	8005264 <assert_failed>
 8002e64:	68a2      	ldr	r2, [r4, #8]
 8002e66:	6823      	ldr	r3, [r4, #0]
 8002e68:	e649      	b.n	8002afe <HAL_RCCEx_PeriphCLKConfig+0x92>
 8002e6a:	f240 31b2 	movw	r1, #946	; 0x3b2
 8002e6e:	4830      	ldr	r0, [pc, #192]	; (8002f30 <HAL_RCCEx_PeriphCLKConfig+0x4c4>)
 8002e70:	f002 f9f8 	bl	8005264 <assert_failed>
 8002e74:	6a23      	ldr	r3, [r4, #32]
 8002e76:	1e5a      	subs	r2, r3, #1
 8002e78:	e654      	b.n	8002b24 <HAL_RCCEx_PeriphCLKConfig+0xb8>
 8002e7a:	f240 31b1 	movw	r1, #945	; 0x3b1
 8002e7e:	482c      	ldr	r0, [pc, #176]	; (8002f30 <HAL_RCCEx_PeriphCLKConfig+0x4c4>)
 8002e80:	f002 f9f0 	bl	8005264 <assert_failed>
 8002e84:	e649      	b.n	8002b1a <HAL_RCCEx_PeriphCLKConfig+0xae>
 8002e86:	f44f 7171 	mov.w	r1, #964	; 0x3c4
 8002e8a:	4829      	ldr	r0, [pc, #164]	; (8002f30 <HAL_RCCEx_PeriphCLKConfig+0x4c4>)
 8002e8c:	f002 f9ea 	bl	8005264 <assert_failed>
 8002e90:	68a2      	ldr	r2, [r4, #8]
 8002e92:	e668      	b.n	8002b66 <HAL_RCCEx_PeriphCLKConfig+0xfa>
 8002e94:	f240 31c3 	movw	r1, #963	; 0x3c3
 8002e98:	4825      	ldr	r0, [pc, #148]	; (8002f30 <HAL_RCCEx_PeriphCLKConfig+0x4c4>)
 8002e9a:	f002 f9e3 	bl	8005264 <assert_failed>
 8002e9e:	e65d      	b.n	8002b5c <HAL_RCCEx_PeriphCLKConfig+0xf0>
 8002ea0:	6962      	ldr	r2, [r4, #20]
 8002ea2:	2a08      	cmp	r2, #8
 8002ea4:	d919      	bls.n	8002eda <HAL_RCCEx_PeriphCLKConfig+0x46e>
 8002ea6:	f240 411f 	movw	r1, #1055	; 0x41f
 8002eaa:	4821      	ldr	r0, [pc, #132]	; (8002f30 <HAL_RCCEx_PeriphCLKConfig+0x4c4>)
 8002eac:	f002 f9da 	bl	8005264 <assert_failed>
 8002eb0:	6962      	ldr	r2, [r4, #20]
 8002eb2:	481c      	ldr	r0, [pc, #112]	; (8002f24 <HAL_RCCEx_PeriphCLKConfig+0x4b8>)
 8002eb4:	6921      	ldr	r1, [r4, #16]
 8002eb6:	f8d0 3088 	ldr.w	r3, [r0, #136]	; 0x88
 8002eba:	f8d0 5088 	ldr.w	r5, [r0, #136]	; 0x88
 8002ebe:	f003 6370 	and.w	r3, r3, #251658240	; 0xf000000
 8002ec2:	f005 45e0 	and.w	r5, r5, #1879048192	; 0x70000000
 8002ec6:	0852      	lsrs	r2, r2, #1
 8002ec8:	432b      	orrs	r3, r5
 8002eca:	3a01      	subs	r2, #1
 8002ecc:	ea43 1381 	orr.w	r3, r3, r1, lsl #6
 8002ed0:	ea43 4302 	orr.w	r3, r3, r2, lsl #16
 8002ed4:	f8c0 3088 	str.w	r3, [r0, #136]	; 0x88
 8002ed8:	e6d1      	b.n	8002c7e <HAL_RCCEx_PeriphCLKConfig+0x212>
 8002eda:	f44f 73aa 	mov.w	r3, #340	; 0x154
 8002ede:	40d3      	lsrs	r3, r2
 8002ee0:	07db      	lsls	r3, r3, #31
 8002ee2:	d4e6      	bmi.n	8002eb2 <HAL_RCCEx_PeriphCLKConfig+0x446>
 8002ee4:	e7df      	b.n	8002ea6 <HAL_RCCEx_PeriphCLKConfig+0x43a>
 8002ee6:	f240 410b 	movw	r1, #1035	; 0x40b
 8002eea:	4811      	ldr	r0, [pc, #68]	; (8002f30 <HAL_RCCEx_PeriphCLKConfig+0x4c4>)
 8002eec:	f002 f9ba 	bl	8005264 <assert_failed>
 8002ef0:	e69f      	b.n	8002c32 <HAL_RCCEx_PeriphCLKConfig+0x1c6>
 8002ef2:	f240 31fa 	movw	r1, #1018	; 0x3fa
 8002ef6:	480e      	ldr	r0, [pc, #56]	; (8002f30 <HAL_RCCEx_PeriphCLKConfig+0x4c4>)
 8002ef8:	f002 f9b4 	bl	8005264 <assert_failed>
 8002efc:	6a63      	ldr	r3, [r4, #36]	; 0x24
 8002efe:	1e59      	subs	r1, r3, #1
 8002f00:	e675      	b.n	8002bee <HAL_RCCEx_PeriphCLKConfig+0x182>
 8002f02:	f240 31f9 	movw	r1, #1017	; 0x3f9
 8002f06:	480a      	ldr	r0, [pc, #40]	; (8002f30 <HAL_RCCEx_PeriphCLKConfig+0x4c4>)
 8002f08:	f002 f9ac 	bl	8005264 <assert_failed>
 8002f0c:	e66a      	b.n	8002be4 <HAL_RCCEx_PeriphCLKConfig+0x178>
 8002f0e:	4805      	ldr	r0, [pc, #20]	; (8002f24 <HAL_RCCEx_PeriphCLKConfig+0x4b8>)
 8002f10:	6882      	ldr	r2, [r0, #8]
 8002f12:	f023 4170 	bic.w	r1, r3, #4026531840	; 0xf0000000
 8002f16:	f422 12f8 	bic.w	r2, r2, #2031616	; 0x1f0000
 8002f1a:	f421 7140 	bic.w	r1, r1, #768	; 0x300
 8002f1e:	430a      	orrs	r2, r1
 8002f20:	6082      	str	r2, [r0, #8]
 8002f22:	e743      	b.n	8002dac <HAL_RCCEx_PeriphCLKConfig+0x340>
 8002f24:	40023800 	.word	0x40023800
 8002f28:	42470e40 	.word	0x42470e40
 8002f2c:	424711e0 	.word	0x424711e0
 8002f30:	0800b274 	.word	0x0800b274

08002f34 <HAL_RCCEx_GetPeriphCLKConfig>:
 8002f34:	4b25      	ldr	r3, [pc, #148]	; (8002fcc <HAL_RCCEx_GetPeriphCLKConfig+0x98>)
 8002f36:	f240 12bf 	movw	r2, #447	; 0x1bf
 8002f3a:	6002      	str	r2, [r0, #0]
 8002f3c:	f8d3 2084 	ldr.w	r2, [r3, #132]	; 0x84
 8002f40:	f3c2 1288 	ubfx	r2, r2, #6, #9
 8002f44:	6042      	str	r2, [r0, #4]
 8002f46:	f8d3 2084 	ldr.w	r2, [r3, #132]	; 0x84
 8002f4a:	f3c2 7202 	ubfx	r2, r2, #28, #3
 8002f4e:	6082      	str	r2, [r0, #8]
 8002f50:	f8d3 2084 	ldr.w	r2, [r3, #132]	; 0x84
 8002f54:	f3c2 6203 	ubfx	r2, r2, #24, #4
 8002f58:	60c2      	str	r2, [r0, #12]
 8002f5a:	f8d3 2088 	ldr.w	r2, [r3, #136]	; 0x88
 8002f5e:	f3c2 1288 	ubfx	r2, r2, #6, #9
 8002f62:	6102      	str	r2, [r0, #16]
 8002f64:	f8d3 2088 	ldr.w	r2, [r3, #136]	; 0x88
 8002f68:	f3c2 7202 	ubfx	r2, r2, #28, #3
 8002f6c:	61c2      	str	r2, [r0, #28]
 8002f6e:	f8d3 2088 	ldr.w	r2, [r3, #136]	; 0x88
 8002f72:	f3c2 6203 	ubfx	r2, r2, #24, #4
 8002f76:	6182      	str	r2, [r0, #24]
 8002f78:	f8d3 208c 	ldr.w	r2, [r3, #140]	; 0x8c
 8002f7c:	f002 021f 	and.w	r2, r2, #31
 8002f80:	6202      	str	r2, [r0, #32]
 8002f82:	f8d3 208c 	ldr.w	r2, [r3, #140]	; 0x8c
 8002f86:	f3c2 2204 	ubfx	r2, r2, #8, #5
 8002f8a:	6242      	str	r2, [r0, #36]	; 0x24
 8002f8c:	f8d3 208c 	ldr.w	r2, [r3, #140]	; 0x8c
 8002f90:	f402 3240 	and.w	r2, r2, #196608	; 0x30000
 8002f94:	6282      	str	r2, [r0, #40]	; 0x28
 8002f96:	6899      	ldr	r1, [r3, #8]
 8002f98:	6f1a      	ldr	r2, [r3, #112]	; 0x70
 8002f9a:	f401 11f8 	and.w	r1, r1, #2031616	; 0x1f0000
 8002f9e:	f402 7240 	and.w	r2, r2, #768	; 0x300
 8002fa2:	430a      	orrs	r2, r1
 8002fa4:	62c2      	str	r2, [r0, #44]	; 0x2c
 8002fa6:	f8d3 208c 	ldr.w	r2, [r3, #140]	; 0x8c
 8002faa:	f002 6200 	and.w	r2, r2, #134217728	; 0x8000000
 8002fae:	6342      	str	r2, [r0, #52]	; 0x34
 8002fb0:	f8d3 208c 	ldr.w	r2, [r3, #140]	; 0x8c
 8002fb4:	f002 5280 	and.w	r2, r2, #268435456	; 0x10000000
 8002fb8:	6382      	str	r2, [r0, #56]	; 0x38
 8002fba:	f8d3 308c 	ldr.w	r3, [r3, #140]	; 0x8c
 8002fbe:	f013 7380 	ands.w	r3, r3, #16777216	; 0x1000000
 8002fc2:	bf18      	it	ne
 8002fc4:	2301      	movne	r3, #1
 8002fc6:	f880 3030 	strb.w	r3, [r0, #48]	; 0x30
 8002fca:	4770      	bx	lr
 8002fcc:	40023800 	.word	0x40023800

08002fd0 <HAL_RCCEx_GetPeriphCLKFreq>:
 8002fd0:	2801      	cmp	r0, #1
 8002fd2:	d109      	bne.n	8002fe8 <HAL_RCCEx_GetPeriphCLKFreq+0x18>
 8002fd4:	4a12      	ldr	r2, [pc, #72]	; (8003020 <HAL_RCCEx_GetPeriphCLKFreq+0x50>)
 8002fd6:	6893      	ldr	r3, [r2, #8]
 8002fd8:	f413 0300 	ands.w	r3, r3, #8388608	; 0x800000
 8002fdc:	d006      	beq.n	8002fec <HAL_RCCEx_GetPeriphCLKFreq+0x1c>
 8002fde:	2b01      	cmp	r3, #1
 8002fe0:	4810      	ldr	r0, [pc, #64]	; (8003024 <HAL_RCCEx_GetPeriphCLKFreq+0x54>)
 8002fe2:	bf18      	it	ne
 8002fe4:	2000      	movne	r0, #0
 8002fe6:	4770      	bx	lr
 8002fe8:	2000      	movs	r0, #0
 8002fea:	4770      	bx	lr
 8002fec:	6853      	ldr	r3, [r2, #4]
 8002fee:	f413 0f80 	tst.w	r3, #4194304	; 0x400000
 8002ff2:	6853      	ldr	r3, [r2, #4]
 8002ff4:	bf14      	ite	ne
 8002ff6:	480c      	ldrne	r0, [pc, #48]	; (8003028 <HAL_RCCEx_GetPeriphCLKFreq+0x58>)
 8002ff8:	480c      	ldreq	r0, [pc, #48]	; (800302c <HAL_RCCEx_GetPeriphCLKFreq+0x5c>)
 8002ffa:	f003 033f 	and.w	r3, r3, #63	; 0x3f
 8002ffe:	fbb0 f0f3 	udiv	r0, r0, r3
 8003002:	4b07      	ldr	r3, [pc, #28]	; (8003020 <HAL_RCCEx_GetPeriphCLKFreq+0x50>)
 8003004:	f8d3 2084 	ldr.w	r2, [r3, #132]	; 0x84
 8003008:	f8d3 3084 	ldr.w	r3, [r3, #132]	; 0x84
 800300c:	f3c2 1288 	ubfx	r2, r2, #6, #9
 8003010:	fb00 f002 	mul.w	r0, r0, r2
 8003014:	f3c3 7302 	ubfx	r3, r3, #28, #3
 8003018:	fbb0 f0f3 	udiv	r0, r0, r3
 800301c:	4770      	bx	lr
 800301e:	bf00      	nop
 8003020:	40023800 	.word	0x40023800
 8003024:	00bb8000 	.word	0x00bb8000
 8003028:	007a1200 	.word	0x007a1200
 800302c:	00f42400 	.word	0x00f42400

08003030 <HAL_RCC_OscConfig>:
 8003030:	e92d 41f0 	stmdb	sp!, {r4, r5, r6, r7, r8, lr}
 8003034:	6803      	ldr	r3, [r0, #0]
 8003036:	2b0f      	cmp	r3, #15
 8003038:	b082      	sub	sp, #8
 800303a:	4604      	mov	r4, r0
 800303c:	f200 814b 	bhi.w	80032d6 <HAL_RCC_OscConfig+0x2a6>
 8003040:	07dd      	lsls	r5, r3, #31
 8003042:	d53b      	bpl.n	80030bc <HAL_RCC_OscConfig+0x8c>
 8003044:	6863      	ldr	r3, [r4, #4]
 8003046:	f433 3280 	bics.w	r2, r3, #65536	; 0x10000
 800304a:	d007      	beq.n	800305c <HAL_RCC_OscConfig+0x2c>
 800304c:	f5b3 2fa0 	cmp.w	r3, #327680	; 0x50000
 8003050:	d004      	beq.n	800305c <HAL_RCC_OscConfig+0x2c>
 8003052:	f640 5111 	movw	r1, #3345	; 0xd11
 8003056:	48b7      	ldr	r0, [pc, #732]	; (8003334 <HAL_RCC_OscConfig+0x304>)
 8003058:	f002 f904 	bl	8005264 <assert_failed>
 800305c:	4ab6      	ldr	r2, [pc, #728]	; (8003338 <HAL_RCC_OscConfig+0x308>)
 800305e:	6893      	ldr	r3, [r2, #8]
 8003060:	f003 030c 	and.w	r3, r3, #12
 8003064:	2b04      	cmp	r3, #4
 8003066:	f000 812c 	beq.w	80032c2 <HAL_RCC_OscConfig+0x292>
 800306a:	6893      	ldr	r3, [r2, #8]
 800306c:	f003 030c 	and.w	r3, r3, #12
 8003070:	2b08      	cmp	r3, #8
 8003072:	f000 8122 	beq.w	80032ba <HAL_RCC_OscConfig+0x28a>
 8003076:	6863      	ldr	r3, [r4, #4]
 8003078:	f5b3 3f80 	cmp.w	r3, #65536	; 0x10000
 800307c:	f000 8189 	beq.w	8003392 <HAL_RCC_OscConfig+0x362>
 8003080:	f5b3 2fa0 	cmp.w	r3, #327680	; 0x50000
 8003084:	f000 81ed 	beq.w	8003462 <HAL_RCC_OscConfig+0x432>
 8003088:	4dab      	ldr	r5, [pc, #684]	; (8003338 <HAL_RCC_OscConfig+0x308>)
 800308a:	682a      	ldr	r2, [r5, #0]
 800308c:	f422 3280 	bic.w	r2, r2, #65536	; 0x10000
 8003090:	602a      	str	r2, [r5, #0]
 8003092:	682a      	ldr	r2, [r5, #0]
 8003094:	f422 2280 	bic.w	r2, r2, #262144	; 0x40000
 8003098:	602a      	str	r2, [r5, #0]
 800309a:	2b00      	cmp	r3, #0
 800309c:	f040 817e 	bne.w	800339c <HAL_RCC_OscConfig+0x36c>
 80030a0:	f7fe fa26 	bl	80014f0 <HAL_GetTick>
 80030a4:	4606      	mov	r6, r0
 80030a6:	e005      	b.n	80030b4 <HAL_RCC_OscConfig+0x84>
 80030a8:	f7fe fa22 	bl	80014f0 <HAL_GetTick>
 80030ac:	1b80      	subs	r0, r0, r6
 80030ae:	2864      	cmp	r0, #100	; 0x64
 80030b0:	f200 8192 	bhi.w	80033d8 <HAL_RCC_OscConfig+0x3a8>
 80030b4:	682b      	ldr	r3, [r5, #0]
 80030b6:	039b      	lsls	r3, r3, #14
 80030b8:	d4f6      	bmi.n	80030a8 <HAL_RCC_OscConfig+0x78>
 80030ba:	6823      	ldr	r3, [r4, #0]
 80030bc:	079f      	lsls	r7, r3, #30
 80030be:	d534      	bpl.n	800312a <HAL_RCC_OscConfig+0xfa>
 80030c0:	68e3      	ldr	r3, [r4, #12]
 80030c2:	2b01      	cmp	r3, #1
 80030c4:	d904      	bls.n	80030d0 <HAL_RCC_OscConfig+0xa0>
 80030c6:	f640 5149 	movw	r1, #3401	; 0xd49
 80030ca:	489a      	ldr	r0, [pc, #616]	; (8003334 <HAL_RCC_OscConfig+0x304>)
 80030cc:	f002 f8ca 	bl	8005264 <assert_failed>
 80030d0:	6923      	ldr	r3, [r4, #16]
 80030d2:	2b1f      	cmp	r3, #31
 80030d4:	f200 8184 	bhi.w	80033e0 <HAL_RCC_OscConfig+0x3b0>
 80030d8:	4b97      	ldr	r3, [pc, #604]	; (8003338 <HAL_RCC_OscConfig+0x308>)
 80030da:	689a      	ldr	r2, [r3, #8]
 80030dc:	f012 0f0c 	tst.w	r2, #12
 80030e0:	f000 8104 	beq.w	80032ec <HAL_RCC_OscConfig+0x2bc>
 80030e4:	689a      	ldr	r2, [r3, #8]
 80030e6:	f002 020c 	and.w	r2, r2, #12
 80030ea:	2a08      	cmp	r2, #8
 80030ec:	f000 80fa 	beq.w	80032e4 <HAL_RCC_OscConfig+0x2b4>
 80030f0:	68e3      	ldr	r3, [r4, #12]
 80030f2:	2b00      	cmp	r3, #0
 80030f4:	f000 8193 	beq.w	800341e <HAL_RCC_OscConfig+0x3ee>
 80030f8:	4b90      	ldr	r3, [pc, #576]	; (800333c <HAL_RCC_OscConfig+0x30c>)
 80030fa:	4d8f      	ldr	r5, [pc, #572]	; (8003338 <HAL_RCC_OscConfig+0x308>)
 80030fc:	2201      	movs	r2, #1
 80030fe:	601a      	str	r2, [r3, #0]
 8003100:	f7fe f9f6 	bl	80014f0 <HAL_GetTick>
 8003104:	4606      	mov	r6, r0
 8003106:	e005      	b.n	8003114 <HAL_RCC_OscConfig+0xe4>
 8003108:	f7fe f9f2 	bl	80014f0 <HAL_GetTick>
 800310c:	1b80      	subs	r0, r0, r6
 800310e:	2802      	cmp	r0, #2
 8003110:	f200 8162 	bhi.w	80033d8 <HAL_RCC_OscConfig+0x3a8>
 8003114:	682b      	ldr	r3, [r5, #0]
 8003116:	0798      	lsls	r0, r3, #30
 8003118:	d5f6      	bpl.n	8003108 <HAL_RCC_OscConfig+0xd8>
 800311a:	682b      	ldr	r3, [r5, #0]
 800311c:	6922      	ldr	r2, [r4, #16]
 800311e:	f023 03f8 	bic.w	r3, r3, #248	; 0xf8
 8003122:	ea43 03c2 	orr.w	r3, r3, r2, lsl #3
 8003126:	602b      	str	r3, [r5, #0]
 8003128:	6823      	ldr	r3, [r4, #0]
 800312a:	071a      	lsls	r2, r3, #28
 800312c:	d518      	bpl.n	8003160 <HAL_RCC_OscConfig+0x130>
 800312e:	6963      	ldr	r3, [r4, #20]
 8003130:	2b01      	cmp	r3, #1
 8003132:	f200 80f6 	bhi.w	8003322 <HAL_RCC_OscConfig+0x2f2>
 8003136:	2b00      	cmp	r3, #0
 8003138:	f000 80e3 	beq.w	8003302 <HAL_RCC_OscConfig+0x2d2>
 800313c:	4b80      	ldr	r3, [pc, #512]	; (8003340 <HAL_RCC_OscConfig+0x310>)
 800313e:	4d7e      	ldr	r5, [pc, #504]	; (8003338 <HAL_RCC_OscConfig+0x308>)
 8003140:	2201      	movs	r2, #1
 8003142:	601a      	str	r2, [r3, #0]
 8003144:	f7fe f9d4 	bl	80014f0 <HAL_GetTick>
 8003148:	4606      	mov	r6, r0
 800314a:	e005      	b.n	8003158 <HAL_RCC_OscConfig+0x128>
 800314c:	f7fe f9d0 	bl	80014f0 <HAL_GetTick>
 8003150:	1b80      	subs	r0, r0, r6
 8003152:	2802      	cmp	r0, #2
 8003154:	f200 8140 	bhi.w	80033d8 <HAL_RCC_OscConfig+0x3a8>
 8003158:	6f6b      	ldr	r3, [r5, #116]	; 0x74
 800315a:	079b      	lsls	r3, r3, #30
 800315c:	d5f6      	bpl.n	800314c <HAL_RCC_OscConfig+0x11c>
 800315e:	6823      	ldr	r3, [r4, #0]
 8003160:	075d      	lsls	r5, r3, #29
 8003162:	d53b      	bpl.n	80031dc <HAL_RCC_OscConfig+0x1ac>
 8003164:	68a3      	ldr	r3, [r4, #8]
 8003166:	2b01      	cmp	r3, #1
 8003168:	d906      	bls.n	8003178 <HAL_RCC_OscConfig+0x148>
 800316a:	2b05      	cmp	r3, #5
 800316c:	d004      	beq.n	8003178 <HAL_RCC_OscConfig+0x148>
 800316e:	f640 51bc 	movw	r1, #3516	; 0xdbc
 8003172:	4870      	ldr	r0, [pc, #448]	; (8003334 <HAL_RCC_OscConfig+0x304>)
 8003174:	f002 f876 	bl	8005264 <assert_failed>
 8003178:	4a6f      	ldr	r2, [pc, #444]	; (8003338 <HAL_RCC_OscConfig+0x308>)
 800317a:	6c13      	ldr	r3, [r2, #64]	; 0x40
 800317c:	f013 5380 	ands.w	r3, r3, #268435456	; 0x10000000
 8003180:	f000 80e4 	beq.w	800334c <HAL_RCC_OscConfig+0x31c>
 8003184:	2600      	movs	r6, #0
 8003186:	4d6f      	ldr	r5, [pc, #444]	; (8003344 <HAL_RCC_OscConfig+0x314>)
 8003188:	682a      	ldr	r2, [r5, #0]
 800318a:	05d0      	lsls	r0, r2, #23
 800318c:	f140 8114 	bpl.w	80033b8 <HAL_RCC_OscConfig+0x388>
 8003190:	68a3      	ldr	r3, [r4, #8]
 8003192:	2b01      	cmp	r3, #1
 8003194:	f000 812a 	beq.w	80033ec <HAL_RCC_OscConfig+0x3bc>
 8003198:	2b05      	cmp	r3, #5
 800319a:	f000 8190 	beq.w	80034be <HAL_RCC_OscConfig+0x48e>
 800319e:	4d66      	ldr	r5, [pc, #408]	; (8003338 <HAL_RCC_OscConfig+0x308>)
 80031a0:	6f2a      	ldr	r2, [r5, #112]	; 0x70
 80031a2:	f022 0201 	bic.w	r2, r2, #1
 80031a6:	672a      	str	r2, [r5, #112]	; 0x70
 80031a8:	6f2a      	ldr	r2, [r5, #112]	; 0x70
 80031aa:	f022 0204 	bic.w	r2, r2, #4
 80031ae:	672a      	str	r2, [r5, #112]	; 0x70
 80031b0:	2b00      	cmp	r3, #0
 80031b2:	f040 8120 	bne.w	80033f6 <HAL_RCC_OscConfig+0x3c6>
 80031b6:	f7fe f99b 	bl	80014f0 <HAL_GetTick>
 80031ba:	f241 3788 	movw	r7, #5000	; 0x1388
 80031be:	4680      	mov	r8, r0
 80031c0:	e006      	b.n	80031d0 <HAL_RCC_OscConfig+0x1a0>
 80031c2:	f7fe f995 	bl	80014f0 <HAL_GetTick>
 80031c6:	eba0 0008 	sub.w	r0, r0, r8
 80031ca:	42b8      	cmp	r0, r7
 80031cc:	f200 8104 	bhi.w	80033d8 <HAL_RCC_OscConfig+0x3a8>
 80031d0:	6f2b      	ldr	r3, [r5, #112]	; 0x70
 80031d2:	079b      	lsls	r3, r3, #30
 80031d4:	d4f5      	bmi.n	80031c2 <HAL_RCC_OscConfig+0x192>
 80031d6:	2e00      	cmp	r6, #0
 80031d8:	f040 814d 	bne.w	8003476 <HAL_RCC_OscConfig+0x446>
 80031dc:	69a3      	ldr	r3, [r4, #24]
 80031de:	2b02      	cmp	r3, #2
 80031e0:	f200 80cd 	bhi.w	800337e <HAL_RCC_OscConfig+0x34e>
 80031e4:	2b00      	cmp	r3, #0
 80031e6:	d064      	beq.n	80032b2 <HAL_RCC_OscConfig+0x282>
 80031e8:	4a53      	ldr	r2, [pc, #332]	; (8003338 <HAL_RCC_OscConfig+0x308>)
 80031ea:	6891      	ldr	r1, [r2, #8]
 80031ec:	f001 010c 	and.w	r1, r1, #12
 80031f0:	2908      	cmp	r1, #8
 80031f2:	f000 8082 	beq.w	80032fa <HAL_RCC_OscConfig+0x2ca>
 80031f6:	2b02      	cmp	r3, #2
 80031f8:	f040 8122 	bne.w	8003440 <HAL_RCC_OscConfig+0x410>
 80031fc:	69e3      	ldr	r3, [r4, #28]
 80031fe:	f433 0380 	bics.w	r3, r3, #4194304	; 0x400000
 8003202:	d004      	beq.n	800320e <HAL_RCC_OscConfig+0x1de>
 8003204:	f640 6108 	movw	r1, #3592	; 0xe08
 8003208:	484a      	ldr	r0, [pc, #296]	; (8003334 <HAL_RCC_OscConfig+0x304>)
 800320a:	f002 f82b 	bl	8005264 <assert_failed>
 800320e:	6a23      	ldr	r3, [r4, #32]
 8003210:	2b3f      	cmp	r3, #63	; 0x3f
 8003212:	f200 814e 	bhi.w	80034b2 <HAL_RCC_OscConfig+0x482>
 8003216:	6a63      	ldr	r3, [r4, #36]	; 0x24
 8003218:	3b32      	subs	r3, #50	; 0x32
 800321a:	f5b3 7fbf 	cmp.w	r3, #382	; 0x17e
 800321e:	f200 8142 	bhi.w	80034a6 <HAL_RCC_OscConfig+0x476>
 8003222:	6aa2      	ldr	r2, [r4, #40]	; 0x28
 8003224:	2a08      	cmp	r2, #8
 8003226:	f200 812c 	bhi.w	8003482 <HAL_RCC_OscConfig+0x452>
 800322a:	f44f 73aa 	mov.w	r3, #340	; 0x154
 800322e:	40d3      	lsrs	r3, r2
 8003230:	07d8      	lsls	r0, r3, #31
 8003232:	f140 8126 	bpl.w	8003482 <HAL_RCC_OscConfig+0x452>
 8003236:	6ae3      	ldr	r3, [r4, #44]	; 0x2c
 8003238:	3b02      	subs	r3, #2
 800323a:	2b0d      	cmp	r3, #13
 800323c:	f200 8127 	bhi.w	800348e <HAL_RCC_OscConfig+0x45e>
 8003240:	6b23      	ldr	r3, [r4, #48]	; 0x30
 8003242:	3b02      	subs	r3, #2
 8003244:	2b05      	cmp	r3, #5
 8003246:	f200 8128 	bhi.w	800349a <HAL_RCC_OscConfig+0x46a>
 800324a:	4b3f      	ldr	r3, [pc, #252]	; (8003348 <HAL_RCC_OscConfig+0x318>)
 800324c:	4d3a      	ldr	r5, [pc, #232]	; (8003338 <HAL_RCC_OscConfig+0x308>)
 800324e:	2200      	movs	r2, #0
 8003250:	601a      	str	r2, [r3, #0]
 8003252:	f7fe f94d 	bl	80014f0 <HAL_GetTick>
 8003256:	4606      	mov	r6, r0
 8003258:	e005      	b.n	8003266 <HAL_RCC_OscConfig+0x236>
 800325a:	f7fe f949 	bl	80014f0 <HAL_GetTick>
 800325e:	1b80      	subs	r0, r0, r6
 8003260:	2802      	cmp	r0, #2
 8003262:	f200 80b9 	bhi.w	80033d8 <HAL_RCC_OscConfig+0x3a8>
 8003266:	682b      	ldr	r3, [r5, #0]
 8003268:	0199      	lsls	r1, r3, #6
 800326a:	d4f6      	bmi.n	800325a <HAL_RCC_OscConfig+0x22a>
 800326c:	e9d4 3207 	ldrd	r3, r2, [r4, #28]
 8003270:	6a66      	ldr	r6, [r4, #36]	; 0x24
 8003272:	6ae0      	ldr	r0, [r4, #44]	; 0x2c
 8003274:	6b21      	ldr	r1, [r4, #48]	; 0x30
 8003276:	4313      	orrs	r3, r2
 8003278:	6aa2      	ldr	r2, [r4, #40]	; 0x28
 800327a:	4c2f      	ldr	r4, [pc, #188]	; (8003338 <HAL_RCC_OscConfig+0x308>)
 800327c:	ea43 1386 	orr.w	r3, r3, r6, lsl #6
 8003280:	ea43 6300 	orr.w	r3, r3, r0, lsl #24
 8003284:	0852      	lsrs	r2, r2, #1
 8003286:	ea43 7301 	orr.w	r3, r3, r1, lsl #28
 800328a:	3a01      	subs	r2, #1
 800328c:	492e      	ldr	r1, [pc, #184]	; (8003348 <HAL_RCC_OscConfig+0x318>)
 800328e:	ea43 4302 	orr.w	r3, r3, r2, lsl #16
 8003292:	2201      	movs	r2, #1
 8003294:	606b      	str	r3, [r5, #4]
 8003296:	600a      	str	r2, [r1, #0]
 8003298:	f7fe f92a 	bl	80014f0 <HAL_GetTick>
 800329c:	4605      	mov	r5, r0
 800329e:	e005      	b.n	80032ac <HAL_RCC_OscConfig+0x27c>
 80032a0:	f7fe f926 	bl	80014f0 <HAL_GetTick>
 80032a4:	1b40      	subs	r0, r0, r5
 80032a6:	2802      	cmp	r0, #2
 80032a8:	f200 8096 	bhi.w	80033d8 <HAL_RCC_OscConfig+0x3a8>
 80032ac:	6823      	ldr	r3, [r4, #0]
 80032ae:	019a      	lsls	r2, r3, #6
 80032b0:	d5f6      	bpl.n	80032a0 <HAL_RCC_OscConfig+0x270>
 80032b2:	2000      	movs	r0, #0
 80032b4:	b002      	add	sp, #8
 80032b6:	e8bd 81f0 	ldmia.w	sp!, {r4, r5, r6, r7, r8, pc}
 80032ba:	6853      	ldr	r3, [r2, #4]
 80032bc:	0258      	lsls	r0, r3, #9
 80032be:	f57f aeda 	bpl.w	8003076 <HAL_RCC_OscConfig+0x46>
 80032c2:	4b1d      	ldr	r3, [pc, #116]	; (8003338 <HAL_RCC_OscConfig+0x308>)
 80032c4:	681b      	ldr	r3, [r3, #0]
 80032c6:	0399      	lsls	r1, r3, #14
 80032c8:	f57f aef7 	bpl.w	80030ba <HAL_RCC_OscConfig+0x8a>
 80032cc:	6863      	ldr	r3, [r4, #4]
 80032ce:	2b00      	cmp	r3, #0
 80032d0:	f47f aef3 	bne.w	80030ba <HAL_RCC_OscConfig+0x8a>
 80032d4:	e011      	b.n	80032fa <HAL_RCC_OscConfig+0x2ca>
 80032d6:	f640 510c 	movw	r1, #3340	; 0xd0c
 80032da:	4816      	ldr	r0, [pc, #88]	; (8003334 <HAL_RCC_OscConfig+0x304>)
 80032dc:	f001 ffc2 	bl	8005264 <assert_failed>
 80032e0:	6823      	ldr	r3, [r4, #0]
 80032e2:	e6ad      	b.n	8003040 <HAL_RCC_OscConfig+0x10>
 80032e4:	685b      	ldr	r3, [r3, #4]
 80032e6:	025e      	lsls	r6, r3, #9
 80032e8:	f53f af02 	bmi.w	80030f0 <HAL_RCC_OscConfig+0xc0>
 80032ec:	4b12      	ldr	r3, [pc, #72]	; (8003338 <HAL_RCC_OscConfig+0x308>)
 80032ee:	681b      	ldr	r3, [r3, #0]
 80032f0:	079d      	lsls	r5, r3, #30
 80032f2:	d537      	bpl.n	8003364 <HAL_RCC_OscConfig+0x334>
 80032f4:	68e3      	ldr	r3, [r4, #12]
 80032f6:	2b01      	cmp	r3, #1
 80032f8:	d034      	beq.n	8003364 <HAL_RCC_OscConfig+0x334>
 80032fa:	2001      	movs	r0, #1
 80032fc:	b002      	add	sp, #8
 80032fe:	e8bd 81f0 	ldmia.w	sp!, {r4, r5, r6, r7, r8, pc}
 8003302:	4a0f      	ldr	r2, [pc, #60]	; (8003340 <HAL_RCC_OscConfig+0x310>)
 8003304:	4d0c      	ldr	r5, [pc, #48]	; (8003338 <HAL_RCC_OscConfig+0x308>)
 8003306:	6013      	str	r3, [r2, #0]
 8003308:	f7fe f8f2 	bl	80014f0 <HAL_GetTick>
 800330c:	4606      	mov	r6, r0
 800330e:	e004      	b.n	800331a <HAL_RCC_OscConfig+0x2ea>
 8003310:	f7fe f8ee 	bl	80014f0 <HAL_GetTick>
 8003314:	1b80      	subs	r0, r0, r6
 8003316:	2802      	cmp	r0, #2
 8003318:	d85e      	bhi.n	80033d8 <HAL_RCC_OscConfig+0x3a8>
 800331a:	6f6b      	ldr	r3, [r5, #116]	; 0x74
 800331c:	079f      	lsls	r7, r3, #30
 800331e:	d4f7      	bmi.n	8003310 <HAL_RCC_OscConfig+0x2e0>
 8003320:	e71d      	b.n	800315e <HAL_RCC_OscConfig+0x12e>
 8003322:	f44f 6159 	mov.w	r1, #3472	; 0xd90
 8003326:	4803      	ldr	r0, [pc, #12]	; (8003334 <HAL_RCC_OscConfig+0x304>)
 8003328:	f001 ff9c 	bl	8005264 <assert_failed>
 800332c:	6963      	ldr	r3, [r4, #20]
 800332e:	2b00      	cmp	r3, #0
 8003330:	d0e7      	beq.n	8003302 <HAL_RCC_OscConfig+0x2d2>
 8003332:	e703      	b.n	800313c <HAL_RCC_OscConfig+0x10c>
 8003334:	0800b274 	.word	0x0800b274
 8003338:	40023800 	.word	0x40023800
 800333c:	42470000 	.word	0x42470000
 8003340:	42470e80 	.word	0x42470e80
 8003344:	40007000 	.word	0x40007000
 8003348:	42470060 	.word	0x42470060
 800334c:	9301      	str	r3, [sp, #4]
 800334e:	6c13      	ldr	r3, [r2, #64]	; 0x40
 8003350:	f043 5380 	orr.w	r3, r3, #268435456	; 0x10000000
 8003354:	6413      	str	r3, [r2, #64]	; 0x40
 8003356:	6c13      	ldr	r3, [r2, #64]	; 0x40
 8003358:	f003 5380 	and.w	r3, r3, #268435456	; 0x10000000
 800335c:	9301      	str	r3, [sp, #4]
 800335e:	9b01      	ldr	r3, [sp, #4]
 8003360:	2601      	movs	r6, #1
 8003362:	e710      	b.n	8003186 <HAL_RCC_OscConfig+0x156>
 8003364:	4a5b      	ldr	r2, [pc, #364]	; (80034d4 <HAL_RCC_OscConfig+0x4a4>)
 8003366:	6921      	ldr	r1, [r4, #16]
 8003368:	6813      	ldr	r3, [r2, #0]
 800336a:	f023 03f8 	bic.w	r3, r3, #248	; 0xf8
 800336e:	ea43 03c1 	orr.w	r3, r3, r1, lsl #3
 8003372:	6013      	str	r3, [r2, #0]
 8003374:	6823      	ldr	r3, [r4, #0]
 8003376:	071a      	lsls	r2, r3, #28
 8003378:	f57f aef2 	bpl.w	8003160 <HAL_RCC_OscConfig+0x130>
 800337c:	e6d7      	b.n	800312e <HAL_RCC_OscConfig+0xfe>
 800337e:	f640 51ff 	movw	r1, #3583	; 0xdff
 8003382:	4855      	ldr	r0, [pc, #340]	; (80034d8 <HAL_RCC_OscConfig+0x4a8>)
 8003384:	f001 ff6e 	bl	8005264 <assert_failed>
 8003388:	69a3      	ldr	r3, [r4, #24]
 800338a:	2b00      	cmp	r3, #0
 800338c:	f47f af2c 	bne.w	80031e8 <HAL_RCC_OscConfig+0x1b8>
 8003390:	e78f      	b.n	80032b2 <HAL_RCC_OscConfig+0x282>
 8003392:	4a50      	ldr	r2, [pc, #320]	; (80034d4 <HAL_RCC_OscConfig+0x4a4>)
 8003394:	6813      	ldr	r3, [r2, #0]
 8003396:	f443 3380 	orr.w	r3, r3, #65536	; 0x10000
 800339a:	6013      	str	r3, [r2, #0]
 800339c:	f7fe f8a8 	bl	80014f0 <HAL_GetTick>
 80033a0:	4d4c      	ldr	r5, [pc, #304]	; (80034d4 <HAL_RCC_OscConfig+0x4a4>)
 80033a2:	4606      	mov	r6, r0
 80033a4:	e004      	b.n	80033b0 <HAL_RCC_OscConfig+0x380>
 80033a6:	f7fe f8a3 	bl	80014f0 <HAL_GetTick>
 80033aa:	1b80      	subs	r0, r0, r6
 80033ac:	2864      	cmp	r0, #100	; 0x64
 80033ae:	d813      	bhi.n	80033d8 <HAL_RCC_OscConfig+0x3a8>
 80033b0:	682b      	ldr	r3, [r5, #0]
 80033b2:	039a      	lsls	r2, r3, #14
 80033b4:	d5f7      	bpl.n	80033a6 <HAL_RCC_OscConfig+0x376>
 80033b6:	e680      	b.n	80030ba <HAL_RCC_OscConfig+0x8a>
 80033b8:	682a      	ldr	r2, [r5, #0]
 80033ba:	f442 7280 	orr.w	r2, r2, #256	; 0x100
 80033be:	602a      	str	r2, [r5, #0]
 80033c0:	f7fe f896 	bl	80014f0 <HAL_GetTick>
 80033c4:	4607      	mov	r7, r0
 80033c6:	682b      	ldr	r3, [r5, #0]
 80033c8:	05d9      	lsls	r1, r3, #23
 80033ca:	f53f aee1 	bmi.w	8003190 <HAL_RCC_OscConfig+0x160>
 80033ce:	f7fe f88f 	bl	80014f0 <HAL_GetTick>
 80033d2:	1bc0      	subs	r0, r0, r7
 80033d4:	2802      	cmp	r0, #2
 80033d6:	d9f6      	bls.n	80033c6 <HAL_RCC_OscConfig+0x396>
 80033d8:	2003      	movs	r0, #3
 80033da:	b002      	add	sp, #8
 80033dc:	e8bd 81f0 	ldmia.w	sp!, {r4, r5, r6, r7, r8, pc}
 80033e0:	f640 514a 	movw	r1, #3402	; 0xd4a
 80033e4:	483c      	ldr	r0, [pc, #240]	; (80034d8 <HAL_RCC_OscConfig+0x4a8>)
 80033e6:	f001 ff3d 	bl	8005264 <assert_failed>
 80033ea:	e675      	b.n	80030d8 <HAL_RCC_OscConfig+0xa8>
 80033ec:	4a39      	ldr	r2, [pc, #228]	; (80034d4 <HAL_RCC_OscConfig+0x4a4>)
 80033ee:	6f13      	ldr	r3, [r2, #112]	; 0x70
 80033f0:	f043 0301 	orr.w	r3, r3, #1
 80033f4:	6713      	str	r3, [r2, #112]	; 0x70
 80033f6:	f7fe f87b 	bl	80014f0 <HAL_GetTick>
 80033fa:	4d36      	ldr	r5, [pc, #216]	; (80034d4 <HAL_RCC_OscConfig+0x4a4>)
 80033fc:	4680      	mov	r8, r0
 80033fe:	f241 3788 	movw	r7, #5000	; 0x1388
 8003402:	e005      	b.n	8003410 <HAL_RCC_OscConfig+0x3e0>
 8003404:	f7fe f874 	bl	80014f0 <HAL_GetTick>
 8003408:	eba0 0008 	sub.w	r0, r0, r8
 800340c:	42b8      	cmp	r0, r7
 800340e:	d8e3      	bhi.n	80033d8 <HAL_RCC_OscConfig+0x3a8>
 8003410:	6f2b      	ldr	r3, [r5, #112]	; 0x70
 8003412:	079a      	lsls	r2, r3, #30
 8003414:	d5f6      	bpl.n	8003404 <HAL_RCC_OscConfig+0x3d4>
 8003416:	2e00      	cmp	r6, #0
 8003418:	f43f aee0 	beq.w	80031dc <HAL_RCC_OscConfig+0x1ac>
 800341c:	e02b      	b.n	8003476 <HAL_RCC_OscConfig+0x446>
 800341e:	4a2f      	ldr	r2, [pc, #188]	; (80034dc <HAL_RCC_OscConfig+0x4ac>)
 8003420:	4d2c      	ldr	r5, [pc, #176]	; (80034d4 <HAL_RCC_OscConfig+0x4a4>)
 8003422:	6013      	str	r3, [r2, #0]
 8003424:	f7fe f864 	bl	80014f0 <HAL_GetTick>
 8003428:	4606      	mov	r6, r0
 800342a:	e004      	b.n	8003436 <HAL_RCC_OscConfig+0x406>
 800342c:	f7fe f860 	bl	80014f0 <HAL_GetTick>
 8003430:	1b80      	subs	r0, r0, r6
 8003432:	2802      	cmp	r0, #2
 8003434:	d8d0      	bhi.n	80033d8 <HAL_RCC_OscConfig+0x3a8>
 8003436:	682b      	ldr	r3, [r5, #0]
 8003438:	0799      	lsls	r1, r3, #30
 800343a:	d4f7      	bmi.n	800342c <HAL_RCC_OscConfig+0x3fc>
 800343c:	6823      	ldr	r3, [r4, #0]
 800343e:	e674      	b.n	800312a <HAL_RCC_OscConfig+0xfa>
 8003440:	4b27      	ldr	r3, [pc, #156]	; (80034e0 <HAL_RCC_OscConfig+0x4b0>)
 8003442:	2100      	movs	r1, #0
 8003444:	6019      	str	r1, [r3, #0]
 8003446:	4614      	mov	r4, r2
 8003448:	f7fe f852 	bl	80014f0 <HAL_GetTick>
 800344c:	4605      	mov	r5, r0
 800344e:	e004      	b.n	800345a <HAL_RCC_OscConfig+0x42a>
 8003450:	f7fe f84e 	bl	80014f0 <HAL_GetTick>
 8003454:	1b40      	subs	r0, r0, r5
 8003456:	2802      	cmp	r0, #2
 8003458:	d8be      	bhi.n	80033d8 <HAL_RCC_OscConfig+0x3a8>
 800345a:	6823      	ldr	r3, [r4, #0]
 800345c:	019b      	lsls	r3, r3, #6
 800345e:	d4f7      	bmi.n	8003450 <HAL_RCC_OscConfig+0x420>
 8003460:	e727      	b.n	80032b2 <HAL_RCC_OscConfig+0x282>
 8003462:	4b1c      	ldr	r3, [pc, #112]	; (80034d4 <HAL_RCC_OscConfig+0x4a4>)
 8003464:	681a      	ldr	r2, [r3, #0]
 8003466:	f442 2280 	orr.w	r2, r2, #262144	; 0x40000
 800346a:	601a      	str	r2, [r3, #0]
 800346c:	681a      	ldr	r2, [r3, #0]
 800346e:	f442 3280 	orr.w	r2, r2, #65536	; 0x10000
 8003472:	601a      	str	r2, [r3, #0]
 8003474:	e792      	b.n	800339c <HAL_RCC_OscConfig+0x36c>
 8003476:	4a17      	ldr	r2, [pc, #92]	; (80034d4 <HAL_RCC_OscConfig+0x4a4>)
 8003478:	6c13      	ldr	r3, [r2, #64]	; 0x40
 800347a:	f023 5380 	bic.w	r3, r3, #268435456	; 0x10000000
 800347e:	6413      	str	r3, [r2, #64]	; 0x40
 8003480:	e6ac      	b.n	80031dc <HAL_RCC_OscConfig+0x1ac>
 8003482:	f640 610b 	movw	r1, #3595	; 0xe0b
 8003486:	4814      	ldr	r0, [pc, #80]	; (80034d8 <HAL_RCC_OscConfig+0x4a8>)
 8003488:	f001 feec 	bl	8005264 <assert_failed>
 800348c:	e6d3      	b.n	8003236 <HAL_RCC_OscConfig+0x206>
 800348e:	f640 610c 	movw	r1, #3596	; 0xe0c
 8003492:	4811      	ldr	r0, [pc, #68]	; (80034d8 <HAL_RCC_OscConfig+0x4a8>)
 8003494:	f001 fee6 	bl	8005264 <assert_failed>
 8003498:	e6d2      	b.n	8003240 <HAL_RCC_OscConfig+0x210>
 800349a:	f640 610d 	movw	r1, #3597	; 0xe0d
 800349e:	480e      	ldr	r0, [pc, #56]	; (80034d8 <HAL_RCC_OscConfig+0x4a8>)
 80034a0:	f001 fee0 	bl	8005264 <assert_failed>
 80034a4:	e6d1      	b.n	800324a <HAL_RCC_OscConfig+0x21a>
 80034a6:	f640 610a 	movw	r1, #3594	; 0xe0a
 80034aa:	480b      	ldr	r0, [pc, #44]	; (80034d8 <HAL_RCC_OscConfig+0x4a8>)
 80034ac:	f001 feda 	bl	8005264 <assert_failed>
 80034b0:	e6b7      	b.n	8003222 <HAL_RCC_OscConfig+0x1f2>
 80034b2:	f640 6109 	movw	r1, #3593	; 0xe09
 80034b6:	4808      	ldr	r0, [pc, #32]	; (80034d8 <HAL_RCC_OscConfig+0x4a8>)
 80034b8:	f001 fed4 	bl	8005264 <assert_failed>
 80034bc:	e6ab      	b.n	8003216 <HAL_RCC_OscConfig+0x1e6>
 80034be:	4b05      	ldr	r3, [pc, #20]	; (80034d4 <HAL_RCC_OscConfig+0x4a4>)
 80034c0:	6f1a      	ldr	r2, [r3, #112]	; 0x70
 80034c2:	f042 0204 	orr.w	r2, r2, #4
 80034c6:	671a      	str	r2, [r3, #112]	; 0x70
 80034c8:	6f1a      	ldr	r2, [r3, #112]	; 0x70
 80034ca:	f042 0201 	orr.w	r2, r2, #1
 80034ce:	671a      	str	r2, [r3, #112]	; 0x70
 80034d0:	e791      	b.n	80033f6 <HAL_RCC_OscConfig+0x3c6>
 80034d2:	bf00      	nop
 80034d4:	40023800 	.word	0x40023800
 80034d8:	0800b274 	.word	0x0800b274
 80034dc:	42470000 	.word	0x42470000
 80034e0:	42470060 	.word	0x42470060

080034e4 <TIM_OC1_SetConfig>:
 80034e4:	e92d 43f8 	stmdb	sp!, {r3, r4, r5, r6, r7, r8, r9, lr}
 80034e8:	6a03      	ldr	r3, [r0, #32]
 80034ea:	4a36      	ldr	r2, [pc, #216]	; (80035c4 <TIM_OC1_SetConfig+0xe0>)
 80034ec:	4604      	mov	r4, r0
 80034ee:	f023 0301 	bic.w	r3, r3, #1
 80034f2:	6888      	ldr	r0, [r1, #8]
 80034f4:	460f      	mov	r7, r1
 80034f6:	6809      	ldr	r1, [r1, #0]
 80034f8:	6223      	str	r3, [r4, #32]
 80034fa:	6a25      	ldr	r5, [r4, #32]
 80034fc:	f8d4 8004 	ldr.w	r8, [r4, #4]
 8003500:	69a6      	ldr	r6, [r4, #24]
 8003502:	f025 0502 	bic.w	r5, r5, #2
 8003506:	f026 0673 	bic.w	r6, r6, #115	; 0x73
 800350a:	4294      	cmp	r4, r2
 800350c:	ea45 0500 	orr.w	r5, r5, r0
 8003510:	ea46 0601 	orr.w	r6, r6, r1
 8003514:	d034      	beq.n	8003580 <TIM_OC1_SetConfig+0x9c>
 8003516:	4b2c      	ldr	r3, [pc, #176]	; (80035c8 <TIM_OC1_SetConfig+0xe4>)
 8003518:	429c      	cmp	r4, r3
 800351a:	d007      	beq.n	800352c <TIM_OC1_SetConfig+0x48>
 800351c:	687b      	ldr	r3, [r7, #4]
 800351e:	f8c4 8004 	str.w	r8, [r4, #4]
 8003522:	61a6      	str	r6, [r4, #24]
 8003524:	6363      	str	r3, [r4, #52]	; 0x34
 8003526:	6225      	str	r5, [r4, #32]
 8003528:	e8bd 83f8 	ldmia.w	sp!, {r3, r4, r5, r6, r7, r8, r9, pc}
 800352c:	68fb      	ldr	r3, [r7, #12]
 800352e:	f025 0908 	bic.w	r9, r5, #8
 8003532:	b34b      	cbz	r3, 8003588 <TIM_OC1_SetConfig+0xa4>
 8003534:	2b08      	cmp	r3, #8
 8003536:	d039      	beq.n	80035ac <TIM_OC1_SetConfig+0xc8>
 8003538:	f241 7102 	movw	r1, #5890	; 0x1702
 800353c:	4823      	ldr	r0, [pc, #140]	; (80035cc <TIM_OC1_SetConfig+0xe8>)
 800353e:	f001 fe91 	bl	8005264 <assert_failed>
 8003542:	68fd      	ldr	r5, [r7, #12]
 8003544:	4b1f      	ldr	r3, [pc, #124]	; (80035c4 <TIM_OC1_SetConfig+0xe0>)
 8003546:	ea49 0505 	orr.w	r5, r9, r5
 800354a:	429c      	cmp	r4, r3
 800354c:	f025 0504 	bic.w	r5, r5, #4
 8003550:	d01c      	beq.n	800358c <TIM_OC1_SetConfig+0xa8>
 8003552:	4b1d      	ldr	r3, [pc, #116]	; (80035c8 <TIM_OC1_SetConfig+0xe4>)
 8003554:	429c      	cmp	r4, r3
 8003556:	d1e1      	bne.n	800351c <TIM_OC1_SetConfig+0x38>
 8003558:	69bb      	ldr	r3, [r7, #24]
 800355a:	f433 7300 	bics.w	r3, r3, #512	; 0x200
 800355e:	d019      	beq.n	8003594 <TIM_OC1_SetConfig+0xb0>
 8003560:	f241 710f 	movw	r1, #5903	; 0x170f
 8003564:	4819      	ldr	r0, [pc, #100]	; (80035cc <TIM_OC1_SetConfig+0xe8>)
 8003566:	f001 fe7d 	bl	8005264 <assert_failed>
 800356a:	697b      	ldr	r3, [r7, #20]
 800356c:	f433 7280 	bics.w	r2, r3, #256	; 0x100
 8003570:	d014      	beq.n	800359c <TIM_OC1_SetConfig+0xb8>
 8003572:	f241 7110 	movw	r1, #5904	; 0x1710
 8003576:	4815      	ldr	r0, [pc, #84]	; (80035cc <TIM_OC1_SetConfig+0xe8>)
 8003578:	f001 fe74 	bl	8005264 <assert_failed>
 800357c:	697b      	ldr	r3, [r7, #20]
 800357e:	e00d      	b.n	800359c <TIM_OC1_SetConfig+0xb8>
 8003580:	68fb      	ldr	r3, [r7, #12]
 8003582:	f025 0908 	bic.w	r9, r5, #8
 8003586:	b9b3      	cbnz	r3, 80035b6 <TIM_OC1_SetConfig+0xd2>
 8003588:	f025 050c 	bic.w	r5, r5, #12
 800358c:	69bb      	ldr	r3, [r7, #24]
 800358e:	f433 7300 	bics.w	r3, r3, #512	; 0x200
 8003592:	d1e5      	bne.n	8003560 <TIM_OC1_SetConfig+0x7c>
 8003594:	697b      	ldr	r3, [r7, #20]
 8003596:	f433 7280 	bics.w	r2, r3, #256	; 0x100
 800359a:	d1ea      	bne.n	8003572 <TIM_OC1_SetConfig+0x8e>
 800359c:	69ba      	ldr	r2, [r7, #24]
 800359e:	f428 7840 	bic.w	r8, r8, #768	; 0x300
 80035a2:	ea48 0802 	orr.w	r8, r8, r2
 80035a6:	ea48 0803 	orr.w	r8, r8, r3
 80035aa:	e7b7      	b.n	800351c <TIM_OC1_SetConfig+0x38>
 80035ac:	f025 050c 	bic.w	r5, r5, #12
 80035b0:	f045 0508 	orr.w	r5, r5, #8
 80035b4:	e7cd      	b.n	8003552 <TIM_OC1_SetConfig+0x6e>
 80035b6:	2b08      	cmp	r3, #8
 80035b8:	d1be      	bne.n	8003538 <TIM_OC1_SetConfig+0x54>
 80035ba:	f025 050c 	bic.w	r5, r5, #12
 80035be:	f045 0508 	orr.w	r5, r5, #8
 80035c2:	e7e3      	b.n	800358c <TIM_OC1_SetConfig+0xa8>
 80035c4:	40010000 	.word	0x40010000
 80035c8:	40010400 	.word	0x40010400
 80035cc:	0800b2b0 	.word	0x0800b2b0

080035d0 <TIM_OC3_SetConfig>:
 80035d0:	e92d 43f8 	stmdb	sp!, {r3, r4, r5, r6, r7, r8, r9, lr}
 80035d4:	6a03      	ldr	r3, [r0, #32]
 80035d6:	4a36      	ldr	r2, [pc, #216]	; (80036b0 <TIM_OC3_SetConfig+0xe0>)
 80035d8:	4604      	mov	r4, r0
 80035da:	f423 7380 	bic.w	r3, r3, #256	; 0x100
 80035de:	6888      	ldr	r0, [r1, #8]
 80035e0:	460f      	mov	r7, r1
 80035e2:	6809      	ldr	r1, [r1, #0]
 80035e4:	6223      	str	r3, [r4, #32]
 80035e6:	6a25      	ldr	r5, [r4, #32]
 80035e8:	f8d4 8004 	ldr.w	r8, [r4, #4]
 80035ec:	69e6      	ldr	r6, [r4, #28]
 80035ee:	f425 7500 	bic.w	r5, r5, #512	; 0x200
 80035f2:	f026 0673 	bic.w	r6, r6, #115	; 0x73
 80035f6:	4294      	cmp	r4, r2
 80035f8:	ea45 2500 	orr.w	r5, r5, r0, lsl #8
 80035fc:	ea46 0601 	orr.w	r6, r6, r1
 8003600:	d034      	beq.n	800366c <TIM_OC3_SetConfig+0x9c>
 8003602:	4b2c      	ldr	r3, [pc, #176]	; (80036b4 <TIM_OC3_SetConfig+0xe4>)
 8003604:	429c      	cmp	r4, r3
 8003606:	d007      	beq.n	8003618 <TIM_OC3_SetConfig+0x48>
 8003608:	687b      	ldr	r3, [r7, #4]
 800360a:	f8c4 8004 	str.w	r8, [r4, #4]
 800360e:	61e6      	str	r6, [r4, #28]
 8003610:	63e3      	str	r3, [r4, #60]	; 0x3c
 8003612:	6225      	str	r5, [r4, #32]
 8003614:	e8bd 83f8 	ldmia.w	sp!, {r3, r4, r5, r6, r7, r8, r9, pc}
 8003618:	68fb      	ldr	r3, [r7, #12]
 800361a:	f425 6900 	bic.w	r9, r5, #2048	; 0x800
 800361e:	b34b      	cbz	r3, 8003674 <TIM_OC3_SetConfig+0xa4>
 8003620:	2b08      	cmp	r3, #8
 8003622:	d039      	beq.n	8003698 <TIM_OC3_SetConfig+0xc8>
 8003624:	f241 7198 	movw	r1, #6040	; 0x1798
 8003628:	4823      	ldr	r0, [pc, #140]	; (80036b8 <TIM_OC3_SetConfig+0xe8>)
 800362a:	f001 fe1b 	bl	8005264 <assert_failed>
 800362e:	68fd      	ldr	r5, [r7, #12]
 8003630:	4b1f      	ldr	r3, [pc, #124]	; (80036b0 <TIM_OC3_SetConfig+0xe0>)
 8003632:	ea49 2505 	orr.w	r5, r9, r5, lsl #8
 8003636:	429c      	cmp	r4, r3
 8003638:	f425 6580 	bic.w	r5, r5, #1024	; 0x400
 800363c:	d01c      	beq.n	8003678 <TIM_OC3_SetConfig+0xa8>
 800363e:	4b1d      	ldr	r3, [pc, #116]	; (80036b4 <TIM_OC3_SetConfig+0xe4>)
 8003640:	429c      	cmp	r4, r3
 8003642:	d1e1      	bne.n	8003608 <TIM_OC3_SetConfig+0x38>
 8003644:	69bb      	ldr	r3, [r7, #24]
 8003646:	f433 7300 	bics.w	r3, r3, #512	; 0x200
 800364a:	d019      	beq.n	8003680 <TIM_OC3_SetConfig+0xb0>
 800364c:	f241 71a5 	movw	r1, #6053	; 0x17a5
 8003650:	4819      	ldr	r0, [pc, #100]	; (80036b8 <TIM_OC3_SetConfig+0xe8>)
 8003652:	f001 fe07 	bl	8005264 <assert_failed>
 8003656:	697b      	ldr	r3, [r7, #20]
 8003658:	f433 7280 	bics.w	r2, r3, #256	; 0x100
 800365c:	d014      	beq.n	8003688 <TIM_OC3_SetConfig+0xb8>
 800365e:	f241 71a6 	movw	r1, #6054	; 0x17a6
 8003662:	4815      	ldr	r0, [pc, #84]	; (80036b8 <TIM_OC3_SetConfig+0xe8>)
 8003664:	f001 fdfe 	bl	8005264 <assert_failed>
 8003668:	697b      	ldr	r3, [r7, #20]
 800366a:	e00d      	b.n	8003688 <TIM_OC3_SetConfig+0xb8>
 800366c:	68fb      	ldr	r3, [r7, #12]
 800366e:	f425 6900 	bic.w	r9, r5, #2048	; 0x800
 8003672:	b9b3      	cbnz	r3, 80036a2 <TIM_OC3_SetConfig+0xd2>
 8003674:	f425 6540 	bic.w	r5, r5, #3072	; 0xc00
 8003678:	69bb      	ldr	r3, [r7, #24]
 800367a:	f433 7300 	bics.w	r3, r3, #512	; 0x200
 800367e:	d1e5      	bne.n	800364c <TIM_OC3_SetConfig+0x7c>
 8003680:	697b      	ldr	r3, [r7, #20]
 8003682:	f433 7280 	bics.w	r2, r3, #256	; 0x100
 8003686:	d1ea      	bne.n	800365e <TIM_OC3_SetConfig+0x8e>
 8003688:	69ba      	ldr	r2, [r7, #24]
 800368a:	f428 5840 	bic.w	r8, r8, #12288	; 0x3000
 800368e:	ea48 1802 	orr.w	r8, r8, r2, lsl #4
 8003692:	ea48 1803 	orr.w	r8, r8, r3, lsl #4
 8003696:	e7b7      	b.n	8003608 <TIM_OC3_SetConfig+0x38>
 8003698:	f425 6540 	bic.w	r5, r5, #3072	; 0xc00
 800369c:	f445 6500 	orr.w	r5, r5, #2048	; 0x800
 80036a0:	e7cd      	b.n	800363e <TIM_OC3_SetConfig+0x6e>
 80036a2:	2b08      	cmp	r3, #8
 80036a4:	d1be      	bne.n	8003624 <TIM_OC3_SetConfig+0x54>
 80036a6:	f425 6540 	bic.w	r5, r5, #3072	; 0xc00
 80036aa:	f445 6500 	orr.w	r5, r5, #2048	; 0x800
 80036ae:	e7e3      	b.n	8003678 <TIM_OC3_SetConfig+0xa8>
 80036b0:	40010000 	.word	0x40010000
 80036b4:	40010400 	.word	0x40010400
 80036b8:	0800b2b0 	.word	0x0800b2b0

080036bc <TIM_OC4_SetConfig>:
 80036bc:	6a03      	ldr	r3, [r0, #32]
 80036be:	4a1c      	ldr	r2, [pc, #112]	; (8003730 <TIM_OC4_SetConfig+0x74>)
 80036c0:	b5f0      	push	{r4, r5, r6, r7, lr}
 80036c2:	4604      	mov	r4, r0
 80036c4:	f423 5380 	bic.w	r3, r3, #4096	; 0x1000
 80036c8:	6888      	ldr	r0, [r1, #8]
 80036ca:	460f      	mov	r7, r1
 80036cc:	6809      	ldr	r1, [r1, #0]
 80036ce:	6223      	str	r3, [r4, #32]
 80036d0:	6a25      	ldr	r5, [r4, #32]
 80036d2:	6863      	ldr	r3, [r4, #4]
 80036d4:	69e6      	ldr	r6, [r4, #28]
 80036d6:	f425 5500 	bic.w	r5, r5, #8192	; 0x2000
 80036da:	f426 46e6 	bic.w	r6, r6, #29440	; 0x7300
 80036de:	4294      	cmp	r4, r2
 80036e0:	b083      	sub	sp, #12
 80036e2:	ea45 3500 	orr.w	r5, r5, r0, lsl #12
 80036e6:	ea46 2601 	orr.w	r6, r6, r1, lsl #8
 80036ea:	d00a      	beq.n	8003702 <TIM_OC4_SetConfig+0x46>
 80036ec:	f502 6280 	add.w	r2, r2, #1024	; 0x400
 80036f0:	4294      	cmp	r4, r2
 80036f2:	d006      	beq.n	8003702 <TIM_OC4_SetConfig+0x46>
 80036f4:	687a      	ldr	r2, [r7, #4]
 80036f6:	6063      	str	r3, [r4, #4]
 80036f8:	61e6      	str	r6, [r4, #28]
 80036fa:	6422      	str	r2, [r4, #64]	; 0x40
 80036fc:	6225      	str	r5, [r4, #32]
 80036fe:	b003      	add	sp, #12
 8003700:	bdf0      	pop	{r4, r5, r6, r7, pc}
 8003702:	697a      	ldr	r2, [r7, #20]
 8003704:	f432 7180 	bics.w	r1, r2, #256	; 0x100
 8003708:	d104      	bne.n	8003714 <TIM_OC4_SetConfig+0x58>
 800370a:	f423 4380 	bic.w	r3, r3, #16384	; 0x4000
 800370e:	ea43 1382 	orr.w	r3, r3, r2, lsl #6
 8003712:	e7ef      	b.n	80036f4 <TIM_OC4_SetConfig+0x38>
 8003714:	f241 71e4 	movw	r1, #6116	; 0x17e4
 8003718:	4806      	ldr	r0, [pc, #24]	; (8003734 <TIM_OC4_SetConfig+0x78>)
 800371a:	9301      	str	r3, [sp, #4]
 800371c:	f001 fda2 	bl	8005264 <assert_failed>
 8003720:	9b01      	ldr	r3, [sp, #4]
 8003722:	697a      	ldr	r2, [r7, #20]
 8003724:	f423 4380 	bic.w	r3, r3, #16384	; 0x4000
 8003728:	ea43 1382 	orr.w	r3, r3, r2, lsl #6
 800372c:	e7e2      	b.n	80036f4 <TIM_OC4_SetConfig+0x38>
 800372e:	bf00      	nop
 8003730:	40010000 	.word	0x40010000
 8003734:	0800b2b0 	.word	0x0800b2b0

08003738 <TIM_SlaveTimer_SetConfig>:
 8003738:	6802      	ldr	r2, [r0, #0]
 800373a:	6893      	ldr	r3, [r2, #8]
 800373c:	b570      	push	{r4, r5, r6, lr}
 800373e:	460c      	mov	r4, r1
 8003740:	6849      	ldr	r1, [r1, #4]
 8003742:	f023 0370 	bic.w	r3, r3, #112	; 0x70
 8003746:	4605      	mov	r5, r0
 8003748:	430b      	orrs	r3, r1
 800374a:	6820      	ldr	r0, [r4, #0]
 800374c:	f023 0307 	bic.w	r3, r3, #7
 8003750:	4303      	orrs	r3, r0
 8003752:	2930      	cmp	r1, #48	; 0x30
 8003754:	6093      	str	r3, [r2, #8]
 8003756:	f000 80ac 	beq.w	80038b2 <TIM_SlaveTimer_SetConfig+0x17a>
 800375a:	f240 80a3 	bls.w	80038a4 <TIM_SlaveTimer_SetConfig+0x16c>
 800375e:	2950      	cmp	r1, #80	; 0x50
 8003760:	f000 8116 	beq.w	8003990 <TIM_SlaveTimer_SetConfig+0x258>
 8003764:	d951      	bls.n	800380a <TIM_SlaveTimer_SetConfig+0xd2>
 8003766:	2960      	cmp	r1, #96	; 0x60
 8003768:	f000 80c8 	beq.w	80038fc <TIM_SlaveTimer_SetConfig+0x1c4>
 800376c:	2970      	cmp	r1, #112	; 0x70
 800376e:	f040 809e 	bne.w	80038ae <TIM_SlaveTimer_SetConfig+0x176>
 8003772:	4bbd      	ldr	r3, [pc, #756]	; (8003a68 <TIM_SlaveTimer_SetConfig+0x330>)
 8003774:	429a      	cmp	r2, r3
 8003776:	d01f      	beq.n	80037b8 <TIM_SlaveTimer_SetConfig+0x80>
 8003778:	f1b2 4f80 	cmp.w	r2, #1073741824	; 0x40000000
 800377c:	d01c      	beq.n	80037b8 <TIM_SlaveTimer_SetConfig+0x80>
 800377e:	f5a3 437c 	sub.w	r3, r3, #64512	; 0xfc00
 8003782:	429a      	cmp	r2, r3
 8003784:	d018      	beq.n	80037b8 <TIM_SlaveTimer_SetConfig+0x80>
 8003786:	f503 6380 	add.w	r3, r3, #1024	; 0x400
 800378a:	429a      	cmp	r2, r3
 800378c:	d014      	beq.n	80037b8 <TIM_SlaveTimer_SetConfig+0x80>
 800378e:	f503 6380 	add.w	r3, r3, #1024	; 0x400
 8003792:	429a      	cmp	r2, r3
 8003794:	d010      	beq.n	80037b8 <TIM_SlaveTimer_SetConfig+0x80>
 8003796:	f503 4378 	add.w	r3, r3, #63488	; 0xf800
 800379a:	429a      	cmp	r2, r3
 800379c:	d00c      	beq.n	80037b8 <TIM_SlaveTimer_SetConfig+0x80>
 800379e:	f503 5370 	add.w	r3, r3, #15360	; 0x3c00
 80037a2:	429a      	cmp	r2, r3
 80037a4:	d008      	beq.n	80037b8 <TIM_SlaveTimer_SetConfig+0x80>
 80037a6:	f5a3 3394 	sub.w	r3, r3, #75776	; 0x12800
 80037aa:	429a      	cmp	r2, r3
 80037ac:	d004      	beq.n	80037b8 <TIM_SlaveTimer_SetConfig+0x80>
 80037ae:	f641 011d 	movw	r1, #6173	; 0x181d
 80037b2:	48ae      	ldr	r0, [pc, #696]	; (8003a6c <TIM_SlaveTimer_SetConfig+0x334>)
 80037b4:	f001 fd56 	bl	8005264 <assert_failed>
 80037b8:	68e3      	ldr	r3, [r4, #12]
 80037ba:	f433 5340 	bics.w	r3, r3, #12288	; 0x3000
 80037be:	d004      	beq.n	80037ca <TIM_SlaveTimer_SetConfig+0x92>
 80037c0:	f641 011e 	movw	r1, #6174	; 0x181e
 80037c4:	48a9      	ldr	r0, [pc, #676]	; (8003a6c <TIM_SlaveTimer_SetConfig+0x334>)
 80037c6:	f001 fd4d 	bl	8005264 <assert_failed>
 80037ca:	68a3      	ldr	r3, [r4, #8]
 80037cc:	f5b3 4f00 	cmp.w	r3, #32768	; 0x8000
 80037d0:	d005      	beq.n	80037de <TIM_SlaveTimer_SetConfig+0xa6>
 80037d2:	f033 0202 	bics.w	r2, r3, #2
 80037d6:	d002      	beq.n	80037de <TIM_SlaveTimer_SetConfig+0xa6>
 80037d8:	2b0a      	cmp	r3, #10
 80037da:	f040 8139 	bne.w	8003a50 <TIM_SlaveTimer_SetConfig+0x318>
 80037de:	6921      	ldr	r1, [r4, #16]
 80037e0:	290f      	cmp	r1, #15
 80037e2:	d905      	bls.n	80037f0 <TIM_SlaveTimer_SetConfig+0xb8>
 80037e4:	f44f 51c1 	mov.w	r1, #6176	; 0x1820
 80037e8:	48a0      	ldr	r0, [pc, #640]	; (8003a6c <TIM_SlaveTimer_SetConfig+0x334>)
 80037ea:	f001 fd3b 	bl	8005264 <assert_failed>
 80037ee:	6921      	ldr	r1, [r4, #16]
 80037f0:	6828      	ldr	r0, [r5, #0]
 80037f2:	68e3      	ldr	r3, [r4, #12]
 80037f4:	6882      	ldr	r2, [r0, #8]
 80037f6:	68a4      	ldr	r4, [r4, #8]
 80037f8:	f422 427f 	bic.w	r2, r2, #65280	; 0xff00
 80037fc:	4323      	orrs	r3, r4
 80037fe:	4313      	orrs	r3, r2
 8003800:	ea43 2301 	orr.w	r3, r3, r1, lsl #8
 8003804:	6083      	str	r3, [r0, #8]
 8003806:	2000      	movs	r0, #0
 8003808:	bd70      	pop	{r4, r5, r6, pc}
 800380a:	2940      	cmp	r1, #64	; 0x40
 800380c:	d14f      	bne.n	80038ae <TIM_SlaveTimer_SetConfig+0x176>
 800380e:	4b96      	ldr	r3, [pc, #600]	; (8003a68 <TIM_SlaveTimer_SetConfig+0x330>)
 8003810:	429a      	cmp	r2, r3
 8003812:	d02f      	beq.n	8003874 <TIM_SlaveTimer_SetConfig+0x13c>
 8003814:	f1b2 4f80 	cmp.w	r2, #1073741824	; 0x40000000
 8003818:	d02c      	beq.n	8003874 <TIM_SlaveTimer_SetConfig+0x13c>
 800381a:	f5a3 437c 	sub.w	r3, r3, #64512	; 0xfc00
 800381e:	429a      	cmp	r2, r3
 8003820:	d028      	beq.n	8003874 <TIM_SlaveTimer_SetConfig+0x13c>
 8003822:	f503 6380 	add.w	r3, r3, #1024	; 0x400
 8003826:	429a      	cmp	r2, r3
 8003828:	d024      	beq.n	8003874 <TIM_SlaveTimer_SetConfig+0x13c>
 800382a:	f503 6380 	add.w	r3, r3, #1024	; 0x400
 800382e:	429a      	cmp	r2, r3
 8003830:	d020      	beq.n	8003874 <TIM_SlaveTimer_SetConfig+0x13c>
 8003832:	f503 4378 	add.w	r3, r3, #63488	; 0xf800
 8003836:	429a      	cmp	r2, r3
 8003838:	d01c      	beq.n	8003874 <TIM_SlaveTimer_SetConfig+0x13c>
 800383a:	f503 5370 	add.w	r3, r3, #15360	; 0x3c00
 800383e:	429a      	cmp	r2, r3
 8003840:	d018      	beq.n	8003874 <TIM_SlaveTimer_SetConfig+0x13c>
 8003842:	f503 6380 	add.w	r3, r3, #1024	; 0x400
 8003846:	429a      	cmp	r2, r3
 8003848:	d014      	beq.n	8003874 <TIM_SlaveTimer_SetConfig+0x13c>
 800384a:	f503 6380 	add.w	r3, r3, #1024	; 0x400
 800384e:	429a      	cmp	r2, r3
 8003850:	d010      	beq.n	8003874 <TIM_SlaveTimer_SetConfig+0x13c>
 8003852:	f5a3 3398 	sub.w	r3, r3, #77824	; 0x13000
 8003856:	429a      	cmp	r2, r3
 8003858:	d00c      	beq.n	8003874 <TIM_SlaveTimer_SetConfig+0x13c>
 800385a:	f503 6380 	add.w	r3, r3, #1024	; 0x400
 800385e:	429a      	cmp	r2, r3
 8003860:	d008      	beq.n	8003874 <TIM_SlaveTimer_SetConfig+0x13c>
 8003862:	f503 6380 	add.w	r3, r3, #1024	; 0x400
 8003866:	429a      	cmp	r2, r3
 8003868:	d004      	beq.n	8003874 <TIM_SlaveTimer_SetConfig+0x13c>
 800386a:	f641 012c 	movw	r1, #6188	; 0x182c
 800386e:	487f      	ldr	r0, [pc, #508]	; (8003a6c <TIM_SlaveTimer_SetConfig+0x334>)
 8003870:	f001 fcf8 	bl	8005264 <assert_failed>
 8003874:	6923      	ldr	r3, [r4, #16]
 8003876:	2b0f      	cmp	r3, #15
 8003878:	f200 80e4 	bhi.w	8003a44 <TIM_SlaveTimer_SetConfig+0x30c>
 800387c:	6823      	ldr	r3, [r4, #0]
 800387e:	2b05      	cmp	r3, #5
 8003880:	f000 80de 	beq.w	8003a40 <TIM_SlaveTimer_SetConfig+0x308>
 8003884:	682b      	ldr	r3, [r5, #0]
 8003886:	6920      	ldr	r0, [r4, #16]
 8003888:	6a1c      	ldr	r4, [r3, #32]
 800388a:	6a19      	ldr	r1, [r3, #32]
 800388c:	f021 0101 	bic.w	r1, r1, #1
 8003890:	6219      	str	r1, [r3, #32]
 8003892:	699a      	ldr	r2, [r3, #24]
 8003894:	f022 02f0 	bic.w	r2, r2, #240	; 0xf0
 8003898:	ea42 1200 	orr.w	r2, r2, r0, lsl #4
 800389c:	619a      	str	r2, [r3, #24]
 800389e:	2000      	movs	r0, #0
 80038a0:	621c      	str	r4, [r3, #32]
 80038a2:	bd70      	pop	{r4, r5, r6, pc}
 80038a4:	2910      	cmp	r1, #16
 80038a6:	d004      	beq.n	80038b2 <TIM_SlaveTimer_SetConfig+0x17a>
 80038a8:	2920      	cmp	r1, #32
 80038aa:	d002      	beq.n	80038b2 <TIM_SlaveTimer_SetConfig+0x17a>
 80038ac:	b109      	cbz	r1, 80038b2 <TIM_SlaveTimer_SetConfig+0x17a>
 80038ae:	2000      	movs	r0, #0
 80038b0:	bd70      	pop	{r4, r5, r6, pc}
 80038b2:	4b6d      	ldr	r3, [pc, #436]	; (8003a68 <TIM_SlaveTimer_SetConfig+0x330>)
 80038b4:	429a      	cmp	r2, r3
 80038b6:	d0fa      	beq.n	80038ae <TIM_SlaveTimer_SetConfig+0x176>
 80038b8:	f1b2 4f80 	cmp.w	r2, #1073741824	; 0x40000000
 80038bc:	d0f7      	beq.n	80038ae <TIM_SlaveTimer_SetConfig+0x176>
 80038be:	f5a3 437c 	sub.w	r3, r3, #64512	; 0xfc00
 80038c2:	429a      	cmp	r2, r3
 80038c4:	d0f3      	beq.n	80038ae <TIM_SlaveTimer_SetConfig+0x176>
 80038c6:	f503 6380 	add.w	r3, r3, #1024	; 0x400
 80038ca:	429a      	cmp	r2, r3
 80038cc:	d0ef      	beq.n	80038ae <TIM_SlaveTimer_SetConfig+0x176>
 80038ce:	f503 6380 	add.w	r3, r3, #1024	; 0x400
 80038d2:	429a      	cmp	r2, r3
 80038d4:	d0eb      	beq.n	80038ae <TIM_SlaveTimer_SetConfig+0x176>
 80038d6:	f503 4378 	add.w	r3, r3, #63488	; 0xf800
 80038da:	429a      	cmp	r2, r3
 80038dc:	d0e7      	beq.n	80038ae <TIM_SlaveTimer_SetConfig+0x176>
 80038de:	f503 5370 	add.w	r3, r3, #15360	; 0x3c00
 80038e2:	429a      	cmp	r2, r3
 80038e4:	d0e3      	beq.n	80038ae <TIM_SlaveTimer_SetConfig+0x176>
 80038e6:	f5a3 3394 	sub.w	r3, r3, #75776	; 0x12800
 80038ea:	429a      	cmp	r2, r3
 80038ec:	d0df      	beq.n	80038ae <TIM_SlaveTimer_SetConfig+0x176>
 80038ee:	f641 0165 	movw	r1, #6245	; 0x1865
 80038f2:	485e      	ldr	r0, [pc, #376]	; (8003a6c <TIM_SlaveTimer_SetConfig+0x334>)
 80038f4:	f001 fcb6 	bl	8005264 <assert_failed>
 80038f8:	2000      	movs	r0, #0
 80038fa:	bd70      	pop	{r4, r5, r6, pc}
 80038fc:	4b5a      	ldr	r3, [pc, #360]	; (8003a68 <TIM_SlaveTimer_SetConfig+0x330>)
 80038fe:	429a      	cmp	r2, r3
 8003900:	d01f      	beq.n	8003942 <TIM_SlaveTimer_SetConfig+0x20a>
 8003902:	f1b2 4f80 	cmp.w	r2, #1073741824	; 0x40000000
 8003906:	d01c      	beq.n	8003942 <TIM_SlaveTimer_SetConfig+0x20a>
 8003908:	f5a3 437c 	sub.w	r3, r3, #64512	; 0xfc00
 800390c:	429a      	cmp	r2, r3
 800390e:	d018      	beq.n	8003942 <TIM_SlaveTimer_SetConfig+0x20a>
 8003910:	f503 6380 	add.w	r3, r3, #1024	; 0x400
 8003914:	429a      	cmp	r2, r3
 8003916:	d014      	beq.n	8003942 <TIM_SlaveTimer_SetConfig+0x20a>
 8003918:	f503 6380 	add.w	r3, r3, #1024	; 0x400
 800391c:	429a      	cmp	r2, r3
 800391e:	d010      	beq.n	8003942 <TIM_SlaveTimer_SetConfig+0x20a>
 8003920:	f503 4378 	add.w	r3, r3, #63488	; 0xf800
 8003924:	429a      	cmp	r2, r3
 8003926:	d00c      	beq.n	8003942 <TIM_SlaveTimer_SetConfig+0x20a>
 8003928:	f503 5370 	add.w	r3, r3, #15360	; 0x3c00
 800392c:	429a      	cmp	r2, r3
 800392e:	d008      	beq.n	8003942 <TIM_SlaveTimer_SetConfig+0x20a>
 8003930:	f5a3 3394 	sub.w	r3, r3, #75776	; 0x12800
 8003934:	429a      	cmp	r2, r3
 8003936:	d004      	beq.n	8003942 <TIM_SlaveTimer_SetConfig+0x20a>
 8003938:	f641 0154 	movw	r1, #6228	; 0x1854
 800393c:	484b      	ldr	r0, [pc, #300]	; (8003a6c <TIM_SlaveTimer_SetConfig+0x334>)
 800393e:	f001 fc91 	bl	8005264 <assert_failed>
 8003942:	68a3      	ldr	r3, [r4, #8]
 8003944:	f5b3 4f00 	cmp.w	r3, #32768	; 0x8000
 8003948:	d005      	beq.n	8003956 <TIM_SlaveTimer_SetConfig+0x21e>
 800394a:	f033 0202 	bics.w	r2, r3, #2
 800394e:	d002      	beq.n	8003956 <TIM_SlaveTimer_SetConfig+0x21e>
 8003950:	2b0a      	cmp	r3, #10
 8003952:	f040 808d 	bne.w	8003a70 <TIM_SlaveTimer_SetConfig+0x338>
 8003956:	6926      	ldr	r6, [r4, #16]
 8003958:	2e0f      	cmp	r6, #15
 800395a:	d905      	bls.n	8003968 <TIM_SlaveTimer_SetConfig+0x230>
 800395c:	f641 0156 	movw	r1, #6230	; 0x1856
 8003960:	4842      	ldr	r0, [pc, #264]	; (8003a6c <TIM_SlaveTimer_SetConfig+0x334>)
 8003962:	f001 fc7f 	bl	8005264 <assert_failed>
 8003966:	6926      	ldr	r6, [r4, #16]
 8003968:	682b      	ldr	r3, [r5, #0]
 800396a:	68a4      	ldr	r4, [r4, #8]
 800396c:	6a18      	ldr	r0, [r3, #32]
 800396e:	f020 0010 	bic.w	r0, r0, #16
 8003972:	6218      	str	r0, [r3, #32]
 8003974:	6999      	ldr	r1, [r3, #24]
 8003976:	6a1a      	ldr	r2, [r3, #32]
 8003978:	f421 4170 	bic.w	r1, r1, #61440	; 0xf000
 800397c:	f022 02a0 	bic.w	r2, r2, #160	; 0xa0
 8003980:	ea41 3106 	orr.w	r1, r1, r6, lsl #12
 8003984:	ea42 1204 	orr.w	r2, r2, r4, lsl #4
 8003988:	6199      	str	r1, [r3, #24]
 800398a:	2000      	movs	r0, #0
 800398c:	621a      	str	r2, [r3, #32]
 800398e:	bd70      	pop	{r4, r5, r6, pc}
 8003990:	4b35      	ldr	r3, [pc, #212]	; (8003a68 <TIM_SlaveTimer_SetConfig+0x330>)
 8003992:	429a      	cmp	r2, r3
 8003994:	d02f      	beq.n	80039f6 <TIM_SlaveTimer_SetConfig+0x2be>
 8003996:	f1b2 4f80 	cmp.w	r2, #1073741824	; 0x40000000
 800399a:	d02c      	beq.n	80039f6 <TIM_SlaveTimer_SetConfig+0x2be>
 800399c:	f5a3 437c 	sub.w	r3, r3, #64512	; 0xfc00
 80039a0:	429a      	cmp	r2, r3
 80039a2:	d028      	beq.n	80039f6 <TIM_SlaveTimer_SetConfig+0x2be>
 80039a4:	f503 6380 	add.w	r3, r3, #1024	; 0x400
 80039a8:	429a      	cmp	r2, r3
 80039aa:	d024      	beq.n	80039f6 <TIM_SlaveTimer_SetConfig+0x2be>
 80039ac:	f503 6380 	add.w	r3, r3, #1024	; 0x400
 80039b0:	429a      	cmp	r2, r3
 80039b2:	d020      	beq.n	80039f6 <TIM_SlaveTimer_SetConfig+0x2be>
 80039b4:	f503 4378 	add.w	r3, r3, #63488	; 0xf800
 80039b8:	429a      	cmp	r2, r3
 80039ba:	d01c      	beq.n	80039f6 <TIM_SlaveTimer_SetConfig+0x2be>
 80039bc:	f503 5370 	add.w	r3, r3, #15360	; 0x3c00
 80039c0:	429a      	cmp	r2, r3
 80039c2:	d018      	beq.n	80039f6 <TIM_SlaveTimer_SetConfig+0x2be>
 80039c4:	f503 6380 	add.w	r3, r3, #1024	; 0x400
 80039c8:	429a      	cmp	r2, r3
 80039ca:	d014      	beq.n	80039f6 <TIM_SlaveTimer_SetConfig+0x2be>
 80039cc:	f503 6380 	add.w	r3, r3, #1024	; 0x400
 80039d0:	429a      	cmp	r2, r3
 80039d2:	d010      	beq.n	80039f6 <TIM_SlaveTimer_SetConfig+0x2be>
 80039d4:	f5a3 3398 	sub.w	r3, r3, #77824	; 0x13000
 80039d8:	429a      	cmp	r2, r3
 80039da:	d00c      	beq.n	80039f6 <TIM_SlaveTimer_SetConfig+0x2be>
 80039dc:	f503 6380 	add.w	r3, r3, #1024	; 0x400
 80039e0:	429a      	cmp	r2, r3
 80039e2:	d008      	beq.n	80039f6 <TIM_SlaveTimer_SetConfig+0x2be>
 80039e4:	f503 6380 	add.w	r3, r3, #1024	; 0x400
 80039e8:	429a      	cmp	r2, r3
 80039ea:	d004      	beq.n	80039f6 <TIM_SlaveTimer_SetConfig+0x2be>
 80039ec:	f641 0146 	movw	r1, #6214	; 0x1846
 80039f0:	481e      	ldr	r0, [pc, #120]	; (8003a6c <TIM_SlaveTimer_SetConfig+0x334>)
 80039f2:	f001 fc37 	bl	8005264 <assert_failed>
 80039f6:	68a3      	ldr	r3, [r4, #8]
 80039f8:	f5b3 4f00 	cmp.w	r3, #32768	; 0x8000
 80039fc:	d004      	beq.n	8003a08 <TIM_SlaveTimer_SetConfig+0x2d0>
 80039fe:	f033 0202 	bics.w	r2, r3, #2
 8003a02:	d001      	beq.n	8003a08 <TIM_SlaveTimer_SetConfig+0x2d0>
 8003a04:	2b0a      	cmp	r3, #10
 8003a06:	d129      	bne.n	8003a5c <TIM_SlaveTimer_SetConfig+0x324>
 8003a08:	6926      	ldr	r6, [r4, #16]
 8003a0a:	2e0f      	cmp	r6, #15
 8003a0c:	d905      	bls.n	8003a1a <TIM_SlaveTimer_SetConfig+0x2e2>
 8003a0e:	f641 0148 	movw	r1, #6216	; 0x1848
 8003a12:	4816      	ldr	r0, [pc, #88]	; (8003a6c <TIM_SlaveTimer_SetConfig+0x334>)
 8003a14:	f001 fc26 	bl	8005264 <assert_failed>
 8003a18:	6926      	ldr	r6, [r4, #16]
 8003a1a:	682b      	ldr	r3, [r5, #0]
 8003a1c:	68a1      	ldr	r1, [r4, #8]
 8003a1e:	6a18      	ldr	r0, [r3, #32]
 8003a20:	6a1c      	ldr	r4, [r3, #32]
 8003a22:	f024 0401 	bic.w	r4, r4, #1
 8003a26:	621c      	str	r4, [r3, #32]
 8003a28:	699a      	ldr	r2, [r3, #24]
 8003a2a:	f020 000a 	bic.w	r0, r0, #10
 8003a2e:	f022 02f0 	bic.w	r2, r2, #240	; 0xf0
 8003a32:	4301      	orrs	r1, r0
 8003a34:	ea42 1206 	orr.w	r2, r2, r6, lsl #4
 8003a38:	619a      	str	r2, [r3, #24]
 8003a3a:	2000      	movs	r0, #0
 8003a3c:	6219      	str	r1, [r3, #32]
 8003a3e:	bd70      	pop	{r4, r5, r6, pc}
 8003a40:	2001      	movs	r0, #1
 8003a42:	bd70      	pop	{r4, r5, r6, pc}
 8003a44:	f641 012d 	movw	r1, #6189	; 0x182d
 8003a48:	4808      	ldr	r0, [pc, #32]	; (8003a6c <TIM_SlaveTimer_SetConfig+0x334>)
 8003a4a:	f001 fc0b 	bl	8005264 <assert_failed>
 8003a4e:	e715      	b.n	800387c <TIM_SlaveTimer_SetConfig+0x144>
 8003a50:	f641 011f 	movw	r1, #6175	; 0x181f
 8003a54:	4805      	ldr	r0, [pc, #20]	; (8003a6c <TIM_SlaveTimer_SetConfig+0x334>)
 8003a56:	f001 fc05 	bl	8005264 <assert_failed>
 8003a5a:	e6c0      	b.n	80037de <TIM_SlaveTimer_SetConfig+0xa6>
 8003a5c:	f641 0147 	movw	r1, #6215	; 0x1847
 8003a60:	4802      	ldr	r0, [pc, #8]	; (8003a6c <TIM_SlaveTimer_SetConfig+0x334>)
 8003a62:	f001 fbff 	bl	8005264 <assert_failed>
 8003a66:	e7cf      	b.n	8003a08 <TIM_SlaveTimer_SetConfig+0x2d0>
 8003a68:	40010000 	.word	0x40010000
 8003a6c:	0800b2b0 	.word	0x0800b2b0
 8003a70:	f641 0155 	movw	r1, #6229	; 0x1855
 8003a74:	4801      	ldr	r0, [pc, #4]	; (8003a7c <TIM_SlaveTimer_SetConfig+0x344>)
 8003a76:	f001 fbf5 	bl	8005264 <assert_failed>
 8003a7a:	e76c      	b.n	8003956 <TIM_SlaveTimer_SetConfig+0x21e>
 8003a7c:	0800b2b0 	.word	0x0800b2b0

08003a80 <HAL_TIM_IC_MspInit>:
 8003a80:	4770      	bx	lr
 8003a82:	bf00      	nop

08003a84 <HAL_TIM_ConfigClockSource>:
 8003a84:	f890 303c 	ldrb.w	r3, [r0, #60]	; 0x3c
 8003a88:	2b01      	cmp	r3, #1
 8003a8a:	f000 8168 	beq.w	8003d5e <HAL_TIM_ConfigClockSource+0x2da>
 8003a8e:	680a      	ldr	r2, [r1, #0]
 8003a90:	b570      	push	{r4, r5, r6, lr}
 8003a92:	2302      	movs	r3, #2
 8003a94:	460d      	mov	r5, r1
 8003a96:	f5b2 5f80 	cmp.w	r2, #4096	; 0x1000
 8003a9a:	f04f 0101 	mov.w	r1, #1
 8003a9e:	4604      	mov	r4, r0
 8003aa0:	f880 103c 	strb.w	r1, [r0, #60]	; 0x3c
 8003aa4:	f880 303d 	strb.w	r3, [r0, #61]	; 0x3d
 8003aa8:	d071      	beq.n	8003b8e <HAL_TIM_ConfigClockSource+0x10a>
 8003aaa:	f5b2 5f00 	cmp.w	r2, #8192	; 0x2000
 8003aae:	f000 80b1 	beq.w	8003c14 <HAL_TIM_ConfigClockSource+0x190>
 8003ab2:	f032 0330 	bics.w	r3, r2, #48	; 0x30
 8003ab6:	f040 80fa 	bne.w	8003cae <HAL_TIM_ConfigClockSource+0x22a>
 8003aba:	6823      	ldr	r3, [r4, #0]
 8003abc:	6899      	ldr	r1, [r3, #8]
 8003abe:	f421 417f 	bic.w	r1, r1, #65280	; 0xff00
 8003ac2:	f021 0177 	bic.w	r1, r1, #119	; 0x77
 8003ac6:	2a40      	cmp	r2, #64	; 0x40
 8003ac8:	6099      	str	r1, [r3, #8]
 8003aca:	f000 819c 	beq.w	8003e06 <HAL_TIM_ConfigClockSource+0x382>
 8003ace:	f240 81e6 	bls.w	8003e9e <HAL_TIM_ConfigClockSource+0x41a>
 8003ad2:	2a70      	cmp	r2, #112	; 0x70
 8003ad4:	f000 80f5 	beq.w	8003cc2 <HAL_TIM_ConfigClockSource+0x23e>
 8003ad8:	f200 823c 	bhi.w	8003f54 <HAL_TIM_ConfigClockSource+0x4d0>
 8003adc:	2a50      	cmp	r2, #80	; 0x50
 8003ade:	f000 8145 	beq.w	8003d6c <HAL_TIM_ConfigClockSource+0x2e8>
 8003ae2:	2a60      	cmp	r2, #96	; 0x60
 8003ae4:	d14c      	bne.n	8003b80 <HAL_TIM_ConfigClockSource+0xfc>
 8003ae6:	4a9f      	ldr	r2, [pc, #636]	; (8003d64 <HAL_TIM_ConfigClockSource+0x2e0>)
 8003ae8:	4293      	cmp	r3, r2
 8003aea:	d01f      	beq.n	8003b2c <HAL_TIM_ConfigClockSource+0xa8>
 8003aec:	f1b3 4f80 	cmp.w	r3, #1073741824	; 0x40000000
 8003af0:	d01c      	beq.n	8003b2c <HAL_TIM_ConfigClockSource+0xa8>
 8003af2:	f5a2 427c 	sub.w	r2, r2, #64512	; 0xfc00
 8003af6:	4293      	cmp	r3, r2
 8003af8:	d018      	beq.n	8003b2c <HAL_TIM_ConfigClockSource+0xa8>
 8003afa:	f502 6280 	add.w	r2, r2, #1024	; 0x400
 8003afe:	4293      	cmp	r3, r2
 8003b00:	d014      	beq.n	8003b2c <HAL_TIM_ConfigClockSource+0xa8>
 8003b02:	f502 6280 	add.w	r2, r2, #1024	; 0x400
 8003b06:	4293      	cmp	r3, r2
 8003b08:	d010      	beq.n	8003b2c <HAL_TIM_ConfigClockSource+0xa8>
 8003b0a:	f502 4278 	add.w	r2, r2, #63488	; 0xf800
 8003b0e:	4293      	cmp	r3, r2
 8003b10:	d00c      	beq.n	8003b2c <HAL_TIM_ConfigClockSource+0xa8>
 8003b12:	f502 5270 	add.w	r2, r2, #15360	; 0x3c00
 8003b16:	4293      	cmp	r3, r2
 8003b18:	d008      	beq.n	8003b2c <HAL_TIM_ConfigClockSource+0xa8>
 8003b1a:	f5a2 3294 	sub.w	r2, r2, #75776	; 0x12800
 8003b1e:	4293      	cmp	r3, r2
 8003b20:	d004      	beq.n	8003b2c <HAL_TIM_ConfigClockSource+0xa8>
 8003b22:	f241 11da 	movw	r1, #4570	; 0x11da
 8003b26:	4890      	ldr	r0, [pc, #576]	; (8003d68 <HAL_TIM_ConfigClockSource+0x2e4>)
 8003b28:	f001 fb9c 	bl	8005264 <assert_failed>
 8003b2c:	686b      	ldr	r3, [r5, #4]
 8003b2e:	f5b3 4f00 	cmp.w	r3, #32768	; 0x8000
 8003b32:	d009      	beq.n	8003b48 <HAL_TIM_ConfigClockSource+0xc4>
 8003b34:	f033 0202 	bics.w	r2, r3, #2
 8003b38:	d006      	beq.n	8003b48 <HAL_TIM_ConfigClockSource+0xc4>
 8003b3a:	2b0a      	cmp	r3, #10
 8003b3c:	d004      	beq.n	8003b48 <HAL_TIM_ConfigClockSource+0xc4>
 8003b3e:	f241 11dd 	movw	r1, #4573	; 0x11dd
 8003b42:	4889      	ldr	r0, [pc, #548]	; (8003d68 <HAL_TIM_ConfigClockSource+0x2e4>)
 8003b44:	f001 fb8e 	bl	8005264 <assert_failed>
 8003b48:	68ee      	ldr	r6, [r5, #12]
 8003b4a:	2e0f      	cmp	r6, #15
 8003b4c:	f200 81fb 	bhi.w	8003f46 <HAL_TIM_ConfigClockSource+0x4c2>
 8003b50:	6823      	ldr	r3, [r4, #0]
 8003b52:	686d      	ldr	r5, [r5, #4]
 8003b54:	6a18      	ldr	r0, [r3, #32]
 8003b56:	f020 0010 	bic.w	r0, r0, #16
 8003b5a:	6218      	str	r0, [r3, #32]
 8003b5c:	6999      	ldr	r1, [r3, #24]
 8003b5e:	6a1a      	ldr	r2, [r3, #32]
 8003b60:	f421 4170 	bic.w	r1, r1, #61440	; 0xf000
 8003b64:	f022 02a0 	bic.w	r2, r2, #160	; 0xa0
 8003b68:	ea42 1205 	orr.w	r2, r2, r5, lsl #4
 8003b6c:	ea41 3106 	orr.w	r1, r1, r6, lsl #12
 8003b70:	6199      	str	r1, [r3, #24]
 8003b72:	621a      	str	r2, [r3, #32]
 8003b74:	689a      	ldr	r2, [r3, #8]
 8003b76:	f022 0270 	bic.w	r2, r2, #112	; 0x70
 8003b7a:	f042 0267 	orr.w	r2, r2, #103	; 0x67
 8003b7e:	609a      	str	r2, [r3, #8]
 8003b80:	2301      	movs	r3, #1
 8003b82:	2000      	movs	r0, #0
 8003b84:	f884 303d 	strb.w	r3, [r4, #61]	; 0x3d
 8003b88:	f884 003c 	strb.w	r0, [r4, #60]	; 0x3c
 8003b8c:	bd70      	pop	{r4, r5, r6, pc}
 8003b8e:	6803      	ldr	r3, [r0, #0]
 8003b90:	689a      	ldr	r2, [r3, #8]
 8003b92:	f422 427f 	bic.w	r2, r2, #65280	; 0xff00
 8003b96:	f022 0277 	bic.w	r2, r2, #119	; 0x77
 8003b9a:	609a      	str	r2, [r3, #8]
 8003b9c:	4a71      	ldr	r2, [pc, #452]	; (8003d64 <HAL_TIM_ConfigClockSource+0x2e0>)
 8003b9e:	4293      	cmp	r3, r2
 8003ba0:	d0ee      	beq.n	8003b80 <HAL_TIM_ConfigClockSource+0xfc>
 8003ba2:	f1b3 4f80 	cmp.w	r3, #1073741824	; 0x40000000
 8003ba6:	d0eb      	beq.n	8003b80 <HAL_TIM_ConfigClockSource+0xfc>
 8003ba8:	f5a2 427c 	sub.w	r2, r2, #64512	; 0xfc00
 8003bac:	4293      	cmp	r3, r2
 8003bae:	d0e7      	beq.n	8003b80 <HAL_TIM_ConfigClockSource+0xfc>
 8003bb0:	f502 6280 	add.w	r2, r2, #1024	; 0x400
 8003bb4:	4293      	cmp	r3, r2
 8003bb6:	d0e3      	beq.n	8003b80 <HAL_TIM_ConfigClockSource+0xfc>
 8003bb8:	f502 6280 	add.w	r2, r2, #1024	; 0x400
 8003bbc:	4293      	cmp	r3, r2
 8003bbe:	d0df      	beq.n	8003b80 <HAL_TIM_ConfigClockSource+0xfc>
 8003bc0:	f502 6280 	add.w	r2, r2, #1024	; 0x400
 8003bc4:	4293      	cmp	r3, r2
 8003bc6:	d0db      	beq.n	8003b80 <HAL_TIM_ConfigClockSource+0xfc>
 8003bc8:	f502 6280 	add.w	r2, r2, #1024	; 0x400
 8003bcc:	4293      	cmp	r3, r2
 8003bce:	d0d7      	beq.n	8003b80 <HAL_TIM_ConfigClockSource+0xfc>
 8003bd0:	f502 4270 	add.w	r2, r2, #61440	; 0xf000
 8003bd4:	4293      	cmp	r3, r2
 8003bd6:	d0d3      	beq.n	8003b80 <HAL_TIM_ConfigClockSource+0xfc>
 8003bd8:	f502 5270 	add.w	r2, r2, #15360	; 0x3c00
 8003bdc:	4293      	cmp	r3, r2
 8003bde:	d0cf      	beq.n	8003b80 <HAL_TIM_ConfigClockSource+0xfc>
 8003be0:	f502 6280 	add.w	r2, r2, #1024	; 0x400
 8003be4:	4293      	cmp	r3, r2
 8003be6:	d0cb      	beq.n	8003b80 <HAL_TIM_ConfigClockSource+0xfc>
 8003be8:	f502 6280 	add.w	r2, r2, #1024	; 0x400
 8003bec:	4293      	cmp	r3, r2
 8003bee:	d0c7      	beq.n	8003b80 <HAL_TIM_ConfigClockSource+0xfc>
 8003bf0:	f5a2 3298 	sub.w	r2, r2, #77824	; 0x13000
 8003bf4:	4293      	cmp	r3, r2
 8003bf6:	d0c3      	beq.n	8003b80 <HAL_TIM_ConfigClockSource+0xfc>
 8003bf8:	f502 6280 	add.w	r2, r2, #1024	; 0x400
 8003bfc:	4293      	cmp	r3, r2
 8003bfe:	d0bf      	beq.n	8003b80 <HAL_TIM_ConfigClockSource+0xfc>
 8003c00:	f502 6280 	add.w	r2, r2, #1024	; 0x400
 8003c04:	4293      	cmp	r3, r2
 8003c06:	d0bb      	beq.n	8003b80 <HAL_TIM_ConfigClockSource+0xfc>
 8003c08:	f241 1197 	movw	r1, #4503	; 0x1197
 8003c0c:	4856      	ldr	r0, [pc, #344]	; (8003d68 <HAL_TIM_ConfigClockSource+0x2e4>)
 8003c0e:	f001 fb29 	bl	8005264 <assert_failed>
 8003c12:	e7b5      	b.n	8003b80 <HAL_TIM_ConfigClockSource+0xfc>
 8003c14:	6803      	ldr	r3, [r0, #0]
 8003c16:	689a      	ldr	r2, [r3, #8]
 8003c18:	f422 427f 	bic.w	r2, r2, #65280	; 0xff00
 8003c1c:	f022 0277 	bic.w	r2, r2, #119	; 0x77
 8003c20:	609a      	str	r2, [r3, #8]
 8003c22:	4a50      	ldr	r2, [pc, #320]	; (8003d64 <HAL_TIM_ConfigClockSource+0x2e0>)
 8003c24:	4293      	cmp	r3, r2
 8003c26:	d017      	beq.n	8003c58 <HAL_TIM_ConfigClockSource+0x1d4>
 8003c28:	f1b3 4f80 	cmp.w	r3, #1073741824	; 0x40000000
 8003c2c:	d014      	beq.n	8003c58 <HAL_TIM_ConfigClockSource+0x1d4>
 8003c2e:	f5a2 427c 	sub.w	r2, r2, #64512	; 0xfc00
 8003c32:	4293      	cmp	r3, r2
 8003c34:	d010      	beq.n	8003c58 <HAL_TIM_ConfigClockSource+0x1d4>
 8003c36:	f502 6280 	add.w	r2, r2, #1024	; 0x400
 8003c3a:	4293      	cmp	r3, r2
 8003c3c:	d00c      	beq.n	8003c58 <HAL_TIM_ConfigClockSource+0x1d4>
 8003c3e:	f502 6280 	add.w	r2, r2, #1024	; 0x400
 8003c42:	4293      	cmp	r3, r2
 8003c44:	d008      	beq.n	8003c58 <HAL_TIM_ConfigClockSource+0x1d4>
 8003c46:	f502 4278 	add.w	r2, r2, #63488	; 0xf800
 8003c4a:	4293      	cmp	r3, r2
 8003c4c:	d004      	beq.n	8003c58 <HAL_TIM_ConfigClockSource+0x1d4>
 8003c4e:	f241 11b6 	movw	r1, #4534	; 0x11b6
 8003c52:	4845      	ldr	r0, [pc, #276]	; (8003d68 <HAL_TIM_ConfigClockSource+0x2e4>)
 8003c54:	f001 fb06 	bl	8005264 <assert_failed>
 8003c58:	68ab      	ldr	r3, [r5, #8]
 8003c5a:	f433 5340 	bics.w	r3, r3, #12288	; 0x3000
 8003c5e:	d004      	beq.n	8003c6a <HAL_TIM_ConfigClockSource+0x1e6>
 8003c60:	f241 11b9 	movw	r1, #4537	; 0x11b9
 8003c64:	4840      	ldr	r0, [pc, #256]	; (8003d68 <HAL_TIM_ConfigClockSource+0x2e4>)
 8003c66:	f001 fafd 	bl	8005264 <assert_failed>
 8003c6a:	686b      	ldr	r3, [r5, #4]
 8003c6c:	f5b3 4f00 	cmp.w	r3, #32768	; 0x8000
 8003c70:	d009      	beq.n	8003c86 <HAL_TIM_ConfigClockSource+0x202>
 8003c72:	f033 0202 	bics.w	r2, r3, #2
 8003c76:	d006      	beq.n	8003c86 <HAL_TIM_ConfigClockSource+0x202>
 8003c78:	2b0a      	cmp	r3, #10
 8003c7a:	d004      	beq.n	8003c86 <HAL_TIM_ConfigClockSource+0x202>
 8003c7c:	f241 11ba 	movw	r1, #4538	; 0x11ba
 8003c80:	4839      	ldr	r0, [pc, #228]	; (8003d68 <HAL_TIM_ConfigClockSource+0x2e4>)
 8003c82:	f001 faef 	bl	8005264 <assert_failed>
 8003c86:	68e8      	ldr	r0, [r5, #12]
 8003c88:	280f      	cmp	r0, #15
 8003c8a:	f200 8155 	bhi.w	8003f38 <HAL_TIM_ConfigClockSource+0x4b4>
 8003c8e:	6822      	ldr	r2, [r4, #0]
 8003c90:	68ab      	ldr	r3, [r5, #8]
 8003c92:	6891      	ldr	r1, [r2, #8]
 8003c94:	686d      	ldr	r5, [r5, #4]
 8003c96:	f421 417f 	bic.w	r1, r1, #65280	; 0xff00
 8003c9a:	432b      	orrs	r3, r5
 8003c9c:	430b      	orrs	r3, r1
 8003c9e:	ea43 2300 	orr.w	r3, r3, r0, lsl #8
 8003ca2:	6093      	str	r3, [r2, #8]
 8003ca4:	6893      	ldr	r3, [r2, #8]
 8003ca6:	f443 4380 	orr.w	r3, r3, #16384	; 0x4000
 8003caa:	6093      	str	r3, [r2, #8]
 8003cac:	e768      	b.n	8003b80 <HAL_TIM_ConfigClockSource+0xfc>
 8003cae:	2b40      	cmp	r3, #64	; 0x40
 8003cb0:	f43f af03 	beq.w	8003aba <HAL_TIM_ConfigClockSource+0x36>
 8003cb4:	f241 118b 	movw	r1, #4491	; 0x118b
 8003cb8:	482b      	ldr	r0, [pc, #172]	; (8003d68 <HAL_TIM_ConfigClockSource+0x2e4>)
 8003cba:	f001 fad3 	bl	8005264 <assert_failed>
 8003cbe:	682a      	ldr	r2, [r5, #0]
 8003cc0:	e6fb      	b.n	8003aba <HAL_TIM_ConfigClockSource+0x36>
 8003cc2:	4a28      	ldr	r2, [pc, #160]	; (8003d64 <HAL_TIM_ConfigClockSource+0x2e0>)
 8003cc4:	4293      	cmp	r3, r2
 8003cc6:	d01f      	beq.n	8003d08 <HAL_TIM_ConfigClockSource+0x284>
 8003cc8:	f1b3 4f80 	cmp.w	r3, #1073741824	; 0x40000000
 8003ccc:	d01c      	beq.n	8003d08 <HAL_TIM_ConfigClockSource+0x284>
 8003cce:	f5a2 427c 	sub.w	r2, r2, #64512	; 0xfc00
 8003cd2:	4293      	cmp	r3, r2
 8003cd4:	d018      	beq.n	8003d08 <HAL_TIM_ConfigClockSource+0x284>
 8003cd6:	f502 6280 	add.w	r2, r2, #1024	; 0x400
 8003cda:	4293      	cmp	r3, r2
 8003cdc:	d014      	beq.n	8003d08 <HAL_TIM_ConfigClockSource+0x284>
 8003cde:	f502 6280 	add.w	r2, r2, #1024	; 0x400
 8003ce2:	4293      	cmp	r3, r2
 8003ce4:	d010      	beq.n	8003d08 <HAL_TIM_ConfigClockSource+0x284>
 8003ce6:	f502 4278 	add.w	r2, r2, #63488	; 0xf800
 8003cea:	4293      	cmp	r3, r2
 8003cec:	d00c      	beq.n	8003d08 <HAL_TIM_ConfigClockSource+0x284>
 8003cee:	f502 5270 	add.w	r2, r2, #15360	; 0x3c00
 8003cf2:	4293      	cmp	r3, r2
 8003cf4:	d008      	beq.n	8003d08 <HAL_TIM_ConfigClockSource+0x284>
 8003cf6:	f5a2 3294 	sub.w	r2, r2, #75776	; 0x12800
 8003cfa:	4293      	cmp	r3, r2
 8003cfc:	d004      	beq.n	8003d08 <HAL_TIM_ConfigClockSource+0x284>
 8003cfe:	f241 119e 	movw	r1, #4510	; 0x119e
 8003d02:	4819      	ldr	r0, [pc, #100]	; (8003d68 <HAL_TIM_ConfigClockSource+0x2e4>)
 8003d04:	f001 faae 	bl	8005264 <assert_failed>
 8003d08:	68ab      	ldr	r3, [r5, #8]
 8003d0a:	f433 5340 	bics.w	r3, r3, #12288	; 0x3000
 8003d0e:	d004      	beq.n	8003d1a <HAL_TIM_ConfigClockSource+0x296>
 8003d10:	f241 11a1 	movw	r1, #4513	; 0x11a1
 8003d14:	4814      	ldr	r0, [pc, #80]	; (8003d68 <HAL_TIM_ConfigClockSource+0x2e4>)
 8003d16:	f001 faa5 	bl	8005264 <assert_failed>
 8003d1a:	686b      	ldr	r3, [r5, #4]
 8003d1c:	f5b3 4f00 	cmp.w	r3, #32768	; 0x8000
 8003d20:	d009      	beq.n	8003d36 <HAL_TIM_ConfigClockSource+0x2b2>
 8003d22:	f033 0202 	bics.w	r2, r3, #2
 8003d26:	d006      	beq.n	8003d36 <HAL_TIM_ConfigClockSource+0x2b2>
 8003d28:	2b0a      	cmp	r3, #10
 8003d2a:	d004      	beq.n	8003d36 <HAL_TIM_ConfigClockSource+0x2b2>
 8003d2c:	f241 11a2 	movw	r1, #4514	; 0x11a2
 8003d30:	480d      	ldr	r0, [pc, #52]	; (8003d68 <HAL_TIM_ConfigClockSource+0x2e4>)
 8003d32:	f001 fa97 	bl	8005264 <assert_failed>
 8003d36:	68e8      	ldr	r0, [r5, #12]
 8003d38:	280f      	cmp	r0, #15
 8003d3a:	f200 80e8 	bhi.w	8003f0e <HAL_TIM_ConfigClockSource+0x48a>
 8003d3e:	6822      	ldr	r2, [r4, #0]
 8003d40:	68ab      	ldr	r3, [r5, #8]
 8003d42:	6891      	ldr	r1, [r2, #8]
 8003d44:	686d      	ldr	r5, [r5, #4]
 8003d46:	f421 417f 	bic.w	r1, r1, #65280	; 0xff00
 8003d4a:	432b      	orrs	r3, r5
 8003d4c:	430b      	orrs	r3, r1
 8003d4e:	ea43 2300 	orr.w	r3, r3, r0, lsl #8
 8003d52:	6093      	str	r3, [r2, #8]
 8003d54:	6893      	ldr	r3, [r2, #8]
 8003d56:	f043 0377 	orr.w	r3, r3, #119	; 0x77
 8003d5a:	6093      	str	r3, [r2, #8]
 8003d5c:	e710      	b.n	8003b80 <HAL_TIM_ConfigClockSource+0xfc>
 8003d5e:	2002      	movs	r0, #2
 8003d60:	4770      	bx	lr
 8003d62:	bf00      	nop
 8003d64:	40010000 	.word	0x40010000
 8003d68:	0800b2b0 	.word	0x0800b2b0
 8003d6c:	4a7e      	ldr	r2, [pc, #504]	; (8003f68 <HAL_TIM_ConfigClockSource+0x4e4>)
 8003d6e:	4293      	cmp	r3, r2
 8003d70:	d01f      	beq.n	8003db2 <HAL_TIM_ConfigClockSource+0x32e>
 8003d72:	f1b3 4f80 	cmp.w	r3, #1073741824	; 0x40000000
 8003d76:	d01c      	beq.n	8003db2 <HAL_TIM_ConfigClockSource+0x32e>
 8003d78:	f5a2 427c 	sub.w	r2, r2, #64512	; 0xfc00
 8003d7c:	4293      	cmp	r3, r2
 8003d7e:	d018      	beq.n	8003db2 <HAL_TIM_ConfigClockSource+0x32e>
 8003d80:	f502 6280 	add.w	r2, r2, #1024	; 0x400
 8003d84:	4293      	cmp	r3, r2
 8003d86:	d014      	beq.n	8003db2 <HAL_TIM_ConfigClockSource+0x32e>
 8003d88:	f502 6280 	add.w	r2, r2, #1024	; 0x400
 8003d8c:	4293      	cmp	r3, r2
 8003d8e:	d010      	beq.n	8003db2 <HAL_TIM_ConfigClockSource+0x32e>
 8003d90:	f502 4278 	add.w	r2, r2, #63488	; 0xf800
 8003d94:	4293      	cmp	r3, r2
 8003d96:	d00c      	beq.n	8003db2 <HAL_TIM_ConfigClockSource+0x32e>
 8003d98:	f502 5270 	add.w	r2, r2, #15360	; 0x3c00
 8003d9c:	4293      	cmp	r3, r2
 8003d9e:	d008      	beq.n	8003db2 <HAL_TIM_ConfigClockSource+0x32e>
 8003da0:	f5a2 3294 	sub.w	r2, r2, #75776	; 0x12800
 8003da4:	4293      	cmp	r3, r2
 8003da6:	d004      	beq.n	8003db2 <HAL_TIM_ConfigClockSource+0x32e>
 8003da8:	f241 11ca 	movw	r1, #4554	; 0x11ca
 8003dac:	486f      	ldr	r0, [pc, #444]	; (8003f6c <HAL_TIM_ConfigClockSource+0x4e8>)
 8003dae:	f001 fa59 	bl	8005264 <assert_failed>
 8003db2:	686b      	ldr	r3, [r5, #4]
 8003db4:	f5b3 4f00 	cmp.w	r3, #32768	; 0x8000
 8003db8:	d009      	beq.n	8003dce <HAL_TIM_ConfigClockSource+0x34a>
 8003dba:	f033 0202 	bics.w	r2, r3, #2
 8003dbe:	d006      	beq.n	8003dce <HAL_TIM_ConfigClockSource+0x34a>
 8003dc0:	2b0a      	cmp	r3, #10
 8003dc2:	d004      	beq.n	8003dce <HAL_TIM_ConfigClockSource+0x34a>
 8003dc4:	f241 11cd 	movw	r1, #4557	; 0x11cd
 8003dc8:	4868      	ldr	r0, [pc, #416]	; (8003f6c <HAL_TIM_ConfigClockSource+0x4e8>)
 8003dca:	f001 fa4b 	bl	8005264 <assert_failed>
 8003dce:	68ee      	ldr	r6, [r5, #12]
 8003dd0:	2e0f      	cmp	r6, #15
 8003dd2:	f200 80aa 	bhi.w	8003f2a <HAL_TIM_ConfigClockSource+0x4a6>
 8003dd6:	6823      	ldr	r3, [r4, #0]
 8003dd8:	6869      	ldr	r1, [r5, #4]
 8003dda:	6a18      	ldr	r0, [r3, #32]
 8003ddc:	6a1d      	ldr	r5, [r3, #32]
 8003dde:	f025 0501 	bic.w	r5, r5, #1
 8003de2:	621d      	str	r5, [r3, #32]
 8003de4:	699a      	ldr	r2, [r3, #24]
 8003de6:	f020 000a 	bic.w	r0, r0, #10
 8003dea:	f022 02f0 	bic.w	r2, r2, #240	; 0xf0
 8003dee:	ea42 1206 	orr.w	r2, r2, r6, lsl #4
 8003df2:	4301      	orrs	r1, r0
 8003df4:	619a      	str	r2, [r3, #24]
 8003df6:	6219      	str	r1, [r3, #32]
 8003df8:	689a      	ldr	r2, [r3, #8]
 8003dfa:	f022 0270 	bic.w	r2, r2, #112	; 0x70
 8003dfe:	f042 0257 	orr.w	r2, r2, #87	; 0x57
 8003e02:	609a      	str	r2, [r3, #8]
 8003e04:	e6bc      	b.n	8003b80 <HAL_TIM_ConfigClockSource+0xfc>
 8003e06:	4a58      	ldr	r2, [pc, #352]	; (8003f68 <HAL_TIM_ConfigClockSource+0x4e4>)
 8003e08:	4293      	cmp	r3, r2
 8003e0a:	d01f      	beq.n	8003e4c <HAL_TIM_ConfigClockSource+0x3c8>
 8003e0c:	f1b3 4f80 	cmp.w	r3, #1073741824	; 0x40000000
 8003e10:	d01c      	beq.n	8003e4c <HAL_TIM_ConfigClockSource+0x3c8>
 8003e12:	f5a2 427c 	sub.w	r2, r2, #64512	; 0xfc00
 8003e16:	4293      	cmp	r3, r2
 8003e18:	d018      	beq.n	8003e4c <HAL_TIM_ConfigClockSource+0x3c8>
 8003e1a:	f502 6280 	add.w	r2, r2, #1024	; 0x400
 8003e1e:	4293      	cmp	r3, r2
 8003e20:	d014      	beq.n	8003e4c <HAL_TIM_ConfigClockSource+0x3c8>
 8003e22:	f502 6280 	add.w	r2, r2, #1024	; 0x400
 8003e26:	4293      	cmp	r3, r2
 8003e28:	d010      	beq.n	8003e4c <HAL_TIM_ConfigClockSource+0x3c8>
 8003e2a:	f502 4278 	add.w	r2, r2, #63488	; 0xf800
 8003e2e:	4293      	cmp	r3, r2
 8003e30:	d00c      	beq.n	8003e4c <HAL_TIM_ConfigClockSource+0x3c8>
 8003e32:	f502 5270 	add.w	r2, r2, #15360	; 0x3c00
 8003e36:	4293      	cmp	r3, r2
 8003e38:	d008      	beq.n	8003e4c <HAL_TIM_ConfigClockSource+0x3c8>
 8003e3a:	f5a2 3294 	sub.w	r2, r2, #75776	; 0x12800
 8003e3e:	4293      	cmp	r3, r2
 8003e40:	d004      	beq.n	8003e4c <HAL_TIM_ConfigClockSource+0x3c8>
 8003e42:	f241 11ea 	movw	r1, #4586	; 0x11ea
 8003e46:	4849      	ldr	r0, [pc, #292]	; (8003f6c <HAL_TIM_ConfigClockSource+0x4e8>)
 8003e48:	f001 fa0c 	bl	8005264 <assert_failed>
 8003e4c:	686b      	ldr	r3, [r5, #4]
 8003e4e:	f5b3 4f00 	cmp.w	r3, #32768	; 0x8000
 8003e52:	d009      	beq.n	8003e68 <HAL_TIM_ConfigClockSource+0x3e4>
 8003e54:	f033 0202 	bics.w	r2, r3, #2
 8003e58:	d006      	beq.n	8003e68 <HAL_TIM_ConfigClockSource+0x3e4>
 8003e5a:	2b0a      	cmp	r3, #10
 8003e5c:	d004      	beq.n	8003e68 <HAL_TIM_ConfigClockSource+0x3e4>
 8003e5e:	f241 11ed 	movw	r1, #4589	; 0x11ed
 8003e62:	4842      	ldr	r0, [pc, #264]	; (8003f6c <HAL_TIM_ConfigClockSource+0x4e8>)
 8003e64:	f001 f9fe 	bl	8005264 <assert_failed>
 8003e68:	68ee      	ldr	r6, [r5, #12]
 8003e6a:	2e0f      	cmp	r6, #15
 8003e6c:	d856      	bhi.n	8003f1c <HAL_TIM_ConfigClockSource+0x498>
 8003e6e:	6823      	ldr	r3, [r4, #0]
 8003e70:	6869      	ldr	r1, [r5, #4]
 8003e72:	6a18      	ldr	r0, [r3, #32]
 8003e74:	6a1d      	ldr	r5, [r3, #32]
 8003e76:	f025 0501 	bic.w	r5, r5, #1
 8003e7a:	621d      	str	r5, [r3, #32]
 8003e7c:	699a      	ldr	r2, [r3, #24]
 8003e7e:	f020 000a 	bic.w	r0, r0, #10
 8003e82:	f022 02f0 	bic.w	r2, r2, #240	; 0xf0
 8003e86:	ea42 1206 	orr.w	r2, r2, r6, lsl #4
 8003e8a:	4301      	orrs	r1, r0
 8003e8c:	619a      	str	r2, [r3, #24]
 8003e8e:	6219      	str	r1, [r3, #32]
 8003e90:	689a      	ldr	r2, [r3, #8]
 8003e92:	f022 0270 	bic.w	r2, r2, #112	; 0x70
 8003e96:	f042 0247 	orr.w	r2, r2, #71	; 0x47
 8003e9a:	609a      	str	r2, [r3, #8]
 8003e9c:	e670      	b.n	8003b80 <HAL_TIM_ConfigClockSource+0xfc>
 8003e9e:	2a10      	cmp	r2, #16
 8003ea0:	d005      	beq.n	8003eae <HAL_TIM_ConfigClockSource+0x42a>
 8003ea2:	d931      	bls.n	8003f08 <HAL_TIM_ConfigClockSource+0x484>
 8003ea4:	2a20      	cmp	r2, #32
 8003ea6:	d002      	beq.n	8003eae <HAL_TIM_ConfigClockSource+0x42a>
 8003ea8:	2a30      	cmp	r2, #48	; 0x30
 8003eaa:	f47f ae69 	bne.w	8003b80 <HAL_TIM_ConfigClockSource+0xfc>
 8003eae:	492e      	ldr	r1, [pc, #184]	; (8003f68 <HAL_TIM_ConfigClockSource+0x4e4>)
 8003eb0:	428b      	cmp	r3, r1
 8003eb2:	d021      	beq.n	8003ef8 <HAL_TIM_ConfigClockSource+0x474>
 8003eb4:	f1b3 4f80 	cmp.w	r3, #1073741824	; 0x40000000
 8003eb8:	d01e      	beq.n	8003ef8 <HAL_TIM_ConfigClockSource+0x474>
 8003eba:	f5a1 417c 	sub.w	r1, r1, #64512	; 0xfc00
 8003ebe:	428b      	cmp	r3, r1
 8003ec0:	d01a      	beq.n	8003ef8 <HAL_TIM_ConfigClockSource+0x474>
 8003ec2:	f501 6180 	add.w	r1, r1, #1024	; 0x400
 8003ec6:	428b      	cmp	r3, r1
 8003ec8:	d016      	beq.n	8003ef8 <HAL_TIM_ConfigClockSource+0x474>
 8003eca:	f501 6180 	add.w	r1, r1, #1024	; 0x400
 8003ece:	428b      	cmp	r3, r1
 8003ed0:	d012      	beq.n	8003ef8 <HAL_TIM_ConfigClockSource+0x474>
 8003ed2:	f501 4178 	add.w	r1, r1, #63488	; 0xf800
 8003ed6:	428b      	cmp	r3, r1
 8003ed8:	d00e      	beq.n	8003ef8 <HAL_TIM_ConfigClockSource+0x474>
 8003eda:	f501 5170 	add.w	r1, r1, #15360	; 0x3c00
 8003ede:	428b      	cmp	r3, r1
 8003ee0:	d00a      	beq.n	8003ef8 <HAL_TIM_ConfigClockSource+0x474>
 8003ee2:	f5a1 3194 	sub.w	r1, r1, #75776	; 0x12800
 8003ee6:	428b      	cmp	r3, r1
 8003ee8:	d006      	beq.n	8003ef8 <HAL_TIM_ConfigClockSource+0x474>
 8003eea:	f241 11fd 	movw	r1, #4605	; 0x11fd
 8003eee:	481f      	ldr	r0, [pc, #124]	; (8003f6c <HAL_TIM_ConfigClockSource+0x4e8>)
 8003ef0:	f001 f9b8 	bl	8005264 <assert_failed>
 8003ef4:	682a      	ldr	r2, [r5, #0]
 8003ef6:	6823      	ldr	r3, [r4, #0]
 8003ef8:	6899      	ldr	r1, [r3, #8]
 8003efa:	f042 0207 	orr.w	r2, r2, #7
 8003efe:	f021 0170 	bic.w	r1, r1, #112	; 0x70
 8003f02:	430a      	orrs	r2, r1
 8003f04:	609a      	str	r2, [r3, #8]
 8003f06:	e63b      	b.n	8003b80 <HAL_TIM_ConfigClockSource+0xfc>
 8003f08:	2a00      	cmp	r2, #0
 8003f0a:	d0d0      	beq.n	8003eae <HAL_TIM_ConfigClockSource+0x42a>
 8003f0c:	e638      	b.n	8003b80 <HAL_TIM_ConfigClockSource+0xfc>
 8003f0e:	4817      	ldr	r0, [pc, #92]	; (8003f6c <HAL_TIM_ConfigClockSource+0x4e8>)
 8003f10:	f241 11a3 	movw	r1, #4515	; 0x11a3
 8003f14:	f001 f9a6 	bl	8005264 <assert_failed>
 8003f18:	68e8      	ldr	r0, [r5, #12]
 8003f1a:	e710      	b.n	8003d3e <HAL_TIM_ConfigClockSource+0x2ba>
 8003f1c:	f241 11ee 	movw	r1, #4590	; 0x11ee
 8003f20:	4812      	ldr	r0, [pc, #72]	; (8003f6c <HAL_TIM_ConfigClockSource+0x4e8>)
 8003f22:	f001 f99f 	bl	8005264 <assert_failed>
 8003f26:	68ee      	ldr	r6, [r5, #12]
 8003f28:	e7a1      	b.n	8003e6e <HAL_TIM_ConfigClockSource+0x3ea>
 8003f2a:	f241 11ce 	movw	r1, #4558	; 0x11ce
 8003f2e:	480f      	ldr	r0, [pc, #60]	; (8003f6c <HAL_TIM_ConfigClockSource+0x4e8>)
 8003f30:	f001 f998 	bl	8005264 <assert_failed>
 8003f34:	68ee      	ldr	r6, [r5, #12]
 8003f36:	e74e      	b.n	8003dd6 <HAL_TIM_ConfigClockSource+0x352>
 8003f38:	480c      	ldr	r0, [pc, #48]	; (8003f6c <HAL_TIM_ConfigClockSource+0x4e8>)
 8003f3a:	f241 11bb 	movw	r1, #4539	; 0x11bb
 8003f3e:	f001 f991 	bl	8005264 <assert_failed>
 8003f42:	68e8      	ldr	r0, [r5, #12]
 8003f44:	e6a3      	b.n	8003c8e <HAL_TIM_ConfigClockSource+0x20a>
 8003f46:	f241 11de 	movw	r1, #4574	; 0x11de
 8003f4a:	4808      	ldr	r0, [pc, #32]	; (8003f6c <HAL_TIM_ConfigClockSource+0x4e8>)
 8003f4c:	f001 f98a 	bl	8005264 <assert_failed>
 8003f50:	68ee      	ldr	r6, [r5, #12]
 8003f52:	e5fd      	b.n	8003b50 <HAL_TIM_ConfigClockSource+0xcc>
 8003f54:	f5b2 5f80 	cmp.w	r2, #4096	; 0x1000
 8003f58:	f43f ae20 	beq.w	8003b9c <HAL_TIM_ConfigClockSource+0x118>
 8003f5c:	f5b2 5f00 	cmp.w	r2, #8192	; 0x2000
 8003f60:	f47f ae0e 	bne.w	8003b80 <HAL_TIM_ConfigClockSource+0xfc>
 8003f64:	e65d      	b.n	8003c22 <HAL_TIM_ConfigClockSource+0x19e>
 8003f66:	bf00      	nop
 8003f68:	40010000 	.word	0x40010000
 8003f6c:	0800b2b0 	.word	0x0800b2b0

08003f70 <HAL_TIM_SlaveConfigSynchro>:
 8003f70:	4a30      	ldr	r2, [pc, #192]	; (8004034 <HAL_TIM_SlaveConfigSynchro+0xc4>)
 8003f72:	6803      	ldr	r3, [r0, #0]
 8003f74:	4293      	cmp	r3, r2
 8003f76:	b570      	push	{r4, r5, r6, lr}
 8003f78:	4604      	mov	r4, r0
 8003f7a:	460d      	mov	r5, r1
 8003f7c:	d01f      	beq.n	8003fbe <HAL_TIM_SlaveConfigSynchro+0x4e>
 8003f7e:	f1b3 4f80 	cmp.w	r3, #1073741824	; 0x40000000
 8003f82:	d01c      	beq.n	8003fbe <HAL_TIM_SlaveConfigSynchro+0x4e>
 8003f84:	f5a2 427c 	sub.w	r2, r2, #64512	; 0xfc00
 8003f88:	4293      	cmp	r3, r2
 8003f8a:	d018      	beq.n	8003fbe <HAL_TIM_SlaveConfigSynchro+0x4e>
 8003f8c:	f502 6280 	add.w	r2, r2, #1024	; 0x400
 8003f90:	4293      	cmp	r3, r2
 8003f92:	d014      	beq.n	8003fbe <HAL_TIM_SlaveConfigSynchro+0x4e>
 8003f94:	f502 6280 	add.w	r2, r2, #1024	; 0x400
 8003f98:	4293      	cmp	r3, r2
 8003f9a:	d010      	beq.n	8003fbe <HAL_TIM_SlaveConfigSynchro+0x4e>
 8003f9c:	f502 4278 	add.w	r2, r2, #63488	; 0xf800
 8003fa0:	4293      	cmp	r3, r2
 8003fa2:	d00c      	beq.n	8003fbe <HAL_TIM_SlaveConfigSynchro+0x4e>
 8003fa4:	f502 5270 	add.w	r2, r2, #15360	; 0x3c00
 8003fa8:	4293      	cmp	r3, r2
 8003faa:	d008      	beq.n	8003fbe <HAL_TIM_SlaveConfigSynchro+0x4e>
 8003fac:	f5a2 3294 	sub.w	r2, r2, #75776	; 0x12800
 8003fb0:	4293      	cmp	r3, r2
 8003fb2:	d004      	beq.n	8003fbe <HAL_TIM_SlaveConfigSynchro+0x4e>
 8003fb4:	f241 213c 	movw	r1, #4668	; 0x123c
 8003fb8:	481f      	ldr	r0, [pc, #124]	; (8004038 <HAL_TIM_SlaveConfigSynchro+0xc8>)
 8003fba:	f001 f953 	bl	8005264 <assert_failed>
 8003fbe:	682b      	ldr	r3, [r5, #0]
 8003fc0:	b13b      	cbz	r3, 8003fd2 <HAL_TIM_SlaveConfigSynchro+0x62>
 8003fc2:	3b04      	subs	r3, #4
 8003fc4:	2b03      	cmp	r3, #3
 8003fc6:	d904      	bls.n	8003fd2 <HAL_TIM_SlaveConfigSynchro+0x62>
 8003fc8:	f241 213d 	movw	r1, #4669	; 0x123d
 8003fcc:	481a      	ldr	r0, [pc, #104]	; (8004038 <HAL_TIM_SlaveConfigSynchro+0xc8>)
 8003fce:	f001 f949 	bl	8005264 <assert_failed>
 8003fd2:	686b      	ldr	r3, [r5, #4]
 8003fd4:	f033 0330 	bics.w	r3, r3, #48	; 0x30
 8003fd8:	d006      	beq.n	8003fe8 <HAL_TIM_SlaveConfigSynchro+0x78>
 8003fda:	2b40      	cmp	r3, #64	; 0x40
 8003fdc:	d004      	beq.n	8003fe8 <HAL_TIM_SlaveConfigSynchro+0x78>
 8003fde:	f241 213e 	movw	r1, #4670	; 0x123e
 8003fe2:	4815      	ldr	r0, [pc, #84]	; (8004038 <HAL_TIM_SlaveConfigSynchro+0xc8>)
 8003fe4:	f001 f93e 	bl	8005264 <assert_failed>
 8003fe8:	f894 303c 	ldrb.w	r3, [r4, #60]	; 0x3c
 8003fec:	2b01      	cmp	r3, #1
 8003fee:	d01f      	beq.n	8004030 <HAL_TIM_SlaveConfigSynchro+0xc0>
 8003ff0:	2601      	movs	r6, #1
 8003ff2:	2302      	movs	r3, #2
 8003ff4:	4629      	mov	r1, r5
 8003ff6:	f884 603c 	strb.w	r6, [r4, #60]	; 0x3c
 8003ffa:	f884 303d 	strb.w	r3, [r4, #61]	; 0x3d
 8003ffe:	4620      	mov	r0, r4
 8004000:	f7ff fb9a 	bl	8003738 <TIM_SlaveTimer_SetConfig>
 8004004:	b968      	cbnz	r0, 8004022 <HAL_TIM_SlaveConfigSynchro+0xb2>
 8004006:	6823      	ldr	r3, [r4, #0]
 8004008:	68da      	ldr	r2, [r3, #12]
 800400a:	f022 0240 	bic.w	r2, r2, #64	; 0x40
 800400e:	60da      	str	r2, [r3, #12]
 8004010:	68da      	ldr	r2, [r3, #12]
 8004012:	f422 4280 	bic.w	r2, r2, #16384	; 0x4000
 8004016:	60da      	str	r2, [r3, #12]
 8004018:	f884 603d 	strb.w	r6, [r4, #61]	; 0x3d
 800401c:	f884 003c 	strb.w	r0, [r4, #60]	; 0x3c
 8004020:	bd70      	pop	{r4, r5, r6, pc}
 8004022:	2300      	movs	r3, #0
 8004024:	f884 603d 	strb.w	r6, [r4, #61]	; 0x3d
 8004028:	4630      	mov	r0, r6
 800402a:	f884 303c 	strb.w	r3, [r4, #60]	; 0x3c
 800402e:	bd70      	pop	{r4, r5, r6, pc}
 8004030:	2002      	movs	r0, #2
 8004032:	bd70      	pop	{r4, r5, r6, pc}
 8004034:	40010000 	.word	0x40010000
 8004038:	0800b2b0 	.word	0x0800b2b0

0800403c <TIM_Base_SetConfig>:
 800403c:	b4f0      	push	{r4, r5, r6, r7}
 800403e:	4e36      	ldr	r6, [pc, #216]	; (8004118 <TIM_Base_SetConfig+0xdc>)
 8004040:	6803      	ldr	r3, [r0, #0]
 8004042:	694d      	ldr	r5, [r1, #20]
 8004044:	688c      	ldr	r4, [r1, #8]
 8004046:	680a      	ldr	r2, [r1, #0]
 8004048:	42b0      	cmp	r0, r6
 800404a:	d055      	beq.n	80040f8 <TIM_Base_SetConfig+0xbc>
 800404c:	f1b0 4f80 	cmp.w	r0, #1073741824	; 0x40000000
 8004050:	d029      	beq.n	80040a6 <TIM_Base_SetConfig+0x6a>
 8004052:	f5a6 467c 	sub.w	r6, r6, #64512	; 0xfc00
 8004056:	42b0      	cmp	r0, r6
 8004058:	d037      	beq.n	80040ca <TIM_Base_SetConfig+0x8e>
 800405a:	f506 6680 	add.w	r6, r6, #1024	; 0x400
 800405e:	42b0      	cmp	r0, r6
 8004060:	d033      	beq.n	80040ca <TIM_Base_SetConfig+0x8e>
 8004062:	f506 6680 	add.w	r6, r6, #1024	; 0x400
 8004066:	42b0      	cmp	r0, r6
 8004068:	d02f      	beq.n	80040ca <TIM_Base_SetConfig+0x8e>
 800406a:	f506 4678 	add.w	r6, r6, #63488	; 0xf800
 800406e:	42b0      	cmp	r0, r6
 8004070:	d02b      	beq.n	80040ca <TIM_Base_SetConfig+0x8e>
 8004072:	f506 5670 	add.w	r6, r6, #15360	; 0x3c00
 8004076:	42b0      	cmp	r0, r6
 8004078:	d013      	beq.n	80040a2 <TIM_Base_SetConfig+0x66>
 800407a:	f506 6680 	add.w	r6, r6, #1024	; 0x400
 800407e:	42b0      	cmp	r0, r6
 8004080:	d00f      	beq.n	80040a2 <TIM_Base_SetConfig+0x66>
 8004082:	f506 6680 	add.w	r6, r6, #1024	; 0x400
 8004086:	42b0      	cmp	r0, r6
 8004088:	d00b      	beq.n	80040a2 <TIM_Base_SetConfig+0x66>
 800408a:	f5a6 3698 	sub.w	r6, r6, #77824	; 0x13000
 800408e:	42b0      	cmp	r0, r6
 8004090:	d007      	beq.n	80040a2 <TIM_Base_SetConfig+0x66>
 8004092:	f506 6680 	add.w	r6, r6, #1024	; 0x400
 8004096:	42b0      	cmp	r0, r6
 8004098:	d003      	beq.n	80040a2 <TIM_Base_SetConfig+0x66>
 800409a:	f506 6680 	add.w	r6, r6, #1024	; 0x400
 800409e:	42b0      	cmp	r0, r6
 80040a0:	d109      	bne.n	80040b6 <TIM_Base_SetConfig+0x7a>
 80040a2:	68c9      	ldr	r1, [r1, #12]
 80040a4:	e004      	b.n	80040b0 <TIM_Base_SetConfig+0x74>
 80040a6:	684e      	ldr	r6, [r1, #4]
 80040a8:	68c9      	ldr	r1, [r1, #12]
 80040aa:	f023 0370 	bic.w	r3, r3, #112	; 0x70
 80040ae:	4333      	orrs	r3, r6
 80040b0:	f423 7340 	bic.w	r3, r3, #768	; 0x300
 80040b4:	430b      	orrs	r3, r1
 80040b6:	f023 0380 	bic.w	r3, r3, #128	; 0x80
 80040ba:	432b      	orrs	r3, r5
 80040bc:	6003      	str	r3, [r0, #0]
 80040be:	62c4      	str	r4, [r0, #44]	; 0x2c
 80040c0:	6282      	str	r2, [r0, #40]	; 0x28
 80040c2:	2301      	movs	r3, #1
 80040c4:	6143      	str	r3, [r0, #20]
 80040c6:	bcf0      	pop	{r4, r5, r6, r7}
 80040c8:	4770      	bx	lr
 80040ca:	684e      	ldr	r6, [r1, #4]
 80040cc:	4f13      	ldr	r7, [pc, #76]	; (800411c <TIM_Base_SetConfig+0xe0>)
 80040ce:	f023 0370 	bic.w	r3, r3, #112	; 0x70
 80040d2:	4333      	orrs	r3, r6
 80040d4:	68ce      	ldr	r6, [r1, #12]
 80040d6:	f423 7340 	bic.w	r3, r3, #768	; 0x300
 80040da:	4333      	orrs	r3, r6
 80040dc:	f023 0380 	bic.w	r3, r3, #128	; 0x80
 80040e0:	432b      	orrs	r3, r5
 80040e2:	42b8      	cmp	r0, r7
 80040e4:	6003      	str	r3, [r0, #0]
 80040e6:	62c4      	str	r4, [r0, #44]	; 0x2c
 80040e8:	6282      	str	r2, [r0, #40]	; 0x28
 80040ea:	d1ea      	bne.n	80040c2 <TIM_Base_SetConfig+0x86>
 80040ec:	690b      	ldr	r3, [r1, #16]
 80040ee:	6303      	str	r3, [r0, #48]	; 0x30
 80040f0:	2301      	movs	r3, #1
 80040f2:	6143      	str	r3, [r0, #20]
 80040f4:	bcf0      	pop	{r4, r5, r6, r7}
 80040f6:	4770      	bx	lr
 80040f8:	684f      	ldr	r7, [r1, #4]
 80040fa:	68ce      	ldr	r6, [r1, #12]
 80040fc:	f023 0370 	bic.w	r3, r3, #112	; 0x70
 8004100:	433b      	orrs	r3, r7
 8004102:	f423 7340 	bic.w	r3, r3, #768	; 0x300
 8004106:	4333      	orrs	r3, r6
 8004108:	f023 0380 	bic.w	r3, r3, #128	; 0x80
 800410c:	432b      	orrs	r3, r5
 800410e:	6003      	str	r3, [r0, #0]
 8004110:	62c4      	str	r4, [r0, #44]	; 0x2c
 8004112:	6282      	str	r2, [r0, #40]	; 0x28
 8004114:	e7ea      	b.n	80040ec <TIM_Base_SetConfig+0xb0>
 8004116:	bf00      	nop
 8004118:	40010000 	.word	0x40010000
 800411c:	40010400 	.word	0x40010400

08004120 <HAL_TIM_IC_Init>:
 8004120:	2800      	cmp	r0, #0
 8004122:	d073      	beq.n	800420c <HAL_TIM_IC_Init+0xec>
 8004124:	6803      	ldr	r3, [r0, #0]
 8004126:	4a3f      	ldr	r2, [pc, #252]	; (8004224 <HAL_TIM_IC_Init+0x104>)
 8004128:	4293      	cmp	r3, r2
 800412a:	b510      	push	{r4, lr}
 800412c:	4604      	mov	r4, r0
 800412e:	d037      	beq.n	80041a0 <HAL_TIM_IC_Init+0x80>
 8004130:	f1b3 4f80 	cmp.w	r3, #1073741824	; 0x40000000
 8004134:	d034      	beq.n	80041a0 <HAL_TIM_IC_Init+0x80>
 8004136:	f5a2 427c 	sub.w	r2, r2, #64512	; 0xfc00
 800413a:	4293      	cmp	r3, r2
 800413c:	d030      	beq.n	80041a0 <HAL_TIM_IC_Init+0x80>
 800413e:	f502 6280 	add.w	r2, r2, #1024	; 0x400
 8004142:	4293      	cmp	r3, r2
 8004144:	d02c      	beq.n	80041a0 <HAL_TIM_IC_Init+0x80>
 8004146:	f502 6280 	add.w	r2, r2, #1024	; 0x400
 800414a:	4293      	cmp	r3, r2
 800414c:	d028      	beq.n	80041a0 <HAL_TIM_IC_Init+0x80>
 800414e:	f502 6280 	add.w	r2, r2, #1024	; 0x400
 8004152:	4293      	cmp	r3, r2
 8004154:	d024      	beq.n	80041a0 <HAL_TIM_IC_Init+0x80>
 8004156:	f502 6280 	add.w	r2, r2, #1024	; 0x400
 800415a:	4293      	cmp	r3, r2
 800415c:	d020      	beq.n	80041a0 <HAL_TIM_IC_Init+0x80>
 800415e:	f502 4270 	add.w	r2, r2, #61440	; 0xf000
 8004162:	4293      	cmp	r3, r2
 8004164:	d01c      	beq.n	80041a0 <HAL_TIM_IC_Init+0x80>
 8004166:	f502 5270 	add.w	r2, r2, #15360	; 0x3c00
 800416a:	4293      	cmp	r3, r2
 800416c:	d018      	beq.n	80041a0 <HAL_TIM_IC_Init+0x80>
 800416e:	f502 6280 	add.w	r2, r2, #1024	; 0x400
 8004172:	4293      	cmp	r3, r2
 8004174:	d014      	beq.n	80041a0 <HAL_TIM_IC_Init+0x80>
 8004176:	f502 6280 	add.w	r2, r2, #1024	; 0x400
 800417a:	4293      	cmp	r3, r2
 800417c:	d010      	beq.n	80041a0 <HAL_TIM_IC_Init+0x80>
 800417e:	f5a2 3298 	sub.w	r2, r2, #77824	; 0x13000
 8004182:	4293      	cmp	r3, r2
 8004184:	d00c      	beq.n	80041a0 <HAL_TIM_IC_Init+0x80>
 8004186:	f502 6280 	add.w	r2, r2, #1024	; 0x400
 800418a:	4293      	cmp	r3, r2
 800418c:	d008      	beq.n	80041a0 <HAL_TIM_IC_Init+0x80>
 800418e:	f502 6280 	add.w	r2, r2, #1024	; 0x400
 8004192:	4293      	cmp	r3, r2
 8004194:	d004      	beq.n	80041a0 <HAL_TIM_IC_Init+0x80>
 8004196:	f240 61d9 	movw	r1, #1753	; 0x6d9
 800419a:	4823      	ldr	r0, [pc, #140]	; (8004228 <HAL_TIM_IC_Init+0x108>)
 800419c:	f001 f862 	bl	8005264 <assert_failed>
 80041a0:	68a3      	ldr	r3, [r4, #8]
 80041a2:	f033 0210 	bics.w	r2, r3, #16
 80041a6:	d00a      	beq.n	80041be <HAL_TIM_IC_Init+0x9e>
 80041a8:	f023 0240 	bic.w	r2, r3, #64	; 0x40
 80041ac:	2a20      	cmp	r2, #32
 80041ae:	d006      	beq.n	80041be <HAL_TIM_IC_Init+0x9e>
 80041b0:	2b40      	cmp	r3, #64	; 0x40
 80041b2:	d004      	beq.n	80041be <HAL_TIM_IC_Init+0x9e>
 80041b4:	f240 61da 	movw	r1, #1754	; 0x6da
 80041b8:	481b      	ldr	r0, [pc, #108]	; (8004228 <HAL_TIM_IC_Init+0x108>)
 80041ba:	f001 f853 	bl	8005264 <assert_failed>
 80041be:	6923      	ldr	r3, [r4, #16]
 80041c0:	f433 7280 	bics.w	r2, r3, #256	; 0x100
 80041c4:	d002      	beq.n	80041cc <HAL_TIM_IC_Init+0xac>
 80041c6:	f5b3 7f00 	cmp.w	r3, #512	; 0x200
 80041ca:	d121      	bne.n	8004210 <HAL_TIM_IC_Init+0xf0>
 80041cc:	69a3      	ldr	r3, [r4, #24]
 80041ce:	f033 0380 	bics.w	r3, r3, #128	; 0x80
 80041d2:	d004      	beq.n	80041de <HAL_TIM_IC_Init+0xbe>
 80041d4:	f240 61dc 	movw	r1, #1756	; 0x6dc
 80041d8:	4813      	ldr	r0, [pc, #76]	; (8004228 <HAL_TIM_IC_Init+0x108>)
 80041da:	f001 f843 	bl	8005264 <assert_failed>
 80041de:	f894 303d 	ldrb.w	r3, [r4, #61]	; 0x3d
 80041e2:	f003 02ff 	and.w	r2, r3, #255	; 0xff
 80041e6:	b15b      	cbz	r3, 8004200 <HAL_TIM_IC_Init+0xe0>
 80041e8:	2302      	movs	r3, #2
 80041ea:	f884 303d 	strb.w	r3, [r4, #61]	; 0x3d
 80041ee:	6820      	ldr	r0, [r4, #0]
 80041f0:	1d21      	adds	r1, r4, #4
 80041f2:	f7ff ff23 	bl	800403c <TIM_Base_SetConfig>
 80041f6:	2301      	movs	r3, #1
 80041f8:	f884 303d 	strb.w	r3, [r4, #61]	; 0x3d
 80041fc:	2000      	movs	r0, #0
 80041fe:	bd10      	pop	{r4, pc}
 8004200:	f884 203c 	strb.w	r2, [r4, #60]	; 0x3c
 8004204:	4620      	mov	r0, r4
 8004206:	f7ff fc3b 	bl	8003a80 <HAL_TIM_IC_MspInit>
 800420a:	e7ed      	b.n	80041e8 <HAL_TIM_IC_Init+0xc8>
 800420c:	2001      	movs	r0, #1
 800420e:	4770      	bx	lr
 8004210:	f240 61db 	movw	r1, #1755	; 0x6db
 8004214:	4804      	ldr	r0, [pc, #16]	; (8004228 <HAL_TIM_IC_Init+0x108>)
 8004216:	f001 f825 	bl	8005264 <assert_failed>
 800421a:	69a3      	ldr	r3, [r4, #24]
 800421c:	f033 0380 	bics.w	r3, r3, #128	; 0x80
 8004220:	d0dd      	beq.n	80041de <HAL_TIM_IC_Init+0xbe>
 8004222:	e7d7      	b.n	80041d4 <HAL_TIM_IC_Init+0xb4>
 8004224:	40010000 	.word	0x40010000
 8004228:	0800b2b0 	.word	0x0800b2b0

0800422c <TIM_OC2_SetConfig>:
 800422c:	e92d 43f8 	stmdb	sp!, {r3, r4, r5, r6, r7, r8, r9, lr}
 8004230:	6a03      	ldr	r3, [r0, #32]
 8004232:	4a36      	ldr	r2, [pc, #216]	; (800430c <TIM_OC2_SetConfig+0xe0>)
 8004234:	4604      	mov	r4, r0
 8004236:	f023 0310 	bic.w	r3, r3, #16
 800423a:	6888      	ldr	r0, [r1, #8]
 800423c:	460f      	mov	r7, r1
 800423e:	6809      	ldr	r1, [r1, #0]
 8004240:	6223      	str	r3, [r4, #32]
 8004242:	6a25      	ldr	r5, [r4, #32]
 8004244:	f8d4 8004 	ldr.w	r8, [r4, #4]
 8004248:	69a6      	ldr	r6, [r4, #24]
 800424a:	f025 0520 	bic.w	r5, r5, #32
 800424e:	f426 46e6 	bic.w	r6, r6, #29440	; 0x7300
 8004252:	4294      	cmp	r4, r2
 8004254:	ea45 1500 	orr.w	r5, r5, r0, lsl #4
 8004258:	ea46 2601 	orr.w	r6, r6, r1, lsl #8
 800425c:	d034      	beq.n	80042c8 <TIM_OC2_SetConfig+0x9c>
 800425e:	4b2c      	ldr	r3, [pc, #176]	; (8004310 <TIM_OC2_SetConfig+0xe4>)
 8004260:	429c      	cmp	r4, r3
 8004262:	d007      	beq.n	8004274 <TIM_OC2_SetConfig+0x48>
 8004264:	687b      	ldr	r3, [r7, #4]
 8004266:	f8c4 8004 	str.w	r8, [r4, #4]
 800426a:	61a6      	str	r6, [r4, #24]
 800426c:	63a3      	str	r3, [r4, #56]	; 0x38
 800426e:	6225      	str	r5, [r4, #32]
 8004270:	e8bd 83f8 	ldmia.w	sp!, {r3, r4, r5, r6, r7, r8, r9, pc}
 8004274:	68fb      	ldr	r3, [r7, #12]
 8004276:	f025 0980 	bic.w	r9, r5, #128	; 0x80
 800427a:	b34b      	cbz	r3, 80042d0 <TIM_OC2_SetConfig+0xa4>
 800427c:	2b08      	cmp	r3, #8
 800427e:	d039      	beq.n	80042f4 <TIM_OC2_SetConfig+0xc8>
 8004280:	f241 714d 	movw	r1, #5965	; 0x174d
 8004284:	4823      	ldr	r0, [pc, #140]	; (8004314 <TIM_OC2_SetConfig+0xe8>)
 8004286:	f000 ffed 	bl	8005264 <assert_failed>
 800428a:	68fd      	ldr	r5, [r7, #12]
 800428c:	4b1f      	ldr	r3, [pc, #124]	; (800430c <TIM_OC2_SetConfig+0xe0>)
 800428e:	ea49 1505 	orr.w	r5, r9, r5, lsl #4
 8004292:	429c      	cmp	r4, r3
 8004294:	f025 0540 	bic.w	r5, r5, #64	; 0x40
 8004298:	d01c      	beq.n	80042d4 <TIM_OC2_SetConfig+0xa8>
 800429a:	4b1d      	ldr	r3, [pc, #116]	; (8004310 <TIM_OC2_SetConfig+0xe4>)
 800429c:	429c      	cmp	r4, r3
 800429e:	d1e1      	bne.n	8004264 <TIM_OC2_SetConfig+0x38>
 80042a0:	69bb      	ldr	r3, [r7, #24]
 80042a2:	f433 7300 	bics.w	r3, r3, #512	; 0x200
 80042a6:	d019      	beq.n	80042dc <TIM_OC2_SetConfig+0xb0>
 80042a8:	f241 715b 	movw	r1, #5979	; 0x175b
 80042ac:	4819      	ldr	r0, [pc, #100]	; (8004314 <TIM_OC2_SetConfig+0xe8>)
 80042ae:	f000 ffd9 	bl	8005264 <assert_failed>
 80042b2:	697b      	ldr	r3, [r7, #20]
 80042b4:	f433 7280 	bics.w	r2, r3, #256	; 0x100
 80042b8:	d014      	beq.n	80042e4 <TIM_OC2_SetConfig+0xb8>
 80042ba:	f241 715c 	movw	r1, #5980	; 0x175c
 80042be:	4815      	ldr	r0, [pc, #84]	; (8004314 <TIM_OC2_SetConfig+0xe8>)
 80042c0:	f000 ffd0 	bl	8005264 <assert_failed>
 80042c4:	697b      	ldr	r3, [r7, #20]
 80042c6:	e00d      	b.n	80042e4 <TIM_OC2_SetConfig+0xb8>
 80042c8:	68fb      	ldr	r3, [r7, #12]
 80042ca:	f025 0980 	bic.w	r9, r5, #128	; 0x80
 80042ce:	b9b3      	cbnz	r3, 80042fe <TIM_OC2_SetConfig+0xd2>
 80042d0:	f025 05c0 	bic.w	r5, r5, #192	; 0xc0
 80042d4:	69bb      	ldr	r3, [r7, #24]
 80042d6:	f433 7300 	bics.w	r3, r3, #512	; 0x200
 80042da:	d1e5      	bne.n	80042a8 <TIM_OC2_SetConfig+0x7c>
 80042dc:	697b      	ldr	r3, [r7, #20]
 80042de:	f433 7280 	bics.w	r2, r3, #256	; 0x100
 80042e2:	d1ea      	bne.n	80042ba <TIM_OC2_SetConfig+0x8e>
 80042e4:	69ba      	ldr	r2, [r7, #24]
 80042e6:	f428 6840 	bic.w	r8, r8, #3072	; 0xc00
 80042ea:	ea48 0882 	orr.w	r8, r8, r2, lsl #2
 80042ee:	ea48 0883 	orr.w	r8, r8, r3, lsl #2
 80042f2:	e7b7      	b.n	8004264 <TIM_OC2_SetConfig+0x38>
 80042f4:	f025 05c0 	bic.w	r5, r5, #192	; 0xc0
 80042f8:	f045 0580 	orr.w	r5, r5, #128	; 0x80
 80042fc:	e7cd      	b.n	800429a <TIM_OC2_SetConfig+0x6e>
 80042fe:	2b08      	cmp	r3, #8
 8004300:	d1be      	bne.n	8004280 <TIM_OC2_SetConfig+0x54>
 8004302:	f025 05c0 	bic.w	r5, r5, #192	; 0xc0
 8004306:	f045 0580 	orr.w	r5, r5, #128	; 0x80
 800430a:	e7e3      	b.n	80042d4 <TIM_OC2_SetConfig+0xa8>
 800430c:	40010000 	.word	0x40010000
 8004310:	40010400 	.word	0x40010400
 8004314:	0800b2b0 	.word	0x0800b2b0

08004318 <HAL_TIM_PWM_ConfigChannel>:
 8004318:	f032 030c 	bics.w	r3, r2, #12
 800431c:	b570      	push	{r4, r5, r6, lr}
 800431e:	4616      	mov	r6, r2
 8004320:	4604      	mov	r4, r0
 8004322:	460d      	mov	r5, r1
 8004324:	d002      	beq.n	800432c <HAL_TIM_PWM_ConfigChannel+0x14>
 8004326:	2a3c      	cmp	r2, #60	; 0x3c
 8004328:	f040 8124 	bne.w	8004574 <HAL_TIM_PWM_ConfigChannel+0x25c>
 800432c:	682b      	ldr	r3, [r5, #0]
 800432e:	f023 0310 	bic.w	r3, r3, #16
 8004332:	2b60      	cmp	r3, #96	; 0x60
 8004334:	d004      	beq.n	8004340 <HAL_TIM_PWM_ConfigChannel+0x28>
 8004336:	f640 51ed 	movw	r1, #3565	; 0xded
 800433a:	4892      	ldr	r0, [pc, #584]	; (8004584 <HAL_TIM_PWM_ConfigChannel+0x26c>)
 800433c:	f000 ff92 	bl	8005264 <assert_failed>
 8004340:	68ab      	ldr	r3, [r5, #8]
 8004342:	f033 0302 	bics.w	r3, r3, #2
 8004346:	d004      	beq.n	8004352 <HAL_TIM_PWM_ConfigChannel+0x3a>
 8004348:	f640 51ee 	movw	r1, #3566	; 0xdee
 800434c:	488d      	ldr	r0, [pc, #564]	; (8004584 <HAL_TIM_PWM_ConfigChannel+0x26c>)
 800434e:	f000 ff89 	bl	8005264 <assert_failed>
 8004352:	692b      	ldr	r3, [r5, #16]
 8004354:	f033 0304 	bics.w	r3, r3, #4
 8004358:	d004      	beq.n	8004364 <HAL_TIM_PWM_ConfigChannel+0x4c>
 800435a:	f640 51ef 	movw	r1, #3567	; 0xdef
 800435e:	4889      	ldr	r0, [pc, #548]	; (8004584 <HAL_TIM_PWM_ConfigChannel+0x26c>)
 8004360:	f000 ff80 	bl	8005264 <assert_failed>
 8004364:	f894 303c 	ldrb.w	r3, [r4, #60]	; 0x3c
 8004368:	2b01      	cmp	r3, #1
 800436a:	f000 8109 	beq.w	8004580 <HAL_TIM_PWM_ConfigChannel+0x268>
 800436e:	2201      	movs	r2, #1
 8004370:	2302      	movs	r3, #2
 8004372:	f884 203c 	strb.w	r2, [r4, #60]	; 0x3c
 8004376:	f884 303d 	strb.w	r3, [r4, #61]	; 0x3d
 800437a:	2e0c      	cmp	r6, #12
 800437c:	d84d      	bhi.n	800441a <HAL_TIM_PWM_ConfigChannel+0x102>
 800437e:	e8df f006 	tbb	[pc, r6]
 8004382:	4c07      	.short	0x4c07
 8004384:	4c884c4c 	.word	0x4c884c4c
 8004388:	4cc54c4c 	.word	0x4cc54c4c
 800438c:	4c4c      	.short	0x4c4c
 800438e:	53          	.byte	0x53
 800438f:	00          	.byte	0x00
 8004390:	6820      	ldr	r0, [r4, #0]
 8004392:	4b7d      	ldr	r3, [pc, #500]	; (8004588 <HAL_TIM_PWM_ConfigChannel+0x270>)
 8004394:	4298      	cmp	r0, r3
 8004396:	d030      	beq.n	80043fa <HAL_TIM_PWM_ConfigChannel+0xe2>
 8004398:	f1b0 4f80 	cmp.w	r0, #1073741824	; 0x40000000
 800439c:	d02d      	beq.n	80043fa <HAL_TIM_PWM_ConfigChannel+0xe2>
 800439e:	f5a3 437c 	sub.w	r3, r3, #64512	; 0xfc00
 80043a2:	4298      	cmp	r0, r3
 80043a4:	d029      	beq.n	80043fa <HAL_TIM_PWM_ConfigChannel+0xe2>
 80043a6:	f503 6380 	add.w	r3, r3, #1024	; 0x400
 80043aa:	4298      	cmp	r0, r3
 80043ac:	d025      	beq.n	80043fa <HAL_TIM_PWM_ConfigChannel+0xe2>
 80043ae:	f503 6380 	add.w	r3, r3, #1024	; 0x400
 80043b2:	4298      	cmp	r0, r3
 80043b4:	d021      	beq.n	80043fa <HAL_TIM_PWM_ConfigChannel+0xe2>
 80043b6:	f503 4378 	add.w	r3, r3, #63488	; 0xf800
 80043ba:	4298      	cmp	r0, r3
 80043bc:	d01d      	beq.n	80043fa <HAL_TIM_PWM_ConfigChannel+0xe2>
 80043be:	f503 5370 	add.w	r3, r3, #15360	; 0x3c00
 80043c2:	4298      	cmp	r0, r3
 80043c4:	d019      	beq.n	80043fa <HAL_TIM_PWM_ConfigChannel+0xe2>
 80043c6:	f503 6380 	add.w	r3, r3, #1024	; 0x400
 80043ca:	4298      	cmp	r0, r3
 80043cc:	d015      	beq.n	80043fa <HAL_TIM_PWM_ConfigChannel+0xe2>
 80043ce:	f503 6380 	add.w	r3, r3, #1024	; 0x400
 80043d2:	4298      	cmp	r0, r3
 80043d4:	d011      	beq.n	80043fa <HAL_TIM_PWM_ConfigChannel+0xe2>
 80043d6:	f5a3 3398 	sub.w	r3, r3, #77824	; 0x13000
 80043da:	4298      	cmp	r0, r3
 80043dc:	d00d      	beq.n	80043fa <HAL_TIM_PWM_ConfigChannel+0xe2>
 80043de:	f503 6380 	add.w	r3, r3, #1024	; 0x400
 80043e2:	4298      	cmp	r0, r3
 80043e4:	d009      	beq.n	80043fa <HAL_TIM_PWM_ConfigChannel+0xe2>
 80043e6:	f503 6380 	add.w	r3, r3, #1024	; 0x400
 80043ea:	4298      	cmp	r0, r3
 80043ec:	d005      	beq.n	80043fa <HAL_TIM_PWM_ConfigChannel+0xe2>
 80043ee:	4865      	ldr	r0, [pc, #404]	; (8004584 <HAL_TIM_PWM_ConfigChannel+0x26c>)
 80043f0:	f640 51fb 	movw	r1, #3579	; 0xdfb
 80043f4:	f000 ff36 	bl	8005264 <assert_failed>
 80043f8:	6820      	ldr	r0, [r4, #0]
 80043fa:	4629      	mov	r1, r5
 80043fc:	f7ff f872 	bl	80034e4 <TIM_OC1_SetConfig>
 8004400:	6823      	ldr	r3, [r4, #0]
 8004402:	6928      	ldr	r0, [r5, #16]
 8004404:	6999      	ldr	r1, [r3, #24]
 8004406:	f041 0108 	orr.w	r1, r1, #8
 800440a:	6199      	str	r1, [r3, #24]
 800440c:	6999      	ldr	r1, [r3, #24]
 800440e:	f021 0104 	bic.w	r1, r1, #4
 8004412:	6199      	str	r1, [r3, #24]
 8004414:	699a      	ldr	r2, [r3, #24]
 8004416:	4302      	orrs	r2, r0
 8004418:	619a      	str	r2, [r3, #24]
 800441a:	2301      	movs	r3, #1
 800441c:	2000      	movs	r0, #0
 800441e:	f884 303d 	strb.w	r3, [r4, #61]	; 0x3d
 8004422:	f884 003c 	strb.w	r0, [r4, #60]	; 0x3c
 8004426:	bd70      	pop	{r4, r5, r6, pc}
 8004428:	6820      	ldr	r0, [r4, #0]
 800442a:	4b57      	ldr	r3, [pc, #348]	; (8004588 <HAL_TIM_PWM_ConfigChannel+0x270>)
 800442c:	4298      	cmp	r0, r3
 800442e:	d018      	beq.n	8004462 <HAL_TIM_PWM_ConfigChannel+0x14a>
 8004430:	f1b0 4f80 	cmp.w	r0, #1073741824	; 0x40000000
 8004434:	d015      	beq.n	8004462 <HAL_TIM_PWM_ConfigChannel+0x14a>
 8004436:	f5a3 437c 	sub.w	r3, r3, #64512	; 0xfc00
 800443a:	4298      	cmp	r0, r3
 800443c:	d011      	beq.n	8004462 <HAL_TIM_PWM_ConfigChannel+0x14a>
 800443e:	f503 6380 	add.w	r3, r3, #1024	; 0x400
 8004442:	4298      	cmp	r0, r3
 8004444:	d00d      	beq.n	8004462 <HAL_TIM_PWM_ConfigChannel+0x14a>
 8004446:	f503 6380 	add.w	r3, r3, #1024	; 0x400
 800444a:	4298      	cmp	r0, r3
 800444c:	d009      	beq.n	8004462 <HAL_TIM_PWM_ConfigChannel+0x14a>
 800444e:	f503 4378 	add.w	r3, r3, #63488	; 0xf800
 8004452:	4298      	cmp	r0, r3
 8004454:	d005      	beq.n	8004462 <HAL_TIM_PWM_ConfigChannel+0x14a>
 8004456:	484b      	ldr	r0, [pc, #300]	; (8004584 <HAL_TIM_PWM_ConfigChannel+0x26c>)
 8004458:	f640 612e 	movw	r1, #3630	; 0xe2e
 800445c:	f000 ff02 	bl	8005264 <assert_failed>
 8004460:	6820      	ldr	r0, [r4, #0]
 8004462:	4629      	mov	r1, r5
 8004464:	f7ff f92a 	bl	80036bc <TIM_OC4_SetConfig>
 8004468:	6823      	ldr	r3, [r4, #0]
 800446a:	6928      	ldr	r0, [r5, #16]
 800446c:	69d9      	ldr	r1, [r3, #28]
 800446e:	f441 6100 	orr.w	r1, r1, #2048	; 0x800
 8004472:	61d9      	str	r1, [r3, #28]
 8004474:	69d9      	ldr	r1, [r3, #28]
 8004476:	f421 6180 	bic.w	r1, r1, #1024	; 0x400
 800447a:	61d9      	str	r1, [r3, #28]
 800447c:	69da      	ldr	r2, [r3, #28]
 800447e:	ea42 2200 	orr.w	r2, r2, r0, lsl #8
 8004482:	61da      	str	r2, [r3, #28]
 8004484:	2000      	movs	r0, #0
 8004486:	2301      	movs	r3, #1
 8004488:	f884 303d 	strb.w	r3, [r4, #61]	; 0x3d
 800448c:	f884 003c 	strb.w	r0, [r4, #60]	; 0x3c
 8004490:	e7c9      	b.n	8004426 <HAL_TIM_PWM_ConfigChannel+0x10e>
 8004492:	6820      	ldr	r0, [r4, #0]
 8004494:	4b3c      	ldr	r3, [pc, #240]	; (8004588 <HAL_TIM_PWM_ConfigChannel+0x270>)
 8004496:	4298      	cmp	r0, r3
 8004498:	d020      	beq.n	80044dc <HAL_TIM_PWM_ConfigChannel+0x1c4>
 800449a:	f1b0 4f80 	cmp.w	r0, #1073741824	; 0x40000000
 800449e:	d01d      	beq.n	80044dc <HAL_TIM_PWM_ConfigChannel+0x1c4>
 80044a0:	f5a3 437c 	sub.w	r3, r3, #64512	; 0xfc00
 80044a4:	4298      	cmp	r0, r3
 80044a6:	d019      	beq.n	80044dc <HAL_TIM_PWM_ConfigChannel+0x1c4>
 80044a8:	f503 6380 	add.w	r3, r3, #1024	; 0x400
 80044ac:	4298      	cmp	r0, r3
 80044ae:	d015      	beq.n	80044dc <HAL_TIM_PWM_ConfigChannel+0x1c4>
 80044b0:	f503 6380 	add.w	r3, r3, #1024	; 0x400
 80044b4:	4298      	cmp	r0, r3
 80044b6:	d011      	beq.n	80044dc <HAL_TIM_PWM_ConfigChannel+0x1c4>
 80044b8:	f503 4378 	add.w	r3, r3, #63488	; 0xf800
 80044bc:	4298      	cmp	r0, r3
 80044be:	d00d      	beq.n	80044dc <HAL_TIM_PWM_ConfigChannel+0x1c4>
 80044c0:	f503 5370 	add.w	r3, r3, #15360	; 0x3c00
 80044c4:	4298      	cmp	r0, r3
 80044c6:	d009      	beq.n	80044dc <HAL_TIM_PWM_ConfigChannel+0x1c4>
 80044c8:	f5a3 3394 	sub.w	r3, r3, #75776	; 0x12800
 80044cc:	4298      	cmp	r0, r3
 80044ce:	d005      	beq.n	80044dc <HAL_TIM_PWM_ConfigChannel+0x1c4>
 80044d0:	482c      	ldr	r0, [pc, #176]	; (8004584 <HAL_TIM_PWM_ConfigChannel+0x26c>)
 80044d2:	f640 610c 	movw	r1, #3596	; 0xe0c
 80044d6:	f000 fec5 	bl	8005264 <assert_failed>
 80044da:	6820      	ldr	r0, [r4, #0]
 80044dc:	4629      	mov	r1, r5
 80044de:	f7ff fea5 	bl	800422c <TIM_OC2_SetConfig>
 80044e2:	6823      	ldr	r3, [r4, #0]
 80044e4:	6928      	ldr	r0, [r5, #16]
 80044e6:	6999      	ldr	r1, [r3, #24]
 80044e8:	f441 6100 	orr.w	r1, r1, #2048	; 0x800
 80044ec:	6199      	str	r1, [r3, #24]
 80044ee:	6999      	ldr	r1, [r3, #24]
 80044f0:	f421 6180 	bic.w	r1, r1, #1024	; 0x400
 80044f4:	6199      	str	r1, [r3, #24]
 80044f6:	699a      	ldr	r2, [r3, #24]
 80044f8:	ea42 2200 	orr.w	r2, r2, r0, lsl #8
 80044fc:	619a      	str	r2, [r3, #24]
 80044fe:	2000      	movs	r0, #0
 8004500:	2301      	movs	r3, #1
 8004502:	f884 303d 	strb.w	r3, [r4, #61]	; 0x3d
 8004506:	f884 003c 	strb.w	r0, [r4, #60]	; 0x3c
 800450a:	e78c      	b.n	8004426 <HAL_TIM_PWM_ConfigChannel+0x10e>
 800450c:	6820      	ldr	r0, [r4, #0]
 800450e:	4b1e      	ldr	r3, [pc, #120]	; (8004588 <HAL_TIM_PWM_ConfigChannel+0x270>)
 8004510:	4298      	cmp	r0, r3
 8004512:	d018      	beq.n	8004546 <HAL_TIM_PWM_ConfigChannel+0x22e>
 8004514:	f1b0 4f80 	cmp.w	r0, #1073741824	; 0x40000000
 8004518:	d015      	beq.n	8004546 <HAL_TIM_PWM_ConfigChannel+0x22e>
 800451a:	f5a3 437c 	sub.w	r3, r3, #64512	; 0xfc00
 800451e:	4298      	cmp	r0, r3
 8004520:	d011      	beq.n	8004546 <HAL_TIM_PWM_ConfigChannel+0x22e>
 8004522:	f503 6380 	add.w	r3, r3, #1024	; 0x400
 8004526:	4298      	cmp	r0, r3
 8004528:	d00d      	beq.n	8004546 <HAL_TIM_PWM_ConfigChannel+0x22e>
 800452a:	f503 6380 	add.w	r3, r3, #1024	; 0x400
 800452e:	4298      	cmp	r0, r3
 8004530:	d009      	beq.n	8004546 <HAL_TIM_PWM_ConfigChannel+0x22e>
 8004532:	f503 4378 	add.w	r3, r3, #63488	; 0xf800
 8004536:	4298      	cmp	r0, r3
 8004538:	d005      	beq.n	8004546 <HAL_TIM_PWM_ConfigChannel+0x22e>
 800453a:	4812      	ldr	r0, [pc, #72]	; (8004584 <HAL_TIM_PWM_ConfigChannel+0x26c>)
 800453c:	f640 611d 	movw	r1, #3613	; 0xe1d
 8004540:	f000 fe90 	bl	8005264 <assert_failed>
 8004544:	6820      	ldr	r0, [r4, #0]
 8004546:	4629      	mov	r1, r5
 8004548:	f7ff f842 	bl	80035d0 <TIM_OC3_SetConfig>
 800454c:	6823      	ldr	r3, [r4, #0]
 800454e:	6928      	ldr	r0, [r5, #16]
 8004550:	69d9      	ldr	r1, [r3, #28]
 8004552:	f041 0108 	orr.w	r1, r1, #8
 8004556:	61d9      	str	r1, [r3, #28]
 8004558:	69d9      	ldr	r1, [r3, #28]
 800455a:	f021 0104 	bic.w	r1, r1, #4
 800455e:	61d9      	str	r1, [r3, #28]
 8004560:	69da      	ldr	r2, [r3, #28]
 8004562:	4302      	orrs	r2, r0
 8004564:	61da      	str	r2, [r3, #28]
 8004566:	2000      	movs	r0, #0
 8004568:	2301      	movs	r3, #1
 800456a:	f884 303d 	strb.w	r3, [r4, #61]	; 0x3d
 800456e:	f884 003c 	strb.w	r0, [r4, #60]	; 0x3c
 8004572:	e758      	b.n	8004426 <HAL_TIM_PWM_ConfigChannel+0x10e>
 8004574:	f640 51ec 	movw	r1, #3564	; 0xdec
 8004578:	4802      	ldr	r0, [pc, #8]	; (8004584 <HAL_TIM_PWM_ConfigChannel+0x26c>)
 800457a:	f000 fe73 	bl	8005264 <assert_failed>
 800457e:	e6d5      	b.n	800432c <HAL_TIM_PWM_ConfigChannel+0x14>
 8004580:	2002      	movs	r0, #2
 8004582:	bd70      	pop	{r4, r5, r6, pc}
 8004584:	0800b2b0 	.word	0x0800b2b0
 8004588:	40010000 	.word	0x40010000

0800458c <TIM_TI1_SetConfig>:
 800458c:	b470      	push	{r4, r5, r6}
 800458e:	6a04      	ldr	r4, [r0, #32]
 8004590:	4e1b      	ldr	r6, [pc, #108]	; (8004600 <TIM_TI1_SetConfig+0x74>)
 8004592:	f024 0401 	bic.w	r4, r4, #1
 8004596:	6204      	str	r4, [r0, #32]
 8004598:	42b0      	cmp	r0, r6
 800459a:	6984      	ldr	r4, [r0, #24]
 800459c:	6a05      	ldr	r5, [r0, #32]
 800459e:	d01d      	beq.n	80045dc <TIM_TI1_SetConfig+0x50>
 80045a0:	f1b0 4f80 	cmp.w	r0, #1073741824	; 0x40000000
 80045a4:	d01a      	beq.n	80045dc <TIM_TI1_SetConfig+0x50>
 80045a6:	f5a6 467c 	sub.w	r6, r6, #64512	; 0xfc00
 80045aa:	42b0      	cmp	r0, r6
 80045ac:	d016      	beq.n	80045dc <TIM_TI1_SetConfig+0x50>
 80045ae:	f506 6680 	add.w	r6, r6, #1024	; 0x400
 80045b2:	42b0      	cmp	r0, r6
 80045b4:	d012      	beq.n	80045dc <TIM_TI1_SetConfig+0x50>
 80045b6:	f506 6680 	add.w	r6, r6, #1024	; 0x400
 80045ba:	42b0      	cmp	r0, r6
 80045bc:	d00e      	beq.n	80045dc <TIM_TI1_SetConfig+0x50>
 80045be:	f506 4678 	add.w	r6, r6, #63488	; 0xf800
 80045c2:	42b0      	cmp	r0, r6
 80045c4:	d00a      	beq.n	80045dc <TIM_TI1_SetConfig+0x50>
 80045c6:	f506 5670 	add.w	r6, r6, #15360	; 0x3c00
 80045ca:	42b0      	cmp	r0, r6
 80045cc:	d006      	beq.n	80045dc <TIM_TI1_SetConfig+0x50>
 80045ce:	f5a6 3694 	sub.w	r6, r6, #75776	; 0x12800
 80045d2:	42b0      	cmp	r0, r6
 80045d4:	d002      	beq.n	80045dc <TIM_TI1_SetConfig+0x50>
 80045d6:	f044 0201 	orr.w	r2, r4, #1
 80045da:	e002      	b.n	80045e2 <TIM_TI1_SetConfig+0x56>
 80045dc:	f024 0403 	bic.w	r4, r4, #3
 80045e0:	4322      	orrs	r2, r4
 80045e2:	011b      	lsls	r3, r3, #4
 80045e4:	f025 040a 	bic.w	r4, r5, #10
 80045e8:	b2db      	uxtb	r3, r3
 80045ea:	f022 02f0 	bic.w	r2, r2, #240	; 0xf0
 80045ee:	f001 010a 	and.w	r1, r1, #10
 80045f2:	4321      	orrs	r1, r4
 80045f4:	4313      	orrs	r3, r2
 80045f6:	6183      	str	r3, [r0, #24]
 80045f8:	bc70      	pop	{r4, r5, r6}
 80045fa:	6201      	str	r1, [r0, #32]
 80045fc:	4770      	bx	lr
 80045fe:	bf00      	nop
 8004600:	40010000 	.word	0x40010000

08004604 <HAL_TIM_IC_ConfigChannel>:
 8004604:	b5f8      	push	{r3, r4, r5, r6, r7, lr}
 8004606:	4605      	mov	r5, r0
 8004608:	48a6      	ldr	r0, [pc, #664]	; (80048a4 <HAL_TIM_IC_ConfigChannel+0x2a0>)
 800460a:	682b      	ldr	r3, [r5, #0]
 800460c:	4283      	cmp	r3, r0
 800460e:	460c      	mov	r4, r1
 8004610:	4616      	mov	r6, r2
 8004612:	d02e      	beq.n	8004672 <HAL_TIM_IC_ConfigChannel+0x6e>
 8004614:	f1b3 4f80 	cmp.w	r3, #1073741824	; 0x40000000
 8004618:	d02b      	beq.n	8004672 <HAL_TIM_IC_ConfigChannel+0x6e>
 800461a:	4aa3      	ldr	r2, [pc, #652]	; (80048a8 <HAL_TIM_IC_ConfigChannel+0x2a4>)
 800461c:	4293      	cmp	r3, r2
 800461e:	d028      	beq.n	8004672 <HAL_TIM_IC_ConfigChannel+0x6e>
 8004620:	f502 6280 	add.w	r2, r2, #1024	; 0x400
 8004624:	4293      	cmp	r3, r2
 8004626:	d024      	beq.n	8004672 <HAL_TIM_IC_ConfigChannel+0x6e>
 8004628:	f502 6280 	add.w	r2, r2, #1024	; 0x400
 800462c:	4293      	cmp	r3, r2
 800462e:	d020      	beq.n	8004672 <HAL_TIM_IC_ConfigChannel+0x6e>
 8004630:	f502 4278 	add.w	r2, r2, #63488	; 0xf800
 8004634:	4293      	cmp	r3, r2
 8004636:	d01c      	beq.n	8004672 <HAL_TIM_IC_ConfigChannel+0x6e>
 8004638:	f502 5270 	add.w	r2, r2, #15360	; 0x3c00
 800463c:	4293      	cmp	r3, r2
 800463e:	d018      	beq.n	8004672 <HAL_TIM_IC_ConfigChannel+0x6e>
 8004640:	f502 6280 	add.w	r2, r2, #1024	; 0x400
 8004644:	4293      	cmp	r3, r2
 8004646:	d014      	beq.n	8004672 <HAL_TIM_IC_ConfigChannel+0x6e>
 8004648:	f502 6280 	add.w	r2, r2, #1024	; 0x400
 800464c:	4293      	cmp	r3, r2
 800464e:	d010      	beq.n	8004672 <HAL_TIM_IC_ConfigChannel+0x6e>
 8004650:	f5a2 3298 	sub.w	r2, r2, #77824	; 0x13000
 8004654:	4293      	cmp	r3, r2
 8004656:	d00c      	beq.n	8004672 <HAL_TIM_IC_ConfigChannel+0x6e>
 8004658:	f502 6280 	add.w	r2, r2, #1024	; 0x400
 800465c:	4293      	cmp	r3, r2
 800465e:	d008      	beq.n	8004672 <HAL_TIM_IC_ConfigChannel+0x6e>
 8004660:	f502 6280 	add.w	r2, r2, #1024	; 0x400
 8004664:	4293      	cmp	r3, r2
 8004666:	d004      	beq.n	8004672 <HAL_TIM_IC_ConfigChannel+0x6e>
 8004668:	f640 5189 	movw	r1, #3465	; 0xd89
 800466c:	488f      	ldr	r0, [pc, #572]	; (80048ac <HAL_TIM_IC_ConfigChannel+0x2a8>)
 800466e:	f000 fdf9 	bl	8005264 <assert_failed>
 8004672:	6823      	ldr	r3, [r4, #0]
 8004674:	f033 0202 	bics.w	r2, r3, #2
 8004678:	d002      	beq.n	8004680 <HAL_TIM_IC_ConfigChannel+0x7c>
 800467a:	2b0a      	cmp	r3, #10
 800467c:	f040 80cf 	bne.w	800481e <HAL_TIM_IC_ConfigChannel+0x21a>
 8004680:	6863      	ldr	r3, [r4, #4]
 8004682:	3b01      	subs	r3, #1
 8004684:	2b02      	cmp	r3, #2
 8004686:	d863      	bhi.n	8004750 <HAL_TIM_IC_ConfigChannel+0x14c>
 8004688:	68a3      	ldr	r3, [r4, #8]
 800468a:	f033 030c 	bics.w	r3, r3, #12
 800468e:	d004      	beq.n	800469a <HAL_TIM_IC_ConfigChannel+0x96>
 8004690:	f640 518c 	movw	r1, #3468	; 0xd8c
 8004694:	4885      	ldr	r0, [pc, #532]	; (80048ac <HAL_TIM_IC_ConfigChannel+0x2a8>)
 8004696:	f000 fde5 	bl	8005264 <assert_failed>
 800469a:	68e3      	ldr	r3, [r4, #12]
 800469c:	2b0f      	cmp	r3, #15
 800469e:	d85d      	bhi.n	800475c <HAL_TIM_IC_ConfigChannel+0x158>
 80046a0:	f895 303c 	ldrb.w	r3, [r5, #60]	; 0x3c
 80046a4:	2b01      	cmp	r3, #1
 80046a6:	d062      	beq.n	800476e <HAL_TIM_IC_ConfigChannel+0x16a>
 80046a8:	2201      	movs	r2, #1
 80046aa:	2302      	movs	r3, #2
 80046ac:	f885 203c 	strb.w	r2, [r5, #60]	; 0x3c
 80046b0:	f885 303d 	strb.w	r3, [r5, #61]	; 0x3d
 80046b4:	6828      	ldr	r0, [r5, #0]
 80046b6:	2e00      	cmp	r6, #0
 80046b8:	d05b      	beq.n	8004772 <HAL_TIM_IC_ConfigChannel+0x16e>
 80046ba:	2e04      	cmp	r6, #4
 80046bc:	4b79      	ldr	r3, [pc, #484]	; (80048a4 <HAL_TIM_IC_ConfigChannel+0x2a0>)
 80046be:	d067      	beq.n	8004790 <HAL_TIM_IC_ConfigChannel+0x18c>
 80046c0:	2e08      	cmp	r6, #8
 80046c2:	f000 80b2 	beq.w	800482a <HAL_TIM_IC_ConfigChannel+0x226>
 80046c6:	4298      	cmp	r0, r3
 80046c8:	d018      	beq.n	80046fc <HAL_TIM_IC_ConfigChannel+0xf8>
 80046ca:	f1b0 4f80 	cmp.w	r0, #1073741824	; 0x40000000
 80046ce:	d015      	beq.n	80046fc <HAL_TIM_IC_ConfigChannel+0xf8>
 80046d0:	f5a3 437c 	sub.w	r3, r3, #64512	; 0xfc00
 80046d4:	4298      	cmp	r0, r3
 80046d6:	d011      	beq.n	80046fc <HAL_TIM_IC_ConfigChannel+0xf8>
 80046d8:	f503 6380 	add.w	r3, r3, #1024	; 0x400
 80046dc:	4298      	cmp	r0, r3
 80046de:	d00d      	beq.n	80046fc <HAL_TIM_IC_ConfigChannel+0xf8>
 80046e0:	f503 6380 	add.w	r3, r3, #1024	; 0x400
 80046e4:	4298      	cmp	r0, r3
 80046e6:	d009      	beq.n	80046fc <HAL_TIM_IC_ConfigChannel+0xf8>
 80046e8:	f503 4378 	add.w	r3, r3, #63488	; 0xf800
 80046ec:	4298      	cmp	r0, r3
 80046ee:	d005      	beq.n	80046fc <HAL_TIM_IC_ConfigChannel+0xf8>
 80046f0:	486e      	ldr	r0, [pc, #440]	; (80048ac <HAL_TIM_IC_ConfigChannel+0x2a8>)
 80046f2:	f640 51c5 	movw	r1, #3525	; 0xdc5
 80046f6:	f000 fdb5 	bl	8005264 <assert_failed>
 80046fa:	6828      	ldr	r0, [r5, #0]
 80046fc:	6a06      	ldr	r6, [r0, #32]
 80046fe:	f426 5680 	bic.w	r6, r6, #4096	; 0x1000
 8004702:	e9d4 3700 	ldrd	r3, r7, [r4]
 8004706:	e9d4 4202 	ldrd	r4, r2, [r4, #8]
 800470a:	6206      	str	r6, [r0, #32]
 800470c:	69c1      	ldr	r1, [r0, #28]
 800470e:	6a06      	ldr	r6, [r0, #32]
 8004710:	f421 7140 	bic.w	r1, r1, #768	; 0x300
 8004714:	031b      	lsls	r3, r3, #12
 8004716:	0312      	lsls	r2, r2, #12
 8004718:	ea41 2107 	orr.w	r1, r1, r7, lsl #8
 800471c:	f403 4320 	and.w	r3, r3, #40960	; 0xa000
 8004720:	b292      	uxth	r2, r2
 8004722:	f421 4170 	bic.w	r1, r1, #61440	; 0xf000
 8004726:	f426 4620 	bic.w	r6, r6, #40960	; 0xa000
 800472a:	4333      	orrs	r3, r6
 800472c:	430a      	orrs	r2, r1
 800472e:	61c2      	str	r2, [r0, #28]
 8004730:	6203      	str	r3, [r0, #32]
 8004732:	69c3      	ldr	r3, [r0, #28]
 8004734:	f423 6340 	bic.w	r3, r3, #3072	; 0xc00
 8004738:	61c3      	str	r3, [r0, #28]
 800473a:	69c3      	ldr	r3, [r0, #28]
 800473c:	ea43 2404 	orr.w	r4, r3, r4, lsl #8
 8004740:	61c4      	str	r4, [r0, #28]
 8004742:	2301      	movs	r3, #1
 8004744:	2000      	movs	r0, #0
 8004746:	f885 303d 	strb.w	r3, [r5, #61]	; 0x3d
 800474a:	f885 003c 	strb.w	r0, [r5, #60]	; 0x3c
 800474e:	bdf8      	pop	{r3, r4, r5, r6, r7, pc}
 8004750:	f640 518b 	movw	r1, #3467	; 0xd8b
 8004754:	4855      	ldr	r0, [pc, #340]	; (80048ac <HAL_TIM_IC_ConfigChannel+0x2a8>)
 8004756:	f000 fd85 	bl	8005264 <assert_failed>
 800475a:	e795      	b.n	8004688 <HAL_TIM_IC_ConfigChannel+0x84>
 800475c:	f640 518d 	movw	r1, #3469	; 0xd8d
 8004760:	4852      	ldr	r0, [pc, #328]	; (80048ac <HAL_TIM_IC_ConfigChannel+0x2a8>)
 8004762:	f000 fd7f 	bl	8005264 <assert_failed>
 8004766:	f895 303c 	ldrb.w	r3, [r5, #60]	; 0x3c
 800476a:	2b01      	cmp	r3, #1
 800476c:	d19c      	bne.n	80046a8 <HAL_TIM_IC_ConfigChannel+0xa4>
 800476e:	2002      	movs	r0, #2
 8004770:	bdf8      	pop	{r3, r4, r5, r6, r7, pc}
 8004772:	e9d4 1200 	ldrd	r1, r2, [r4]
 8004776:	68e3      	ldr	r3, [r4, #12]
 8004778:	f7ff ff08 	bl	800458c <TIM_TI1_SetConfig>
 800477c:	682b      	ldr	r3, [r5, #0]
 800477e:	68a0      	ldr	r0, [r4, #8]
 8004780:	6999      	ldr	r1, [r3, #24]
 8004782:	f021 010c 	bic.w	r1, r1, #12
 8004786:	6199      	str	r1, [r3, #24]
 8004788:	699a      	ldr	r2, [r3, #24]
 800478a:	4302      	orrs	r2, r0
 800478c:	619a      	str	r2, [r3, #24]
 800478e:	e7d8      	b.n	8004742 <HAL_TIM_IC_ConfigChannel+0x13e>
 8004790:	4298      	cmp	r0, r3
 8004792:	d020      	beq.n	80047d6 <HAL_TIM_IC_ConfigChannel+0x1d2>
 8004794:	f1b0 4f80 	cmp.w	r0, #1073741824	; 0x40000000
 8004798:	d01d      	beq.n	80047d6 <HAL_TIM_IC_ConfigChannel+0x1d2>
 800479a:	f5a3 437c 	sub.w	r3, r3, #64512	; 0xfc00
 800479e:	4298      	cmp	r0, r3
 80047a0:	d019      	beq.n	80047d6 <HAL_TIM_IC_ConfigChannel+0x1d2>
 80047a2:	f503 6380 	add.w	r3, r3, #1024	; 0x400
 80047a6:	4298      	cmp	r0, r3
 80047a8:	d015      	beq.n	80047d6 <HAL_TIM_IC_ConfigChannel+0x1d2>
 80047aa:	f503 6380 	add.w	r3, r3, #1024	; 0x400
 80047ae:	4298      	cmp	r0, r3
 80047b0:	d011      	beq.n	80047d6 <HAL_TIM_IC_ConfigChannel+0x1d2>
 80047b2:	f503 4378 	add.w	r3, r3, #63488	; 0xf800
 80047b6:	4298      	cmp	r0, r3
 80047b8:	d00d      	beq.n	80047d6 <HAL_TIM_IC_ConfigChannel+0x1d2>
 80047ba:	f503 5370 	add.w	r3, r3, #15360	; 0x3c00
 80047be:	4298      	cmp	r0, r3
 80047c0:	d009      	beq.n	80047d6 <HAL_TIM_IC_ConfigChannel+0x1d2>
 80047c2:	f5a3 3394 	sub.w	r3, r3, #75776	; 0x12800
 80047c6:	4298      	cmp	r0, r3
 80047c8:	d005      	beq.n	80047d6 <HAL_TIM_IC_ConfigChannel+0x1d2>
 80047ca:	4838      	ldr	r0, [pc, #224]	; (80048ac <HAL_TIM_IC_ConfigChannel+0x2a8>)
 80047cc:	f640 51a5 	movw	r1, #3493	; 0xda5
 80047d0:	f000 fd48 	bl	8005264 <assert_failed>
 80047d4:	6828      	ldr	r0, [r5, #0]
 80047d6:	6a06      	ldr	r6, [r0, #32]
 80047d8:	f026 0610 	bic.w	r6, r6, #16
 80047dc:	e9d4 3700 	ldrd	r3, r7, [r4]
 80047e0:	e9d4 4202 	ldrd	r4, r2, [r4, #8]
 80047e4:	6206      	str	r6, [r0, #32]
 80047e6:	6981      	ldr	r1, [r0, #24]
 80047e8:	6a06      	ldr	r6, [r0, #32]
 80047ea:	f421 7140 	bic.w	r1, r1, #768	; 0x300
 80047ee:	011b      	lsls	r3, r3, #4
 80047f0:	0312      	lsls	r2, r2, #12
 80047f2:	ea41 2107 	orr.w	r1, r1, r7, lsl #8
 80047f6:	f003 03a0 	and.w	r3, r3, #160	; 0xa0
 80047fa:	b292      	uxth	r2, r2
 80047fc:	f421 4170 	bic.w	r1, r1, #61440	; 0xf000
 8004800:	f026 06a0 	bic.w	r6, r6, #160	; 0xa0
 8004804:	4333      	orrs	r3, r6
 8004806:	430a      	orrs	r2, r1
 8004808:	6182      	str	r2, [r0, #24]
 800480a:	6203      	str	r3, [r0, #32]
 800480c:	6983      	ldr	r3, [r0, #24]
 800480e:	f423 6340 	bic.w	r3, r3, #3072	; 0xc00
 8004812:	6183      	str	r3, [r0, #24]
 8004814:	6983      	ldr	r3, [r0, #24]
 8004816:	ea43 2404 	orr.w	r4, r3, r4, lsl #8
 800481a:	6184      	str	r4, [r0, #24]
 800481c:	e791      	b.n	8004742 <HAL_TIM_IC_ConfigChannel+0x13e>
 800481e:	f640 518a 	movw	r1, #3466	; 0xd8a
 8004822:	4822      	ldr	r0, [pc, #136]	; (80048ac <HAL_TIM_IC_ConfigChannel+0x2a8>)
 8004824:	f000 fd1e 	bl	8005264 <assert_failed>
 8004828:	e72a      	b.n	8004680 <HAL_TIM_IC_ConfigChannel+0x7c>
 800482a:	4298      	cmp	r0, r3
 800482c:	d018      	beq.n	8004860 <HAL_TIM_IC_ConfigChannel+0x25c>
 800482e:	f1b0 4f80 	cmp.w	r0, #1073741824	; 0x40000000
 8004832:	d015      	beq.n	8004860 <HAL_TIM_IC_ConfigChannel+0x25c>
 8004834:	f5a3 437c 	sub.w	r3, r3, #64512	; 0xfc00
 8004838:	4298      	cmp	r0, r3
 800483a:	d011      	beq.n	8004860 <HAL_TIM_IC_ConfigChannel+0x25c>
 800483c:	f503 6380 	add.w	r3, r3, #1024	; 0x400
 8004840:	4298      	cmp	r0, r3
 8004842:	d00d      	beq.n	8004860 <HAL_TIM_IC_ConfigChannel+0x25c>
 8004844:	f503 6380 	add.w	r3, r3, #1024	; 0x400
 8004848:	4298      	cmp	r0, r3
 800484a:	d009      	beq.n	8004860 <HAL_TIM_IC_ConfigChannel+0x25c>
 800484c:	f503 4378 	add.w	r3, r3, #63488	; 0xf800
 8004850:	4298      	cmp	r0, r3
 8004852:	d005      	beq.n	8004860 <HAL_TIM_IC_ConfigChannel+0x25c>
 8004854:	4815      	ldr	r0, [pc, #84]	; (80048ac <HAL_TIM_IC_ConfigChannel+0x2a8>)
 8004856:	f640 51b5 	movw	r1, #3509	; 0xdb5
 800485a:	f000 fd03 	bl	8005264 <assert_failed>
 800485e:	6828      	ldr	r0, [r5, #0]
 8004860:	6a06      	ldr	r6, [r0, #32]
 8004862:	f426 7680 	bic.w	r6, r6, #256	; 0x100
 8004866:	e9d4 3100 	ldrd	r3, r1, [r4]
 800486a:	e9d4 4202 	ldrd	r4, r2, [r4, #8]
 800486e:	6206      	str	r6, [r0, #32]
 8004870:	69c7      	ldr	r7, [r0, #28]
 8004872:	6a06      	ldr	r6, [r0, #32]
 8004874:	f027 0703 	bic.w	r7, r7, #3
 8004878:	021b      	lsls	r3, r3, #8
 800487a:	0112      	lsls	r2, r2, #4
 800487c:	4339      	orrs	r1, r7
 800487e:	f403 6320 	and.w	r3, r3, #2560	; 0xa00
 8004882:	b2d2      	uxtb	r2, r2
 8004884:	f021 01f0 	bic.w	r1, r1, #240	; 0xf0
 8004888:	f426 6620 	bic.w	r6, r6, #2560	; 0xa00
 800488c:	4333      	orrs	r3, r6
 800488e:	430a      	orrs	r2, r1
 8004890:	61c2      	str	r2, [r0, #28]
 8004892:	6203      	str	r3, [r0, #32]
 8004894:	69c3      	ldr	r3, [r0, #28]
 8004896:	f023 030c 	bic.w	r3, r3, #12
 800489a:	61c3      	str	r3, [r0, #28]
 800489c:	69c3      	ldr	r3, [r0, #28]
 800489e:	4323      	orrs	r3, r4
 80048a0:	61c3      	str	r3, [r0, #28]
 80048a2:	e74e      	b.n	8004742 <HAL_TIM_IC_ConfigChannel+0x13e>
 80048a4:	40010000 	.word	0x40010000
 80048a8:	40000400 	.word	0x40000400
 80048ac:	0800b2b0 	.word	0x0800b2b0

080048b0 <TIM_CCxChannelCmd>:
 80048b0:	b530      	push	{r4, r5, lr}
 80048b2:	4b29      	ldr	r3, [pc, #164]	; (8004958 <TIM_CCxChannelCmd+0xa8>)
 80048b4:	4298      	cmp	r0, r3
 80048b6:	b083      	sub	sp, #12
 80048b8:	4604      	mov	r4, r0
 80048ba:	460d      	mov	r5, r1
 80048bc:	d031      	beq.n	8004922 <TIM_CCxChannelCmd+0x72>
 80048be:	f1b0 4f80 	cmp.w	r0, #1073741824	; 0x40000000
 80048c2:	d02e      	beq.n	8004922 <TIM_CCxChannelCmd+0x72>
 80048c4:	f5a3 437c 	sub.w	r3, r3, #64512	; 0xfc00
 80048c8:	4298      	cmp	r0, r3
 80048ca:	d02a      	beq.n	8004922 <TIM_CCxChannelCmd+0x72>
 80048cc:	f503 6380 	add.w	r3, r3, #1024	; 0x400
 80048d0:	4298      	cmp	r0, r3
 80048d2:	d026      	beq.n	8004922 <TIM_CCxChannelCmd+0x72>
 80048d4:	f503 6380 	add.w	r3, r3, #1024	; 0x400
 80048d8:	4298      	cmp	r0, r3
 80048da:	d022      	beq.n	8004922 <TIM_CCxChannelCmd+0x72>
 80048dc:	f503 4378 	add.w	r3, r3, #63488	; 0xf800
 80048e0:	4298      	cmp	r0, r3
 80048e2:	d01e      	beq.n	8004922 <TIM_CCxChannelCmd+0x72>
 80048e4:	f503 5370 	add.w	r3, r3, #15360	; 0x3c00
 80048e8:	4298      	cmp	r0, r3
 80048ea:	d01a      	beq.n	8004922 <TIM_CCxChannelCmd+0x72>
 80048ec:	f503 6380 	add.w	r3, r3, #1024	; 0x400
 80048f0:	4298      	cmp	r0, r3
 80048f2:	d016      	beq.n	8004922 <TIM_CCxChannelCmd+0x72>
 80048f4:	f503 6380 	add.w	r3, r3, #1024	; 0x400
 80048f8:	4298      	cmp	r0, r3
 80048fa:	d012      	beq.n	8004922 <TIM_CCxChannelCmd+0x72>
 80048fc:	f5a3 3398 	sub.w	r3, r3, #77824	; 0x13000
 8004900:	4298      	cmp	r0, r3
 8004902:	d00e      	beq.n	8004922 <TIM_CCxChannelCmd+0x72>
 8004904:	f503 6380 	add.w	r3, r3, #1024	; 0x400
 8004908:	4298      	cmp	r0, r3
 800490a:	d00a      	beq.n	8004922 <TIM_CCxChannelCmd+0x72>
 800490c:	f503 6380 	add.w	r3, r3, #1024	; 0x400
 8004910:	4298      	cmp	r0, r3
 8004912:	d006      	beq.n	8004922 <TIM_CCxChannelCmd+0x72>
 8004914:	f641 11cc 	movw	r1, #6604	; 0x19cc
 8004918:	4810      	ldr	r0, [pc, #64]	; (800495c <TIM_CCxChannelCmd+0xac>)
 800491a:	9201      	str	r2, [sp, #4]
 800491c:	f000 fca2 	bl	8005264 <assert_failed>
 8004920:	9a01      	ldr	r2, [sp, #4]
 8004922:	f035 030c 	bics.w	r3, r5, #12
 8004926:	d008      	beq.n	800493a <TIM_CCxChannelCmd+0x8a>
 8004928:	2d3c      	cmp	r5, #60	; 0x3c
 800492a:	d006      	beq.n	800493a <TIM_CCxChannelCmd+0x8a>
 800492c:	f641 11cd 	movw	r1, #6605	; 0x19cd
 8004930:	480a      	ldr	r0, [pc, #40]	; (800495c <TIM_CCxChannelCmd+0xac>)
 8004932:	9201      	str	r2, [sp, #4]
 8004934:	f000 fc96 	bl	8005264 <assert_failed>
 8004938:	9a01      	ldr	r2, [sp, #4]
 800493a:	6a23      	ldr	r3, [r4, #32]
 800493c:	f005 051f 	and.w	r5, r5, #31
 8004940:	2101      	movs	r1, #1
 8004942:	40a9      	lsls	r1, r5
 8004944:	ea23 0301 	bic.w	r3, r3, r1
 8004948:	6223      	str	r3, [r4, #32]
 800494a:	6a23      	ldr	r3, [r4, #32]
 800494c:	fa02 f505 	lsl.w	r5, r2, r5
 8004950:	431d      	orrs	r5, r3
 8004952:	6225      	str	r5, [r4, #32]
 8004954:	b003      	add	sp, #12
 8004956:	bd30      	pop	{r4, r5, pc}
 8004958:	40010000 	.word	0x40010000
 800495c:	0800b2b0 	.word	0x0800b2b0

08004960 <HAL_TIM_PWM_Start>:
 8004960:	b538      	push	{r3, r4, r5, lr}
 8004962:	4605      	mov	r5, r0
 8004964:	4b2b      	ldr	r3, [pc, #172]	; (8004a14 <HAL_TIM_PWM_Start+0xb4>)
 8004966:	6800      	ldr	r0, [r0, #0]
 8004968:	4298      	cmp	r0, r3
 800496a:	460c      	mov	r4, r1
 800496c:	d029      	beq.n	80049c2 <HAL_TIM_PWM_Start+0x62>
 800496e:	f1b0 4f80 	cmp.w	r0, #1073741824	; 0x40000000
 8004972:	d026      	beq.n	80049c2 <HAL_TIM_PWM_Start+0x62>
 8004974:	f5a3 437c 	sub.w	r3, r3, #64512	; 0xfc00
 8004978:	4298      	cmp	r0, r3
 800497a:	d022      	beq.n	80049c2 <HAL_TIM_PWM_Start+0x62>
 800497c:	f503 6380 	add.w	r3, r3, #1024	; 0x400
 8004980:	4298      	cmp	r0, r3
 8004982:	d01e      	beq.n	80049c2 <HAL_TIM_PWM_Start+0x62>
 8004984:	f503 6380 	add.w	r3, r3, #1024	; 0x400
 8004988:	4298      	cmp	r0, r3
 800498a:	d01a      	beq.n	80049c2 <HAL_TIM_PWM_Start+0x62>
 800498c:	f503 4378 	add.w	r3, r3, #63488	; 0xf800
 8004990:	4298      	cmp	r0, r3
 8004992:	d016      	beq.n	80049c2 <HAL_TIM_PWM_Start+0x62>
 8004994:	f503 5370 	add.w	r3, r3, #15360	; 0x3c00
 8004998:	4298      	cmp	r0, r3
 800499a:	d008      	beq.n	80049ae <HAL_TIM_PWM_Start+0x4e>
 800499c:	4b1e      	ldr	r3, [pc, #120]	; (8004a18 <HAL_TIM_PWM_Start+0xb8>)
 800499e:	4298      	cmp	r0, r3
 80049a0:	d034      	beq.n	8004a0c <HAL_TIM_PWM_Start+0xac>
 80049a2:	4b1e      	ldr	r3, [pc, #120]	; (8004a1c <HAL_TIM_PWM_Start+0xbc>)
 80049a4:	4298      	cmp	r0, r3
 80049a6:	d031      	beq.n	8004a0c <HAL_TIM_PWM_Start+0xac>
 80049a8:	4b1d      	ldr	r3, [pc, #116]	; (8004a20 <HAL_TIM_PWM_Start+0xc0>)
 80049aa:	4298      	cmp	r0, r3
 80049ac:	d128      	bne.n	8004a00 <HAL_TIM_PWM_Start+0xa0>
 80049ae:	f034 0304 	bics.w	r3, r4, #4
 80049b2:	d009      	beq.n	80049c8 <HAL_TIM_PWM_Start+0x68>
 80049b4:	481b      	ldr	r0, [pc, #108]	; (8004a24 <HAL_TIM_PWM_Start+0xc4>)
 80049b6:	f240 5113 	movw	r1, #1299	; 0x513
 80049ba:	f000 fc53 	bl	8005264 <assert_failed>
 80049be:	6828      	ldr	r0, [r5, #0]
 80049c0:	e002      	b.n	80049c8 <HAL_TIM_PWM_Start+0x68>
 80049c2:	f034 030c 	bics.w	r3, r4, #12
 80049c6:	d1f5      	bne.n	80049b4 <HAL_TIM_PWM_Start+0x54>
 80049c8:	2201      	movs	r2, #1
 80049ca:	4621      	mov	r1, r4
 80049cc:	f7ff ff70 	bl	80048b0 <TIM_CCxChannelCmd>
 80049d0:	682b      	ldr	r3, [r5, #0]
 80049d2:	4a10      	ldr	r2, [pc, #64]	; (8004a14 <HAL_TIM_PWM_Start+0xb4>)
 80049d4:	4293      	cmp	r3, r2
 80049d6:	d00e      	beq.n	80049f6 <HAL_TIM_PWM_Start+0x96>
 80049d8:	f502 6280 	add.w	r2, r2, #1024	; 0x400
 80049dc:	4293      	cmp	r3, r2
 80049de:	d00a      	beq.n	80049f6 <HAL_TIM_PWM_Start+0x96>
 80049e0:	689a      	ldr	r2, [r3, #8]
 80049e2:	f002 0207 	and.w	r2, r2, #7
 80049e6:	2a06      	cmp	r2, #6
 80049e8:	d003      	beq.n	80049f2 <HAL_TIM_PWM_Start+0x92>
 80049ea:	681a      	ldr	r2, [r3, #0]
 80049ec:	f042 0201 	orr.w	r2, r2, #1
 80049f0:	601a      	str	r2, [r3, #0]
 80049f2:	2000      	movs	r0, #0
 80049f4:	bd38      	pop	{r3, r4, r5, pc}
 80049f6:	6c5a      	ldr	r2, [r3, #68]	; 0x44
 80049f8:	f442 4200 	orr.w	r2, r2, #32768	; 0x8000
 80049fc:	645a      	str	r2, [r3, #68]	; 0x44
 80049fe:	e7ef      	b.n	80049e0 <HAL_TIM_PWM_Start+0x80>
 8004a00:	4b09      	ldr	r3, [pc, #36]	; (8004a28 <HAL_TIM_PWM_Start+0xc8>)
 8004a02:	4298      	cmp	r0, r3
 8004a04:	d002      	beq.n	8004a0c <HAL_TIM_PWM_Start+0xac>
 8004a06:	4b09      	ldr	r3, [pc, #36]	; (8004a2c <HAL_TIM_PWM_Start+0xcc>)
 8004a08:	4298      	cmp	r0, r3
 8004a0a:	d1d3      	bne.n	80049b4 <HAL_TIM_PWM_Start+0x54>
 8004a0c:	2c00      	cmp	r4, #0
 8004a0e:	d0db      	beq.n	80049c8 <HAL_TIM_PWM_Start+0x68>
 8004a10:	e7d0      	b.n	80049b4 <HAL_TIM_PWM_Start+0x54>
 8004a12:	bf00      	nop
 8004a14:	40010000 	.word	0x40010000
 8004a18:	40014400 	.word	0x40014400
 8004a1c:	40014800 	.word	0x40014800
 8004a20:	40001800 	.word	0x40001800
 8004a24:	0800b2b0 	.word	0x0800b2b0
 8004a28:	40001c00 	.word	0x40001c00
 8004a2c:	40002000 	.word	0x40002000

08004a30 <HAL_TIM_IC_Start>:
 8004a30:	b538      	push	{r3, r4, r5, lr}
 8004a32:	4605      	mov	r5, r0
 8004a34:	4b25      	ldr	r3, [pc, #148]	; (8004acc <HAL_TIM_IC_Start+0x9c>)
 8004a36:	6800      	ldr	r0, [r0, #0]
 8004a38:	4298      	cmp	r0, r3
 8004a3a:	460c      	mov	r4, r1
 8004a3c:	d029      	beq.n	8004a92 <HAL_TIM_IC_Start+0x62>
 8004a3e:	f1b0 4f80 	cmp.w	r0, #1073741824	; 0x40000000
 8004a42:	d026      	beq.n	8004a92 <HAL_TIM_IC_Start+0x62>
 8004a44:	f5a3 437c 	sub.w	r3, r3, #64512	; 0xfc00
 8004a48:	4298      	cmp	r0, r3
 8004a4a:	d022      	beq.n	8004a92 <HAL_TIM_IC_Start+0x62>
 8004a4c:	f503 6380 	add.w	r3, r3, #1024	; 0x400
 8004a50:	4298      	cmp	r0, r3
 8004a52:	d01e      	beq.n	8004a92 <HAL_TIM_IC_Start+0x62>
 8004a54:	f503 6380 	add.w	r3, r3, #1024	; 0x400
 8004a58:	4298      	cmp	r0, r3
 8004a5a:	d01a      	beq.n	8004a92 <HAL_TIM_IC_Start+0x62>
 8004a5c:	f503 4378 	add.w	r3, r3, #63488	; 0xf800
 8004a60:	4298      	cmp	r0, r3
 8004a62:	d016      	beq.n	8004a92 <HAL_TIM_IC_Start+0x62>
 8004a64:	f503 5370 	add.w	r3, r3, #15360	; 0x3c00
 8004a68:	4298      	cmp	r0, r3
 8004a6a:	d008      	beq.n	8004a7e <HAL_TIM_IC_Start+0x4e>
 8004a6c:	4b18      	ldr	r3, [pc, #96]	; (8004ad0 <HAL_TIM_IC_Start+0xa0>)
 8004a6e:	4298      	cmp	r0, r3
 8004a70:	d028      	beq.n	8004ac4 <HAL_TIM_IC_Start+0x94>
 8004a72:	4b18      	ldr	r3, [pc, #96]	; (8004ad4 <HAL_TIM_IC_Start+0xa4>)
 8004a74:	4298      	cmp	r0, r3
 8004a76:	d025      	beq.n	8004ac4 <HAL_TIM_IC_Start+0x94>
 8004a78:	4b17      	ldr	r3, [pc, #92]	; (8004ad8 <HAL_TIM_IC_Start+0xa8>)
 8004a7a:	4298      	cmp	r0, r3
 8004a7c:	d11c      	bne.n	8004ab8 <HAL_TIM_IC_Start+0x88>
 8004a7e:	f034 0304 	bics.w	r3, r4, #4
 8004a82:	d009      	beq.n	8004a98 <HAL_TIM_IC_Start+0x68>
 8004a84:	4815      	ldr	r0, [pc, #84]	; (8004adc <HAL_TIM_IC_Start+0xac>)
 8004a86:	f240 7151 	movw	r1, #1873	; 0x751
 8004a8a:	f000 fbeb 	bl	8005264 <assert_failed>
 8004a8e:	6828      	ldr	r0, [r5, #0]
 8004a90:	e002      	b.n	8004a98 <HAL_TIM_IC_Start+0x68>
 8004a92:	f034 030c 	bics.w	r3, r4, #12
 8004a96:	d1f5      	bne.n	8004a84 <HAL_TIM_IC_Start+0x54>
 8004a98:	2201      	movs	r2, #1
 8004a9a:	4621      	mov	r1, r4
 8004a9c:	f7ff ff08 	bl	80048b0 <TIM_CCxChannelCmd>
 8004aa0:	682a      	ldr	r2, [r5, #0]
 8004aa2:	6893      	ldr	r3, [r2, #8]
 8004aa4:	f003 0307 	and.w	r3, r3, #7
 8004aa8:	2b06      	cmp	r3, #6
 8004aaa:	d003      	beq.n	8004ab4 <HAL_TIM_IC_Start+0x84>
 8004aac:	6813      	ldr	r3, [r2, #0]
 8004aae:	f043 0301 	orr.w	r3, r3, #1
 8004ab2:	6013      	str	r3, [r2, #0]
 8004ab4:	2000      	movs	r0, #0
 8004ab6:	bd38      	pop	{r3, r4, r5, pc}
 8004ab8:	4b09      	ldr	r3, [pc, #36]	; (8004ae0 <HAL_TIM_IC_Start+0xb0>)
 8004aba:	4298      	cmp	r0, r3
 8004abc:	d002      	beq.n	8004ac4 <HAL_TIM_IC_Start+0x94>
 8004abe:	4b09      	ldr	r3, [pc, #36]	; (8004ae4 <HAL_TIM_IC_Start+0xb4>)
 8004ac0:	4298      	cmp	r0, r3
 8004ac2:	d1df      	bne.n	8004a84 <HAL_TIM_IC_Start+0x54>
 8004ac4:	2c00      	cmp	r4, #0
 8004ac6:	d0e7      	beq.n	8004a98 <HAL_TIM_IC_Start+0x68>
 8004ac8:	e7dc      	b.n	8004a84 <HAL_TIM_IC_Start+0x54>
 8004aca:	bf00      	nop
 8004acc:	40010000 	.word	0x40010000
 8004ad0:	40014400 	.word	0x40014400
 8004ad4:	40014800 	.word	0x40014800
 8004ad8:	40001800 	.word	0x40001800
 8004adc:	0800b2b0 	.word	0x0800b2b0
 8004ae0:	40001c00 	.word	0x40001c00
 8004ae4:	40002000 	.word	0x40002000

08004ae8 <UART_SetConfig>:
 8004ae8:	4b50      	ldr	r3, [pc, #320]	; (8004c2c <UART_SetConfig+0x144>)
 8004aea:	6842      	ldr	r2, [r0, #4]
 8004aec:	429a      	cmp	r2, r3
 8004aee:	b570      	push	{r4, r5, r6, lr}
 8004af0:	4604      	mov	r4, r0
 8004af2:	f200 808c 	bhi.w	8004c0e <UART_SetConfig+0x126>
 8004af6:	68e3      	ldr	r3, [r4, #12]
 8004af8:	f433 5300 	bics.w	r3, r3, #8192	; 0x2000
 8004afc:	d004      	beq.n	8004b08 <UART_SetConfig+0x20>
 8004afe:	f640 31fc 	movw	r1, #3068	; 0xbfc
 8004b02:	484b      	ldr	r0, [pc, #300]	; (8004c30 <UART_SetConfig+0x148>)
 8004b04:	f000 fbae 	bl	8005264 <assert_failed>
 8004b08:	6923      	ldr	r3, [r4, #16]
 8004b0a:	f433 6280 	bics.w	r2, r3, #1024	; 0x400
 8004b0e:	d003      	beq.n	8004b18 <UART_SetConfig+0x30>
 8004b10:	f5b3 6fc0 	cmp.w	r3, #1536	; 0x600
 8004b14:	f040 8081 	bne.w	8004c1a <UART_SetConfig+0x132>
 8004b18:	6960      	ldr	r0, [r4, #20]
 8004b1a:	f64f 73f3 	movw	r3, #65523	; 0xfff3
 8004b1e:	4218      	tst	r0, r3
 8004b20:	d140      	bne.n	8004ba4 <UART_SetConfig+0xbc>
 8004b22:	2800      	cmp	r0, #0
 8004b24:	d03e      	beq.n	8004ba4 <UART_SetConfig+0xbc>
 8004b26:	6822      	ldr	r2, [r4, #0]
 8004b28:	68e5      	ldr	r5, [r4, #12]
 8004b2a:	6911      	ldr	r1, [r2, #16]
 8004b2c:	68a3      	ldr	r3, [r4, #8]
 8004b2e:	6926      	ldr	r6, [r4, #16]
 8004b30:	f421 5140 	bic.w	r1, r1, #12288	; 0x3000
 8004b34:	4329      	orrs	r1, r5
 8004b36:	6111      	str	r1, [r2, #16]
 8004b38:	68d1      	ldr	r1, [r2, #12]
 8004b3a:	69e5      	ldr	r5, [r4, #28]
 8004b3c:	f421 4116 	bic.w	r1, r1, #38400	; 0x9600
 8004b40:	4333      	orrs	r3, r6
 8004b42:	f021 010c 	bic.w	r1, r1, #12
 8004b46:	432b      	orrs	r3, r5
 8004b48:	430b      	orrs	r3, r1
 8004b4a:	4303      	orrs	r3, r0
 8004b4c:	60d3      	str	r3, [r2, #12]
 8004b4e:	6953      	ldr	r3, [r2, #20]
 8004b50:	69a1      	ldr	r1, [r4, #24]
 8004b52:	f423 7340 	bic.w	r3, r3, #768	; 0x300
 8004b56:	430b      	orrs	r3, r1
 8004b58:	f5b5 4f00 	cmp.w	r5, #32768	; 0x8000
 8004b5c:	6153      	str	r3, [r2, #20]
 8004b5e:	4b35      	ldr	r3, [pc, #212]	; (8004c34 <UART_SetConfig+0x14c>)
 8004b60:	d02a      	beq.n	8004bb8 <UART_SetConfig+0xd0>
 8004b62:	429a      	cmp	r2, r3
 8004b64:	d025      	beq.n	8004bb2 <UART_SetConfig+0xca>
 8004b66:	f503 6380 	add.w	r3, r3, #1024	; 0x400
 8004b6a:	429a      	cmp	r2, r3
 8004b6c:	d021      	beq.n	8004bb2 <UART_SetConfig+0xca>
 8004b6e:	f7fd ff5d 	bl	8002a2c <HAL_RCC_GetPCLK1Freq>
 8004b72:	6863      	ldr	r3, [r4, #4]
 8004b74:	2219      	movs	r2, #25
 8004b76:	fba0 0102 	umull	r0, r1, r0, r2
 8004b7a:	009a      	lsls	r2, r3, #2
 8004b7c:	0f9b      	lsrs	r3, r3, #30
 8004b7e:	f7fc f81d 	bl	8000bbc <__aeabi_uldivmod>
 8004b82:	492d      	ldr	r1, [pc, #180]	; (8004c38 <UART_SetConfig+0x150>)
 8004b84:	6824      	ldr	r4, [r4, #0]
 8004b86:	fba1 3200 	umull	r3, r2, r1, r0
 8004b8a:	0952      	lsrs	r2, r2, #5
 8004b8c:	2364      	movs	r3, #100	; 0x64
 8004b8e:	fb03 0312 	mls	r3, r3, r2, r0
 8004b92:	011b      	lsls	r3, r3, #4
 8004b94:	3332      	adds	r3, #50	; 0x32
 8004b96:	fba1 1303 	umull	r1, r3, r1, r3
 8004b9a:	0112      	lsls	r2, r2, #4
 8004b9c:	eb02 1353 	add.w	r3, r2, r3, lsr #5
 8004ba0:	60a3      	str	r3, [r4, #8]
 8004ba2:	bd70      	pop	{r4, r5, r6, pc}
 8004ba4:	4822      	ldr	r0, [pc, #136]	; (8004c30 <UART_SetConfig+0x148>)
 8004ba6:	f640 31fe 	movw	r1, #3070	; 0xbfe
 8004baa:	f000 fb5b 	bl	8005264 <assert_failed>
 8004bae:	6960      	ldr	r0, [r4, #20]
 8004bb0:	e7b9      	b.n	8004b26 <UART_SetConfig+0x3e>
 8004bb2:	f7fd ff4b 	bl	8002a4c <HAL_RCC_GetPCLK2Freq>
 8004bb6:	e7dc      	b.n	8004b72 <UART_SetConfig+0x8a>
 8004bb8:	429a      	cmp	r2, r3
 8004bba:	d034      	beq.n	8004c26 <UART_SetConfig+0x13e>
 8004bbc:	f503 6380 	add.w	r3, r3, #1024	; 0x400
 8004bc0:	429a      	cmp	r2, r3
 8004bc2:	d030      	beq.n	8004c26 <UART_SetConfig+0x13e>
 8004bc4:	f7fd ff32 	bl	8002a2c <HAL_RCC_GetPCLK1Freq>
 8004bc8:	6862      	ldr	r2, [r4, #4]
 8004bca:	4d1b      	ldr	r5, [pc, #108]	; (8004c38 <UART_SetConfig+0x150>)
 8004bcc:	1892      	adds	r2, r2, r2
 8004bce:	f04f 0119 	mov.w	r1, #25
 8004bd2:	f04f 0600 	mov.w	r6, #0
 8004bd6:	eb46 0306 	adc.w	r3, r6, r6
 8004bda:	fba0 0101 	umull	r0, r1, r0, r1
 8004bde:	f7fb ffed 	bl	8000bbc <__aeabi_uldivmod>
 8004be2:	fba5 3200 	umull	r3, r2, r5, r0
 8004be6:	0951      	lsrs	r1, r2, #5
 8004be8:	2364      	movs	r3, #100	; 0x64
 8004bea:	fb03 0311 	mls	r3, r3, r1, r0
 8004bee:	00db      	lsls	r3, r3, #3
 8004bf0:	3332      	adds	r3, #50	; 0x32
 8004bf2:	fba5 2303 	umull	r2, r3, r5, r3
 8004bf6:	095b      	lsrs	r3, r3, #5
 8004bf8:	f003 0207 	and.w	r2, r3, #7
 8004bfc:	005b      	lsls	r3, r3, #1
 8004bfe:	6824      	ldr	r4, [r4, #0]
 8004c00:	eb02 1201 	add.w	r2, r2, r1, lsl #4
 8004c04:	f403 73f8 	and.w	r3, r3, #496	; 0x1f0
 8004c08:	4413      	add	r3, r2
 8004c0a:	60a3      	str	r3, [r4, #8]
 8004c0c:	bd70      	pop	{r4, r5, r6, pc}
 8004c0e:	f640 31fb 	movw	r1, #3067	; 0xbfb
 8004c12:	4807      	ldr	r0, [pc, #28]	; (8004c30 <UART_SetConfig+0x148>)
 8004c14:	f000 fb26 	bl	8005264 <assert_failed>
 8004c18:	e76d      	b.n	8004af6 <UART_SetConfig+0xe>
 8004c1a:	f640 31fd 	movw	r1, #3069	; 0xbfd
 8004c1e:	4804      	ldr	r0, [pc, #16]	; (8004c30 <UART_SetConfig+0x148>)
 8004c20:	f000 fb20 	bl	8005264 <assert_failed>
 8004c24:	e778      	b.n	8004b18 <UART_SetConfig+0x30>
 8004c26:	f7fd ff11 	bl	8002a4c <HAL_RCC_GetPCLK2Freq>
 8004c2a:	e7cd      	b.n	8004bc8 <UART_SetConfig+0xe0>
 8004c2c:	00a037a0 	.word	0x00a037a0
 8004c30:	0800b2e8 	.word	0x0800b2e8
 8004c34:	40011000 	.word	0x40011000
 8004c38:	51eb851f 	.word	0x51eb851f

08004c3c <UART_WaitOnFlagUntilTimeout.constprop.3>:
 8004c3c:	e92d 41f0 	stmdb	sp!, {r4, r5, r6, r7, r8, lr}
 8004c40:	4607      	mov	r7, r0
 8004c42:	460e      	mov	r6, r1
 8004c44:	4690      	mov	r8, r2
 8004c46:	461d      	mov	r5, r3
 8004c48:	683c      	ldr	r4, [r7, #0]
 8004c4a:	e001      	b.n	8004c50 <UART_WaitOnFlagUntilTimeout.constprop.3+0x14>
 8004c4c:	1c6b      	adds	r3, r5, #1
 8004c4e:	d106      	bne.n	8004c5e <UART_WaitOnFlagUntilTimeout.constprop.3+0x22>
 8004c50:	6820      	ldr	r0, [r4, #0]
 8004c52:	ea36 0300 	bics.w	r3, r6, r0
 8004c56:	d1f9      	bne.n	8004c4c <UART_WaitOnFlagUntilTimeout.constprop.3+0x10>
 8004c58:	2000      	movs	r0, #0
 8004c5a:	e8bd 81f0 	ldmia.w	sp!, {r4, r5, r6, r7, r8, pc}
 8004c5e:	b135      	cbz	r5, 8004c6e <UART_WaitOnFlagUntilTimeout.constprop.3+0x32>
 8004c60:	f7fc fc46 	bl	80014f0 <HAL_GetTick>
 8004c64:	eba0 0008 	sub.w	r0, r0, r8
 8004c68:	4285      	cmp	r5, r0
 8004c6a:	d2ed      	bcs.n	8004c48 <UART_WaitOnFlagUntilTimeout.constprop.3+0xc>
 8004c6c:	683c      	ldr	r4, [r7, #0]
 8004c6e:	68e3      	ldr	r3, [r4, #12]
 8004c70:	f423 73d0 	bic.w	r3, r3, #416	; 0x1a0
 8004c74:	60e3      	str	r3, [r4, #12]
 8004c76:	6963      	ldr	r3, [r4, #20]
 8004c78:	2220      	movs	r2, #32
 8004c7a:	f023 0301 	bic.w	r3, r3, #1
 8004c7e:	2100      	movs	r1, #0
 8004c80:	6163      	str	r3, [r4, #20]
 8004c82:	2003      	movs	r0, #3
 8004c84:	f887 2039 	strb.w	r2, [r7, #57]	; 0x39
 8004c88:	f887 1038 	strb.w	r1, [r7, #56]	; 0x38
 8004c8c:	f887 203a 	strb.w	r2, [r7, #58]	; 0x3a
 8004c90:	e7e3      	b.n	8004c5a <UART_WaitOnFlagUntilTimeout.constprop.3+0x1e>
 8004c92:	bf00      	nop

08004c94 <HAL_UART_MspInit>:
 8004c94:	4770      	bx	lr
 8004c96:	bf00      	nop

08004c98 <HAL_UART_Init>:
 8004c98:	2800      	cmp	r0, #0
 8004c9a:	d07a      	beq.n	8004d92 <HAL_UART_Init+0xfa>
 8004c9c:	6982      	ldr	r2, [r0, #24]
 8004c9e:	b538      	push	{r3, r4, r5, lr}
 8004ca0:	4604      	mov	r4, r0
 8004ca2:	6803      	ldr	r3, [r0, #0]
 8004ca4:	2a00      	cmp	r2, #0
 8004ca6:	d04f      	beq.n	8004d48 <HAL_UART_Init+0xb0>
 8004ca8:	4945      	ldr	r1, [pc, #276]	; (8004dc0 <HAL_UART_Init+0x128>)
 8004caa:	428b      	cmp	r3, r1
 8004cac:	d079      	beq.n	8004da2 <HAL_UART_Init+0x10a>
 8004cae:	f5a1 414c 	sub.w	r1, r1, #52224	; 0xcc00
 8004cb2:	428b      	cmp	r3, r1
 8004cb4:	d075      	beq.n	8004da2 <HAL_UART_Init+0x10a>
 8004cb6:	f501 6180 	add.w	r1, r1, #1024	; 0x400
 8004cba:	428b      	cmp	r3, r1
 8004cbc:	d071      	beq.n	8004da2 <HAL_UART_Init+0x10a>
 8004cbe:	f501 414c 	add.w	r1, r1, #52224	; 0xcc00
 8004cc2:	428b      	cmp	r3, r1
 8004cc4:	d06d      	beq.n	8004da2 <HAL_UART_Init+0x10a>
 8004cc6:	f240 114b 	movw	r1, #331	; 0x14b
 8004cca:	483e      	ldr	r0, [pc, #248]	; (8004dc4 <HAL_UART_Init+0x12c>)
 8004ccc:	f000 faca 	bl	8005264 <assert_failed>
 8004cd0:	69a2      	ldr	r2, [r4, #24]
 8004cd2:	2a00      	cmp	r2, #0
 8004cd4:	d165      	bne.n	8004da2 <HAL_UART_Init+0x10a>
 8004cd6:	68a3      	ldr	r3, [r4, #8]
 8004cd8:	f433 5380 	bics.w	r3, r3, #4096	; 0x1000
 8004cdc:	d004      	beq.n	8004ce8 <HAL_UART_Init+0x50>
 8004cde:	f44f 71a9 	mov.w	r1, #338	; 0x152
 8004ce2:	4838      	ldr	r0, [pc, #224]	; (8004dc4 <HAL_UART_Init+0x12c>)
 8004ce4:	f000 fabe 	bl	8005264 <assert_failed>
 8004ce8:	69e3      	ldr	r3, [r4, #28]
 8004cea:	f433 4300 	bics.w	r3, r3, #32768	; 0x8000
 8004cee:	d004      	beq.n	8004cfa <HAL_UART_Init+0x62>
 8004cf0:	f240 1153 	movw	r1, #339	; 0x153
 8004cf4:	4833      	ldr	r0, [pc, #204]	; (8004dc4 <HAL_UART_Init+0x12c>)
 8004cf6:	f000 fab5 	bl	8005264 <assert_failed>
 8004cfa:	f894 3039 	ldrb.w	r3, [r4, #57]	; 0x39
 8004cfe:	f003 02ff 	and.w	r2, r3, #255	; 0xff
 8004d02:	2b00      	cmp	r3, #0
 8004d04:	d047      	beq.n	8004d96 <HAL_UART_Init+0xfe>
 8004d06:	6822      	ldr	r2, [r4, #0]
 8004d08:	2324      	movs	r3, #36	; 0x24
 8004d0a:	f884 3039 	strb.w	r3, [r4, #57]	; 0x39
 8004d0e:	68d3      	ldr	r3, [r2, #12]
 8004d10:	f423 5300 	bic.w	r3, r3, #8192	; 0x2000
 8004d14:	60d3      	str	r3, [r2, #12]
 8004d16:	4620      	mov	r0, r4
 8004d18:	f7ff fee6 	bl	8004ae8 <UART_SetConfig>
 8004d1c:	6823      	ldr	r3, [r4, #0]
 8004d1e:	691a      	ldr	r2, [r3, #16]
 8004d20:	f422 4290 	bic.w	r2, r2, #18432	; 0x4800
 8004d24:	611a      	str	r2, [r3, #16]
 8004d26:	695a      	ldr	r2, [r3, #20]
 8004d28:	f022 022a 	bic.w	r2, r2, #42	; 0x2a
 8004d2c:	615a      	str	r2, [r3, #20]
 8004d2e:	68da      	ldr	r2, [r3, #12]
 8004d30:	2500      	movs	r5, #0
 8004d32:	2120      	movs	r1, #32
 8004d34:	f442 5200 	orr.w	r2, r2, #8192	; 0x2000
 8004d38:	60da      	str	r2, [r3, #12]
 8004d3a:	4628      	mov	r0, r5
 8004d3c:	63e5      	str	r5, [r4, #60]	; 0x3c
 8004d3e:	f884 1039 	strb.w	r1, [r4, #57]	; 0x39
 8004d42:	f884 103a 	strb.w	r1, [r4, #58]	; 0x3a
 8004d46:	bd38      	pop	{r3, r4, r5, pc}
 8004d48:	4a1d      	ldr	r2, [pc, #116]	; (8004dc0 <HAL_UART_Init+0x128>)
 8004d4a:	4293      	cmp	r3, r2
 8004d4c:	d0c3      	beq.n	8004cd6 <HAL_UART_Init+0x3e>
 8004d4e:	f5a2 424c 	sub.w	r2, r2, #52224	; 0xcc00
 8004d52:	4293      	cmp	r3, r2
 8004d54:	d0bf      	beq.n	8004cd6 <HAL_UART_Init+0x3e>
 8004d56:	f502 6280 	add.w	r2, r2, #1024	; 0x400
 8004d5a:	4293      	cmp	r3, r2
 8004d5c:	d0bb      	beq.n	8004cd6 <HAL_UART_Init+0x3e>
 8004d5e:	f502 6280 	add.w	r2, r2, #1024	; 0x400
 8004d62:	4293      	cmp	r3, r2
 8004d64:	d0b7      	beq.n	8004cd6 <HAL_UART_Init+0x3e>
 8004d66:	f502 6280 	add.w	r2, r2, #1024	; 0x400
 8004d6a:	4293      	cmp	r3, r2
 8004d6c:	d0b3      	beq.n	8004cd6 <HAL_UART_Init+0x3e>
 8004d6e:	f502 4244 	add.w	r2, r2, #50176	; 0xc400
 8004d72:	4293      	cmp	r3, r2
 8004d74:	d0af      	beq.n	8004cd6 <HAL_UART_Init+0x3e>
 8004d76:	f5a2 421c 	sub.w	r2, r2, #39936	; 0x9c00
 8004d7a:	4293      	cmp	r3, r2
 8004d7c:	d0ab      	beq.n	8004cd6 <HAL_UART_Init+0x3e>
 8004d7e:	f502 6280 	add.w	r2, r2, #1024	; 0x400
 8004d82:	4293      	cmp	r3, r2
 8004d84:	d0a7      	beq.n	8004cd6 <HAL_UART_Init+0x3e>
 8004d86:	f44f 71a8 	mov.w	r1, #336	; 0x150
 8004d8a:	480e      	ldr	r0, [pc, #56]	; (8004dc4 <HAL_UART_Init+0x12c>)
 8004d8c:	f000 fa6a 	bl	8005264 <assert_failed>
 8004d90:	e7a1      	b.n	8004cd6 <HAL_UART_Init+0x3e>
 8004d92:	2001      	movs	r0, #1
 8004d94:	4770      	bx	lr
 8004d96:	f884 2038 	strb.w	r2, [r4, #56]	; 0x38
 8004d9a:	4620      	mov	r0, r4
 8004d9c:	f7ff ff7a 	bl	8004c94 <HAL_UART_MspInit>
 8004da0:	e7b1      	b.n	8004d06 <HAL_UART_Init+0x6e>
 8004da2:	f422 7300 	bic.w	r3, r2, #512	; 0x200
 8004da6:	f5b3 7f80 	cmp.w	r3, #256	; 0x100
 8004daa:	d094      	beq.n	8004cd6 <HAL_UART_Init+0x3e>
 8004dac:	f5b2 7f00 	cmp.w	r2, #512	; 0x200
 8004db0:	d091      	beq.n	8004cd6 <HAL_UART_Init+0x3e>
 8004db2:	f44f 71a6 	mov.w	r1, #332	; 0x14c
 8004db6:	4803      	ldr	r0, [pc, #12]	; (8004dc4 <HAL_UART_Init+0x12c>)
 8004db8:	f000 fa54 	bl	8005264 <assert_failed>
 8004dbc:	e78b      	b.n	8004cd6 <HAL_UART_Init+0x3e>
 8004dbe:	bf00      	nop
 8004dc0:	40011000 	.word	0x40011000
 8004dc4:	0800b2e8 	.word	0x0800b2e8

08004dc8 <HAL_UART_Transmit>:
 8004dc8:	e92d 43f0 	stmdb	sp!, {r4, r5, r6, r7, r8, r9, lr}
 8004dcc:	460f      	mov	r7, r1
 8004dce:	f890 1039 	ldrb.w	r1, [r0, #57]	; 0x39
 8004dd2:	2920      	cmp	r1, #32
 8004dd4:	b083      	sub	sp, #12
 8004dd6:	d130      	bne.n	8004e3a <HAL_UART_Transmit+0x72>
 8004dd8:	2f00      	cmp	r7, #0
 8004dda:	d032      	beq.n	8004e42 <HAL_UART_Transmit+0x7a>
 8004ddc:	9201      	str	r2, [sp, #4]
 8004dde:	b382      	cbz	r2, 8004e42 <HAL_UART_Transmit+0x7a>
 8004de0:	4698      	mov	r8, r3
 8004de2:	f890 3038 	ldrb.w	r3, [r0, #56]	; 0x38
 8004de6:	2b01      	cmp	r3, #1
 8004de8:	4604      	mov	r4, r0
 8004dea:	d026      	beq.n	8004e3a <HAL_UART_Transmit+0x72>
 8004dec:	2500      	movs	r5, #0
 8004dee:	2101      	movs	r1, #1
 8004df0:	2321      	movs	r3, #33	; 0x21
 8004df2:	63c5      	str	r5, [r0, #60]	; 0x3c
 8004df4:	f880 1038 	strb.w	r1, [r0, #56]	; 0x38
 8004df8:	f880 3039 	strb.w	r3, [r0, #57]	; 0x39
 8004dfc:	f7fc fb78 	bl	80014f0 <HAL_GetTick>
 8004e00:	9a01      	ldr	r2, [sp, #4]
 8004e02:	f884 5038 	strb.w	r5, [r4, #56]	; 0x38
 8004e06:	4681      	mov	r9, r0
 8004e08:	84a2      	strh	r2, [r4, #36]	; 0x24
 8004e0a:	84e2      	strh	r2, [r4, #38]	; 0x26
 8004e0c:	8ce5      	ldrh	r5, [r4, #38]	; 0x26
 8004e0e:	b2ad      	uxth	r5, r5
 8004e10:	4643      	mov	r3, r8
 8004e12:	464a      	mov	r2, r9
 8004e14:	2180      	movs	r1, #128	; 0x80
 8004e16:	4620      	mov	r0, r4
 8004e18:	b355      	cbz	r5, 8004e70 <HAL_UART_Transmit+0xa8>
 8004e1a:	8ce5      	ldrh	r5, [r4, #38]	; 0x26
 8004e1c:	68a6      	ldr	r6, [r4, #8]
 8004e1e:	3d01      	subs	r5, #1
 8004e20:	b2ad      	uxth	r5, r5
 8004e22:	f5b6 5f80 	cmp.w	r6, #4096	; 0x1000
 8004e26:	84e5      	strh	r5, [r4, #38]	; 0x26
 8004e28:	d00f      	beq.n	8004e4a <HAL_UART_Transmit+0x82>
 8004e2a:	f7ff ff07 	bl	8004c3c <UART_WaitOnFlagUntilTimeout.constprop.3>
 8004e2e:	b9e8      	cbnz	r0, 8004e6c <HAL_UART_Transmit+0xa4>
 8004e30:	6823      	ldr	r3, [r4, #0]
 8004e32:	783a      	ldrb	r2, [r7, #0]
 8004e34:	605a      	str	r2, [r3, #4]
 8004e36:	3701      	adds	r7, #1
 8004e38:	e7e8      	b.n	8004e0c <HAL_UART_Transmit+0x44>
 8004e3a:	2002      	movs	r0, #2
 8004e3c:	b003      	add	sp, #12
 8004e3e:	e8bd 83f0 	ldmia.w	sp!, {r4, r5, r6, r7, r8, r9, pc}
 8004e42:	2001      	movs	r0, #1
 8004e44:	b003      	add	sp, #12
 8004e46:	e8bd 83f0 	ldmia.w	sp!, {r4, r5, r6, r7, r8, r9, pc}
 8004e4a:	4643      	mov	r3, r8
 8004e4c:	464a      	mov	r2, r9
 8004e4e:	2180      	movs	r1, #128	; 0x80
 8004e50:	4620      	mov	r0, r4
 8004e52:	f7ff fef3 	bl	8004c3c <UART_WaitOnFlagUntilTimeout.constprop.3>
 8004e56:	b948      	cbnz	r0, 8004e6c <HAL_UART_Transmit+0xa4>
 8004e58:	883b      	ldrh	r3, [r7, #0]
 8004e5a:	6821      	ldr	r1, [r4, #0]
 8004e5c:	6922      	ldr	r2, [r4, #16]
 8004e5e:	f3c3 0308 	ubfx	r3, r3, #0, #9
 8004e62:	604b      	str	r3, [r1, #4]
 8004e64:	2a00      	cmp	r2, #0
 8004e66:	d1e6      	bne.n	8004e36 <HAL_UART_Transmit+0x6e>
 8004e68:	3702      	adds	r7, #2
 8004e6a:	e7cf      	b.n	8004e0c <HAL_UART_Transmit+0x44>
 8004e6c:	2003      	movs	r0, #3
 8004e6e:	e7e5      	b.n	8004e3c <HAL_UART_Transmit+0x74>
 8004e70:	2140      	movs	r1, #64	; 0x40
 8004e72:	f7ff fee3 	bl	8004c3c <UART_WaitOnFlagUntilTimeout.constprop.3>
 8004e76:	2800      	cmp	r0, #0
 8004e78:	d1f8      	bne.n	8004e6c <HAL_UART_Transmit+0xa4>
 8004e7a:	2320      	movs	r3, #32
 8004e7c:	f884 3039 	strb.w	r3, [r4, #57]	; 0x39
 8004e80:	e7dc      	b.n	8004e3c <HAL_UART_Transmit+0x74>
 8004e82:	bf00      	nop

08004e84 <main>:
 8004e84:	b570      	push	{r4, r5, r6, lr}
 8004e86:	b086      	sub	sp, #24
 8004e88:	f000 f986 	bl	8005198 <pv_board_init>
 8004e8c:	b100      	cbz	r0, 8004e90 <main+0xc>
 8004e8e:	e7fe      	b.n	8004e8e <main+0xa>
 8004e90:	f000 f92e 	bl	80050f0 <pv_message_init>
 8004e94:	4604      	mov	r4, r0
 8004e96:	b100      	cbz	r0, 8004e9a <main+0x16>
 8004e98:	e7fe      	b.n	8004e98 <main+0x14>
 8004e9a:	f000 f977 	bl	800518c <pv_get_uuid>
 8004e9e:	4605      	mov	r5, r0
 8004ea0:	4832      	ldr	r0, [pc, #200]	; (8004f6c <main+0xe8>)
 8004ea2:	4e33      	ldr	r6, [pc, #204]	; (8004f70 <main+0xec>)
 8004ea4:	3d01      	subs	r5, #1
 8004ea6:	f004 fff1 	bl	8009e8c <iprintf>
 8004eaa:	e004      	b.n	8004eb6 <main+0x32>
 8004eac:	f815 1f01 	ldrb.w	r1, [r5, #1]!
 8004eb0:	f004 ffec 	bl	8009e8c <iprintf>
 8004eb4:	3401      	adds	r4, #1
 8004eb6:	f000 f96d 	bl	8005194 <pv_get_uuid_size>
 8004eba:	42a0      	cmp	r0, r4
 8004ebc:	4630      	mov	r0, r6
 8004ebe:	d8f5      	bhi.n	8004eac <main+0x28>
 8004ec0:	482c      	ldr	r0, [pc, #176]	; (8004f74 <main+0xf0>)
 8004ec2:	f005 f857 	bl	8009f74 <puts>
 8004ec6:	f000 f869 	bl	8004f9c <pv_audio_rec_init>
 8004eca:	b130      	cbz	r0, 8004eda <main+0x56>
 8004ecc:	f000 fa94 	bl	80053f8 <pv_status_to_string>
 8004ed0:	4601      	mov	r1, r0
 8004ed2:	4829      	ldr	r0, [pc, #164]	; (8004f78 <main+0xf4>)
 8004ed4:	f004 ffda 	bl	8009e8c <iprintf>
 8004ed8:	e7fe      	b.n	8004ed8 <main+0x54>
 8004eda:	f000 f87d 	bl	8004fd8 <pv_audio_rec_start>
 8004ede:	b130      	cbz	r0, 8004eee <main+0x6a>
 8004ee0:	f000 fa8a 	bl	80053f8 <pv_status_to_string>
 8004ee4:	4601      	mov	r1, r0
 8004ee6:	4825      	ldr	r0, [pc, #148]	; (8004f7c <main+0xf8>)
 8004ee8:	f004 ffd0 	bl	8009e8c <iprintf>
 8004eec:	e7fe      	b.n	8004eec <main+0x68>
 8004eee:	ab06      	add	r3, sp, #24
 8004ef0:	4923      	ldr	r1, [pc, #140]	; (8004f80 <main+0xfc>)
 8004ef2:	f843 0d08 	str.w	r0, [r3, #-8]!
 8004ef6:	4a23      	ldr	r2, [pc, #140]	; (8004f84 <main+0x100>)
 8004ef8:	9200      	str	r2, [sp, #0]
 8004efa:	e9cd 1301 	strd	r1, r3, [sp, #4]
 8004efe:	2201      	movs	r2, #1
 8004f00:	4b21      	ldr	r3, [pc, #132]	; (8004f88 <main+0x104>)
 8004f02:	4922      	ldr	r1, [pc, #136]	; (8004f8c <main+0x108>)
 8004f04:	f44f 40a0 	mov.w	r0, #20480	; 0x5000
 8004f08:	f000 fac2 	bl	8005490 <pv_porcupine_init>
 8004f0c:	4604      	mov	r4, r0
 8004f0e:	b9c0      	cbnz	r0, 8004f42 <main+0xbe>
 8004f10:	4e1f      	ldr	r6, [pc, #124]	; (8004f90 <main+0x10c>)
 8004f12:	f000 f873 	bl	8004ffc <pv_audio_rec_get_new_buffer>
 8004f16:	4601      	mov	r1, r0
 8004f18:	2800      	cmp	r0, #0
 8004f1a:	d0fa      	beq.n	8004f12 <main+0x8e>
 8004f1c:	aa05      	add	r2, sp, #20
 8004f1e:	9804      	ldr	r0, [sp, #16]
 8004f20:	f000 fca8 	bl	8005874 <pv_porcupine_process>
 8004f24:	1c63      	adds	r3, r4, #1
 8004f26:	4605      	mov	r5, r0
 8004f28:	b990      	cbnz	r0, 8004f50 <main+0xcc>
 8004f2a:	9a05      	ldr	r2, [sp, #20]
 8004f2c:	3201      	adds	r2, #1
 8004f2e:	d016      	beq.n	8004f5e <main+0xda>
 8004f30:	4630      	mov	r0, r6
 8004f32:	f005 f81f 	bl	8009f74 <puts>
 8004f36:	4628      	mov	r0, r5
 8004f38:	f7fc f872 	bl	8001020 <BSP_LED_On>
 8004f3c:	2301      	movs	r3, #1
 8004f3e:	461c      	mov	r4, r3
 8004f40:	e7e7      	b.n	8004f12 <main+0x8e>
 8004f42:	f000 fa59 	bl	80053f8 <pv_status_to_string>
 8004f46:	4601      	mov	r1, r0
 8004f48:	4812      	ldr	r0, [pc, #72]	; (8004f94 <main+0x110>)
 8004f4a:	f004 ff9f 	bl	8009e8c <iprintf>
 8004f4e:	e7fe      	b.n	8004f4e <main+0xca>
 8004f50:	f000 fa52 	bl	80053f8 <pv_status_to_string>
 8004f54:	4601      	mov	r1, r0
 8004f56:	4810      	ldr	r0, [pc, #64]	; (8004f98 <main+0x114>)
 8004f58:	f004 ff98 	bl	8009e8c <iprintf>
 8004f5c:	e7fe      	b.n	8004f5c <main+0xd8>
 8004f5e:	2c14      	cmp	r4, #20
 8004f60:	d9ed      	bls.n	8004f3e <main+0xba>
 8004f62:	f7fc f86d 	bl	8001040 <BSP_LED_Off>
 8004f66:	462b      	mov	r3, r5
 8004f68:	e7e9      	b.n	8004f3e <main+0xba>
 8004f6a:	bf00      	nop
 8004f6c:	0800b9f0 	.word	0x0800b9f0
 8004f70:	0800b9f8 	.word	0x0800b9f8
 8004f74:	0800ba00 	.word	0x0800ba00
 8004f78:	0800ba04 	.word	0x0800ba04
 8004f7c:	0800ba20 	.word	0x0800ba20
 8004f80:	0800ba94 	.word	0x0800ba94
 8004f84:	200004b0 	.word	0x200004b0
 8004f88:	200004ac 	.word	0x200004ac
 8004f8c:	200005e0 	.word	0x200005e0
 8004f90:	0800ba88 	.word	0x0800ba88
 8004f94:	0800ba44 	.word	0x0800ba44
 8004f98:	0800ba64 	.word	0x0800ba64

08004f9c <pv_audio_rec_init>:
 8004f9c:	b538      	push	{r3, r4, r5, lr}
 8004f9e:	4b0c      	ldr	r3, [pc, #48]	; (8004fd0 <pv_audio_rec_init+0x34>)
 8004fa0:	4a0c      	ldr	r2, [pc, #48]	; (8004fd4 <pv_audio_rec_init+0x38>)
 8004fa2:	60da      	str	r2, [r3, #12]
 8004fa4:	2502      	movs	r5, #2
 8004fa6:	f44f 547a 	mov.w	r4, #16000	; 0x3e80
 8004faa:	f44f 7100 	mov.w	r1, #512	; 0x200
 8004fae:	6099      	str	r1, [r3, #8]
 8004fb0:	462a      	mov	r2, r5
 8004fb2:	4620      	mov	r0, r4
 8004fb4:	2110      	movs	r1, #16
 8004fb6:	e9c3 5400 	strd	r5, r4, [r3]
 8004fba:	f7fc f9b5 	bl	8001328 <BSP_AUDIO_IN_Init>
 8004fbe:	b920      	cbnz	r0, 8004fca <pv_audio_rec_init+0x2e>
 8004fc0:	2064      	movs	r0, #100	; 0x64
 8004fc2:	f7fc f857 	bl	8001074 <BSP_AUDIO_IN_SetVolume>
 8004fc6:	b900      	cbnz	r0, 8004fca <pv_audio_rec_init+0x2e>
 8004fc8:	bd38      	pop	{r3, r4, r5, pc}
 8004fca:	2006      	movs	r0, #6
 8004fcc:	bd38      	pop	{r3, r4, r5, pc}
 8004fce:	bf00      	nop
 8004fd0:	200061fc 	.word	0x200061fc
 8004fd4:	20005de4 	.word	0x20005de4

08004fd8 <pv_audio_rec_start>:
 8004fd8:	b508      	push	{r3, lr}
 8004fda:	f44f 7180 	mov.w	r1, #256	; 0x100
 8004fde:	4805      	ldr	r0, [pc, #20]	; (8004ff4 <pv_audio_rec_start+0x1c>)
 8004fe0:	f7fc f83e 	bl	8001060 <BSP_AUDIO_IN_Record>
 8004fe4:	b918      	cbnz	r0, 8004fee <pv_audio_rec_start+0x16>
 8004fe6:	4b04      	ldr	r3, [pc, #16]	; (8004ff8 <pv_audio_rec_start+0x20>)
 8004fe8:	2201      	movs	r2, #1
 8004fea:	741a      	strb	r2, [r3, #16]
 8004fec:	bd08      	pop	{r3, pc}
 8004fee:	2006      	movs	r0, #6
 8004ff0:	bd08      	pop	{r3, pc}
 8004ff2:	bf00      	nop
 8004ff4:	20005e24 	.word	0x20005e24
 8004ff8:	200061fc 	.word	0x200061fc

08004ffc <pv_audio_rec_get_new_buffer>:
 8004ffc:	4b07      	ldr	r3, [pc, #28]	; (800501c <pv_audio_rec_get_new_buffer+0x20>)
 8004ffe:	6818      	ldr	r0, [r3, #0]
 8005000:	1c43      	adds	r3, r0, #1
 8005002:	d008      	beq.n	8005016 <pv_audio_rec_get_new_buffer+0x1a>
 8005004:	4a06      	ldr	r2, [pc, #24]	; (8005020 <pv_audio_rec_get_new_buffer+0x24>)
 8005006:	6813      	ldr	r3, [r2, #0]
 8005008:	4298      	cmp	r0, r3
 800500a:	d004      	beq.n	8005016 <pv_audio_rec_get_new_buffer+0x1a>
 800500c:	4b05      	ldr	r3, [pc, #20]	; (8005024 <pv_audio_rec_get_new_buffer+0x28>)
 800500e:	6010      	str	r0, [r2, #0]
 8005010:	eb03 2080 	add.w	r0, r3, r0, lsl #10
 8005014:	4770      	bx	lr
 8005016:	2000      	movs	r0, #0
 8005018:	4770      	bx	lr
 800501a:	bf00      	nop
 800501c:	200004b8 	.word	0x200004b8
 8005020:	200004b4 	.word	0x200004b4
 8005024:	200055e4 	.word	0x200055e4

08005028 <BSP_AUDIO_IN_TransferComplete_CallBack>:
 8005028:	b5f8      	push	{r3, r4, r5, r6, r7, lr}
 800502a:	4f12      	ldr	r7, [pc, #72]	; (8005074 <BSP_AUDIO_IN_TransferComplete_CallBack+0x4c>)
 800502c:	4d12      	ldr	r5, [pc, #72]	; (8005078 <BSP_AUDIO_IN_TransferComplete_CallBack+0x50>)
 800502e:	4913      	ldr	r1, [pc, #76]	; (800507c <BSP_AUDIO_IN_TransferComplete_CallBack+0x54>)
 8005030:	4813      	ldr	r0, [pc, #76]	; (8005080 <BSP_AUDIO_IN_TransferComplete_CallBack+0x58>)
 8005032:	f7fc f825 	bl	8001080 <BSP_AUDIO_IN_PDMToPCM>
 8005036:	683e      	ldr	r6, [r7, #0]
 8005038:	682c      	ldr	r4, [r5, #0]
 800503a:	4a12      	ldr	r2, [pc, #72]	; (8005084 <BSP_AUDIO_IN_TransferComplete_CallBack+0x5c>)
 800503c:	480f      	ldr	r0, [pc, #60]	; (800507c <BSP_AUDIO_IN_TransferComplete_CallBack+0x54>)
 800503e:	eb04 2346 	add.w	r3, r4, r6, lsl #9
 8005042:	eb02 0243 	add.w	r2, r2, r3, lsl #1
 8005046:	3a02      	subs	r2, #2
 8005048:	2300      	movs	r3, #0
 800504a:	f830 1023 	ldrh.w	r1, [r0, r3, lsl #2]
 800504e:	f822 1f02 	strh.w	r1, [r2, #2]!
 8005052:	3301      	adds	r3, #1
 8005054:	2b10      	cmp	r3, #16
 8005056:	d1f8      	bne.n	800504a <BSP_AUDIO_IN_TransferComplete_CallBack+0x22>
 8005058:	3410      	adds	r4, #16
 800505a:	f5b4 7f00 	cmp.w	r4, #512	; 0x200
 800505e:	602c      	str	r4, [r5, #0]
 8005060:	db06      	blt.n	8005070 <BSP_AUDIO_IN_TransferComplete_CallBack+0x48>
 8005062:	4909      	ldr	r1, [pc, #36]	; (8005088 <BSP_AUDIO_IN_TransferComplete_CallBack+0x60>)
 8005064:	f1c6 0201 	rsb	r2, r6, #1
 8005068:	2300      	movs	r3, #0
 800506a:	600e      	str	r6, [r1, #0]
 800506c:	603a      	str	r2, [r7, #0]
 800506e:	602b      	str	r3, [r5, #0]
 8005070:	bdf8      	pop	{r3, r4, r5, r6, r7, pc}
 8005072:	bf00      	nop
 8005074:	20006024 	.word	0x20006024
 8005078:	200055e0 	.word	0x200055e0
 800507c:	20005de4 	.word	0x20005de4
 8005080:	20005f24 	.word	0x20005f24
 8005084:	200055e4 	.word	0x200055e4
 8005088:	200004b8 	.word	0x200004b8

0800508c <BSP_AUDIO_IN_HalfTransfer_CallBack>:
 800508c:	b5f8      	push	{r3, r4, r5, r6, r7, lr}
 800508e:	4f12      	ldr	r7, [pc, #72]	; (80050d8 <BSP_AUDIO_IN_HalfTransfer_CallBack+0x4c>)
 8005090:	4d12      	ldr	r5, [pc, #72]	; (80050dc <BSP_AUDIO_IN_HalfTransfer_CallBack+0x50>)
 8005092:	4913      	ldr	r1, [pc, #76]	; (80050e0 <BSP_AUDIO_IN_HalfTransfer_CallBack+0x54>)
 8005094:	4813      	ldr	r0, [pc, #76]	; (80050e4 <BSP_AUDIO_IN_HalfTransfer_CallBack+0x58>)
 8005096:	f7fb fff3 	bl	8001080 <BSP_AUDIO_IN_PDMToPCM>
 800509a:	683e      	ldr	r6, [r7, #0]
 800509c:	682c      	ldr	r4, [r5, #0]
 800509e:	4a12      	ldr	r2, [pc, #72]	; (80050e8 <BSP_AUDIO_IN_HalfTransfer_CallBack+0x5c>)
 80050a0:	480f      	ldr	r0, [pc, #60]	; (80050e0 <BSP_AUDIO_IN_HalfTransfer_CallBack+0x54>)
 80050a2:	eb04 2346 	add.w	r3, r4, r6, lsl #9
 80050a6:	eb02 0243 	add.w	r2, r2, r3, lsl #1
 80050aa:	3a02      	subs	r2, #2
 80050ac:	2300      	movs	r3, #0
 80050ae:	f830 1023 	ldrh.w	r1, [r0, r3, lsl #2]
 80050b2:	f822 1f02 	strh.w	r1, [r2, #2]!
 80050b6:	3301      	adds	r3, #1
 80050b8:	2b10      	cmp	r3, #16
 80050ba:	d1f8      	bne.n	80050ae <BSP_AUDIO_IN_HalfTransfer_CallBack+0x22>
 80050bc:	3410      	adds	r4, #16
 80050be:	f5b4 7f00 	cmp.w	r4, #512	; 0x200
 80050c2:	602c      	str	r4, [r5, #0]
 80050c4:	db06      	blt.n	80050d4 <BSP_AUDIO_IN_HalfTransfer_CallBack+0x48>
 80050c6:	4909      	ldr	r1, [pc, #36]	; (80050ec <BSP_AUDIO_IN_HalfTransfer_CallBack+0x60>)
 80050c8:	f1c6 0201 	rsb	r2, r6, #1
 80050cc:	2300      	movs	r3, #0
 80050ce:	600e      	str	r6, [r1, #0]
 80050d0:	603a      	str	r2, [r7, #0]
 80050d2:	602b      	str	r3, [r5, #0]
 80050d4:	bdf8      	pop	{r3, r4, r5, r6, r7, pc}
 80050d6:	bf00      	nop
 80050d8:	20006024 	.word	0x20006024
 80050dc:	200055e0 	.word	0x200055e0
 80050e0:	20005de4 	.word	0x20005de4
 80050e4:	20005e24 	.word	0x20005e24
 80050e8:	200055e4 	.word	0x200055e4
 80050ec:	200004b8 	.word	0x200004b8

080050f0 <pv_message_init>:
 80050f0:	b570      	push	{r4, r5, r6, lr}
 80050f2:	2400      	movs	r4, #0
 80050f4:	b088      	sub	sp, #32
 80050f6:	e9cd 4405 	strd	r4, r4, [sp, #20]
 80050fa:	4b20      	ldr	r3, [pc, #128]	; (800517c <pv_message_init+0x8c>)
 80050fc:	9401      	str	r4, [sp, #4]
 80050fe:	6c1a      	ldr	r2, [r3, #64]	; 0x40
 8005100:	481f      	ldr	r0, [pc, #124]	; (8005180 <pv_message_init+0x90>)
 8005102:	f442 2280 	orr.w	r2, r2, #262144	; 0x40000
 8005106:	641a      	str	r2, [r3, #64]	; 0x40
 8005108:	6c1a      	ldr	r2, [r3, #64]	; 0x40
 800510a:	f402 2280 	and.w	r2, r2, #262144	; 0x40000
 800510e:	9201      	str	r2, [sp, #4]
 8005110:	9a01      	ldr	r2, [sp, #4]
 8005112:	9402      	str	r4, [sp, #8]
 8005114:	6b1a      	ldr	r2, [r3, #48]	; 0x30
 8005116:	f042 0202 	orr.w	r2, r2, #2
 800511a:	631a      	str	r2, [r3, #48]	; 0x30
 800511c:	6b1b      	ldr	r3, [r3, #48]	; 0x30
 800511e:	f003 0302 	and.w	r3, r3, #2
 8005122:	9302      	str	r3, [sp, #8]
 8005124:	2202      	movs	r2, #2
 8005126:	2307      	movs	r3, #7
 8005128:	f44f 6540 	mov.w	r5, #3072	; 0xc00
 800512c:	a903      	add	r1, sp, #12
 800512e:	e9cd 5203 	strd	r5, r2, [sp, #12]
 8005132:	9307      	str	r3, [sp, #28]
 8005134:	9e02      	ldr	r6, [sp, #8]
 8005136:	4d13      	ldr	r5, [pc, #76]	; (8005184 <pv_message_init+0x94>)
 8005138:	f7fc fd8e 	bl	8001c58 <HAL_GPIO_Init>
 800513c:	4b12      	ldr	r3, [pc, #72]	; (8005188 <pv_message_init+0x98>)
 800513e:	f44f 31e1 	mov.w	r1, #115200	; 0x1c200
 8005142:	220c      	movs	r2, #12
 8005144:	4618      	mov	r0, r3
 8005146:	609c      	str	r4, [r3, #8]
 8005148:	e9c3 4403 	strd	r4, r4, [r3, #12]
 800514c:	e9c3 4406 	strd	r4, r4, [r3, #24]
 8005150:	e9c3 5100 	strd	r5, r1, [r3]
 8005154:	615a      	str	r2, [r3, #20]
 8005156:	f7ff fd9f 	bl	8004c98 <HAL_UART_Init>
 800515a:	b958      	cbnz	r0, 8005174 <pv_message_init+0x84>
 800515c:	4602      	mov	r2, r0
 800515e:	4601      	mov	r1, r0
 8005160:	4604      	mov	r4, r0
 8005162:	2027      	movs	r0, #39	; 0x27
 8005164:	f7fc f9e6 	bl	8001534 <HAL_NVIC_SetPriority>
 8005168:	2027      	movs	r0, #39	; 0x27
 800516a:	f7fc fa29 	bl	80015c0 <HAL_NVIC_EnableIRQ>
 800516e:	4620      	mov	r0, r4
 8005170:	b008      	add	sp, #32
 8005172:	bd70      	pop	{r4, r5, r6, pc}
 8005174:	2006      	movs	r0, #6
 8005176:	b008      	add	sp, #32
 8005178:	bd70      	pop	{r4, r5, r6, pc}
 800517a:	bf00      	nop
 800517c:	40023800 	.word	0x40023800
 8005180:	40020400 	.word	0x40020400
 8005184:	40004800 	.word	0x40004800
 8005188:	20006210 	.word	0x20006210

0800518c <pv_get_uuid>:
 800518c:	4800      	ldr	r0, [pc, #0]	; (8005190 <pv_get_uuid+0x4>)
 800518e:	4770      	bx	lr
 8005190:	20006028 	.word	0x20006028

08005194 <pv_get_uuid_size>:
 8005194:	200c      	movs	r0, #12
 8005196:	4770      	bx	lr

08005198 <pv_board_init>:
 8005198:	b570      	push	{r4, r5, r6, lr}
 800519a:	b094      	sub	sp, #80	; 0x50
 800519c:	f7fc f982 	bl	80014a4 <HAL_Init>
 80051a0:	2800      	cmp	r0, #0
 80051a2:	d154      	bne.n	800524e <pv_board_init+0xb6>
 80051a4:	4a2b      	ldr	r2, [pc, #172]	; (8005254 <pv_board_init+0xbc>)
 80051a6:	9000      	str	r0, [sp, #0]
 80051a8:	6c11      	ldr	r1, [r2, #64]	; 0x40
 80051aa:	4b2b      	ldr	r3, [pc, #172]	; (8005258 <pv_board_init+0xc0>)
 80051ac:	f041 5180 	orr.w	r1, r1, #268435456	; 0x10000000
 80051b0:	6411      	str	r1, [r2, #64]	; 0x40
 80051b2:	6c12      	ldr	r2, [r2, #64]	; 0x40
 80051b4:	f002 5280 	and.w	r2, r2, #268435456	; 0x10000000
 80051b8:	9200      	str	r2, [sp, #0]
 80051ba:	9a00      	ldr	r2, [sp, #0]
 80051bc:	9001      	str	r0, [sp, #4]
 80051be:	681a      	ldr	r2, [r3, #0]
 80051c0:	f442 4240 	orr.w	r2, r2, #49152	; 0xc000
 80051c4:	601a      	str	r2, [r3, #0]
 80051c6:	681b      	ldr	r3, [r3, #0]
 80051c8:	f403 4340 	and.w	r3, r3, #49152	; 0xc000
 80051cc:	9301      	str	r3, [sp, #4]
 80051ce:	f44f 3280 	mov.w	r2, #65536	; 0x10000
 80051d2:	f44f 0380 	mov.w	r3, #4194304	; 0x400000
 80051d6:	2008      	movs	r0, #8
 80051d8:	2601      	movs	r6, #1
 80051da:	2502      	movs	r5, #2
 80051dc:	f44f 71b4 	mov.w	r1, #360	; 0x168
 80051e0:	e9cd 6207 	strd	r6, r2, [sp, #28]
 80051e4:	930e      	str	r3, [sp, #56]	; 0x38
 80051e6:	2207      	movs	r2, #7
 80051e8:	2306      	movs	r3, #6
 80051ea:	900f      	str	r0, [sp, #60]	; 0x3c
 80051ec:	a807      	add	r0, sp, #28
 80051ee:	9c01      	ldr	r4, [sp, #4]
 80051f0:	950d      	str	r5, [sp, #52]	; 0x34
 80051f2:	9511      	str	r5, [sp, #68]	; 0x44
 80051f4:	9110      	str	r1, [sp, #64]	; 0x40
 80051f6:	e9cd 2312 	strd	r2, r3, [sp, #72]	; 0x48
 80051fa:	f7fd ff19 	bl	8003030 <HAL_RCC_OscConfig>
 80051fe:	bb30      	cbnz	r0, 800524e <pv_board_init+0xb6>
 8005200:	f7fd fa92 	bl	8002728 <HAL_PWREx_EnableOverDrive>
 8005204:	bb18      	cbnz	r0, 800524e <pv_board_init+0xb6>
 8005206:	240f      	movs	r4, #15
 8005208:	f44f 52a0 	mov.w	r2, #5120	; 0x1400
 800520c:	f44f 5380 	mov.w	r3, #4096	; 0x1000
 8005210:	e9cd 5003 	strd	r5, r0, [sp, #12]
 8005214:	2105      	movs	r1, #5
 8005216:	a802      	add	r0, sp, #8
 8005218:	9402      	str	r4, [sp, #8]
 800521a:	e9cd 2305 	strd	r2, r3, [sp, #20]
 800521e:	f7fd faf7 	bl	8002810 <HAL_RCC_ClockConfig>
 8005222:	4604      	mov	r4, r0
 8005224:	b998      	cbnz	r0, 800524e <pv_board_init+0xb6>
 8005226:	4a0d      	ldr	r2, [pc, #52]	; (800525c <pv_board_init+0xc4>)
 8005228:	4b0d      	ldr	r3, [pc, #52]	; (8005260 <pv_board_init+0xc8>)
 800522a:	ca07      	ldmia	r2, {r0, r1, r2}
 800522c:	e883 0007 	stmia.w	r3, {r0, r1, r2}
 8005230:	4620      	mov	r0, r4
 8005232:	f7fb fe99 	bl	8000f68 <BSP_LED_Init>
 8005236:	4630      	mov	r0, r6
 8005238:	f7fb fe96 	bl	8000f68 <BSP_LED_Init>
 800523c:	4628      	mov	r0, r5
 800523e:	f7fb fe93 	bl	8000f68 <BSP_LED_Init>
 8005242:	2003      	movs	r0, #3
 8005244:	f7fb fe90 	bl	8000f68 <BSP_LED_Init>
 8005248:	4620      	mov	r0, r4
 800524a:	b014      	add	sp, #80	; 0x50
 800524c:	bd70      	pop	{r4, r5, r6, pc}
 800524e:	2006      	movs	r0, #6
 8005250:	b014      	add	sp, #80	; 0x50
 8005252:	bd70      	pop	{r4, r5, r6, pc}
 8005254:	40023800 	.word	0x40023800
 8005258:	40007000 	.word	0x40007000
 800525c:	1fff7a10 	.word	0x1fff7a10
 8005260:	20006028 	.word	0x20006028

08005264 <assert_failed>:
 8005264:	e7fe      	b.n	8005264 <assert_failed>
 8005266:	bf00      	nop

08005268 <__io_putchar>:
 8005268:	b500      	push	{lr}
 800526a:	b083      	sub	sp, #12
 800526c:	a902      	add	r1, sp, #8
 800526e:	f44f 737a 	mov.w	r3, #1000	; 0x3e8
 8005272:	f841 0d04 	str.w	r0, [r1, #-4]!
 8005276:	2201      	movs	r2, #1
 8005278:	4803      	ldr	r0, [pc, #12]	; (8005288 <__io_putchar+0x20>)
 800527a:	f7ff fda5 	bl	8004dc8 <HAL_UART_Transmit>
 800527e:	9801      	ldr	r0, [sp, #4]
 8005280:	b003      	add	sp, #12
 8005282:	f85d fb04 	ldr.w	pc, [sp], #4
 8005286:	bf00      	nop
 8005288:	20006210 	.word	0x20006210

0800528c <NMI_Handler>:
 800528c:	4770      	bx	lr
 800528e:	bf00      	nop

08005290 <SVC_Handler>:
 8005290:	4770      	bx	lr
 8005292:	bf00      	nop

08005294 <DebugMon_Handler>:
 8005294:	4770      	bx	lr
 8005296:	bf00      	nop

08005298 <PendSV_Handler>:
 8005298:	4770      	bx	lr
 800529a:	bf00      	nop

0800529c <DMA1_Stream2_IRQHandler>:
 800529c:	4b01      	ldr	r3, [pc, #4]	; (80052a4 <DMA1_Stream2_IRQHandler+0x8>)
 800529e:	6bd8      	ldr	r0, [r3, #60]	; 0x3c
 80052a0:	f7fc bc04 	b.w	8001aac <HAL_DMA_IRQHandler>
 80052a4:	200061b0 	.word	0x200061b0

080052a8 <SysTick_Handler>:
 80052a8:	f7fc b916 	b.w	80014d8 <HAL_IncTick>

080052ac <HardFault_Handler>:
 80052ac:	e7fe      	b.n	80052ac <HardFault_Handler>
 80052ae:	bf00      	nop

080052b0 <MemManage_Handler>:
 80052b0:	e7fe      	b.n	80052b0 <MemManage_Handler>
 80052b2:	bf00      	nop

080052b4 <BusFault_Handler>:
 80052b4:	e7fe      	b.n	80052b4 <BusFault_Handler>
 80052b6:	bf00      	nop

080052b8 <UsageFault_Handler>:
 80052b8:	e7fe      	b.n	80052b8 <UsageFault_Handler>
 80052ba:	bf00      	nop

080052bc <_read>:
 80052bc:	b570      	push	{r4, r5, r6, lr}
 80052be:	1e16      	subs	r6, r2, #0
 80052c0:	dd07      	ble.n	80052d2 <_read+0x16>
 80052c2:	460c      	mov	r4, r1
 80052c4:	198d      	adds	r5, r1, r6
 80052c6:	f3af 8000 	nop.w
 80052ca:	f804 0b01 	strb.w	r0, [r4], #1
 80052ce:	42a5      	cmp	r5, r4
 80052d0:	d1f9      	bne.n	80052c6 <_read+0xa>
 80052d2:	4630      	mov	r0, r6
 80052d4:	bd70      	pop	{r4, r5, r6, pc}
 80052d6:	bf00      	nop

080052d8 <_write>:
 80052d8:	b570      	push	{r4, r5, r6, lr}
 80052da:	1e16      	subs	r6, r2, #0
 80052dc:	dd07      	ble.n	80052ee <_write+0x16>
 80052de:	460c      	mov	r4, r1
 80052e0:	198d      	adds	r5, r1, r6
 80052e2:	f814 0b01 	ldrb.w	r0, [r4], #1
 80052e6:	f7ff ffbf 	bl	8005268 <__io_putchar>
 80052ea:	42a5      	cmp	r5, r4
 80052ec:	d1f9      	bne.n	80052e2 <_write+0xa>
 80052ee:	4630      	mov	r0, r6
 80052f0:	bd70      	pop	{r4, r5, r6, pc}
 80052f2:	bf00      	nop

080052f4 <_close>:
 80052f4:	f04f 30ff 	mov.w	r0, #4294967295	; 0xffffffff
 80052f8:	4770      	bx	lr
 80052fa:	bf00      	nop

080052fc <_fstat>:
 80052fc:	f44f 5300 	mov.w	r3, #8192	; 0x2000
 8005300:	604b      	str	r3, [r1, #4]
 8005302:	2000      	movs	r0, #0
 8005304:	4770      	bx	lr
 8005306:	bf00      	nop

08005308 <_isatty>:
 8005308:	2001      	movs	r0, #1
 800530a:	4770      	bx	lr

0800530c <_lseek>:
 800530c:	2000      	movs	r0, #0
 800530e:	4770      	bx	lr

08005310 <_sbrk>:
 8005310:	490c      	ldr	r1, [pc, #48]	; (8005344 <_sbrk+0x34>)
 8005312:	4a0d      	ldr	r2, [pc, #52]	; (8005348 <_sbrk+0x38>)
 8005314:	680b      	ldr	r3, [r1, #0]
 8005316:	b510      	push	{r4, lr}
 8005318:	4c0c      	ldr	r4, [pc, #48]	; (800534c <_sbrk+0x3c>)
 800531a:	1b12      	subs	r2, r2, r4
 800531c:	b12b      	cbz	r3, 800532a <_sbrk+0x1a>
 800531e:	4418      	add	r0, r3
 8005320:	4290      	cmp	r0, r2
 8005322:	d807      	bhi.n	8005334 <_sbrk+0x24>
 8005324:	6008      	str	r0, [r1, #0]
 8005326:	4618      	mov	r0, r3
 8005328:	bd10      	pop	{r4, pc}
 800532a:	4b09      	ldr	r3, [pc, #36]	; (8005350 <_sbrk+0x40>)
 800532c:	600b      	str	r3, [r1, #0]
 800532e:	4418      	add	r0, r3
 8005330:	4290      	cmp	r0, r2
 8005332:	d9f7      	bls.n	8005324 <_sbrk+0x14>
 8005334:	f004 f9e2 	bl	80096fc <__errno>
 8005338:	230c      	movs	r3, #12
 800533a:	6003      	str	r3, [r0, #0]
 800533c:	f04f 33ff 	mov.w	r3, #4294967295	; 0xffffffff
 8005340:	4618      	mov	r0, r3
 8005342:	bd10      	pop	{r4, pc}
 8005344:	20006034 	.word	0x20006034
 8005348:	20050000 	.word	0x20050000
 800534c:	00000400 	.word	0x00000400
 8005350:	20006258 	.word	0x20006258

08005354 <SystemInit>:
 8005354:	4910      	ldr	r1, [pc, #64]	; (8005398 <SystemInit+0x44>)
 8005356:	4b11      	ldr	r3, [pc, #68]	; (800539c <SystemInit+0x48>)
 8005358:	f8d1 2088 	ldr.w	r2, [r1, #136]	; 0x88
 800535c:	f442 0270 	orr.w	r2, r2, #15728640	; 0xf00000
 8005360:	b410      	push	{r4}
 8005362:	f8c1 2088 	str.w	r2, [r1, #136]	; 0x88
 8005366:	681a      	ldr	r2, [r3, #0]
 8005368:	4c0d      	ldr	r4, [pc, #52]	; (80053a0 <SystemInit+0x4c>)
 800536a:	2000      	movs	r0, #0
 800536c:	f042 0201 	orr.w	r2, r2, #1
 8005370:	601a      	str	r2, [r3, #0]
 8005372:	6098      	str	r0, [r3, #8]
 8005374:	681a      	ldr	r2, [r3, #0]
 8005376:	f022 7284 	bic.w	r2, r2, #17301504	; 0x1080000
 800537a:	f422 3280 	bic.w	r2, r2, #65536	; 0x10000
 800537e:	601a      	str	r2, [r3, #0]
 8005380:	605c      	str	r4, [r3, #4]
 8005382:	681a      	ldr	r2, [r3, #0]
 8005384:	f04f 6400 	mov.w	r4, #134217728	; 0x8000000
 8005388:	f422 2280 	bic.w	r2, r2, #262144	; 0x40000
 800538c:	601a      	str	r2, [r3, #0]
 800538e:	60d8      	str	r0, [r3, #12]
 8005390:	608c      	str	r4, [r1, #8]
 8005392:	f85d 4b04 	ldr.w	r4, [sp], #4
 8005396:	4770      	bx	lr
 8005398:	e000ed00 	.word	0xe000ed00
 800539c:	40023800 	.word	0x40023800
 80053a0:	24003010 	.word	0x24003010

080053a4 <Reset_Handler>:
 80053a4:	480d      	ldr	r0, [pc, #52]	; (80053dc <LoopForever+0x2>)
 80053a6:	4685      	mov	sp, r0
 80053a8:	f7ff ffd4 	bl	8005354 <SystemInit>
 80053ac:	480c      	ldr	r0, [pc, #48]	; (80053e0 <LoopForever+0x6>)
 80053ae:	490d      	ldr	r1, [pc, #52]	; (80053e4 <LoopForever+0xa>)
 80053b0:	4a0d      	ldr	r2, [pc, #52]	; (80053e8 <LoopForever+0xe>)
 80053b2:	2300      	movs	r3, #0
 80053b4:	e002      	b.n	80053bc <LoopCopyDataInit>

080053b6 <CopyDataInit>:
 80053b6:	58d4      	ldr	r4, [r2, r3]
 80053b8:	50c4      	str	r4, [r0, r3]
 80053ba:	3304      	adds	r3, #4

080053bc <LoopCopyDataInit>:
 80053bc:	18c4      	adds	r4, r0, r3
 80053be:	428c      	cmp	r4, r1
 80053c0:	d3f9      	bcc.n	80053b6 <CopyDataInit>
 80053c2:	4a0a      	ldr	r2, [pc, #40]	; (80053ec <LoopForever+0x12>)
 80053c4:	4c0a      	ldr	r4, [pc, #40]	; (80053f0 <LoopForever+0x16>)
 80053c6:	2300      	movs	r3, #0
 80053c8:	e001      	b.n	80053ce <LoopFillZerobss>

080053ca <FillZerobss>:
 80053ca:	6013      	str	r3, [r2, #0]
 80053cc:	3204      	adds	r2, #4

080053ce <LoopFillZerobss>:
 80053ce:	42a2      	cmp	r2, r4
 80053d0:	d3fb      	bcc.n	80053ca <FillZerobss>
 80053d2:	f004 f999 	bl	8009708 <__libc_init_array>
 80053d6:	f7ff fd55 	bl	8004e84 <main>

080053da <LoopForever>:
 80053da:	e7fe      	b.n	80053da <LoopForever>
 80053dc:	20050000 	.word	0x20050000
 80053e0:	20000000 	.word	0x20000000
 80053e4:	20000554 	.word	0x20000554
 80053e8:	080fdef8 	.word	0x080fdef8
 80053ec:	20000560 	.word	0x20000560
 80053f0:	20006254 	.word	0x20006254

080053f4 <ADC_IRQHandler>:
 80053f4:	e7fe      	b.n	80053f4 <ADC_IRQHandler>
	...

080053f8 <pv_status_to_string>:
 80053f8:	2806      	cmp	r0, #6
 80053fa:	bf9a      	itte	ls
 80053fc:	4b02      	ldrls	r3, [pc, #8]	; (8005408 <pv_status_to_string+0x10>)
 80053fe:	f853 0020 	ldrls.w	r0, [r3, r0, lsl #2]
 8005402:	2000      	movhi	r0, #0
 8005404:	4770      	bx	lr
 8005406:	bf00      	nop
 8005408:	0800bab0 	.word	0x0800bab0

0800540c <pv_porcupine_delete.part.0>:
 800540c:	b5f8      	push	{r3, r4, r5, r6, r7, lr}
 800540e:	6806      	ldr	r6, [r0, #0]
 8005410:	6a41      	ldr	r1, [r0, #36]	; 0x24
 8005412:	4605      	mov	r5, r0
 8005414:	4630      	mov	r0, r6
 8005416:	f001 f823 	bl	8006460 <taabe292>
 800541a:	6a28      	ldr	r0, [r5, #32]
 800541c:	f000 fb94 	bl	8005b48 <taabe230>
 8005420:	686f      	ldr	r7, [r5, #4]
 8005422:	3f01      	subs	r7, #1
 8005424:	d416      	bmi.n	8005454 <pv_porcupine_delete.part.0+0x48>
 8005426:	00bc      	lsls	r4, r7, #2
 8005428:	692b      	ldr	r3, [r5, #16]
 800542a:	5919      	ldr	r1, [r3, r4]
 800542c:	3f01      	subs	r7, #1
 800542e:	4630      	mov	r0, r6
 8005430:	b121      	cbz	r1, 800543c <pv_porcupine_delete.part.0+0x30>
 8005432:	6809      	ldr	r1, [r1, #0]
 8005434:	f001 f814 	bl	8006460 <taabe292>
 8005438:	692b      	ldr	r3, [r5, #16]
 800543a:	5919      	ldr	r1, [r3, r4]
 800543c:	4630      	mov	r0, r6
 800543e:	f001 f80f 	bl	8006460 <taabe292>
 8005442:	68eb      	ldr	r3, [r5, #12]
 8005444:	4630      	mov	r0, r6
 8005446:	5919      	ldr	r1, [r3, r4]
 8005448:	f001 f80a 	bl	8006460 <taabe292>
 800544c:	1c7b      	adds	r3, r7, #1
 800544e:	f1a4 0404 	sub.w	r4, r4, #4
 8005452:	d1e9      	bne.n	8005428 <pv_porcupine_delete.part.0+0x1c>
 8005454:	69e9      	ldr	r1, [r5, #28]
 8005456:	4630      	mov	r0, r6
 8005458:	f001 f802 	bl	8006460 <taabe292>
 800545c:	69a9      	ldr	r1, [r5, #24]
 800545e:	4630      	mov	r0, r6
 8005460:	f000 fffe 	bl	8006460 <taabe292>
 8005464:	6969      	ldr	r1, [r5, #20]
 8005466:	4630      	mov	r0, r6
 8005468:	f000 fffa 	bl	8006460 <taabe292>
 800546c:	6929      	ldr	r1, [r5, #16]
 800546e:	4630      	mov	r0, r6
 8005470:	f000 fff6 	bl	8006460 <taabe292>
 8005474:	68e9      	ldr	r1, [r5, #12]
 8005476:	4630      	mov	r0, r6
 8005478:	f000 fff2 	bl	8006460 <taabe292>
 800547c:	68a9      	ldr	r1, [r5, #8]
 800547e:	4630      	mov	r0, r6
 8005480:	f000 ffee 	bl	8006460 <taabe292>
 8005484:	4629      	mov	r1, r5
 8005486:	4630      	mov	r0, r6
 8005488:	e8bd 40f8 	ldmia.w	sp!, {r3, r4, r5, r6, r7, lr}
 800548c:	f000 bfe8 	b.w	8006460 <taabe292>

08005490 <pv_porcupine_init>:
 8005490:	e92d 4ff0 	stmdb	sp!, {r4, r5, r6, r7, r8, r9, sl, fp, lr}
 8005494:	ed2d 8b04 	vpush	{d8-d9}
 8005498:	b095      	sub	sp, #84	; 0x54
 800549a:	2400      	movs	r4, #0
 800549c:	9d24      	ldr	r5, [sp, #144]	; 0x90
 800549e:	f1b0 0c00 	subs.w	ip, r0, #0
 80054a2:	602c      	str	r4, [r5, #0]
 80054a4:	f340 8169 	ble.w	800577a <pv_porcupine_init+0x2ea>
 80054a8:	2900      	cmp	r1, #0
 80054aa:	f000 8166 	beq.w	800577a <pv_porcupine_init+0x2ea>
 80054ae:	42a2      	cmp	r2, r4
 80054b0:	f340 8163 	ble.w	800577a <pv_porcupine_init+0x2ea>
 80054b4:	2b00      	cmp	r3, #0
 80054b6:	f000 8160 	beq.w	800577a <pv_porcupine_init+0x2ea>
 80054ba:	1f1d      	subs	r5, r3, #4
 80054bc:	9b22      	ldr	r3, [sp, #136]	; 0x88
 80054be:	1f1f      	subs	r7, r3, #4
 80054c0:	463e      	mov	r6, r7
 80054c2:	462b      	mov	r3, r5
 80054c4:	f853 0f04 	ldr.w	r0, [r3, #4]!
 80054c8:	2800      	cmp	r0, #0
 80054ca:	f104 0401 	add.w	r4, r4, #1
 80054ce:	f340 8154 	ble.w	800577a <pv_porcupine_init+0x2ea>
 80054d2:	f856 0f04 	ldr.w	r0, [r6, #4]!
 80054d6:	2800      	cmp	r0, #0
 80054d8:	f000 814f 	beq.w	800577a <pv_porcupine_init+0x2ea>
 80054dc:	42a2      	cmp	r2, r4
 80054de:	d1f1      	bne.n	80054c4 <pv_porcupine_init+0x34>
 80054e0:	9b23      	ldr	r3, [sp, #140]	; 0x8c
 80054e2:	2b00      	cmp	r3, #0
 80054e4:	f000 8149 	beq.w	800577a <pv_porcupine_init+0x2ea>
 80054e8:	e9cd 1c08 	strd	r1, ip, [sp, #32]
 80054ec:	930a      	str	r3, [sp, #40]	; 0x28
 80054ee:	461a      	mov	r2, r3
 80054f0:	eeb7 7a00 	vmov.f32	s14, #112	; 0x3f800000  1.0
 80054f4:	2300      	movs	r3, #0
 80054f6:	ecf2 7a01 	vldmia	r2!, {s15}
 80054fa:	eef5 7ac0 	vcmpe.f32	s15, #0.0
 80054fe:	eef1 fa10 	vmrs	APSR_nzcv, fpscr
 8005502:	f103 0301 	add.w	r3, r3, #1
 8005506:	f100 813f 	bmi.w	8005788 <pv_porcupine_init+0x2f8>
 800550a:	eef4 7ac7 	vcmpe.f32	s15, s14
 800550e:	eef1 fa10 	vmrs	APSR_nzcv, fpscr
 8005512:	f300 8139 	bgt.w	8005788 <pv_porcupine_init+0x2f8>
 8005516:	42a3      	cmp	r3, r4
 8005518:	d1ed      	bne.n	80054f6 <pv_porcupine_init+0x66>
 800551a:	ab14      	add	r3, sp, #80	; 0x50
 800551c:	2200      	movs	r2, #0
 800551e:	f843 2d18 	str.w	r2, [r3, #-24]!
 8005522:	e9dd 0108 	ldrd	r0, r1, [sp, #32]
 8005526:	2280      	movs	r2, #128	; 0x80
 8005528:	f000 ff44 	bl	80063b4 <taabe289>
 800552c:	4606      	mov	r6, r0
 800552e:	2800      	cmp	r0, #0
 8005530:	f040 8124 	bne.w	800577c <pv_porcupine_init+0x2ec>
 8005534:	ed9f 8ac4 	vldr	s16, [pc, #784]	; 8005848 <pv_porcupine_init+0x3b8>
 8005538:	950b      	str	r5, [sp, #44]	; 0x2c
 800553a:	4681      	mov	r9, r0
 800553c:	4680      	mov	r8, r0
 800553e:	463e      	mov	r6, r7
 8005540:	46ab      	mov	fp, r5
 8005542:	f10d 0335 	add.w	r3, sp, #53	; 0x35
 8005546:	f856 2f04 	ldr.w	r2, [r6, #4]!
 800554a:	f85b 1f04 	ldr.w	r1, [fp, #4]!
 800554e:	9307      	str	r3, [sp, #28]
 8005550:	ab0d      	add	r3, sp, #52	; 0x34
 8005552:	9306      	str	r3, [sp, #24]
 8005554:	ab13      	add	r3, sp, #76	; 0x4c
 8005556:	9305      	str	r3, [sp, #20]
 8005558:	ab12      	add	r3, sp, #72	; 0x48
 800555a:	9304      	str	r3, [sp, #16]
 800555c:	ab11      	add	r3, sp, #68	; 0x44
 800555e:	9303      	str	r3, [sp, #12]
 8005560:	ab10      	add	r3, sp, #64	; 0x40
 8005562:	9302      	str	r3, [sp, #8]
 8005564:	ab0f      	add	r3, sp, #60	; 0x3c
 8005566:	9301      	str	r3, [sp, #4]
 8005568:	f10d 0336 	add.w	r3, sp, #54	; 0x36
 800556c:	2500      	movs	r5, #0
 800556e:	9300      	str	r3, [sp, #0]
 8005570:	f04f 0a01 	mov.w	sl, #1
 8005574:	f641 2cd5 	movw	ip, #6869	; 0x1ad5
 8005578:	980e      	ldr	r0, [sp, #56]	; 0x38
 800557a:	4bb4      	ldr	r3, [pc, #720]	; (800584c <pv_porcupine_init+0x3bc>)
 800557c:	f8ad c036 	strh.w	ip, [sp, #54]	; 0x36
 8005580:	ed8d 8a12 	vstr	s16, [sp, #72]	; 0x48
 8005584:	ed8d 8a13 	vstr	s16, [sp, #76]	; 0x4c
 8005588:	e9cd 550f 	strd	r5, r5, [sp, #60]	; 0x3c
 800558c:	9511      	str	r5, [sp, #68]	; 0x44
 800558e:	f88d 5034 	strb.w	r5, [sp, #52]	; 0x34
 8005592:	f88d a035 	strb.w	sl, [sp, #53]	; 0x35
 8005596:	f000 fc1f 	bl	8005dd8 <taabe236>
 800559a:	44d0      	add	r8, sl
 800559c:	2800      	cmp	r0, #0
 800559e:	f040 80f8 	bne.w	8005792 <pv_porcupine_init+0x302>
 80055a2:	9b0f      	ldr	r3, [sp, #60]	; 0x3c
 80055a4:	4544      	cmp	r4, r8
 80055a6:	4499      	add	r9, r3
 80055a8:	dccb      	bgt.n	8005542 <pv_porcupine_init+0xb2>
 80055aa:	44a1      	add	r9, r4
 80055ac:	eb09 0989 	add.w	r9, r9, r9, lsl #2
 80055b0:	4606      	mov	r6, r0
 80055b2:	f109 0259 	add.w	r2, r9, #89	; 0x59
 80055b6:	ab11      	add	r3, sp, #68	; 0x44
 80055b8:	e9dd 0108 	ldrd	r0, r1, [sp, #32]
 80055bc:	9611      	str	r6, [sp, #68]	; 0x44
 80055be:	9d0b      	ldr	r5, [sp, #44]	; 0x2c
 80055c0:	f000 fef8 	bl	80063b4 <taabe289>
 80055c4:	4606      	mov	r6, r0
 80055c6:	2800      	cmp	r0, #0
 80055c8:	f040 80d8 	bne.w	800577c <pv_porcupine_init+0x2ec>
 80055cc:	4652      	mov	r2, sl
 80055ce:	2128      	movs	r1, #40	; 0x28
 80055d0:	9811      	ldr	r0, [sp, #68]	; 0x44
 80055d2:	f000 ff13 	bl	80063fc <taabe291>
 80055d6:	4681      	mov	r9, r0
 80055d8:	2800      	cmp	r0, #0
 80055da:	f000 80df 	beq.w	800579c <pv_porcupine_init+0x30c>
 80055de:	9811      	ldr	r0, [sp, #68]	; 0x44
 80055e0:	f8c9 0000 	str.w	r0, [r9]
 80055e4:	ea4f 0884 	mov.w	r8, r4, lsl #2
 80055e8:	f8c9 4004 	str.w	r4, [r9, #4]
 80055ec:	4641      	mov	r1, r8
 80055ee:	4652      	mov	r2, sl
 80055f0:	f000 ff04 	bl	80063fc <taabe291>
 80055f4:	f8c9 0008 	str.w	r0, [r9, #8]
 80055f8:	2800      	cmp	r0, #0
 80055fa:	f000 80cc 	beq.w	8005796 <pv_porcupine_init+0x306>
 80055fe:	4652      	mov	r2, sl
 8005600:	4641      	mov	r1, r8
 8005602:	9811      	ldr	r0, [sp, #68]	; 0x44
 8005604:	f000 fefa 	bl	80063fc <taabe291>
 8005608:	f8c9 000c 	str.w	r0, [r9, #12]
 800560c:	2800      	cmp	r0, #0
 800560e:	f000 80c2 	beq.w	8005796 <pv_porcupine_init+0x306>
 8005612:	4641      	mov	r1, r8
 8005614:	4652      	mov	r2, sl
 8005616:	9811      	ldr	r0, [sp, #68]	; 0x44
 8005618:	f000 fef0 	bl	80063fc <taabe291>
 800561c:	f8c9 0010 	str.w	r0, [r9, #16]
 8005620:	2800      	cmp	r0, #0
 8005622:	f000 80b8 	beq.w	8005796 <pv_porcupine_init+0x306>
 8005626:	4632      	mov	r2, r6
 8005628:	4621      	mov	r1, r4
 800562a:	9811      	ldr	r0, [sp, #68]	; 0x44
 800562c:	f000 fee6 	bl	80063fc <taabe291>
 8005630:	f8c9 0014 	str.w	r0, [r9, #20]
 8005634:	2800      	cmp	r0, #0
 8005636:	f000 80ae 	beq.w	8005796 <pv_porcupine_init+0x306>
 800563a:	0063      	lsls	r3, r4, #1
 800563c:	4619      	mov	r1, r3
 800563e:	4632      	mov	r2, r6
 8005640:	9811      	ldr	r0, [sp, #68]	; 0x44
 8005642:	9308      	str	r3, [sp, #32]
 8005644:	f000 feda 	bl	80063fc <taabe291>
 8005648:	f8c9 0018 	str.w	r0, [r9, #24]
 800564c:	2800      	cmp	r0, #0
 800564e:	f000 80a2 	beq.w	8005796 <pv_porcupine_init+0x306>
 8005652:	4632      	mov	r2, r6
 8005654:	4621      	mov	r1, r4
 8005656:	9811      	ldr	r0, [sp, #68]	; 0x44
 8005658:	f000 fed0 	bl	80063fc <taabe291>
 800565c:	f8c9 001c 	str.w	r0, [r9, #28]
 8005660:	2800      	cmp	r0, #0
 8005662:	f000 8098 	beq.w	8005796 <pv_porcupine_init+0x306>
 8005666:	2300      	movs	r3, #0
 8005668:	227f      	movs	r2, #127	; 0x7f
 800566a:	f8d9 101c 	ldr.w	r1, [r9, #28]
 800566e:	54ca      	strb	r2, [r1, r3]
 8005670:	3301      	adds	r3, #1
 8005672:	42a3      	cmp	r3, r4
 8005674:	dbf9      	blt.n	800566a <pv_porcupine_init+0x1da>
 8005676:	ed9f 8a74 	vldr	s16, [pc, #464]	; 8005848 <pv_porcupine_init+0x3b8>
 800567a:	eddf 9a75 	vldr	s19, [pc, #468]	; 8005850 <pv_porcupine_init+0x3c0>
 800567e:	ed9f 9a75 	vldr	s18, [pc, #468]	; 8005854 <pv_porcupine_init+0x3c4>
 8005682:	eddf 8a75 	vldr	s17, [pc, #468]	; 8005858 <pv_porcupine_init+0x3c8>
 8005686:	f8dd b028 	ldr.w	fp, [sp, #40]	; 0x28
 800568a:	f04f 0a00 	mov.w	sl, #0
 800568e:	f641 26d5 	movw	r6, #6869	; 0x1ad5
 8005692:	e033      	b.n	80056fc <pv_porcupine_init+0x26c>
 8005694:	f89d 303c 	ldrb.w	r3, [sp, #60]	; 0x3c
 8005698:	2b00      	cmp	r3, #0
 800569a:	f040 80a8 	bne.w	80057ee <pv_porcupine_init+0x35e>
 800569e:	4546      	cmp	r6, r8
 80056a0:	f8bd 2040 	ldrh.w	r2, [sp, #64]	; 0x40
 80056a4:	d002      	beq.n	80056ac <pv_porcupine_init+0x21c>
 80056a6:	42b2      	cmp	r2, r6
 80056a8:	f040 80a9 	bne.w	80057fe <pv_porcupine_init+0x36e>
 80056ac:	eddd 7a13 	vldr	s15, [sp, #76]	; 0x4c
 80056b0:	eddd 6a12 	vldr	s13, [sp, #72]	; 0x48
 80056b4:	ecbb 7a01 	vldmia	fp!, {s14}
 80056b8:	f8d9 0018 	ldr.w	r0, [r9, #24]
 80056bc:	ee77 6ae6 	vsub.f32	s13, s15, s13
 80056c0:	f647 73ff 	movw	r3, #32767	; 0x7fff
 80056c4:	ee26 7a87 	vmul.f32	s14, s13, s14
 80056c8:	ee77 7ac7 	vsub.f32	s15, s15, s14
 80056cc:	ee67 7aa9 	vmul.f32	s15, s15, s19
 80056d0:	eef4 7ac9 	vcmpe.f32	s15, s18
 80056d4:	eef1 fa10 	vmrs	APSR_nzcv, fpscr
 80056d8:	da0a      	bge.n	80056f0 <pv_porcupine_init+0x260>
 80056da:	eef4 7ae8 	vcmpe.f32	s15, s17
 80056de:	eef1 fa10 	vmrs	APSR_nzcv, fpscr
 80056e2:	bf89      	itett	hi
 80056e4:	eefd 7ae7 	vcvthi.s32.f32	s15, s15
 80056e8:	4b5c      	ldrls	r3, [pc, #368]	; (800585c <pv_porcupine_init+0x3cc>)
 80056ea:	ee17 3a90 	vmovhi	r3, s15
 80056ee:	b21b      	sxthhi	r3, r3
 80056f0:	f10a 0a01 	add.w	sl, sl, #1
 80056f4:	45a2      	cmp	sl, r4
 80056f6:	5243      	strh	r3, [r0, r1]
 80056f8:	4616      	mov	r6, r2
 80056fa:	da51      	bge.n	80057a0 <pv_porcupine_init+0x310>
 80056fc:	ab0f      	add	r3, sp, #60	; 0x3c
 80056fe:	9307      	str	r3, [sp, #28]
 8005700:	f8d9 3014 	ldr.w	r3, [r9, #20]
 8005704:	4453      	add	r3, sl
 8005706:	9306      	str	r3, [sp, #24]
 8005708:	aa13      	add	r2, sp, #76	; 0x4c
 800570a:	ab12      	add	r3, sp, #72	; 0x48
 800570c:	9205      	str	r2, [sp, #20]
 800570e:	9304      	str	r3, [sp, #16]
 8005710:	f8d9 3010 	ldr.w	r3, [r9, #16]
 8005714:	f855 1f04 	ldr.w	r1, [r5, #4]!
 8005718:	f857 2f04 	ldr.w	r2, [r7, #4]!
 800571c:	ed8d 8a12 	vstr	s16, [sp, #72]	; 0x48
 8005720:	ea4f 0c8a 	mov.w	ip, sl, lsl #2
 8005724:	4463      	add	r3, ip
 8005726:	9303      	str	r3, [sp, #12]
 8005728:	f8d9 300c 	ldr.w	r3, [r9, #12]
 800572c:	ed8d 8a13 	vstr	s16, [sp, #76]	; 0x4c
 8005730:	4463      	add	r3, ip
 8005732:	9302      	str	r3, [sp, #8]
 8005734:	f8d9 3008 	ldr.w	r3, [r9, #8]
 8005738:	a810      	add	r0, sp, #64	; 0x40
 800573a:	4463      	add	r3, ip
 800573c:	9000      	str	r0, [sp, #0]
 800573e:	9301      	str	r3, [sp, #4]
 8005740:	f04f 0c01 	mov.w	ip, #1
 8005744:	9811      	ldr	r0, [sp, #68]	; 0x44
 8005746:	4b41      	ldr	r3, [pc, #260]	; (800584c <pv_porcupine_init+0x3bc>)
 8005748:	f88d c03c 	strb.w	ip, [sp, #60]	; 0x3c
 800574c:	f641 28d5 	movw	r8, #6869	; 0x1ad5
 8005750:	f8ad 8040 	strh.w	r8, [sp, #64]	; 0x40
 8005754:	f000 fb40 	bl	8005dd8 <taabe236>
 8005758:	ea4f 014a 	mov.w	r1, sl, lsl #1
 800575c:	2800      	cmp	r0, #0
 800575e:	d099      	beq.n	8005694 <pv_porcupine_init+0x204>
 8005760:	4606      	mov	r6, r0
 8005762:	4648      	mov	r0, r9
 8005764:	f7ff fe52 	bl	800540c <pv_porcupine_delete.part.0>
 8005768:	4630      	mov	r0, r6
 800576a:	f7ff fe45 	bl	80053f8 <pv_status_to_string>
 800576e:	4651      	mov	r1, sl
 8005770:	4602      	mov	r2, r0
 8005772:	483b      	ldr	r0, [pc, #236]	; (8005860 <pv_porcupine_init+0x3d0>)
 8005774:	f001 f8f8 	bl	8006968 <taabe263>
 8005778:	e000      	b.n	800577c <pv_porcupine_init+0x2ec>
 800577a:	2603      	movs	r6, #3
 800577c:	4630      	mov	r0, r6
 800577e:	b015      	add	sp, #84	; 0x54
 8005780:	ecbd 8b04 	vpop	{d8-d9}
 8005784:	e8bd 8ff0 	ldmia.w	sp!, {r4, r5, r6, r7, r8, r9, sl, fp, pc}
 8005788:	4836      	ldr	r0, [pc, #216]	; (8005864 <pv_porcupine_init+0x3d4>)
 800578a:	f001 f8ed 	bl	8006968 <taabe263>
 800578e:	2603      	movs	r6, #3
 8005790:	e7f4      	b.n	800577c <pv_porcupine_init+0x2ec>
 8005792:	4606      	mov	r6, r0
 8005794:	e7f2      	b.n	800577c <pv_porcupine_init+0x2ec>
 8005796:	4648      	mov	r0, r9
 8005798:	f7ff fe38 	bl	800540c <pv_porcupine_delete.part.0>
 800579c:	2601      	movs	r6, #1
 800579e:	e7ed      	b.n	800577c <pv_porcupine_init+0x2ec>
 80057a0:	f109 0320 	add.w	r3, r9, #32
 80057a4:	9302      	str	r3, [sp, #8]
 80057a6:	f8d9 3014 	ldr.w	r3, [r9, #20]
 80057aa:	9301      	str	r3, [sp, #4]
 80057ac:	f8d9 3010 	ldr.w	r3, [r9, #16]
 80057b0:	9300      	str	r3, [sp, #0]
 80057b2:	4690      	mov	r8, r2
 80057b4:	4621      	mov	r1, r4
 80057b6:	e9d9 2302 	ldrd	r2, r3, [r9, #8]
 80057ba:	9811      	ldr	r0, [sp, #68]	; 0x44
 80057bc:	f000 f8e6 	bl	800598c <taabe229>
 80057c0:	4606      	mov	r6, r0
 80057c2:	2800      	cmp	r0, #0
 80057c4:	d13b      	bne.n	800583e <pv_porcupine_init+0x3ae>
 80057c6:	f8d9 0020 	ldr.w	r0, [r9, #32]
 80057ca:	f000 fb01 	bl	8005dd0 <taabe233>
 80057ce:	4540      	cmp	r0, r8
 80057d0:	4604      	mov	r4, r0
 80057d2:	d126      	bne.n	8005822 <pv_porcupine_init+0x392>
 80057d4:	9908      	ldr	r1, [sp, #32]
 80057d6:	9811      	ldr	r0, [sp, #68]	; 0x44
 80057d8:	2201      	movs	r2, #1
 80057da:	f000 fe0f 	bl	80063fc <taabe291>
 80057de:	f8c9 0024 	str.w	r0, [r9, #36]	; 0x24
 80057e2:	2800      	cmp	r0, #0
 80057e4:	d0d7      	beq.n	8005796 <pv_porcupine_init+0x306>
 80057e6:	9b24      	ldr	r3, [sp, #144]	; 0x90
 80057e8:	f8c3 9000 	str.w	r9, [r3]
 80057ec:	e7c6      	b.n	800577c <pv_porcupine_init+0x2ec>
 80057ee:	4648      	mov	r0, r9
 80057f0:	f7ff fe0c 	bl	800540c <pv_porcupine_delete.part.0>
 80057f4:	481c      	ldr	r0, [pc, #112]	; (8005868 <pv_porcupine_init+0x3d8>)
 80057f6:	f001 f8b7 	bl	8006968 <taabe263>
 80057fa:	2603      	movs	r6, #3
 80057fc:	e7be      	b.n	800577c <pv_porcupine_init+0x2ec>
 80057fe:	4630      	mov	r0, r6
 8005800:	f000 fdbc 	bl	800637c <taabe297>
 8005804:	4604      	mov	r4, r0
 8005806:	f8bd 0040 	ldrh.w	r0, [sp, #64]	; 0x40
 800580a:	f000 fdb7 	bl	800637c <taabe297>
 800580e:	4622      	mov	r2, r4
 8005810:	9000      	str	r0, [sp, #0]
 8005812:	4653      	mov	r3, sl
 8005814:	f10a 31ff 	add.w	r1, sl, #4294967295	; 0xffffffff
 8005818:	4814      	ldr	r0, [pc, #80]	; (800586c <pv_porcupine_init+0x3dc>)
 800581a:	f001 f8a5 	bl	8006968 <taabe263>
 800581e:	2603      	movs	r6, #3
 8005820:	e7ac      	b.n	800577c <pv_porcupine_init+0x2ec>
 8005822:	4640      	mov	r0, r8
 8005824:	f000 fdaa 	bl	800637c <taabe297>
 8005828:	4605      	mov	r5, r0
 800582a:	4620      	mov	r0, r4
 800582c:	f000 fda6 	bl	800637c <taabe297>
 8005830:	4629      	mov	r1, r5
 8005832:	4602      	mov	r2, r0
 8005834:	480e      	ldr	r0, [pc, #56]	; (8005870 <pv_porcupine_init+0x3e0>)
 8005836:	f001 f897 	bl	8006968 <taabe263>
 800583a:	2603      	movs	r6, #3
 800583c:	e79e      	b.n	800577c <pv_porcupine_init+0x2ec>
 800583e:	4648      	mov	r0, r9
 8005840:	f7ff fde4 	bl	800540c <pv_porcupine_delete.part.0>
 8005844:	e79a      	b.n	800577c <pv_porcupine_init+0x2ec>
 8005846:	bf00      	nop
 8005848:	00000000 	.word	0x00000000
 800584c:	200004c0 	.word	0x200004c0
 8005850:	44800000 	.word	0x44800000
 8005854:	46fffe00 	.word	0x46fffe00
 8005858:	c7000000 	.word	0xc7000000
 800585c:	ffff8000 	.word	0xffff8000
 8005860:	0800bb60 	.word	0x0800bb60
 8005864:	0800bb30 	.word	0x0800bb30
 8005868:	0800bb94 	.word	0x0800bb94
 800586c:	0800bbb8 	.word	0x0800bbb8
 8005870:	0800bc38 	.word	0x0800bc38

08005874 <pv_porcupine_process>:
 8005874:	b3b8      	cbz	r0, 80058e6 <pv_porcupine_process+0x72>
 8005876:	b5f8      	push	{r3, r4, r5, r6, r7, lr}
 8005878:	b399      	cbz	r1, 80058e2 <pv_porcupine_process+0x6e>
 800587a:	b392      	cbz	r2, 80058e2 <pv_porcupine_process+0x6e>
 800587c:	4604      	mov	r4, r0
 800587e:	e9d0 0608 	ldrd	r0, r6, [r0, #32]
 8005882:	4615      	mov	r5, r2
 8005884:	4632      	mov	r2, r6
 8005886:	6867      	ldr	r7, [r4, #4]
 8005888:	f000 f9a2 	bl	8005bd0 <taabe231>
 800588c:	bb40      	cbnz	r0, 80058e0 <pv_porcupine_process+0x6c>
 800588e:	f04f 32ff 	mov.w	r2, #4294967295	; 0xffffffff
 8005892:	2f00      	cmp	r7, #0
 8005894:	e9d4 c306 	ldrd	ip, r3, [r4, #24]
 8005898:	602a      	str	r2, [r5, #0]
 800589a:	dd20      	ble.n	80058de <pv_porcupine_process+0x6a>
 800589c:	19da      	adds	r2, r3, r7
 800589e:	3a01      	subs	r2, #1
 80058a0:	4f12      	ldr	r7, [pc, #72]	; (80058ec <pv_porcupine_process+0x78>)
 80058a2:	3b01      	subs	r3, #1
 80058a4:	4686      	mov	lr, r0
 80058a6:	e005      	b.n	80058b4 <pv_porcupine_process+0x40>
 80058a8:	3101      	adds	r1, #1
 80058aa:	7019      	strb	r1, [r3, #0]
 80058ac:	4293      	cmp	r3, r2
 80058ae:	f100 0001 	add.w	r0, r0, #1
 80058b2:	d014      	beq.n	80058de <pv_porcupine_process+0x6a>
 80058b4:	f913 1f01 	ldrsb.w	r1, [r3, #1]!
 80058b8:	290f      	cmp	r1, #15
 80058ba:	ddf5      	ble.n	80058a8 <pv_porcupine_process+0x34>
 80058bc:	f936 1010 	ldrsh.w	r1, [r6, r0, lsl #1]
 80058c0:	f93c 4010 	ldrsh.w	r4, [ip, r0, lsl #1]
 80058c4:	428c      	cmp	r4, r1
 80058c6:	dcf1      	bgt.n	80058ac <pv_porcupine_process+0x38>
 80058c8:	42b9      	cmp	r1, r7
 80058ca:	dbef      	blt.n	80058ac <pv_porcupine_process+0x38>
 80058cc:	6028      	str	r0, [r5, #0]
 80058ce:	4293      	cmp	r3, r2
 80058d0:	f883 e000 	strb.w	lr, [r3]
 80058d4:	f936 7010 	ldrsh.w	r7, [r6, r0, lsl #1]
 80058d8:	f100 0001 	add.w	r0, r0, #1
 80058dc:	d1ea      	bne.n	80058b4 <pv_porcupine_process+0x40>
 80058de:	2000      	movs	r0, #0
 80058e0:	bdf8      	pop	{r3, r4, r5, r6, r7, pc}
 80058e2:	2003      	movs	r0, #3
 80058e4:	bdf8      	pop	{r3, r4, r5, r6, r7, pc}
 80058e6:	2003      	movs	r0, #3
 80058e8:	4770      	bx	lr
 80058ea:	bf00      	nop
 80058ec:	ffff8000 	.word	0xffff8000

080058f0 <taabe230.part.0>:
 80058f0:	e92d 41f0 	stmdb	sp!, {r4, r5, r6, r7, r8, lr}
 80058f4:	4606      	mov	r6, r0
 80058f6:	6b41      	ldr	r1, [r0, #52]	; 0x34
 80058f8:	6800      	ldr	r0, [r0, #0]
 80058fa:	f000 fdb1 	bl	8006460 <taabe292>
 80058fe:	6a71      	ldr	r1, [r6, #36]	; 0x24
 8005900:	b181      	cbz	r1, 8005924 <taabe230.part.0+0x34>
 8005902:	6974      	ldr	r4, [r6, #20]
 8005904:	3c01      	subs	r4, #1
 8005906:	d40a      	bmi.n	800591e <taabe230.part.0+0x2e>
 8005908:	00a5      	lsls	r5, r4, #2
 800590a:	5949      	ldr	r1, [r1, r5]
 800590c:	6830      	ldr	r0, [r6, #0]
 800590e:	3c01      	subs	r4, #1
 8005910:	f000 fda6 	bl	8006460 <taabe292>
 8005914:	1c62      	adds	r2, r4, #1
 8005916:	f1a5 0504 	sub.w	r5, r5, #4
 800591a:	6a71      	ldr	r1, [r6, #36]	; 0x24
 800591c:	d1f5      	bne.n	800590a <taabe230.part.0+0x1a>
 800591e:	6830      	ldr	r0, [r6, #0]
 8005920:	f000 fd9e 	bl	8006460 <taabe292>
 8005924:	6a33      	ldr	r3, [r6, #32]
 8005926:	b32b      	cbz	r3, 8005974 <taabe230.part.0+0x84>
 8005928:	6972      	ldr	r2, [r6, #20]
 800592a:	f1b2 0801 	subs.w	r8, r2, #1
 800592e:	d41d      	bmi.n	800596c <taabe230.part.0+0x7c>
 8005930:	ea4f 0788 	mov.w	r7, r8, lsl #2
 8005934:	59d9      	ldr	r1, [r3, r7]
 8005936:	b191      	cbz	r1, 800595e <taabe230.part.0+0x6e>
 8005938:	69b3      	ldr	r3, [r6, #24]
 800593a:	59dc      	ldr	r4, [r3, r7]
 800593c:	3c01      	subs	r4, #1
 800593e:	d40a      	bmi.n	8005956 <taabe230.part.0+0x66>
 8005940:	00a5      	lsls	r5, r4, #2
 8005942:	5948      	ldr	r0, [r1, r5]
 8005944:	f001 fe54 	bl	80075f0 <taabe226>
 8005948:	6a33      	ldr	r3, [r6, #32]
 800594a:	3c01      	subs	r4, #1
 800594c:	59d9      	ldr	r1, [r3, r7]
 800594e:	1c63      	adds	r3, r4, #1
 8005950:	f1a5 0504 	sub.w	r5, r5, #4
 8005954:	d1f5      	bne.n	8005942 <taabe230.part.0+0x52>
 8005956:	6830      	ldr	r0, [r6, #0]
 8005958:	f000 fd82 	bl	8006460 <taabe292>
 800595c:	6a33      	ldr	r3, [r6, #32]
 800595e:	f108 38ff 	add.w	r8, r8, #4294967295	; 0xffffffff
 8005962:	f1b8 3fff 	cmp.w	r8, #4294967295	; 0xffffffff
 8005966:	f1a7 0704 	sub.w	r7, r7, #4
 800596a:	d1e3      	bne.n	8005934 <taabe230.part.0+0x44>
 800596c:	4619      	mov	r1, r3
 800596e:	6830      	ldr	r0, [r6, #0]
 8005970:	f000 fd76 	bl	8006460 <taabe292>
 8005974:	68f0      	ldr	r0, [r6, #12]
 8005976:	f001 fa8b 	bl	8006e90 <taabe278>
 800597a:	6870      	ldr	r0, [r6, #4]
 800597c:	f000 fdb0 	bl	80064e0 <taabe204>
 8005980:	4631      	mov	r1, r6
 8005982:	6830      	ldr	r0, [r6, #0]
 8005984:	e8bd 41f0 	ldmia.w	sp!, {r4, r5, r6, r7, r8, lr}
 8005988:	f000 bd6a 	b.w	8006460 <taabe292>

0800598c <taabe229>:
 800598c:	e92d 4ff0 	stmdb	sp!, {r4, r5, r6, r7, r8, r9, sl, fp, lr}
 8005990:	b085      	sub	sp, #20
 8005992:	4614      	mov	r4, r2
 8005994:	9a10      	ldr	r2, [sp, #64]	; 0x40
 8005996:	9102      	str	r1, [sp, #8]
 8005998:	2500      	movs	r5, #0
 800599a:	6015      	str	r5, [r2, #0]
 800599c:	2138      	movs	r1, #56	; 0x38
 800599e:	2201      	movs	r2, #1
 80059a0:	4699      	mov	r9, r3
 80059a2:	4606      	mov	r6, r0
 80059a4:	f000 fd2a 	bl	80063fc <taabe291>
 80059a8:	2800      	cmp	r0, #0
 80059aa:	d074      	beq.n	8005a96 <taabe229+0x10a>
 80059ac:	4602      	mov	r2, r0
 80059ae:	4605      	mov	r5, r0
 80059b0:	f44f 7180 	mov.w	r1, #256	; 0x100
 80059b4:	f842 6b04 	str.w	r6, [r2], #4
 80059b8:	4630      	mov	r0, r6
 80059ba:	f000 fd67 	bl	800648c <taabe203>
 80059be:	4607      	mov	r7, r0
 80059c0:	2800      	cmp	r0, #0
 80059c2:	d161      	bne.n	8005a88 <taabe229+0xfc>
 80059c4:	495f      	ldr	r1, [pc, #380]	; (8005b44 <taabe229+0x1b8>)
 80059c6:	60a9      	str	r1, [r5, #8]
 80059c8:	f105 020c 	add.w	r2, r5, #12
 80059cc:	4630      	mov	r0, r6
 80059ce:	f001 fa0b 	bl	8006de8 <taabe277>
 80059d2:	4607      	mov	r7, r0
 80059d4:	2800      	cmp	r0, #0
 80059d6:	d157      	bne.n	8005a88 <taabe229+0xfc>
 80059d8:	68e8      	ldr	r0, [r5, #12]
 80059da:	f001 fac3 	bl	8006f64 <taabe281>
 80059de:	f000 fcdb 	bl	8006398 <taabe299>
 80059e2:	9b02      	ldr	r3, [sp, #8]
 80059e4:	9a0f      	ldr	r2, [sp, #60]	; 0x3c
 80059e6:	61ac      	str	r4, [r5, #24]
 80059e8:	0099      	lsls	r1, r3, #2
 80059ea:	e9c5 0304 	strd	r0, r3, [r5, #16]
 80059ee:	61ea      	str	r2, [r5, #28]
 80059f0:	4630      	mov	r0, r6
 80059f2:	2201      	movs	r2, #1
 80059f4:	9103      	str	r1, [sp, #12]
 80059f6:	f000 fd01 	bl	80063fc <taabe291>
 80059fa:	4604      	mov	r4, r0
 80059fc:	6228      	str	r0, [r5, #32]
 80059fe:	2800      	cmp	r0, #0
 8005a00:	d07c      	beq.n	8005afc <taabe229+0x170>
 8005a02:	9b02      	ldr	r3, [sp, #8]
 8005a04:	2b00      	cmp	r3, #0
 8005a06:	dd7e      	ble.n	8005b06 <taabe229+0x17a>
 8005a08:	f8dd 8038 	ldr.w	r8, [sp, #56]	; 0x38
 8005a0c:	69aa      	ldr	r2, [r5, #24]
 8005a0e:	46bb      	mov	fp, r7
 8005a10:	f852 102b 	ldr.w	r1, [r2, fp, lsl #2]
 8005a14:	4630      	mov	r0, r6
 8005a16:	2201      	movs	r2, #1
 8005a18:	0089      	lsls	r1, r1, #2
 8005a1a:	f000 fcef 	bl	80063fc <taabe291>
 8005a1e:	6a2b      	ldr	r3, [r5, #32]
 8005a20:	f844 002b 	str.w	r0, [r4, fp, lsl #2]
 8005a24:	f853 302b 	ldr.w	r3, [r3, fp, lsl #2]
 8005a28:	ea4f 0a8b 	mov.w	sl, fp, lsl #2
 8005a2c:	2b00      	cmp	r3, #0
 8005a2e:	d065      	beq.n	8005afc <taabe229+0x170>
 8005a30:	69aa      	ldr	r2, [r5, #24]
 8005a32:	f852 102b 	ldr.w	r1, [r2, fp, lsl #2]
 8005a36:	2900      	cmp	r1, #0
 8005a38:	bfc8      	it	gt
 8005a3a:	2400      	movgt	r4, #0
 8005a3c:	dc08      	bgt.n	8005a50 <taabe229+0xc4>
 8005a3e:	e02f      	b.n	8005aa0 <taabe229+0x114>
 8005a40:	69aa      	ldr	r2, [r5, #24]
 8005a42:	f852 300a 	ldr.w	r3, [r2, sl]
 8005a46:	42a3      	cmp	r3, r4
 8005a48:	dd2a      	ble.n	8005aa0 <taabe229+0x114>
 8005a4a:	6a2b      	ldr	r3, [r5, #32]
 8005a4c:	f853 300a 	ldr.w	r3, [r3, sl]
 8005a50:	f8d9 2000 	ldr.w	r2, [r9]
 8005a54:	f8d8 1000 	ldr.w	r1, [r8]
 8005a58:	f852 2024 	ldr.w	r2, [r2, r4, lsl #2]
 8005a5c:	f851 1024 	ldr.w	r1, [r1, r4, lsl #2]
 8005a60:	eb03 0384 	add.w	r3, r3, r4, lsl #2
 8005a64:	9300      	str	r3, [sp, #0]
 8005a66:	4630      	mov	r0, r6
 8005a68:	2307      	movs	r3, #7
 8005a6a:	f001 fd41 	bl	80074f0 <taabe225>
 8005a6e:	3401      	adds	r4, #1
 8005a70:	2800      	cmp	r0, #0
 8005a72:	d0e5      	beq.n	8005a40 <taabe229+0xb4>
 8005a74:	9002      	str	r0, [sp, #8]
 8005a76:	4628      	mov	r0, r5
 8005a78:	f7ff ff3a 	bl	80058f0 <taabe230.part.0>
 8005a7c:	9b02      	ldr	r3, [sp, #8]
 8005a7e:	461f      	mov	r7, r3
 8005a80:	4638      	mov	r0, r7
 8005a82:	b005      	add	sp, #20
 8005a84:	e8bd 8ff0 	ldmia.w	sp!, {r4, r5, r6, r7, r8, r9, sl, fp, pc}
 8005a88:	4628      	mov	r0, r5
 8005a8a:	f7ff ff31 	bl	80058f0 <taabe230.part.0>
 8005a8e:	4638      	mov	r0, r7
 8005a90:	b005      	add	sp, #20
 8005a92:	e8bd 8ff0 	ldmia.w	sp!, {r4, r5, r6, r7, r8, r9, sl, fp, pc}
 8005a96:	2701      	movs	r7, #1
 8005a98:	4638      	mov	r0, r7
 8005a9a:	b005      	add	sp, #20
 8005a9c:	e8bd 8ff0 	ldmia.w	sp!, {r4, r5, r6, r7, r8, r9, sl, fp, pc}
 8005aa0:	9b02      	ldr	r3, [sp, #8]
 8005aa2:	f10b 0b01 	add.w	fp, fp, #1
 8005aa6:	455b      	cmp	r3, fp
 8005aa8:	f108 0804 	add.w	r8, r8, #4
 8005aac:	f109 0904 	add.w	r9, r9, #4
 8005ab0:	d001      	beq.n	8005ab6 <taabe229+0x12a>
 8005ab2:	6a2c      	ldr	r4, [r5, #32]
 8005ab4:	e7ac      	b.n	8005a10 <taabe229+0x84>
 8005ab6:	9903      	ldr	r1, [sp, #12]
 8005ab8:	2201      	movs	r2, #1
 8005aba:	4630      	mov	r0, r6
 8005abc:	f000 fc9e 	bl	80063fc <taabe291>
 8005ac0:	6268      	str	r0, [r5, #36]	; 0x24
 8005ac2:	b1d8      	cbz	r0, 8005afc <taabe229+0x170>
 8005ac4:	4633      	mov	r3, r6
 8005ac6:	2400      	movs	r4, #0
 8005ac8:	f44f 4900 	mov.w	r9, #32768	; 0x8000
 8005acc:	4606      	mov	r6, r0
 8005ace:	4698      	mov	r8, r3
 8005ad0:	e007      	b.n	8005ae2 <taabe229+0x156>
 8005ad2:	455c      	cmp	r4, fp
 8005ad4:	f8a3 9000 	strh.w	r9, [r3]
 8005ad8:	f8a3 9002 	strh.w	r9, [r3, #2]
 8005adc:	f8a3 9004 	strh.w	r9, [r3, #4]
 8005ae0:	d02d      	beq.n	8005b3e <taabe229+0x1b2>
 8005ae2:	2200      	movs	r2, #0
 8005ae4:	2106      	movs	r1, #6
 8005ae6:	4640      	mov	r0, r8
 8005ae8:	f000 fc88 	bl	80063fc <taabe291>
 8005aec:	f846 0024 	str.w	r0, [r6, r4, lsl #2]
 8005af0:	6a6e      	ldr	r6, [r5, #36]	; 0x24
 8005af2:	f856 3024 	ldr.w	r3, [r6, r4, lsl #2]
 8005af6:	3401      	adds	r4, #1
 8005af8:	2b00      	cmp	r3, #0
 8005afa:	d1ea      	bne.n	8005ad2 <taabe229+0x146>
 8005afc:	4628      	mov	r0, r5
 8005afe:	f7ff fef7 	bl	80058f0 <taabe230.part.0>
 8005b02:	2701      	movs	r7, #1
 8005b04:	e7c3      	b.n	8005a8e <taabe229+0x102>
 8005b06:	9903      	ldr	r1, [sp, #12]
 8005b08:	2201      	movs	r2, #1
 8005b0a:	4630      	mov	r0, r6
 8005b0c:	f000 fc76 	bl	80063fc <taabe291>
 8005b10:	6268      	str	r0, [r5, #36]	; 0x24
 8005b12:	2800      	cmp	r0, #0
 8005b14:	d0f2      	beq.n	8005afc <taabe229+0x170>
 8005b16:	f04f 2380 	mov.w	r3, #2147516416	; 0x80008000
 8005b1a:	9902      	ldr	r1, [sp, #8]
 8005b1c:	62ab      	str	r3, [r5, #40]	; 0x28
 8005b1e:	f44f 4200 	mov.w	r2, #32768	; 0x8000
 8005b22:	2300      	movs	r3, #0
 8005b24:	85aa      	strh	r2, [r5, #44]	; 0x2c
 8005b26:	0049      	lsls	r1, r1, #1
 8005b28:	4630      	mov	r0, r6
 8005b2a:	632b      	str	r3, [r5, #48]	; 0x30
 8005b2c:	2201      	movs	r2, #1
 8005b2e:	f000 fc65 	bl	80063fc <taabe291>
 8005b32:	6368      	str	r0, [r5, #52]	; 0x34
 8005b34:	2800      	cmp	r0, #0
 8005b36:	d0e1      	beq.n	8005afc <taabe229+0x170>
 8005b38:	9b10      	ldr	r3, [sp, #64]	; 0x40
 8005b3a:	601d      	str	r5, [r3, #0]
 8005b3c:	e7a7      	b.n	8005a8e <taabe229+0x102>
 8005b3e:	4646      	mov	r6, r8
 8005b40:	e7e9      	b.n	8005b16 <taabe229+0x18a>
 8005b42:	bf00      	nop
 8005b44:	0800d750 	.word	0x0800d750

08005b48 <taabe230>:
 8005b48:	b108      	cbz	r0, 8005b4e <taabe230+0x6>
 8005b4a:	f7ff bed1 	b.w	80058f0 <taabe230.part.0>
 8005b4e:	4770      	bx	lr

08005b50 <taabe232>:
 8005b50:	e92d 43f8 	stmdb	sp!, {r3, r4, r5, r6, r7, r8, r9, lr}
 8005b54:	4606      	mov	r6, r0
 8005b56:	6840      	ldr	r0, [r0, #4]
 8005b58:	f000 fdd4 	bl	8006704 <taabe206>
 8005b5c:	68f0      	ldr	r0, [r6, #12]
 8005b5e:	f001 f9ef 	bl	8006f40 <taabe280>
 8005b62:	6977      	ldr	r7, [r6, #20]
 8005b64:	6a35      	ldr	r5, [r6, #32]
 8005b66:	2f00      	cmp	r7, #0
 8005b68:	dd27      	ble.n	8005bba <taabe232+0x6a>
 8005b6a:	69b3      	ldr	r3, [r6, #24]
 8005b6c:	f04f 0800 	mov.w	r8, #0
 8005b70:	f853 2028 	ldr.w	r2, [r3, r8, lsl #2]
 8005b74:	2a00      	cmp	r2, #0
 8005b76:	ea4f 0988 	mov.w	r9, r8, lsl #2
 8005b7a:	dd0b      	ble.n	8005b94 <taabe232+0x44>
 8005b7c:	2400      	movs	r4, #0
 8005b7e:	682b      	ldr	r3, [r5, #0]
 8005b80:	f853 0024 	ldr.w	r0, [r3, r4, lsl #2]
 8005b84:	f001 fe4c 	bl	8007820 <taabe228>
 8005b88:	69b3      	ldr	r3, [r6, #24]
 8005b8a:	f853 2009 	ldr.w	r2, [r3, r9]
 8005b8e:	3401      	adds	r4, #1
 8005b90:	42a2      	cmp	r2, r4
 8005b92:	dcf4      	bgt.n	8005b7e <taabe232+0x2e>
 8005b94:	f108 0801 	add.w	r8, r8, #1
 8005b98:	4547      	cmp	r7, r8
 8005b9a:	f105 0504 	add.w	r5, r5, #4
 8005b9e:	d1e7      	bne.n	8005b70 <taabe232+0x20>
 8005ba0:	6a72      	ldr	r2, [r6, #36]	; 0x24
 8005ba2:	3a04      	subs	r2, #4
 8005ba4:	eb02 0787 	add.w	r7, r2, r7, lsl #2
 8005ba8:	f44f 4100 	mov.w	r1, #32768	; 0x8000
 8005bac:	f852 3f04 	ldr.w	r3, [r2, #4]!
 8005bb0:	4297      	cmp	r7, r2
 8005bb2:	8019      	strh	r1, [r3, #0]
 8005bb4:	8059      	strh	r1, [r3, #2]
 8005bb6:	8099      	strh	r1, [r3, #4]
 8005bb8:	d1f8      	bne.n	8005bac <taabe232+0x5c>
 8005bba:	f04f 2180 	mov.w	r1, #2147516416	; 0x80008000
 8005bbe:	f44f 4200 	mov.w	r2, #32768	; 0x8000
 8005bc2:	2300      	movs	r3, #0
 8005bc4:	62b1      	str	r1, [r6, #40]	; 0x28
 8005bc6:	85b2      	strh	r2, [r6, #44]	; 0x2c
 8005bc8:	6333      	str	r3, [r6, #48]	; 0x30
 8005bca:	e8bd 83f8 	ldmia.w	sp!, {r3, r4, r5, r6, r7, r8, r9, pc}
 8005bce:	bf00      	nop

08005bd0 <taabe231>:
 8005bd0:	e92d 4ff0 	stmdb	sp!, {r4, r5, r6, r7, r8, r9, sl, fp, lr}
 8005bd4:	6803      	ldr	r3, [r0, #0]
 8005bd6:	6844      	ldr	r4, [r0, #4]
 8005bd8:	b08b      	sub	sp, #44	; 0x2c
 8005bda:	4605      	mov	r5, r0
 8005bdc:	460e      	mov	r6, r1
 8005bde:	9201      	str	r2, [sp, #4]
 8005be0:	4618      	mov	r0, r3
 8005be2:	2200      	movs	r2, #0
 8005be4:	21a0      	movs	r1, #160	; 0xa0
 8005be6:	9302      	str	r3, [sp, #8]
 8005be8:	4699      	mov	r9, r3
 8005bea:	f000 fc07 	bl	80063fc <taabe291>
 8005bee:	2800      	cmp	r0, #0
 8005bf0:	f000 80d3 	beq.w	8005d9a <taabe231+0x1ca>
 8005bf4:	4602      	mov	r2, r0
 8005bf6:	4680      	mov	r8, r0
 8005bf8:	4631      	mov	r1, r6
 8005bfa:	4620      	mov	r0, r4
 8005bfc:	f000 fc7e 	bl	80064fc <taabe205>
 8005c00:	4607      	mov	r7, r0
 8005c02:	2800      	cmp	r0, #0
 8005c04:	f040 80c1 	bne.w	8005d8a <taabe231+0x1ba>
 8005c08:	f108 0950 	add.w	r9, r8, #80	; 0x50
 8005c0c:	f506 7100 	add.w	r1, r6, #512	; 0x200
 8005c10:	4620      	mov	r0, r4
 8005c12:	464a      	mov	r2, r9
 8005c14:	f000 fc72 	bl	80064fc <taabe205>
 8005c18:	4607      	mov	r7, r0
 8005c1a:	2800      	cmp	r0, #0
 8005c1c:	f040 80c2 	bne.w	8005da4 <taabe231+0x1d4>
 8005c20:	4602      	mov	r2, r0
 8005c22:	4601      	mov	r1, r0
 8005c24:	4640      	mov	r0, r8
 8005c26:	f000 fd73 	bl	8006710 <taabe207>
 8005c2a:	4648      	mov	r0, r9
 8005c2c:	463a      	mov	r2, r7
 8005c2e:	4639      	mov	r1, r7
 8005c30:	f000 fd6e 	bl	8006710 <taabe207>
 8005c34:	6929      	ldr	r1, [r5, #16]
 8005c36:	9802      	ldr	r0, [sp, #8]
 8005c38:	3101      	adds	r1, #1
 8005c3a:	463a      	mov	r2, r7
 8005c3c:	0089      	lsls	r1, r1, #2
 8005c3e:	f000 fbdd 	bl	80063fc <taabe291>
 8005c42:	4681      	mov	r9, r0
 8005c44:	2800      	cmp	r0, #0
 8005c46:	f000 80bb 	beq.w	8005dc0 <taabe231+0x1f0>
 8005c4a:	4602      	mov	r2, r0
 8005c4c:	4641      	mov	r1, r8
 8005c4e:	68e8      	ldr	r0, [r5, #12]
 8005c50:	f001 f922 	bl	8006e98 <taabe279>
 8005c54:	4607      	mov	r7, r0
 8005c56:	2800      	cmp	r0, #0
 8005c58:	f040 808a 	bne.w	8005d70 <taabe231+0x1a0>
 8005c5c:	8d6a      	ldrh	r2, [r5, #42]	; 0x2a
 8005c5e:	8dab      	ldrh	r3, [r5, #44]	; 0x2c
 8005c60:	696c      	ldr	r4, [r5, #20]
 8005c62:	852a      	strh	r2, [r5, #40]	; 0x28
 8005c64:	856b      	strh	r3, [r5, #42]	; 0x2a
 8005c66:	f8d9 1000 	ldr.w	r1, [r9]
 8005c6a:	9406      	str	r4, [sp, #24]
 8005c6c:	f000 ffc0 	bl	8006bf0 <taabe199>
 8005c70:	f9b5 202a 	ldrsh.w	r2, [r5, #42]	; 0x2a
 8005c74:	f9b5 3028 	ldrsh.w	r3, [r5, #40]	; 0x28
 8005c78:	f303 030f 	ssat	r3, #16, r3
 8005c7c:	2c00      	cmp	r4, #0
 8005c7e:	fa02 f383 	sxtah	r3, r2, r3
 8005c82:	6a6a      	ldr	r2, [r5, #36]	; 0x24
 8005c84:	f303 030f 	ssat	r3, #16, r3
 8005c88:	fa00 f383 	sxtah	r3, r0, r3
 8005c8c:	f303 030f 	ssat	r3, #16, r3
 8005c90:	b21b      	sxth	r3, r3
 8005c92:	9205      	str	r2, [sp, #20]
 8005c94:	85a8      	strh	r0, [r5, #44]	; 0x2c
 8005c96:	6b69      	ldr	r1, [r5, #52]	; 0x34
 8005c98:	6a2a      	ldr	r2, [r5, #32]
 8005c9a:	9304      	str	r3, [sp, #16]
 8005c9c:	dd55      	ble.n	8005d4a <taabe231+0x17a>
 8005c9e:	1e8e      	subs	r6, r1, #2
 8005ca0:	eb06 0344 	add.w	r3, r6, r4, lsl #1
 8005ca4:	69a9      	ldr	r1, [r5, #24]
 8005ca6:	f8cd 8020 	str.w	r8, [sp, #32]
 8005caa:	9607      	str	r6, [sp, #28]
 8005cac:	9303      	str	r3, [sp, #12]
 8005cae:	4692      	mov	sl, r2
 8005cb0:	46b8      	mov	r8, r7
 8005cb2:	9709      	str	r7, [sp, #36]	; 0x24
 8005cb4:	f851 3028 	ldr.w	r3, [r1, r8, lsl #2]
 8005cb8:	f248 0200 	movw	r2, #32768	; 0x8000
 8005cbc:	2b00      	cmp	r3, #0
 8005cbe:	f826 2f02 	strh.w	r2, [r6, #2]!
 8005cc2:	ea4f 0788 	mov.w	r7, r8, lsl #2
 8005cc6:	dd14      	ble.n	8005cf2 <taabe231+0x122>
 8005cc8:	4c40      	ldr	r4, [pc, #256]	; (8005dcc <taabe231+0x1fc>)
 8005cca:	f04f 0b00 	mov.w	fp, #0
 8005cce:	f8da 3000 	ldr.w	r3, [sl]
 8005cd2:	4649      	mov	r1, r9
 8005cd4:	f853 002b 	ldr.w	r0, [r3, fp, lsl #2]
 8005cd8:	f001 fc8e 	bl	80075f8 <taabe227>
 8005cdc:	69a9      	ldr	r1, [r5, #24]
 8005cde:	4284      	cmp	r4, r0
 8005ce0:	59cb      	ldr	r3, [r1, r7]
 8005ce2:	bfb8      	it	lt
 8005ce4:	4604      	movlt	r4, r0
 8005ce6:	f10b 0b01 	add.w	fp, fp, #1
 8005cea:	b224      	sxth	r4, r4
 8005cec:	455b      	cmp	r3, fp
 8005cee:	8034      	strh	r4, [r6, #0]
 8005cf0:	dced      	bgt.n	8005cce <taabe231+0xfe>
 8005cf2:	69eb      	ldr	r3, [r5, #28]
 8005cf4:	f813 3008 	ldrb.w	r3, [r3, r8]
 8005cf8:	2b00      	cmp	r3, #0
 8005cfa:	d05b      	beq.n	8005db4 <taabe231+0x1e4>
 8005cfc:	9b04      	ldr	r3, [sp, #16]
 8005cfe:	f513 7fc0 	cmn.w	r3, #384	; 0x180
 8005d02:	bfa9      	itett	ge
 8005d04:	9b05      	ldrge	r3, [sp, #20]
 8005d06:	4b31      	ldrlt	r3, [pc, #196]	; (8005dcc <taabe231+0x1fc>)
 8005d08:	f853 3028 	ldrge.w	r3, [r3, r8, lsl #2]
 8005d0c:	f9b3 3000 	ldrshge.w	r3, [r3]
 8005d10:	9a01      	ldr	r2, [sp, #4]
 8005d12:	f822 3018 	strh.w	r3, [r2, r8, lsl #1]
 8005d16:	9b03      	ldr	r3, [sp, #12]
 8005d18:	42b3      	cmp	r3, r6
 8005d1a:	f108 0801 	add.w	r8, r8, #1
 8005d1e:	f10a 0a04 	add.w	sl, sl, #4
 8005d22:	d1c7      	bne.n	8005cb4 <taabe231+0xe4>
 8005d24:	9b05      	ldr	r3, [sp, #20]
 8005d26:	9907      	ldr	r1, [sp, #28]
 8005d28:	1f1a      	subs	r2, r3, #4
 8005d2a:	e9dd 8708 	ldrd	r8, r7, [sp, #32]
 8005d2e:	9b06      	ldr	r3, [sp, #24]
 8005d30:	eb02 0483 	add.w	r4, r2, r3, lsl #2
 8005d34:	f852 3f04 	ldr.w	r3, [r2, #4]!
 8005d38:	8898      	ldrh	r0, [r3, #4]
 8005d3a:	885e      	ldrh	r6, [r3, #2]
 8005d3c:	801e      	strh	r6, [r3, #0]
 8005d3e:	8058      	strh	r0, [r3, #2]
 8005d40:	f931 0f02 	ldrsh.w	r0, [r1, #2]!
 8005d44:	8098      	strh	r0, [r3, #4]
 8005d46:	4294      	cmp	r4, r2
 8005d48:	d1f4      	bne.n	8005d34 <taabe231+0x164>
 8005d4a:	f06f 4300 	mvn.w	r3, #2147483648	; 0x80000000
 8005d4e:	f8d9 2000 	ldr.w	r2, [r9]
 8005d52:	fa82 f3a3 	qsub	r3, r3, r2
 8005d56:	f1b3 4f80 	cmp.w	r3, #1073741824	; 0x40000000
 8005d5a:	da2e      	bge.n	8005dba <taabe231+0x1ea>
 8005d5c:	6b2b      	ldr	r3, [r5, #48]	; 0x30
 8005d5e:	f240 7253 	movw	r2, #1875	; 0x753
 8005d62:	3301      	adds	r3, #1
 8005d64:	4293      	cmp	r3, r2
 8005d66:	632b      	str	r3, [r5, #48]	; 0x30
 8005d68:	dd02      	ble.n	8005d70 <taabe231+0x1a0>
 8005d6a:	4628      	mov	r0, r5
 8005d6c:	f7ff fef0 	bl	8005b50 <taabe232>
 8005d70:	9c02      	ldr	r4, [sp, #8]
 8005d72:	4649      	mov	r1, r9
 8005d74:	4620      	mov	r0, r4
 8005d76:	f000 fb73 	bl	8006460 <taabe292>
 8005d7a:	4620      	mov	r0, r4
 8005d7c:	4641      	mov	r1, r8
 8005d7e:	f000 fb6f 	bl	8006460 <taabe292>
 8005d82:	4638      	mov	r0, r7
 8005d84:	b00b      	add	sp, #44	; 0x2c
 8005d86:	e8bd 8ff0 	ldmia.w	sp!, {r4, r5, r6, r7, r8, r9, sl, fp, pc}
 8005d8a:	4641      	mov	r1, r8
 8005d8c:	4648      	mov	r0, r9
 8005d8e:	f000 fb67 	bl	8006460 <taabe292>
 8005d92:	4638      	mov	r0, r7
 8005d94:	b00b      	add	sp, #44	; 0x2c
 8005d96:	e8bd 8ff0 	ldmia.w	sp!, {r4, r5, r6, r7, r8, r9, sl, fp, pc}
 8005d9a:	2701      	movs	r7, #1
 8005d9c:	4638      	mov	r0, r7
 8005d9e:	b00b      	add	sp, #44	; 0x2c
 8005da0:	e8bd 8ff0 	ldmia.w	sp!, {r4, r5, r6, r7, r8, r9, sl, fp, pc}
 8005da4:	9802      	ldr	r0, [sp, #8]
 8005da6:	4641      	mov	r1, r8
 8005da8:	f000 fb5a 	bl	8006460 <taabe292>
 8005dac:	4638      	mov	r0, r7
 8005dae:	b00b      	add	sp, #44	; 0x2c
 8005db0:	e8bd 8ff0 	ldmia.w	sp!, {r4, r5, r6, r7, r8, r9, sl, fp, pc}
 8005db4:	f9b6 3000 	ldrsh.w	r3, [r6]
 8005db8:	e7aa      	b.n	8005d10 <taabe231+0x140>
 8005dba:	2300      	movs	r3, #0
 8005dbc:	632b      	str	r3, [r5, #48]	; 0x30
 8005dbe:	e7d7      	b.n	8005d70 <taabe231+0x1a0>
 8005dc0:	4641      	mov	r1, r8
 8005dc2:	9802      	ldr	r0, [sp, #8]
 8005dc4:	f000 fb4c 	bl	8006460 <taabe292>
 8005dc8:	2701      	movs	r7, #1
 8005dca:	e7e2      	b.n	8005d92 <taabe231+0x1c2>
 8005dcc:	ffff8000 	.word	0xffff8000

08005dd0 <taabe233>:
 8005dd0:	68c0      	ldr	r0, [r0, #12]
 8005dd2:	f001 b8c7 	b.w	8006f64 <taabe281>
 8005dd6:	bf00      	nop

08005dd8 <taabe236>:
 8005dd8:	e92d 4ff0 	stmdb	sp!, {r4, r5, r6, r7, r8, r9, sl, fp, lr}
 8005ddc:	b089      	sub	sp, #36	; 0x24
 8005dde:	af02      	add	r7, sp, #8
 8005de0:	4680      	mov	r8, r0
 8005de2:	6cbd      	ldr	r5, [r7, #72]	; 0x48
 8005de4:	6c78      	ldr	r0, [r7, #68]	; 0x44
 8005de6:	6cfe      	ldr	r6, [r7, #76]	; 0x4c
 8005de8:	4696      	mov	lr, r2
 8005dea:	f107 040c 	add.w	r4, r7, #12
 8005dee:	461a      	mov	r2, r3
 8005df0:	2300      	movs	r3, #0
 8005df2:	6003      	str	r3, [r0, #0]
 8005df4:	e9c7 3302 	strd	r3, r3, [r7, #8]
 8005df8:	602b      	str	r3, [r5, #0]
 8005dfa:	4670      	mov	r0, lr
 8005dfc:	6033      	str	r3, [r6, #0]
 8005dfe:	9400      	str	r4, [sp, #0]
 8005e00:	f107 0308 	add.w	r3, r7, #8
 8005e04:	f000 fa1c 	bl	8006240 <taabe347>
 8005e08:	2800      	cmp	r0, #0
 8005e0a:	f040 8115 	bne.w	8006038 <taabe236+0x260>
 8005e0e:	68b9      	ldr	r1, [r7, #8]
 8005e10:	780b      	ldrb	r3, [r1, #0]
 8005e12:	2b70      	cmp	r3, #112	; 0x70
 8005e14:	f040 8103 	bne.w	800601e <taabe236+0x246>
 8005e18:	48c2      	ldr	r0, [pc, #776]	; (8006124 <taabe236+0x34c>)
 8005e1a:	460a      	mov	r2, r1
 8005e1c:	236f      	movs	r3, #111	; 0x6f
 8005e1e:	f812 cf01 	ldrb.w	ip, [r2, #1]!
 8005e22:	459c      	cmp	ip, r3
 8005e24:	f040 80fb 	bne.w	800601e <taabe236+0x246>
 8005e28:	f810 3f01 	ldrb.w	r3, [r0, #1]!
 8005e2c:	2b00      	cmp	r3, #0
 8005e2e:	d1f6      	bne.n	8005e1e <taabe236+0x46>
 8005e30:	7a4b      	ldrb	r3, [r1, #9]
 8005e32:	2b31      	cmp	r3, #49	; 0x31
 8005e34:	f101 0e09 	add.w	lr, r1, #9
 8005e38:	f040 8107 	bne.w	800604a <taabe236+0x272>
 8005e3c:	48ba      	ldr	r0, [pc, #744]	; (8006128 <taabe236+0x350>)
 8005e3e:	4672      	mov	r2, lr
 8005e40:	232e      	movs	r3, #46	; 0x2e
 8005e42:	f812 cf01 	ldrb.w	ip, [r2, #1]!
 8005e46:	459c      	cmp	ip, r3
 8005e48:	f040 80ff 	bne.w	800604a <taabe236+0x272>
 8005e4c:	f810 3f01 	ldrb.w	r3, [r0, #1]!
 8005e50:	2b00      	cmp	r3, #0
 8005e52:	d1f6      	bne.n	8005e42 <taabe236+0x6a>
 8005e54:	f8d1 200e 	ldr.w	r2, [r1, #14]
 8005e58:	2a00      	cmp	r2, #0
 8005e5a:	f340 811d 	ble.w	8006098 <taabe236+0x2c0>
 8005e5e:	2a0c      	cmp	r2, #12
 8005e60:	f040 810b 	bne.w	800607a <taabe236+0x2a2>
 8005e64:	46ea      	mov	sl, sp
 8005e66:	b084      	sub	sp, #16
 8005e68:	f10d 0908 	add.w	r9, sp, #8
 8005e6c:	3112      	adds	r1, #18
 8005e6e:	4648      	mov	r0, r9
 8005e70:	f003 fc7e 	bl	8009770 <memcpy>
 8005e74:	f10d 0b07 	add.w	fp, sp, #7
 8005e78:	4bac      	ldr	r3, [pc, #688]	; (800612c <taabe236+0x354>)
 8005e7a:	4aad      	ldr	r2, [pc, #692]	; (8006130 <taabe236+0x358>)
 8005e7c:	4659      	mov	r1, fp
 8005e7e:	241e      	movs	r4, #30
 8005e80:	7818      	ldrb	r0, [r3, #0]
 8005e82:	f811 cf01 	ldrb.w	ip, [r1, #1]!
 8005e86:	4584      	cmp	ip, r0
 8005e88:	f103 0301 	add.w	r3, r3, #1
 8005e8c:	f040 8106 	bne.w	800609c <taabe236+0x2c4>
 8005e90:	4293      	cmp	r3, r2
 8005e92:	d1f5      	bne.n	8005e80 <taabe236+0xa8>
 8005e94:	68b9      	ldr	r1, [r7, #8]
 8005e96:	46d5      	mov	sp, sl
 8005e98:	f851 9004 	ldr.w	r9, [r1, r4]
 8005e9c:	4648      	mov	r0, r9
 8005e9e:	f000 fa65 	bl	800636c <taabe296>
 8005ea2:	2800      	cmp	r0, #0
 8005ea4:	f000 80be 	beq.w	8006024 <taabe236+0x24c>
 8005ea8:	68bb      	ldr	r3, [r7, #8]
 8005eaa:	6c3a      	ldr	r2, [r7, #64]	; 0x40
 8005eac:	1919      	adds	r1, r3, r4
 8005eae:	f8a2 9000 	strh.w	r9, [r2]
 8005eb2:	f8d1 9004 	ldr.w	r9, [r1, #4]
 8005eb6:	f1b9 0f00 	cmp.w	r9, #0
 8005eba:	f340 80b0 	ble.w	800601e <taabe236+0x246>
 8005ebe:	f104 0208 	add.w	r2, r4, #8
 8005ec2:	4491      	add	r9, r2
 8005ec4:	f853 1009 	ldr.w	r1, [r3, r9]
 8005ec8:	6c7b      	ldr	r3, [r7, #68]	; 0x44
 8005eca:	2900      	cmp	r1, #0
 8005ecc:	6019      	str	r1, [r3, #0]
 8005ece:	f340 80a6 	ble.w	800601e <taabe236+0x246>
 8005ed2:	0089      	lsls	r1, r1, #2
 8005ed4:	2200      	movs	r2, #0
 8005ed6:	4640      	mov	r0, r8
 8005ed8:	f000 fa90 	bl	80063fc <taabe291>
 8005edc:	6028      	str	r0, [r5, #0]
 8005ede:	2800      	cmp	r0, #0
 8005ee0:	f000 810b 	beq.w	80060fa <taabe236+0x322>
 8005ee4:	6c7b      	ldr	r3, [r7, #68]	; 0x44
 8005ee6:	68b9      	ldr	r1, [r7, #8]
 8005ee8:	681a      	ldr	r2, [r3, #0]
 8005eea:	f109 0904 	add.w	r9, r9, #4
 8005eee:	4449      	add	r1, r9
 8005ef0:	0092      	lsls	r2, r2, #2
 8005ef2:	f003 fc3d 	bl	8009770 <memcpy>
 8005ef6:	6c7b      	ldr	r3, [r7, #68]	; 0x44
 8005ef8:	681c      	ldr	r4, [r3, #0]
 8005efa:	2c00      	cmp	r4, #0
 8005efc:	f340 8181 	ble.w	8006202 <taabe236+0x42a>
 8005f00:	f8d5 a000 	ldr.w	sl, [r5]
 8005f04:	f8da e000 	ldr.w	lr, [sl]
 8005f08:	f1be 0f00 	cmp.w	lr, #0
 8005f0c:	f340 80fb 	ble.w	8006106 <taabe236+0x32e>
 8005f10:	4650      	mov	r0, sl
 8005f12:	4652      	mov	r2, sl
 8005f14:	2300      	movs	r3, #0
 8005f16:	e004      	b.n	8005f22 <taabe236+0x14a>
 8005f18:	f852 1f04 	ldr.w	r1, [r2, #4]!
 8005f1c:	2900      	cmp	r1, #0
 8005f1e:	f340 80f2 	ble.w	8006106 <taabe236+0x32e>
 8005f22:	3301      	adds	r3, #1
 8005f24:	429c      	cmp	r4, r3
 8005f26:	d1f7      	bne.n	8005f18 <taabe236+0x140>
 8005f28:	00a4      	lsls	r4, r4, #2
 8005f2a:	f1aa 0204 	sub.w	r2, sl, #4
 8005f2e:	4422      	add	r2, r4
 8005f30:	f04f 0b00 	mov.w	fp, #0
 8005f34:	e001      	b.n	8005f3a <taabe236+0x162>
 8005f36:	f850 ef04 	ldr.w	lr, [r0, #4]!
 8005f3a:	4282      	cmp	r2, r0
 8005f3c:	44f3      	add	fp, lr
 8005f3e:	d1fa      	bne.n	8005f36 <taabe236+0x15e>
 8005f40:	2200      	movs	r2, #0
 8005f42:	4621      	mov	r1, r4
 8005f44:	4640      	mov	r0, r8
 8005f46:	f000 fa59 	bl	80063fc <taabe291>
 8005f4a:	6cfb      	ldr	r3, [r7, #76]	; 0x4c
 8005f4c:	6018      	str	r0, [r3, #0]
 8005f4e:	2800      	cmp	r0, #0
 8005f50:	f000 80ce 	beq.w	80060f0 <taabe236+0x318>
 8005f54:	2200      	movs	r2, #0
 8005f56:	ea4f 018b 	mov.w	r1, fp, lsl #2
 8005f5a:	4640      	mov	r0, r8
 8005f5c:	f000 fa4e 	bl	80063fc <taabe291>
 8005f60:	6078      	str	r0, [r7, #4]
 8005f62:	2800      	cmp	r0, #0
 8005f64:	f000 8155 	beq.w	8006212 <taabe236+0x43a>
 8005f68:	6c7b      	ldr	r3, [r7, #68]	; 0x44
 8005f6a:	6879      	ldr	r1, [r7, #4]
 8005f6c:	681a      	ldr	r2, [r3, #0]
 8005f6e:	6cfb      	ldr	r3, [r7, #76]	; 0x4c
 8005f70:	681e      	ldr	r6, [r3, #0]
 8005f72:	2a01      	cmp	r2, #1
 8005f74:	6031      	str	r1, [r6, #0]
 8005f76:	dd0f      	ble.n	8005f98 <taabe236+0x1c0>
 8005f78:	f1a6 0c04 	sub.w	ip, r6, #4
 8005f7c:	eb0c 0c82 	add.w	ip, ip, r2, lsl #2
 8005f80:	4632      	mov	r2, r6
 8005f82:	eba2 0e06 	sub.w	lr, r2, r6
 8005f86:	6828      	ldr	r0, [r5, #0]
 8005f88:	f850 000e 	ldr.w	r0, [r0, lr]
 8005f8c:	eb01 0180 	add.w	r1, r1, r0, lsl #2
 8005f90:	f842 1f04 	str.w	r1, [r2, #4]!
 8005f94:	4594      	cmp	ip, r2
 8005f96:	d1f4      	bne.n	8005f82 <taabe236+0x1aa>
 8005f98:	eb04 0309 	add.w	r3, r4, r9
 8005f9c:	68bc      	ldr	r4, [r7, #8]
 8005f9e:	f1bb 0f00 	cmp.w	fp, #0
 8005fa2:	f103 0604 	add.w	r6, r3, #4
 8005fa6:	f854 9003 	ldr.w	r9, [r4, r3]
 8005faa:	f340 80d7 	ble.w	800615c <taabe236+0x384>
 8005fae:	687a      	ldr	r2, [r7, #4]
 8005fb0:	f8c2 9000 	str.w	r9, [r2]
 8005fb4:	f1b9 0f00 	cmp.w	r9, #0
 8005fb8:	dd20      	ble.n	8005ffc <taabe236+0x224>
 8005fba:	f06f 0203 	mvn.w	r2, #3
 8005fbe:	1ad3      	subs	r3, r2, r3
 8005fc0:	603b      	str	r3, [r7, #0]
 8005fc2:	f04f 0a00 	mov.w	sl, #0
 8005fc6:	e00c      	b.n	8005fe2 <taabe236+0x20a>
 8005fc8:	68bc      	ldr	r4, [r7, #8]
 8005fca:	59a3      	ldr	r3, [r4, r6]
 8005fcc:	45da      	cmp	sl, fp
 8005fce:	4699      	mov	r9, r3
 8005fd0:	f000 80c6 	beq.w	8006160 <taabe236+0x388>
 8005fd4:	683a      	ldr	r2, [r7, #0]
 8005fd6:	f1b3 0900 	subs.w	r9, r3, #0
 8005fda:	f84e 3002 	str.w	r3, [lr, r2]
 8005fde:	4606      	mov	r6, r0
 8005fe0:	dd0c      	ble.n	8005ffc <taabe236+0x224>
 8005fe2:	6c3b      	ldr	r3, [r7, #64]	; 0x40
 8005fe4:	8818      	ldrh	r0, [r3, #0]
 8005fe6:	f000 f9d7 	bl	8006398 <taabe299>
 8005fea:	687b      	ldr	r3, [r7, #4]
 8005fec:	4548      	cmp	r0, r9
 8005fee:	f106 0004 	add.w	r0, r6, #4
 8005ff2:	f10a 0a01 	add.w	sl, sl, #1
 8005ff6:	eb03 0e00 	add.w	lr, r3, r0
 8005ffa:	dae5      	bge.n	8005fc8 <taabe236+0x1f0>
 8005ffc:	6879      	ldr	r1, [r7, #4]
 8005ffe:	4640      	mov	r0, r8
 8006000:	f000 fa2e 	bl	8006460 <taabe292>
 8006004:	6cfb      	ldr	r3, [r7, #76]	; 0x4c
 8006006:	2600      	movs	r6, #0
 8006008:	4619      	mov	r1, r3
 800600a:	4640      	mov	r0, r8
 800600c:	601e      	str	r6, [r3, #0]
 800600e:	f000 fa27 	bl	8006460 <taabe292>
 8006012:	602e      	str	r6, [r5, #0]
 8006014:	4631      	mov	r1, r6
 8006016:	4640      	mov	r0, r8
 8006018:	f000 fa22 	bl	8006460 <taabe292>
 800601c:	e002      	b.n	8006024 <taabe236+0x24c>
 800601e:	4845      	ldr	r0, [pc, #276]	; (8006134 <taabe236+0x35c>)
 8006020:	f000 fca2 	bl	8006968 <taabe263>
 8006024:	68b8      	ldr	r0, [r7, #8]
 8006026:	f003 fb9b 	bl	8009760 <free>
 800602a:	f04f 0903 	mov.w	r9, #3
 800602e:	4648      	mov	r0, r9
 8006030:	371c      	adds	r7, #28
 8006032:	46bd      	mov	sp, r7
 8006034:	e8bd 8ff0 	ldmia.w	sp!, {r4, r5, r6, r7, r8, r9, sl, fp, pc}
 8006038:	4681      	mov	r9, r0
 800603a:	483f      	ldr	r0, [pc, #252]	; (8006138 <taabe236+0x360>)
 800603c:	f000 fc94 	bl	8006968 <taabe263>
 8006040:	4648      	mov	r0, r9
 8006042:	371c      	adds	r7, #28
 8006044:	46bd      	mov	sp, r7
 8006046:	e8bd 8ff0 	ldmia.w	sp!, {r4, r5, r6, r7, r8, r9, sl, fp, pc}
 800604a:	f8de 0000 	ldr.w	r0, [lr]
 800604e:	6138      	str	r0, [r7, #16]
 8006050:	f89e 3004 	ldrb.w	r3, [lr, #4]
 8006054:	4a39      	ldr	r2, [pc, #228]	; (800613c <taabe236+0x364>)
 8006056:	753b      	strb	r3, [r7, #20]
 8006058:	f107 0110 	add.w	r1, r7, #16
 800605c:	2300      	movs	r3, #0
 800605e:	4838      	ldr	r0, [pc, #224]	; (8006140 <taabe236+0x368>)
 8006060:	757b      	strb	r3, [r7, #21]
 8006062:	f000 fc81 	bl	8006968 <taabe263>
 8006066:	68b8      	ldr	r0, [r7, #8]
 8006068:	f003 fb7a 	bl	8009760 <free>
 800606c:	f04f 0903 	mov.w	r9, #3
 8006070:	4648      	mov	r0, r9
 8006072:	371c      	adds	r7, #28
 8006074:	46bd      	mov	sp, r7
 8006076:	e8bd 8ff0 	ldmia.w	sp!, {r4, r5, r6, r7, r8, r9, sl, fp, pc}
 800607a:	4611      	mov	r1, r2
 800607c:	4831      	ldr	r0, [pc, #196]	; (8006144 <taabe236+0x36c>)
 800607e:	220c      	movs	r2, #12
 8006080:	f000 fc72 	bl	8006968 <taabe263>
 8006084:	68b8      	ldr	r0, [r7, #8]
 8006086:	f003 fb6b 	bl	8009760 <free>
 800608a:	f04f 0903 	mov.w	r9, #3
 800608e:	4648      	mov	r0, r9
 8006090:	371c      	adds	r7, #28
 8006092:	46bd      	mov	sp, r7
 8006094:	e8bd 8ff0 	ldmia.w	sp!, {r4, r5, r6, r7, r8, r9, sl, fp, pc}
 8006098:	2412      	movs	r4, #18
 800609a:	e6fd      	b.n	8005e98 <taabe236+0xc0>
 800609c:	482a      	ldr	r0, [pc, #168]	; (8006148 <taabe236+0x370>)
 800609e:	4c2b      	ldr	r4, [pc, #172]	; (800614c <taabe236+0x374>)
 80060a0:	f000 fc62 	bl	8006968 <taabe263>
 80060a4:	482a      	ldr	r0, [pc, #168]	; (8006150 <taabe236+0x378>)
 80060a6:	f109 090b 	add.w	r9, r9, #11
 80060aa:	f000 fc5d 	bl	8006968 <taabe263>
 80060ae:	f81b 1f01 	ldrb.w	r1, [fp, #1]!
 80060b2:	4620      	mov	r0, r4
 80060b4:	f000 fc58 	bl	8006968 <taabe263>
 80060b8:	45d9      	cmp	r9, fp
 80060ba:	d1f8      	bne.n	80060ae <taabe236+0x2d6>
 80060bc:	4825      	ldr	r0, [pc, #148]	; (8006154 <taabe236+0x37c>)
 80060be:	4c1b      	ldr	r4, [pc, #108]	; (800612c <taabe236+0x354>)
 80060c0:	4e22      	ldr	r6, [pc, #136]	; (800614c <taabe236+0x374>)
 80060c2:	4d1b      	ldr	r5, [pc, #108]	; (8006130 <taabe236+0x358>)
 80060c4:	f000 fc50 	bl	8006968 <taabe263>
 80060c8:	4823      	ldr	r0, [pc, #140]	; (8006158 <taabe236+0x380>)
 80060ca:	f000 fc4d 	bl	8006968 <taabe263>
 80060ce:	f814 1b01 	ldrb.w	r1, [r4], #1
 80060d2:	4630      	mov	r0, r6
 80060d4:	f000 fc48 	bl	8006968 <taabe263>
 80060d8:	42ac      	cmp	r4, r5
 80060da:	d1f8      	bne.n	80060ce <taabe236+0x2f6>
 80060dc:	481d      	ldr	r0, [pc, #116]	; (8006154 <taabe236+0x37c>)
 80060de:	f000 fc43 	bl	8006968 <taabe263>
 80060e2:	68b8      	ldr	r0, [r7, #8]
 80060e4:	f003 fb3c 	bl	8009760 <free>
 80060e8:	f04f 0903 	mov.w	r9, #3
 80060ec:	46d5      	mov	sp, sl
 80060ee:	e79e      	b.n	800602e <taabe236+0x256>
 80060f0:	6028      	str	r0, [r5, #0]
 80060f2:	4601      	mov	r1, r0
 80060f4:	4640      	mov	r0, r8
 80060f6:	f000 f9b3 	bl	8006460 <taabe292>
 80060fa:	68b8      	ldr	r0, [r7, #8]
 80060fc:	f003 fb30 	bl	8009760 <free>
 8006100:	f04f 0901 	mov.w	r9, #1
 8006104:	e793      	b.n	800602e <taabe236+0x256>
 8006106:	480b      	ldr	r0, [pc, #44]	; (8006134 <taabe236+0x35c>)
 8006108:	f000 fc2e 	bl	8006968 <taabe263>
 800610c:	2100      	movs	r1, #0
 800610e:	4640      	mov	r0, r8
 8006110:	6029      	str	r1, [r5, #0]
 8006112:	f000 f9a5 	bl	8006460 <taabe292>
 8006116:	68b8      	ldr	r0, [r7, #8]
 8006118:	f003 fb22 	bl	8009760 <free>
 800611c:	f04f 0903 	mov.w	r9, #3
 8006120:	e785      	b.n	800602e <taabe236+0x256>
 8006122:	bf00      	nop
 8006124:	0800bd21 	.word	0x0800bd21
 8006128:	0800bd2d 	.word	0x0800bd2d
 800612c:	1fff7a10 	.word	0x1fff7a10
 8006130:	1fff7a1c 	.word	0x1fff7a1c
 8006134:	0800bdbc 	.word	0x0800bdbc
 8006138:	0800bcd0 	.word	0x0800bcd0
 800613c:	0800bd2c 	.word	0x0800bd2c
 8006140:	0800be14 	.word	0x0800be14
 8006144:	0800bd54 	.word	0x0800bd54
 8006148:	0800be8c 	.word	0x0800be8c
 800614c:	0800bd34 	.word	0x0800bd34
 8006150:	0800bec4 	.word	0x0800bec4
 8006154:	0800bc34 	.word	0x0800bc34
 8006158:	0800bd3c 	.word	0x0800bd3c
 800615c:	4630      	mov	r0, r6
 800615e:	461e      	mov	r6, r3
 8006160:	ee07 9a90 	vmov	s15, r9
 8006164:	6d3b      	ldr	r3, [r7, #80]	; 0x50
 8006166:	eef5 7ac0 	vcmpe.f32	s15, #0.0
 800616a:	eef1 fa10 	vmrs	APSR_nzcv, fpscr
 800616e:	f8c3 9000 	str.w	r9, [r3]
 8006172:	da4a      	bge.n	800620a <taabe236+0x432>
 8006174:	6d7a      	ldr	r2, [r7, #84]	; 0x54
 8006176:	5823      	ldr	r3, [r4, r0]
 8006178:	6013      	str	r3, [r2, #0]
 800617a:	6d3a      	ldr	r2, [r7, #80]	; 0x50
 800617c:	ee07 3a10 	vmov	s14, r3
 8006180:	edd2 7a00 	vldr	s15, [r2]
 8006184:	eef4 7ac7 	vcmpe.f32	s15, s14
 8006188:	eef1 fa10 	vmrs	APSR_nzcv, fpscr
 800618c:	dc3d      	bgt.n	800620a <taabe236+0x432>
 800618e:	19a1      	adds	r1, r4, r6
 8006190:	f106 030c 	add.w	r3, r6, #12
 8006194:	688a      	ldr	r2, [r1, #8]
 8006196:	6db9      	ldr	r1, [r7, #88]	; 0x58
 8006198:	f1a2 0201 	sub.w	r2, r2, #1
 800619c:	fab2 f282 	clz	r2, r2
 80061a0:	4423      	add	r3, r4
 80061a2:	0952      	lsrs	r2, r2, #5
 80061a4:	700a      	strb	r2, [r1, #0]
 80061a6:	6818      	ldr	r0, [r3, #0]
 80061a8:	6859      	ldr	r1, [r3, #4]
 80061aa:	f107 0310 	add.w	r3, r7, #16
 80061ae:	c303      	stmia	r3!, {r0, r1}
 80061b0:	e9d7 8904 	ldrd	r8, r9, [r7, #16]
 80061b4:	f1b9 3fff 	cmp.w	r9, #4294967295	; 0xffffffff
 80061b8:	bf08      	it	eq
 80061ba:	f1b8 3fff 	cmpeq.w	r8, #4294967295	; 0xffffffff
 80061be:	d033      	beq.n	8006228 <taabe236+0x450>
 80061c0:	2000      	movs	r0, #0
 80061c2:	f003 feef 	bl	8009fa4 <time>
 80061c6:	ebb8 0000 	subs.w	r0, r8, r0
 80061ca:	eb69 0101 	sbc.w	r1, r9, r1
 80061ce:	f7fa f9ed 	bl	80005ac <__aeabi_l2d>
 80061d2:	a319      	add	r3, pc, #100	; (adr r3, 8006238 <taabe236+0x460>)
 80061d4:	e9d3 2300 	ldrd	r2, r3, [r3]
 80061d8:	f7fa fb40 	bl	800085c <__aeabi_ddiv>
 80061dc:	f7fa fc26 	bl	8000a2c <__aeabi_d2iz>
 80061e0:	6dfa      	ldr	r2, [r7, #92]	; 0x5c
 80061e2:	1e01      	subs	r1, r0, #0
 80061e4:	bfd4      	ite	le
 80061e6:	2301      	movle	r3, #1
 80061e8:	2300      	movgt	r3, #0
 80061ea:	7013      	strb	r3, [r2, #0]
 80061ec:	dd02      	ble.n	80061f4 <taabe236+0x41c>
 80061ee:	4810      	ldr	r0, [pc, #64]	; (8006230 <taabe236+0x458>)
 80061f0:	f000 fbba 	bl	8006968 <taabe263>
 80061f4:	68bc      	ldr	r4, [r7, #8]
 80061f6:	4620      	mov	r0, r4
 80061f8:	f003 fab2 	bl	8009760 <free>
 80061fc:	f04f 0900 	mov.w	r9, #0
 8006200:	e715      	b.n	800602e <taabe236+0x256>
 8006202:	00a4      	lsls	r4, r4, #2
 8006204:	f04f 0b00 	mov.w	fp, #0
 8006208:	e69a      	b.n	8005f40 <taabe236+0x168>
 800620a:	480a      	ldr	r0, [pc, #40]	; (8006234 <taabe236+0x45c>)
 800620c:	f000 fbac 	bl	8006968 <taabe263>
 8006210:	e6f4      	b.n	8005ffc <taabe236+0x224>
 8006212:	6cfb      	ldr	r3, [r7, #76]	; 0x4c
 8006214:	461a      	mov	r2, r3
 8006216:	4604      	mov	r4, r0
 8006218:	6010      	str	r0, [r2, #0]
 800621a:	4611      	mov	r1, r2
 800621c:	4640      	mov	r0, r8
 800621e:	f000 f91f 	bl	8006460 <taabe292>
 8006222:	602c      	str	r4, [r5, #0]
 8006224:	4621      	mov	r1, r4
 8006226:	e765      	b.n	80060f4 <taabe236+0x31c>
 8006228:	6dfa      	ldr	r2, [r7, #92]	; 0x5c
 800622a:	2300      	movs	r3, #0
 800622c:	7013      	strb	r3, [r2, #0]
 800622e:	e7e2      	b.n	80061f6 <taabe236+0x41e>
 8006230:	0800bdec 	.word	0x0800bdec
 8006234:	0800bdbc 	.word	0x0800bdbc
 8006238:	00000000 	.word	0x00000000
 800623c:	40f51800 	.word	0x40f51800

08006240 <taabe347>:
 8006240:	e92d 4ff0 	stmdb	sp!, {r4, r5, r6, r7, r8, r9, sl, fp, lr}
 8006244:	b083      	sub	sp, #12
 8006246:	4605      	mov	r5, r0
 8006248:	4608      	mov	r0, r1
 800624a:	461c      	mov	r4, r3
 800624c:	4688      	mov	r8, r1
 800624e:	9101      	str	r1, [sp, #4]
 8006250:	4617      	mov	r7, r2
 8006252:	f003 fa7d 	bl	8009750 <malloc>
 8006256:	6020      	str	r0, [r4, #0]
 8006258:	2800      	cmp	r0, #0
 800625a:	d07c      	beq.n	8006356 <taabe347+0x116>
 800625c:	4629      	mov	r1, r5
 800625e:	4642      	mov	r2, r8
 8006260:	4606      	mov	r6, r0
 8006262:	f003 fa85 	bl	8009770 <memcpy>
 8006266:	4643      	mov	r3, r8
 8006268:	2b00      	cmp	r3, #0
 800626a:	bfb8      	it	lt
 800626c:	9b01      	ldrlt	r3, [sp, #4]
 800626e:	6831      	ldr	r1, [r6, #0]
 8006270:	46c1      	mov	r9, r8
 8006272:	bfb8      	it	lt
 8006274:	f103 0903 	addlt.w	r9, r3, #3
 8006278:	ea4f 09a9 	mov.w	r9, r9, asr #2
 800627c:	4b38      	ldr	r3, [pc, #224]	; (8006360 <taabe347+0x120>)
 800627e:	2234      	movs	r2, #52	; 0x34
 8006280:	fb92 f2f9 	sdiv	r2, r2, r9
 8006284:	1d90      	adds	r0, r2, #6
 8006286:	2800      	cmp	r0, #0
 8006288:	fb03 fc00 	mul.w	ip, r3, r0
 800628c:	460b      	mov	r3, r1
 800628e:	dd49      	ble.n	8006324 <taabe347+0xe4>
 8006290:	4834      	ldr	r0, [pc, #208]	; (8006364 <taabe347+0x124>)
 8006292:	f8df 80d4 	ldr.w	r8, [pc, #212]	; 8006368 <taabe347+0x128>
 8006296:	9000      	str	r0, [sp, #0]
 8006298:	f109 4a80 	add.w	sl, r9, #1073741824	; 0x40000000
 800629c:	fb00 c202 	mla	r2, r0, r2, ip
 80062a0:	f10a 3aff 	add.w	sl, sl, #4294967295	; 0xffffffff
 80062a4:	4490      	add	r8, r2
 80062a6:	eb06 0a8a 	add.w	sl, r6, sl, lsl #2
 80062aa:	f109 39ff 	add.w	r9, r9, #4294967295	; 0xffffffff
 80062ae:	46c3      	mov	fp, r8
 80062b0:	ea4f 0e9c 	mov.w	lr, ip, lsr #2
 80062b4:	f00e 0803 	and.w	r8, lr, #3
 80062b8:	f1b9 0f00 	cmp.w	r9, #0
 80062bc:	d01b      	beq.n	80062f6 <taabe347+0xb6>
 80062be:	4655      	mov	r5, sl
 80062c0:	464c      	mov	r4, r9
 80062c2:	ea8e 0204 	eor.w	r2, lr, r4
 80062c6:	f002 0203 	and.w	r2, r2, #3
 80062ca:	f855 0d04 	ldr.w	r0, [r5, #-4]!
 80062ce:	f857 2022 	ldr.w	r2, [r7, r2, lsl #2]
 80062d2:	ea8c 0103 	eor.w	r1, ip, r3
 80062d6:	4042      	eors	r2, r0
 80062d8:	440a      	add	r2, r1
 80062da:	0101      	lsls	r1, r0, #4
 80062dc:	ea81 01d3 	eor.w	r1, r1, r3, lsr #3
 80062e0:	009b      	lsls	r3, r3, #2
 80062e2:	ea83 1350 	eor.w	r3, r3, r0, lsr #5
 80062e6:	4419      	add	r1, r3
 80062e8:	686b      	ldr	r3, [r5, #4]
 80062ea:	4051      	eors	r1, r2
 80062ec:	1a5b      	subs	r3, r3, r1
 80062ee:	3c01      	subs	r4, #1
 80062f0:	606b      	str	r3, [r5, #4]
 80062f2:	d1e6      	bne.n	80062c2 <taabe347+0x82>
 80062f4:	6831      	ldr	r1, [r6, #0]
 80062f6:	f8da 4000 	ldr.w	r4, [sl]
 80062fa:	f857 2028 	ldr.w	r2, [r7, r8, lsl #2]
 80062fe:	0120      	lsls	r0, r4, #4
 8006300:	ea8c 0503 	eor.w	r5, ip, r3
 8006304:	ea80 00d3 	eor.w	r0, r0, r3, lsr #3
 8006308:	009b      	lsls	r3, r3, #2
 800630a:	4062      	eors	r2, r4
 800630c:	ea83 1354 	eor.w	r3, r3, r4, lsr #5
 8006310:	442a      	add	r2, r5
 8006312:	4403      	add	r3, r0
 8006314:	4053      	eors	r3, r2
 8006316:	9a00      	ldr	r2, [sp, #0]
 8006318:	4494      	add	ip, r2
 800631a:	1acb      	subs	r3, r1, r3
 800631c:	45dc      	cmp	ip, fp
 800631e:	6033      	str	r3, [r6, #0]
 8006320:	4619      	mov	r1, r3
 8006322:	d1c5      	bne.n	80062b0 <taabe347+0x70>
 8006324:	6833      	ldr	r3, [r6, #0]
 8006326:	2b03      	cmp	r3, #3
 8006328:	d80e      	bhi.n	8006348 <taabe347+0x108>
 800632a:	9a01      	ldr	r2, [sp, #4]
 800632c:	3a04      	subs	r2, #4
 800632e:	1ad2      	subs	r2, r2, r3
 8006330:	9b0c      	ldr	r3, [sp, #48]	; 0x30
 8006332:	2a00      	cmp	r2, #0
 8006334:	601a      	str	r2, [r3, #0]
 8006336:	dd07      	ble.n	8006348 <taabe347+0x108>
 8006338:	1d31      	adds	r1, r6, #4
 800633a:	4630      	mov	r0, r6
 800633c:	f003 fa18 	bl	8009770 <memcpy>
 8006340:	2000      	movs	r0, #0
 8006342:	b003      	add	sp, #12
 8006344:	e8bd 8ff0 	ldmia.w	sp!, {r4, r5, r6, r7, r8, r9, sl, fp, pc}
 8006348:	4630      	mov	r0, r6
 800634a:	f003 fa09 	bl	8009760 <free>
 800634e:	2003      	movs	r0, #3
 8006350:	b003      	add	sp, #12
 8006352:	e8bd 8ff0 	ldmia.w	sp!, {r4, r5, r6, r7, r8, r9, sl, fp, pc}
 8006356:	2001      	movs	r0, #1
 8006358:	b003      	add	sp, #12
 800635a:	e8bd 8ff0 	ldmia.w	sp!, {r4, r5, r6, r7, r8, r9, sl, fp, pc}
 800635e:	bf00      	nop
 8006360:	9e3779b9 	.word	0x9e3779b9
 8006364:	61c88647 	.word	0x61c88647
 8006368:	4ab325aa 	.word	0x4ab325aa

0800636c <taabe296>:
 800636c:	f5a0 50d6 	sub.w	r0, r0, #6848	; 0x1ac0
 8006370:	3810      	subs	r0, #16
 8006372:	2804      	cmp	r0, #4
 8006374:	bf8c      	ite	hi
 8006376:	2000      	movhi	r0, #0
 8006378:	2001      	movls	r0, #1
 800637a:	4770      	bx	lr

0800637c <taabe297>:
 800637c:	f5a0 50d6 	sub.w	r0, r0, #6848	; 0x1ac0
 8006380:	3810      	subs	r0, #16
 8006382:	b280      	uxth	r0, r0
 8006384:	2804      	cmp	r0, #4
 8006386:	bf9a      	itte	ls
 8006388:	4b02      	ldrls	r3, [pc, #8]	; (8006394 <taabe297+0x18>)
 800638a:	f853 0020 	ldrls.w	r0, [r3, r0, lsl #2]
 800638e:	2000      	movhi	r0, #0
 8006390:	4770      	bx	lr
 8006392:	bf00      	nop
 8006394:	0800bedc 	.word	0x0800bedc

08006398 <taabe299>:
 8006398:	f5a0 50d6 	sub.w	r0, r0, #6848	; 0x1ac0
 800639c:	3811      	subs	r0, #17
 800639e:	b280      	uxth	r0, r0
 80063a0:	2803      	cmp	r0, #3
 80063a2:	bf9a      	itte	ls
 80063a4:	4b02      	ldrls	r3, [pc, #8]	; (80063b0 <taabe299+0x18>)
 80063a6:	f853 0020 	ldrls.w	r0, [r3, r0, lsl #2]
 80063aa:	f04f 30ff 	movhi.w	r0, #4294967295	; 0xffffffff
 80063ae:	4770      	bx	lr
 80063b0:	0800bef0 	.word	0x0800bef0

080063b4 <taabe289>:
 80063b4:	b470      	push	{r4, r5, r6}
 80063b6:	4604      	mov	r4, r0
 80063b8:	2000      	movs	r0, #0
 80063ba:	6018      	str	r0, [r3, #0]
 80063bc:	f014 0007 	ands.w	r0, r4, #7
 80063c0:	d118      	bne.n	80063f4 <taabe289+0x40>
 80063c2:	0095      	lsls	r5, r2, #2
 80063c4:	3527      	adds	r5, #39	; 0x27
 80063c6:	f025 0507 	bic.w	r5, r5, #7
 80063ca:	42a9      	cmp	r1, r5
 80063cc:	f102 0201 	add.w	r2, r2, #1
 80063d0:	dd0d      	ble.n	80063ee <taabe289+0x3a>
 80063d2:	e9c4 4100 	strd	r4, r1, [r4]
 80063d6:	f104 061c 	add.w	r6, r4, #28
 80063da:	2101      	movs	r1, #1
 80063dc:	60a2      	str	r2, [r4, #8]
 80063de:	e9c4 5506 	strd	r5, r5, [r4, #24]
 80063e2:	e9c4 6103 	strd	r6, r1, [r4, #12]
 80063e6:	6161      	str	r1, [r4, #20]
 80063e8:	601c      	str	r4, [r3, #0]
 80063ea:	bc70      	pop	{r4, r5, r6}
 80063ec:	4770      	bx	lr
 80063ee:	2001      	movs	r0, #1
 80063f0:	bc70      	pop	{r4, r5, r6}
 80063f2:	4770      	bx	lr
 80063f4:	2003      	movs	r0, #3
 80063f6:	bc70      	pop	{r4, r5, r6}
 80063f8:	4770      	bx	lr
 80063fa:	bf00      	nop

080063fc <taabe291>:
 80063fc:	b5f8      	push	{r3, r4, r5, r6, r7, lr}
 80063fe:	6903      	ldr	r3, [r0, #16]
 8006400:	6884      	ldr	r4, [r0, #8]
 8006402:	429c      	cmp	r4, r3
 8006404:	d028      	beq.n	8006458 <taabe291+0x5c>
 8006406:	f103 4380 	add.w	r3, r3, #1073741824	; 0x40000000
 800640a:	3b01      	subs	r3, #1
 800640c:	68c4      	ldr	r4, [r0, #12]
 800640e:	6846      	ldr	r6, [r0, #4]
 8006410:	f854 7023 	ldr.w	r7, [r4, r3, lsl #2]
 8006414:	3107      	adds	r1, #7
 8006416:	f021 0107 	bic.w	r1, r1, #7
 800641a:	187d      	adds	r5, r7, r1
 800641c:	42ae      	cmp	r6, r5
 800641e:	ea4f 0383 	mov.w	r3, r3, lsl #2
 8006422:	db19      	blt.n	8006458 <taabe291+0x5c>
 8006424:	4423      	add	r3, r4
 8006426:	6804      	ldr	r4, [r0, #0]
 8006428:	605d      	str	r5, [r3, #4]
 800642a:	e9d0 3604 	ldrd	r3, r6, [r0, #16]
 800642e:	3301      	adds	r3, #1
 8006430:	429e      	cmp	r6, r3
 8006432:	bfb8      	it	lt
 8006434:	461e      	movlt	r6, r3
 8006436:	46b4      	mov	ip, r6
 8006438:	6986      	ldr	r6, [r0, #24]
 800643a:	42b5      	cmp	r5, r6
 800643c:	bfb8      	it	lt
 800643e:	4635      	movlt	r5, r6
 8006440:	e9c0 3c04 	strd	r3, ip, [r0, #16]
 8006444:	6185      	str	r5, [r0, #24]
 8006446:	4427      	add	r7, r4
 8006448:	b122      	cbz	r2, 8006454 <taabe291+0x58>
 800644a:	460a      	mov	r2, r1
 800644c:	4638      	mov	r0, r7
 800644e:	2100      	movs	r1, #0
 8006450:	f003 f999 	bl	8009786 <memset>
 8006454:	4638      	mov	r0, r7
 8006456:	bdf8      	pop	{r3, r4, r5, r6, r7, pc}
 8006458:	2700      	movs	r7, #0
 800645a:	4638      	mov	r0, r7
 800645c:	bdf8      	pop	{r3, r4, r5, r6, r7, pc}
 800645e:	bf00      	nop

08006460 <taabe292>:
 8006460:	b191      	cbz	r1, 8006488 <taabe292+0x28>
 8006462:	6903      	ldr	r3, [r0, #16]
 8006464:	2b01      	cmp	r3, #1
 8006466:	dd0f      	ble.n	8006488 <taabe292+0x28>
 8006468:	b430      	push	{r4, r5}
 800646a:	f103 4480 	add.w	r4, r3, #1073741824	; 0x40000000
 800646e:	68c5      	ldr	r5, [r0, #12]
 8006470:	6802      	ldr	r2, [r0, #0]
 8006472:	3c02      	subs	r4, #2
 8006474:	f855 4024 	ldr.w	r4, [r5, r4, lsl #2]
 8006478:	4422      	add	r2, r4
 800647a:	4291      	cmp	r1, r2
 800647c:	bf04      	itt	eq
 800647e:	f103 33ff 	addeq.w	r3, r3, #4294967295	; 0xffffffff
 8006482:	6103      	streq	r3, [r0, #16]
 8006484:	bc30      	pop	{r4, r5}
 8006486:	4770      	bx	lr
 8006488:	4770      	bx	lr
 800648a:	bf00      	nop

0800648c <taabe203>:
 800648c:	e92d 41f0 	stmdb	sp!, {r4, r5, r6, r7, r8, lr}
 8006490:	2500      	movs	r5, #0
 8006492:	4616      	mov	r6, r2
 8006494:	4688      	mov	r8, r1
 8006496:	6015      	str	r5, [r2, #0]
 8006498:	2110      	movs	r1, #16
 800649a:	2201      	movs	r2, #1
 800649c:	4607      	mov	r7, r0
 800649e:	f7ff ffad 	bl	80063fc <taabe291>
 80064a2:	b178      	cbz	r0, 80064c4 <taabe203+0x38>
 80064a4:	4604      	mov	r4, r0
 80064a6:	8105      	strh	r5, [r0, #8]
 80064a8:	e9c0 7800 	strd	r7, r8, [r0]
 80064ac:	4641      	mov	r1, r8
 80064ae:	4638      	mov	r0, r7
 80064b0:	f104 020c 	add.w	r2, r4, #12
 80064b4:	f000 f966 	bl	8006784 <taabe208>
 80064b8:	4605      	mov	r5, r0
 80064ba:	b938      	cbnz	r0, 80064cc <taabe203+0x40>
 80064bc:	6034      	str	r4, [r6, #0]
 80064be:	4628      	mov	r0, r5
 80064c0:	e8bd 81f0 	ldmia.w	sp!, {r4, r5, r6, r7, r8, pc}
 80064c4:	2501      	movs	r5, #1
 80064c6:	4628      	mov	r0, r5
 80064c8:	e8bd 81f0 	ldmia.w	sp!, {r4, r5, r6, r7, r8, pc}
 80064cc:	68e0      	ldr	r0, [r4, #12]
 80064ce:	f000 f98b 	bl	80067e8 <taabe209>
 80064d2:	6820      	ldr	r0, [r4, #0]
 80064d4:	4621      	mov	r1, r4
 80064d6:	f7ff ffc3 	bl	8006460 <taabe292>
 80064da:	4628      	mov	r0, r5
 80064dc:	e8bd 81f0 	ldmia.w	sp!, {r4, r5, r6, r7, r8, pc}

080064e0 <taabe204>:
 80064e0:	b150      	cbz	r0, 80064f8 <taabe204+0x18>
 80064e2:	b510      	push	{r4, lr}
 80064e4:	4604      	mov	r4, r0
 80064e6:	68c0      	ldr	r0, [r0, #12]
 80064e8:	f000 f97e 	bl	80067e8 <taabe209>
 80064ec:	4621      	mov	r1, r4
 80064ee:	6820      	ldr	r0, [r4, #0]
 80064f0:	e8bd 4010 	ldmia.w	sp!, {r4, lr}
 80064f4:	f7ff bfb4 	b.w	8006460 <taabe292>
 80064f8:	4770      	bx	lr
 80064fa:	bf00      	nop

080064fc <taabe205>:
 80064fc:	e92d 4ff0 	stmdb	sp!, {r4, r5, r6, r7, r8, r9, sl, fp, lr}
 8006500:	ed2d 8b04 	vpush	{d8-d9}
 8006504:	6803      	ldr	r3, [r0, #0]
 8006506:	460d      	mov	r5, r1
 8006508:	6841      	ldr	r1, [r0, #4]
 800650a:	b083      	sub	sp, #12
 800650c:	4604      	mov	r4, r0
 800650e:	4617      	mov	r7, r2
 8006510:	4618      	mov	r0, r3
 8006512:	0089      	lsls	r1, r1, #2
 8006514:	2200      	movs	r2, #0
 8006516:	9301      	str	r3, [sp, #4]
 8006518:	f7ff ff70 	bl	80063fc <taabe291>
 800651c:	2800      	cmp	r0, #0
 800651e:	f000 80af 	beq.w	8006680 <taabe205+0x184>
 8006522:	f9b4 3008 	ldrsh.w	r3, [r4, #8]
 8006526:	eddf 6a6f 	vldr	s13, [pc, #444]	; 80066e4 <taabe205+0x1e8>
 800652a:	6866      	ldr	r6, [r4, #4]
 800652c:	ee07 3a10 	vmov	s14, r3
 8006530:	f9b5 3000 	ldrsh.w	r3, [r5]
 8006534:	eeb8 7ac7 	vcvt.f32.s32	s14, s14
 8006538:	ee07 3a90 	vmov	s15, r3
 800653c:	ee27 7a26 	vmul.f32	s14, s14, s13
 8006540:	eef8 7ae7 	vcvt.f32.s32	s15, s15
 8006544:	2e01      	cmp	r6, #1
 8006546:	ee37 7ac7 	vsub.f32	s14, s15, s14
 800654a:	4681      	mov	r9, r0
 800654c:	ed80 7a00 	vstr	s14, [r0]
 8006550:	dd13      	ble.n	800657a <taabe205+0x7e>
 8006552:	1ea8      	subs	r0, r5, #2
 8006554:	eb00 0046 	add.w	r0, r0, r6, lsl #1
 8006558:	462b      	mov	r3, r5
 800655a:	f109 0204 	add.w	r2, r9, #4
 800655e:	f933 1f02 	ldrsh.w	r1, [r3, #2]!
 8006562:	ee27 7aa6 	vmul.f32	s14, s15, s13
 8006566:	ee07 1a90 	vmov	s15, r1
 800656a:	eef8 7ae7 	vcvt.f32.s32	s15, s15
 800656e:	4283      	cmp	r3, r0
 8006570:	ee37 7ac7 	vsub.f32	s14, s15, s14
 8006574:	eca2 7a01 	vstmia	r2!, {s14}
 8006578:	d1f1      	bne.n	800655e <taabe205+0x62>
 800657a:	f106 4300 	add.w	r3, r6, #2147483648	; 0x80000000
 800657e:	3b01      	subs	r3, #1
 8006580:	2200      	movs	r2, #0
 8006582:	f935 3013 	ldrsh.w	r3, [r5, r3, lsl #1]
 8006586:	8123      	strh	r3, [r4, #8]
 8006588:	f240 4104 	movw	r1, #1028	; 0x404
 800658c:	9801      	ldr	r0, [sp, #4]
 800658e:	f7ff ff35 	bl	80063fc <taabe291>
 8006592:	4606      	mov	r6, r0
 8006594:	2800      	cmp	r0, #0
 8006596:	f000 808a 	beq.w	80066ae <taabe205+0x1b2>
 800659a:	68e0      	ldr	r0, [r4, #12]
 800659c:	4632      	mov	r2, r6
 800659e:	4649      	mov	r1, r9
 80065a0:	f000 f926 	bl	80067f0 <taabe210>
 80065a4:	4604      	mov	r4, r0
 80065a6:	2800      	cmp	r0, #0
 80065a8:	f040 808c 	bne.w	80066c4 <taabe205+0x1c8>
 80065ac:	4d4e      	ldr	r5, [pc, #312]	; (80066e8 <taabe205+0x1ec>)
 80065ae:	f8df a14c 	ldr.w	sl, [pc, #332]	; 80066fc <taabe205+0x200>
 80065b2:	f8df b14c 	ldr.w	fp, [pc, #332]	; 8006700 <taabe205+0x204>
 80065b6:	eddf 8a4d 	vldr	s17, [pc, #308]	; 80066ec <taabe205+0x1f0>
 80065ba:	ed9f 8a4d 	vldr	s16, [pc, #308]	; 80066f0 <taabe205+0x1f4>
 80065be:	ed9f 9a4d 	vldr	s18, [pc, #308]	; 80066f4 <taabe205+0x1f8>
 80065c2:	ed9f 7a4d 	vldr	s14, [pc, #308]	; 80066f8 <taabe205+0x1fc>
 80065c6:	4603      	mov	r3, r0
 80065c8:	2401      	movs	r4, #1
 80065ca:	42a3      	cmp	r3, r4
 80065cc:	f1a7 0702 	sub.w	r7, r7, #2
 80065d0:	f105 084e 	add.w	r8, r5, #78	; 0x4e
 80065d4:	f04f 0103 	mov.w	r1, #3
 80065d8:	da46      	bge.n	8006668 <taabe205+0x16c>
 80065da:	ed9a 6a00 	vldr	s12, [sl]
 80065de:	eef0 7a47 	vmov.f32	s15, s14
 80065e2:	eb06 0383 	add.w	r3, r6, r3, lsl #2
 80065e6:	eb06 0084 	add.w	r0, r6, r4, lsl #2
 80065ea:	ecf3 6a01 	vldmia	r3!, {s13}
 80065ee:	ee66 6aa7 	vmul.f32	s13, s13, s15
 80065f2:	4298      	cmp	r0, r3
 80065f4:	ee77 7a86 	vadd.f32	s15, s15, s12
 80065f8:	ee37 7a26 	vadd.f32	s14, s14, s13
 80065fc:	d1f5      	bne.n	80065ea <taabe205+0xee>
 80065fe:	42a1      	cmp	r1, r4
 8006600:	dd0f      	ble.n	8006622 <taabe205+0x126>
 8006602:	ed9b 6a00 	vldr	s12, [fp]
 8006606:	eb06 0181 	add.w	r1, r6, r1, lsl #2
 800660a:	eb06 0384 	add.w	r3, r6, r4, lsl #2
 800660e:	ecf3 6a01 	vldmia	r3!, {s13}
 8006612:	ee66 6aa7 	vmul.f32	s13, s13, s15
 8006616:	4299      	cmp	r1, r3
 8006618:	ee77 7ac6 	vsub.f32	s15, s15, s12
 800661c:	ee37 7a26 	vadd.f32	s14, s14, s13
 8006620:	d1f5      	bne.n	800660e <taabe205+0x112>
 8006622:	ee27 7a28 	vmul.f32	s14, s14, s17
 8006626:	eeb4 7ac8 	vcmpe.f32	s14, s16
 800662a:	eef1 fa10 	vmrs	APSR_nzcv, fpscr
 800662e:	da1e      	bge.n	800666e <taabe205+0x172>
 8006630:	eeb4 7ac9 	vcmpe.f32	s14, s18
 8006634:	eef1 fa10 	vmrs	APSR_nzcv, fpscr
 8006638:	d91e      	bls.n	8006678 <taabe205+0x17c>
 800663a:	ee17 0a10 	vmov	r0, s14
 800663e:	f7fa fad5 	bl	8000bec <__aeabi_f2lz>
 8006642:	f000 fad5 	bl	8006bf0 <taabe199>
 8006646:	45a8      	cmp	r8, r5
 8006648:	f10a 0a04 	add.w	sl, sl, #4
 800664c:	f827 0f02 	strh.w	r0, [r7, #2]!
 8006650:	f10b 0b04 	add.w	fp, fp, #4
 8006654:	d01b      	beq.n	800668e <taabe205+0x192>
 8006656:	4623      	mov	r3, r4
 8006658:	f9b5 1002 	ldrsh.w	r1, [r5, #2]
 800665c:	f935 4b02 	ldrsh.w	r4, [r5], #2
 8006660:	ed9f 7a25 	vldr	s14, [pc, #148]	; 80066f8 <taabe205+0x1fc>
 8006664:	42a3      	cmp	r3, r4
 8006666:	dbb8      	blt.n	80065da <taabe205+0xde>
 8006668:	eef0 7a47 	vmov.f32	s15, s14
 800666c:	e7c7      	b.n	80065fe <taabe205+0x102>
 800666e:	f04f 30ff 	mov.w	r0, #4294967295	; 0xffffffff
 8006672:	f06f 4100 	mvn.w	r1, #2147483648	; 0x80000000
 8006676:	e7e4      	b.n	8006642 <taabe205+0x146>
 8006678:	2000      	movs	r0, #0
 800667a:	f04f 4100 	mov.w	r1, #2147483648	; 0x80000000
 800667e:	e7e0      	b.n	8006642 <taabe205+0x146>
 8006680:	2401      	movs	r4, #1
 8006682:	4620      	mov	r0, r4
 8006684:	b003      	add	sp, #12
 8006686:	ecbd 8b04 	vpop	{d8-d9}
 800668a:	e8bd 8ff0 	ldmia.w	sp!, {r4, r5, r6, r7, r8, r9, sl, fp, pc}
 800668e:	9c01      	ldr	r4, [sp, #4]
 8006690:	4631      	mov	r1, r6
 8006692:	4620      	mov	r0, r4
 8006694:	f7ff fee4 	bl	8006460 <taabe292>
 8006698:	4620      	mov	r0, r4
 800669a:	4649      	mov	r1, r9
 800669c:	f7ff fee0 	bl	8006460 <taabe292>
 80066a0:	2400      	movs	r4, #0
 80066a2:	4620      	mov	r0, r4
 80066a4:	b003      	add	sp, #12
 80066a6:	ecbd 8b04 	vpop	{d8-d9}
 80066aa:	e8bd 8ff0 	ldmia.w	sp!, {r4, r5, r6, r7, r8, r9, sl, fp, pc}
 80066ae:	9801      	ldr	r0, [sp, #4]
 80066b0:	4649      	mov	r1, r9
 80066b2:	f7ff fed5 	bl	8006460 <taabe292>
 80066b6:	2401      	movs	r4, #1
 80066b8:	4620      	mov	r0, r4
 80066ba:	b003      	add	sp, #12
 80066bc:	ecbd 8b04 	vpop	{d8-d9}
 80066c0:	e8bd 8ff0 	ldmia.w	sp!, {r4, r5, r6, r7, r8, r9, sl, fp, pc}
 80066c4:	9d01      	ldr	r5, [sp, #4]
 80066c6:	4631      	mov	r1, r6
 80066c8:	4628      	mov	r0, r5
 80066ca:	f7ff fec9 	bl	8006460 <taabe292>
 80066ce:	4628      	mov	r0, r5
 80066d0:	4649      	mov	r1, r9
 80066d2:	f7ff fec5 	bl	8006460 <taabe292>
 80066d6:	4620      	mov	r0, r4
 80066d8:	b003      	add	sp, #12
 80066da:	ecbd 8b04 	vpop	{d8-d9}
 80066de:	e8bd 8ff0 	ldmia.w	sp!, {r4, r5, r6, r7, r8, r9, sl, fp, pc}
 80066e2:	bf00      	nop
 80066e4:	3f7851ec 	.word	0x3f7851ec
 80066e8:	0800bf18 	.word	0x0800bf18
 80066ec:	50000000 	.word	0x50000000
 80066f0:	5f000000 	.word	0x5f000000
 80066f4:	df000000 	.word	0xdf000000
 80066f8:	00000000 	.word	0x00000000
 80066fc:	0800c0a8 	.word	0x0800c0a8
 8006700:	0800c008 	.word	0x0800c008

08006704 <taabe206>:
 8006704:	2300      	movs	r3, #0
 8006706:	8103      	strh	r3, [r0, #8]
 8006708:	68c0      	ldr	r0, [r0, #12]
 800670a:	f000 b921 	b.w	8006950 <taabe211>
 800670e:	bf00      	nop

08006710 <taabe207>:
 8006710:	b470      	push	{r4, r5, r6}
 8006712:	b1c9      	cbz	r1, 8006748 <taabe207+0x38>
 8006714:	f9b1 6000 	ldrsh.w	r6, [r1]
 8006718:	b1d2      	cbz	r2, 8006750 <taabe207+0x40>
 800671a:	f9b2 3000 	ldrsh.w	r3, [r2]
 800671e:	1e84      	subs	r4, r0, #2
 8006720:	304e      	adds	r0, #78	; 0x4e
 8006722:	e003      	b.n	800672c <taabe207+0x1c>
 8006724:	f932 3f02 	ldrsh.w	r3, [r2, #2]!
 8006728:	f931 6f02 	ldrsh.w	r6, [r1, #2]!
 800672c:	f934 5f02 	ldrsh.w	r5, [r4, #2]!
 8006730:	1bad      	subs	r5, r5, r6
 8006732:	fb03 f305 	mul.w	r3, r3, r5
 8006736:	4284      	cmp	r4, r0
 8006738:	ea4f 23a3 	mov.w	r3, r3, asr #10
 800673c:	f303 030f 	ssat	r3, #16, r3
 8006740:	8023      	strh	r3, [r4, #0]
 8006742:	d1ef      	bne.n	8006724 <taabe207+0x14>
 8006744:	bc70      	pop	{r4, r5, r6}
 8006746:	4770      	bx	lr
 8006748:	4e03      	ldr	r6, [pc, #12]	; (8006758 <taabe207+0x48>)
 800674a:	4904      	ldr	r1, [pc, #16]	; (800675c <taabe207+0x4c>)
 800674c:	2a00      	cmp	r2, #0
 800674e:	d1e4      	bne.n	800671a <taabe207+0xa>
 8006750:	4a03      	ldr	r2, [pc, #12]	; (8006760 <taabe207+0x50>)
 8006752:	f240 23f9 	movw	r3, #761	; 0x2f9
 8006756:	e7e2      	b.n	800671e <taabe207+0xe>
 8006758:	ffffdc6b 	.word	0xffffdc6b
 800675c:	0800bf68 	.word	0x0800bf68
 8006760:	0800bfb8 	.word	0x0800bfb8

08006764 <taabe209.part.1>:
 8006764:	b510      	push	{r4, lr}
 8006766:	4604      	mov	r4, r0
 8006768:	68c0      	ldr	r0, [r0, #12]
 800676a:	f000 f927 	bl	80069bc <taabe180>
 800676e:	68a1      	ldr	r1, [r4, #8]
 8006770:	6820      	ldr	r0, [r4, #0]
 8006772:	f7ff fe75 	bl	8006460 <taabe292>
 8006776:	4621      	mov	r1, r4
 8006778:	6820      	ldr	r0, [r4, #0]
 800677a:	e8bd 4010 	ldmia.w	sp!, {r4, lr}
 800677e:	f7ff be6f 	b.w	8006460 <taabe292>
 8006782:	bf00      	nop

08006784 <taabe208>:
 8006784:	b5f8      	push	{r3, r4, r5, r6, r7, lr}
 8006786:	2300      	movs	r3, #0
 8006788:	4617      	mov	r7, r2
 800678a:	460d      	mov	r5, r1
 800678c:	6013      	str	r3, [r2, #0]
 800678e:	2110      	movs	r1, #16
 8006790:	2201      	movs	r2, #1
 8006792:	4606      	mov	r6, r0
 8006794:	f7ff fe32 	bl	80063fc <taabe291>
 8006798:	b1e8      	cbz	r0, 80067d6 <taabe208+0x52>
 800679a:	f5b5 7f00 	cmp.w	r5, #512	; 0x200
 800679e:	4604      	mov	r4, r0
 80067a0:	e9c0 6500 	strd	r6, r5, [r0]
 80067a4:	da08      	bge.n	80067b8 <taabe208+0x34>
 80067a6:	f5c5 7100 	rsb	r1, r5, #512	; 0x200
 80067aa:	0089      	lsls	r1, r1, #2
 80067ac:	2201      	movs	r2, #1
 80067ae:	4630      	mov	r0, r6
 80067b0:	f7ff fe24 	bl	80063fc <taabe291>
 80067b4:	60a0      	str	r0, [r4, #8]
 80067b6:	b188      	cbz	r0, 80067dc <taabe208+0x58>
 80067b8:	4630      	mov	r0, r6
 80067ba:	f104 010c 	add.w	r1, r4, #12
 80067be:	f000 f8eb 	bl	8006998 <taabe179>
 80067c2:	4605      	mov	r5, r0
 80067c4:	b910      	cbnz	r0, 80067cc <taabe208+0x48>
 80067c6:	603c      	str	r4, [r7, #0]
 80067c8:	4628      	mov	r0, r5
 80067ca:	bdf8      	pop	{r3, r4, r5, r6, r7, pc}
 80067cc:	4620      	mov	r0, r4
 80067ce:	f7ff ffc9 	bl	8006764 <taabe209.part.1>
 80067d2:	4628      	mov	r0, r5
 80067d4:	bdf8      	pop	{r3, r4, r5, r6, r7, pc}
 80067d6:	2501      	movs	r5, #1
 80067d8:	4628      	mov	r0, r5
 80067da:	bdf8      	pop	{r3, r4, r5, r6, r7, pc}
 80067dc:	4620      	mov	r0, r4
 80067de:	f7ff ffc1 	bl	8006764 <taabe209.part.1>
 80067e2:	2501      	movs	r5, #1
 80067e4:	e7f0      	b.n	80067c8 <taabe208+0x44>
 80067e6:	bf00      	nop

080067e8 <taabe209>:
 80067e8:	b108      	cbz	r0, 80067ee <taabe209+0x6>
 80067ea:	f7ff bfbb 	b.w	8006764 <taabe209.part.1>
 80067ee:	4770      	bx	lr

080067f0 <taabe210>:
 80067f0:	e92d 4ff0 	stmdb	sp!, {r4, r5, r6, r7, r8, r9, sl, fp, lr}
 80067f4:	6806      	ldr	r6, [r0, #0]
 80067f6:	b085      	sub	sp, #20
 80067f8:	4607      	mov	r7, r0
 80067fa:	468a      	mov	sl, r1
 80067fc:	4614      	mov	r4, r2
 80067fe:	4630      	mov	r0, r6
 8006800:	2200      	movs	r2, #0
 8006802:	f44f 6100 	mov.w	r1, #2048	; 0x800
 8006806:	f7ff fdf9 	bl	80063fc <taabe291>
 800680a:	2800      	cmp	r0, #0
 800680c:	d04e      	beq.n	80068ac <taabe210+0xbc>
 800680e:	4605      	mov	r5, r0
 8006810:	2200      	movs	r2, #0
 8006812:	f640 0108 	movw	r1, #2056	; 0x808
 8006816:	4630      	mov	r0, r6
 8006818:	f7ff fdf0 	bl	80063fc <taabe291>
 800681c:	4680      	mov	r8, r0
 800681e:	2800      	cmp	r0, #0
 8006820:	d049      	beq.n	80068b6 <taabe210+0xc6>
 8006822:	f8d7 9004 	ldr.w	r9, [r7, #4]
 8006826:	f5b9 7f00 	cmp.w	r9, #512	; 0x200
 800682a:	db4d      	blt.n	80068c8 <taabe210+0xd8>
 800682c:	4946      	ldr	r1, [pc, #280]	; (8006948 <taabe210+0x158>)
 800682e:	eddf 7a47 	vldr	s15, [pc, #284]	; 800694c <taabe210+0x15c>
 8006832:	f501 707f 	add.w	r0, r1, #1020	; 0x3fc
 8006836:	462a      	mov	r2, r5
 8006838:	f505 6300 	add.w	r3, r5, #2048	; 0x800
 800683c:	e001      	b.n	8006842 <taabe210+0x52>
 800683e:	ecf1 7a01 	vldmia	r1!, {s15}
 8006842:	ed92 7a00 	vldr	s14, [r2]
 8006846:	ee27 7a27 	vmul.f32	s14, s14, s15
 800684a:	4281      	cmp	r1, r0
 800684c:	eca2 7a01 	vstmia	r2!, {s14}
 8006850:	ed33 7a01 	vldmdb	r3!, {s14}
 8006854:	ee67 7a27 	vmul.f32	s15, s14, s15
 8006858:	edc3 7a00 	vstr	s15, [r3]
 800685c:	d1ef      	bne.n	800683e <taabe210+0x4e>
 800685e:	68f8      	ldr	r0, [r7, #12]
 8006860:	4642      	mov	r2, r8
 8006862:	4629      	mov	r1, r5
 8006864:	f000 f8b0 	bl	80069c8 <taabe181>
 8006868:	4607      	mov	r7, r0
 800686a:	2800      	cmp	r0, #0
 800686c:	d156      	bne.n	800691c <taabe210+0x12c>
 800686e:	f108 0308 	add.w	r3, r8, #8
 8006872:	f508 6201 	add.w	r2, r8, #2064	; 0x810
 8006876:	ed13 7a02 	vldr	s14, [r3, #-8]
 800687a:	ed53 7a01 	vldr	s15, [r3, #-4]
 800687e:	ee27 7a07 	vmul.f32	s14, s14, s14
 8006882:	ee67 7aa7 	vmul.f32	s15, s15, s15
 8006886:	3308      	adds	r3, #8
 8006888:	ee77 7a27 	vadd.f32	s15, s14, s15
 800688c:	429a      	cmp	r2, r3
 800688e:	ece4 7a01 	vstmia	r4!, {s15}
 8006892:	d1f0      	bne.n	8006876 <taabe210+0x86>
 8006894:	4641      	mov	r1, r8
 8006896:	4630      	mov	r0, r6
 8006898:	f7ff fde2 	bl	8006460 <taabe292>
 800689c:	4630      	mov	r0, r6
 800689e:	4629      	mov	r1, r5
 80068a0:	f7ff fdde 	bl	8006460 <taabe292>
 80068a4:	4638      	mov	r0, r7
 80068a6:	b005      	add	sp, #20
 80068a8:	e8bd 8ff0 	ldmia.w	sp!, {r4, r5, r6, r7, r8, r9, sl, fp, pc}
 80068ac:	2701      	movs	r7, #1
 80068ae:	4638      	mov	r0, r7
 80068b0:	b005      	add	sp, #20
 80068b2:	e8bd 8ff0 	ldmia.w	sp!, {r4, r5, r6, r7, r8, r9, sl, fp, pc}
 80068b6:	4630      	mov	r0, r6
 80068b8:	4629      	mov	r1, r5
 80068ba:	f7ff fdd1 	bl	8006460 <taabe292>
 80068be:	2701      	movs	r7, #1
 80068c0:	4638      	mov	r0, r7
 80068c2:	b005      	add	sp, #20
 80068c4:	e8bd 8ff0 	ldmia.w	sp!, {r4, r5, r6, r7, r8, r9, sl, fp, pc}
 80068c8:	f5c9 7300 	rsb	r3, r9, #512	; 0x200
 80068cc:	ea4f 0b83 	mov.w	fp, r3, lsl #2
 80068d0:	68b9      	ldr	r1, [r7, #8]
 80068d2:	9302      	str	r3, [sp, #8]
 80068d4:	465a      	mov	r2, fp
 80068d6:	ea4f 0389 	mov.w	r3, r9, lsl #2
 80068da:	4628      	mov	r0, r5
 80068dc:	9301      	str	r3, [sp, #4]
 80068de:	9103      	str	r1, [sp, #12]
 80068e0:	f002 ff46 	bl	8009770 <memcpy>
 80068e4:	eb05 000b 	add.w	r0, r5, fp
 80068e8:	9a01      	ldr	r2, [sp, #4]
 80068ea:	4651      	mov	r1, sl
 80068ec:	f002 ff40 	bl	8009770 <memcpy>
 80068f0:	9b02      	ldr	r3, [sp, #8]
 80068f2:	4599      	cmp	r9, r3
 80068f4:	da1e      	bge.n	8006934 <taabe210+0x144>
 80068f6:	9803      	ldr	r0, [sp, #12]
 80068f8:	eba3 0909 	sub.w	r9, r3, r9
 80068fc:	9b01      	ldr	r3, [sp, #4]
 80068fe:	ea4f 0989 	mov.w	r9, r9, lsl #2
 8006902:	4601      	mov	r1, r0
 8006904:	464a      	mov	r2, r9
 8006906:	4419      	add	r1, r3
 8006908:	4683      	mov	fp, r0
 800690a:	f002 ff31 	bl	8009770 <memcpy>
 800690e:	4658      	mov	r0, fp
 8006910:	9a01      	ldr	r2, [sp, #4]
 8006912:	4651      	mov	r1, sl
 8006914:	4448      	add	r0, r9
 8006916:	f002 ff2b 	bl	8009770 <memcpy>
 800691a:	e787      	b.n	800682c <taabe210+0x3c>
 800691c:	4629      	mov	r1, r5
 800691e:	4630      	mov	r0, r6
 8006920:	f7ff fd9e 	bl	8006460 <taabe292>
 8006924:	4630      	mov	r0, r6
 8006926:	4641      	mov	r1, r8
 8006928:	f7ff fd9a 	bl	8006460 <taabe292>
 800692c:	4638      	mov	r0, r7
 800692e:	b005      	add	sp, #20
 8006930:	e8bd 8ff0 	ldmia.w	sp!, {r4, r5, r6, r7, r8, r9, sl, fp, pc}
 8006934:	eba9 0303 	sub.w	r3, r9, r3
 8006938:	eb0a 0183 	add.w	r1, sl, r3, lsl #2
 800693c:	465a      	mov	r2, fp
 800693e:	9803      	ldr	r0, [sp, #12]
 8006940:	f002 ff16 	bl	8009770 <memcpy>
 8006944:	e772      	b.n	800682c <taabe210+0x3c>
 8006946:	bf00      	nop
 8006948:	0800c14c 	.word	0x0800c14c
 800694c:	00000000 	.word	0x00000000

08006950 <taabe211>:
 8006950:	6883      	ldr	r3, [r0, #8]
 8006952:	b13b      	cbz	r3, 8006964 <taabe211+0x14>
 8006954:	6842      	ldr	r2, [r0, #4]
 8006956:	f5c2 7200 	rsb	r2, r2, #512	; 0x200
 800695a:	0092      	lsls	r2, r2, #2
 800695c:	4618      	mov	r0, r3
 800695e:	2100      	movs	r1, #0
 8006960:	f002 bf11 	b.w	8009786 <memset>
 8006964:	4770      	bx	lr
 8006966:	bf00      	nop

08006968 <taabe263>:
 8006968:	b40f      	push	{r0, r1, r2, r3}
 800696a:	b500      	push	{lr}
 800696c:	4b08      	ldr	r3, [pc, #32]	; (8006990 <taabe263+0x28>)
 800696e:	781b      	ldrb	r3, [r3, #0]
 8006970:	b083      	sub	sp, #12
 8006972:	b13b      	cbz	r3, 8006984 <taabe263+0x1c>
 8006974:	4b07      	ldr	r3, [pc, #28]	; (8006994 <taabe263+0x2c>)
 8006976:	9904      	ldr	r1, [sp, #16]
 8006978:	681b      	ldr	r3, [r3, #0]
 800697a:	aa05      	add	r2, sp, #20
 800697c:	6898      	ldr	r0, [r3, #8]
 800697e:	9201      	str	r2, [sp, #4]
 8006980:	f003 f8f2 	bl	8009b68 <vfiprintf>
 8006984:	b003      	add	sp, #12
 8006986:	f85d eb04 	ldr.w	lr, [sp], #4
 800698a:	b004      	add	sp, #16
 800698c:	4770      	bx	lr
 800698e:	bf00      	nop
 8006990:	200004d0 	.word	0x200004d0
 8006994:	200004ec 	.word	0x200004ec

08006998 <taabe179>:
 8006998:	b570      	push	{r4, r5, r6, lr}
 800699a:	2400      	movs	r4, #0
 800699c:	460d      	mov	r5, r1
 800699e:	600c      	str	r4, [r1, #0]
 80069a0:	2201      	movs	r2, #1
 80069a2:	2104      	movs	r1, #4
 80069a4:	4606      	mov	r6, r0
 80069a6:	f7ff fd29 	bl	80063fc <taabe291>
 80069aa:	b118      	cbz	r0, 80069b4 <taabe179+0x1c>
 80069ac:	6006      	str	r6, [r0, #0]
 80069ae:	6028      	str	r0, [r5, #0]
 80069b0:	4620      	mov	r0, r4
 80069b2:	bd70      	pop	{r4, r5, r6, pc}
 80069b4:	2401      	movs	r4, #1
 80069b6:	4620      	mov	r0, r4
 80069b8:	bd70      	pop	{r4, r5, r6, pc}
 80069ba:	bf00      	nop

080069bc <taabe180>:
 80069bc:	b118      	cbz	r0, 80069c6 <taabe180+0xa>
 80069be:	4601      	mov	r1, r0
 80069c0:	6800      	ldr	r0, [r0, #0]
 80069c2:	f7ff bd4d 	b.w	8006460 <taabe292>
 80069c6:	4770      	bx	lr

080069c8 <taabe181>:
 80069c8:	e92d 4ff0 	stmdb	sp!, {r4, r5, r6, r7, r8, r9, sl, fp, lr}
 80069cc:	6803      	ldr	r3, [r0, #0]
 80069ce:	b085      	sub	sp, #20
 80069d0:	460c      	mov	r4, r1
 80069d2:	9202      	str	r2, [sp, #8]
 80069d4:	4618      	mov	r0, r3
 80069d6:	2200      	movs	r2, #0
 80069d8:	f44f 6100 	mov.w	r1, #2048	; 0x800
 80069dc:	9303      	str	r3, [sp, #12]
 80069de:	f7ff fd0d 	bl	80063fc <taabe291>
 80069e2:	2800      	cmp	r0, #0
 80069e4:	f000 80f1 	beq.w	8006bca <taabe181+0x202>
 80069e8:	4601      	mov	r1, r0
 80069ea:	487a      	ldr	r0, [pc, #488]	; (8006bd4 <taabe181+0x20c>)
 80069ec:	1d22      	adds	r2, r4, #4
 80069ee:	f500 75ff 	add.w	r5, r0, #510	; 0x1fe
 80069f2:	2300      	movs	r3, #0
 80069f4:	e001      	b.n	80069fa <taabe181+0x32>
 80069f6:	f930 3f02 	ldrsh.w	r3, [r0, #2]!
 80069fa:	f852 4c04 	ldr.w	r4, [r2, #-4]
 80069fe:	eb01 0383 	add.w	r3, r1, r3, lsl #2
 8006a02:	4285      	cmp	r5, r0
 8006a04:	601c      	str	r4, [r3, #0]
 8006a06:	f852 4b08 	ldr.w	r4, [r2], #8
 8006a0a:	605c      	str	r4, [r3, #4]
 8006a0c:	d1f3      	bne.n	80069f6 <taabe181+0x2e>
 8006a0e:	2308      	movs	r3, #8
 8006a10:	9300      	str	r3, [sp, #0]
 8006a12:	eddf 3a71 	vldr	s7, [pc, #452]	; 8006bd8 <taabe181+0x210>
 8006a16:	9101      	str	r1, [sp, #4]
 8006a18:	f44f 7380 	mov.w	r3, #256	; 0x100
 8006a1c:	2501      	movs	r5, #1
 8006a1e:	f04f 0b02 	mov.w	fp, #2
 8006a22:	f04f 0a80 	mov.w	sl, #128	; 0x80
 8006a26:	4699      	mov	r9, r3
 8006a28:	9f01      	ldr	r7, [sp, #4]
 8006a2a:	ea4f 0e8b 	mov.w	lr, fp, lsl #2
 8006a2e:	eb07 060e 	add.w	r6, r7, lr
 8006a32:	f1ba 0f00 	cmp.w	sl, #0
 8006a36:	d049      	beq.n	8006acc <taabe181+0x104>
 8006a38:	ea4f 0489 	mov.w	r4, r9, lsl #2
 8006a3c:	ea4f 08c5 	mov.w	r8, r5, lsl #3
 8006a40:	f04f 0c00 	mov.w	ip, #0
 8006a44:	b3e5      	cbz	r5, 8006ac0 <taabe181+0xf8>
 8006a46:	f107 0208 	add.w	r2, r7, #8
 8006a4a:	f106 0308 	add.w	r3, r6, #8
 8006a4e:	eef7 5a00 	vmov.f32	s11, #112	; 0x3f800000  1.0
 8006a52:	eef0 7a63 	vmov.f32	s15, s7
 8006a56:	2000      	movs	r0, #0
 8006a58:	4960      	ldr	r1, [pc, #384]	; (8006bdc <taabe181+0x214>)
 8006a5a:	e003      	b.n	8006a64 <taabe181+0x9c>
 8006a5c:	edd1 7a00 	vldr	s15, [r1]
 8006a60:	edd1 5a80 	vldr	s11, [r1, #512]	; 0x200
 8006a64:	ed53 6a01 	vldr	s13, [r3, #-4]
 8006a68:	ed13 6a02 	vldr	s12, [r3, #-8]
 8006a6c:	ed12 5a02 	vldr	s10, [r2, #-8]
 8006a70:	ed12 7a01 	vldr	s14, [r2, #-4]
 8006a74:	ee26 4a25 	vmul.f32	s8, s12, s11
 8006a78:	ee66 4aa7 	vmul.f32	s9, s13, s15
 8006a7c:	ee26 6a27 	vmul.f32	s12, s12, s15
 8006a80:	ee66 7aa5 	vmul.f32	s15, s13, s11
 8006a84:	ee74 6a24 	vadd.f32	s13, s8, s9
 8006a88:	ee77 7ac6 	vsub.f32	s15, s15, s12
 8006a8c:	ee75 5a26 	vadd.f32	s11, s10, s13
 8006a90:	ee37 6a27 	vadd.f32	s12, s14, s15
 8006a94:	ee75 6a66 	vsub.f32	s13, s10, s13
 8006a98:	ee77 7a67 	vsub.f32	s15, s14, s15
 8006a9c:	3001      	adds	r0, #1
 8006a9e:	42a8      	cmp	r0, r5
 8006aa0:	ed42 5a02 	vstr	s11, [r2, #-8]
 8006aa4:	ed02 6a01 	vstr	s12, [r2, #-4]
 8006aa8:	4421      	add	r1, r4
 8006aaa:	ed43 6a02 	vstr	s13, [r3, #-8]
 8006aae:	ed43 7a01 	vstr	s15, [r3, #-4]
 8006ab2:	f102 0208 	add.w	r2, r2, #8
 8006ab6:	f103 0308 	add.w	r3, r3, #8
 8006aba:	d1cf      	bne.n	8006a5c <taabe181+0x94>
 8006abc:	4447      	add	r7, r8
 8006abe:	4446      	add	r6, r8
 8006ac0:	f10c 0c01 	add.w	ip, ip, #1
 8006ac4:	45d4      	cmp	ip, sl
 8006ac6:	4477      	add	r7, lr
 8006ac8:	4476      	add	r6, lr
 8006aca:	d1bb      	bne.n	8006a44 <taabe181+0x7c>
 8006acc:	9b00      	ldr	r3, [sp, #0]
 8006ace:	3b01      	subs	r3, #1
 8006ad0:	ea4f 0a5a 	mov.w	sl, sl, lsr #1
 8006ad4:	ea4f 0b4b 	mov.w	fp, fp, lsl #1
 8006ad8:	ea4f 0545 	mov.w	r5, r5, lsl #1
 8006adc:	ea4f 0959 	mov.w	r9, r9, lsr #1
 8006ae0:	9300      	str	r3, [sp, #0]
 8006ae2:	d1a1      	bne.n	8006a28 <taabe181+0x60>
 8006ae4:	9901      	ldr	r1, [sp, #4]
 8006ae6:	eddf 6a3e 	vldr	s13, [pc, #248]	; 8006be0 <taabe181+0x218>
 8006aea:	ed91 7a00 	vldr	s14, [r1]
 8006aee:	edd1 5a01 	vldr	s11, [r1, #4]
 8006af2:	9a02      	ldr	r2, [sp, #8]
 8006af4:	483b      	ldr	r0, [pc, #236]	; (8006be4 <taabe181+0x21c>)
 8006af6:	eddf 7a3c 	vldr	s15, [pc, #240]	; 8006be8 <taabe181+0x220>
 8006afa:	ed9f 6a3c 	vldr	s12, [pc, #240]	; 8006bec <taabe181+0x224>
 8006afe:	ee37 7a25 	vadd.f32	s14, s14, s11
 8006b02:	2300      	movs	r3, #0
 8006b04:	ee27 7a26 	vmul.f32	s14, s14, s13
 8006b08:	6053      	str	r3, [r2, #4]
 8006b0a:	eeb0 4a66 	vmov.f32	s8, s13
 8006b0e:	f500 767e 	add.w	r6, r0, #1016	; 0x3f8
 8006b12:	ed82 7a00 	vstr	s14, [r2]
 8006b16:	460b      	mov	r3, r1
 8006b18:	f501 65ff 	add.w	r5, r1, #2040	; 0x7f8
 8006b1c:	f201 74fc 	addw	r4, r1, #2044	; 0x7fc
 8006b20:	e003      	b.n	8006b2a <taabe181+0x162>
 8006b22:	ecb0 6a01 	vldmia	r0!, {s12}
 8006b26:	edd0 7a7f 	vldr	s15, [r0, #508]	; 0x1fc
 8006b2a:	ed93 5a03 	vldr	s10, [r3, #12]
 8006b2e:	edd4 5a00 	vldr	s11, [r4]
 8006b32:	ed93 7a02 	vldr	s14, [r3, #8]
 8006b36:	462f      	mov	r7, r5
 8006b38:	edd7 6a00 	vldr	s13, [r7]
 8006b3c:	ee75 5a25 	vadd.f32	s11, s10, s11
 8006b40:	ee76 4a87 	vadd.f32	s9, s13, s14
 8006b44:	ee25 5aa7 	vmul.f32	s10, s11, s15
 8006b48:	ee36 7ac7 	vsub.f32	s14, s13, s14
 8006b4c:	ee34 5a85 	vadd.f32	s10, s9, s10
 8006b50:	ee67 6a06 	vmul.f32	s13, s14, s12
 8006b54:	ee27 7a27 	vmul.f32	s14, s14, s15
 8006b58:	ee75 7a26 	vadd.f32	s15, s10, s13
 8006b5c:	4627      	mov	r7, r4
 8006b5e:	ee67 7a84 	vmul.f32	s15, s15, s8
 8006b62:	ee25 6a86 	vmul.f32	s12, s11, s12
 8006b66:	edc2 7a02 	vstr	s15, [r2, #8]
 8006b6a:	edd3 7a03 	vldr	s15, [r3, #12]
 8006b6e:	edd7 6a00 	vldr	s13, [r7]
 8006b72:	ee77 7ae6 	vsub.f32	s15, s15, s13
 8006b76:	4286      	cmp	r6, r0
 8006b78:	ee77 7a87 	vadd.f32	s15, s15, s14
 8006b7c:	f1a5 0508 	sub.w	r5, r5, #8
 8006b80:	ee77 7ac6 	vsub.f32	s15, s15, s12
 8006b84:	f1a4 0408 	sub.w	r4, r4, #8
 8006b88:	ee67 7a84 	vmul.f32	s15, s15, s8
 8006b8c:	f103 0308 	add.w	r3, r3, #8
 8006b90:	edc2 7a03 	vstr	s15, [r2, #12]
 8006b94:	f102 0208 	add.w	r2, r2, #8
 8006b98:	d1c3      	bne.n	8006b22 <taabe181+0x15a>
 8006b9a:	edd1 7a00 	vldr	s15, [r1]
 8006b9e:	ed91 7a01 	vldr	s14, [r1, #4]
 8006ba2:	9b02      	ldr	r3, [sp, #8]
 8006ba4:	9803      	ldr	r0, [sp, #12]
 8006ba6:	ee77 7ac7 	vsub.f32	s15, s15, s14
 8006baa:	f503 6400 	add.w	r4, r3, #2048	; 0x800
 8006bae:	ee27 4a84 	vmul.f32	s8, s15, s8
 8006bb2:	f603 0304 	addw	r3, r3, #2052	; 0x804
 8006bb6:	2200      	movs	r2, #0
 8006bb8:	ed84 4a00 	vstr	s8, [r4]
 8006bbc:	601a      	str	r2, [r3, #0]
 8006bbe:	f7ff fc4f 	bl	8006460 <taabe292>
 8006bc2:	2000      	movs	r0, #0
 8006bc4:	b005      	add	sp, #20
 8006bc6:	e8bd 8ff0 	ldmia.w	sp!, {r4, r5, r6, r7, r8, r9, sl, fp, pc}
 8006bca:	2001      	movs	r0, #1
 8006bcc:	b005      	add	sp, #20
 8006bce:	e8bd 8ff0 	ldmia.w	sp!, {r4, r5, r6, r7, r8, r9, sl, fp, pc}
 8006bd2:	bf00      	nop
 8006bd4:	0800cb48 	.word	0x0800cb48
 8006bd8:	00000000 	.word	0x00000000
 8006bdc:	0800c548 	.word	0x0800c548
 8006be0:	3b000000 	.word	0x3b000000
 8006be4:	0800c550 	.word	0x0800c550
 8006be8:	3f7ffb11 	.word	0x3f7ffb11
 8006bec:	3c490e67 	.word	0x3c490e67

08006bf0 <taabe199>:
 8006bf0:	e92d 0830 	stmdb	sp!, {r4, r5, fp}
 8006bf4:	468c      	mov	ip, r1
 8006bf6:	4683      	mov	fp, r0
 8006bf8:	ea5b 030c 	orrs.w	r3, fp, ip
 8006bfc:	d038      	beq.n	8006c70 <taabe199+0x80>
 8006bfe:	f1b0 4f80 	cmp.w	r0, #1073741824	; 0x40000000
 8006c02:	f171 0300 	sbcs.w	r3, r1, #0
 8006c06:	da2c      	bge.n	8006c62 <taabe199+0x72>
 8006c08:	2300      	movs	r3, #0
 8006c0a:	f04f 34ff 	mov.w	r4, #4294967295	; 0xffffffff
 8006c0e:	f06f 4560 	mvn.w	r5, #3758096384	; 0xe0000000
 8006c12:	455c      	cmp	r4, fp
 8006c14:	eb75 020c 	sbcs.w	r2, r5, ip
 8006c18:	db09      	blt.n	8006c2e <taabe199+0x3e>
 8006c1a:	eb1b 0b0b 	adds.w	fp, fp, fp
 8006c1e:	eb4c 0c0c 	adc.w	ip, ip, ip
 8006c22:	455c      	cmp	r4, fp
 8006c24:	eb75 020c 	sbcs.w	r2, r5, ip
 8006c28:	f103 0301 	add.w	r3, r3, #1
 8006c2c:	daf5      	bge.n	8006c1a <taabe199+0x2a>
 8006c2e:	f11b 0000 	adds.w	r0, fp, #0
 8006c32:	f54c 2100 	adc.w	r1, ip, #524288	; 0x80000
 8006c36:	150a      	asrs	r2, r1, #20
 8006c38:	eb03 0083 	add.w	r0, r3, r3, lsl #2
 8006c3c:	f5a2 7200 	sub.w	r2, r2, #512	; 0x200
 8006c40:	490c      	ldr	r1, [pc, #48]	; (8006c74 <taabe199+0x84>)
 8006c42:	eb03 0340 	add.w	r3, r3, r0, lsl #1
 8006c46:	ebc3 03c3 	rsb	r3, r3, r3, lsl #3
 8006c4a:	f931 0012 	ldrsh.w	r0, [r1, r2, lsl #1]
 8006c4e:	f343 030d 	sbfx	r3, r3, #0, #14
 8006c52:	eba0 0083 	sub.w	r0, r0, r3, lsl #2
 8006c56:	f300 000f 	ssat	r0, #16, r0
 8006c5a:	b200      	sxth	r0, r0
 8006c5c:	e8bd 0830 	ldmia.w	sp!, {r4, r5, fp}
 8006c60:	4770      	bx	lr
 8006c62:	ea5f 0c6c 	movs.w	ip, ip, asr #1
 8006c66:	ea4f 0b3b 	mov.w	fp, fp, rrx
 8006c6a:	f04f 33ff 	mov.w	r3, #4294967295	; 0xffffffff
 8006c6e:	e7cc      	b.n	8006c0a <taabe199+0x1a>
 8006c70:	4801      	ldr	r0, [pc, #4]	; (8006c78 <taabe199+0x88>)
 8006c72:	e7f3      	b.n	8006c5c <taabe199+0x6c>
 8006c74:	0800d148 	.word	0x0800d148
 8006c78:	ffff8000 	.word	0xffff8000

08006c7c <taabe200>:
 8006c7c:	f510 4f00 	cmn.w	r0, #32768	; 0x8000
 8006c80:	d028      	beq.n	8006cd4 <taabe200+0x58>
 8006c82:	4240      	negs	r0, r0
 8006c84:	b200      	sxth	r0, r0
 8006c86:	f643 73ff 	movw	r3, #16383	; 0x3fff
 8006c8a:	4298      	cmp	r0, r3
 8006c8c:	bfa8      	it	ge
 8006c8e:	4618      	movge	r0, r3
 8006c90:	11c1      	asrs	r1, r0, #7
 8006c92:	4a11      	ldr	r2, [pc, #68]	; (8006cd8 <taabe200+0x5c>)
 8006c94:	4b11      	ldr	r3, [pc, #68]	; (8006cdc <taabe200+0x60>)
 8006c96:	f000 007f 	and.w	r0, r0, #127	; 0x7f
 8006c9a:	b410      	push	{r4}
 8006c9c:	f852 4021 	ldr.w	r4, [r2, r1, lsl #2]
 8006ca0:	f853 1020 	ldr.w	r1, [r3, r0, lsl #2]
 8006ca4:	f04f 4280 	mov.w	r2, #1073741824	; 0x40000000
 8006ca8:	2300      	movs	r3, #0
 8006caa:	fbc1 2304 	smlal	r2, r3, r1, r4
 8006cae:	0fd0      	lsrs	r0, r2, #31
 8006cb0:	ea40 0043 	orr.w	r0, r0, r3, lsl #1
 8006cb4:	f06f 4200 	mvn.w	r2, #2147483648	; 0x80000000
 8006cb8:	17d9      	asrs	r1, r3, #31
 8006cba:	4282      	cmp	r2, r0
 8006cbc:	f04f 0300 	mov.w	r3, #0
 8006cc0:	eb73 0401 	sbcs.w	r4, r3, r1
 8006cc4:	db02      	blt.n	8006ccc <taabe200+0x50>
 8006cc6:	f85d 4b04 	ldr.w	r4, [sp], #4
 8006cca:	4770      	bx	lr
 8006ccc:	4610      	mov	r0, r2
 8006cce:	f85d 4b04 	ldr.w	r4, [sp], #4
 8006cd2:	4770      	bx	lr
 8006cd4:	20f2      	movs	r0, #242	; 0xf2
 8006cd6:	4770      	bx	lr
 8006cd8:	0800cf48 	.word	0x0800cf48
 8006cdc:	0800cd48 	.word	0x0800cd48

08006ce0 <taabe201>:
 8006ce0:	2800      	cmp	r0, #0
 8006ce2:	dd2a      	ble.n	8006d3a <taabe201+0x5a>
 8006ce4:	b4f0      	push	{r4, r5, r6, r7}
 8006ce6:	3902      	subs	r1, #2
 8006ce8:	4d14      	ldr	r5, [pc, #80]	; (8006d3c <taabe201+0x5c>)
 8006cea:	4e15      	ldr	r6, [pc, #84]	; (8006d40 <taabe201+0x60>)
 8006cec:	eb01 0040 	add.w	r0, r1, r0, lsl #1
 8006cf0:	3a02      	subs	r2, #2
 8006cf2:	f931 3f02 	ldrsh.w	r3, [r1, #2]!
 8006cf6:	f5b3 5ffe 	cmp.w	r3, #8128	; 0x1fc0
 8006cfa:	bfa8      	it	ge
 8006cfc:	f44f 53fe 	movge.w	r3, #8128	; 0x1fc0
 8006d00:	42b3      	cmp	r3, r6
 8006d02:	bfb8      	it	lt
 8006d04:	4633      	movlt	r3, r6
 8006d06:	b29b      	uxth	r3, r3
 8006d08:	f3c3 040d 	ubfx	r4, r3, #0, #14
 8006d0c:	f104 073f 	add.w	r7, r4, #63	; 0x3f
 8006d10:	09bf      	lsrs	r7, r7, #6
 8006d12:	09a4      	lsrs	r4, r4, #6
 8006d14:	f935 7017 	ldrsh.w	r7, [r5, r7, lsl #1]
 8006d18:	f935 4014 	ldrsh.w	r4, [r5, r4, lsl #1]
 8006d1c:	f003 033f 	and.w	r3, r3, #63	; 0x3f
 8006d20:	fb03 f707 	mul.w	r7, r3, r7
 8006d24:	f1c3 0340 	rsb	r3, r3, #64	; 0x40
 8006d28:	fb03 7304 	mla	r3, r3, r4, r7
 8006d2c:	119b      	asrs	r3, r3, #6
 8006d2e:	4288      	cmp	r0, r1
 8006d30:	f822 3f02 	strh.w	r3, [r2, #2]!
 8006d34:	d1dd      	bne.n	8006cf2 <taabe201+0x12>
 8006d36:	bcf0      	pop	{r4, r5, r6, r7}
 8006d38:	4770      	bx	lr
 8006d3a:	4770      	bx	lr
 8006d3c:	0800d54c 	.word	0x0800d54c
 8006d40:	ffffe000 	.word	0xffffe000

08006d44 <taabe202>:
 8006d44:	e92d 43f8 	stmdb	sp!, {r3, r4, r5, r6, r7, r8, r9, lr}
 8006d48:	f1b0 0900 	subs.w	r9, r0, #0
 8006d4c:	4696      	mov	lr, r2
 8006d4e:	dd24      	ble.n	8006d9a <taabe202+0x56>
 8006d50:	1e97      	subs	r7, r2, #2
 8006d52:	1e8d      	subs	r5, r1, #2
 8006d54:	ea4f 0849 	mov.w	r8, r9, lsl #1
 8006d58:	eb05 0c08 	add.w	ip, r5, r8
 8006d5c:	463c      	mov	r4, r7
 8006d5e:	463e      	mov	r6, r7
 8006d60:	f935 3f02 	ldrsh.w	r3, [r5, #2]!
 8006d64:	4565      	cmp	r5, ip
 8006d66:	ea4f 0343 	mov.w	r3, r3, lsl #1
 8006d6a:	f303 030f 	ssat	r3, #16, r3
 8006d6e:	f826 3f02 	strh.w	r3, [r6, #2]!
 8006d72:	d1f5      	bne.n	8006d60 <taabe202+0x1c>
 8006d74:	4672      	mov	r2, lr
 8006d76:	4648      	mov	r0, r9
 8006d78:	4671      	mov	r1, lr
 8006d7a:	f7ff ffb1 	bl	8006ce0 <taabe201>
 8006d7e:	eb07 0208 	add.w	r2, r7, r8
 8006d82:	f934 3f02 	ldrsh.w	r3, [r4, #2]!
 8006d86:	005b      	lsls	r3, r3, #1
 8006d88:	42a2      	cmp	r2, r4
 8006d8a:	f5a3 4300 	sub.w	r3, r3, #32768	; 0x8000
 8006d8e:	f303 030f 	ssat	r3, #16, r3
 8006d92:	8023      	strh	r3, [r4, #0]
 8006d94:	d1f5      	bne.n	8006d82 <taabe202+0x3e>
 8006d96:	e8bd 83f8 	ldmia.w	sp!, {r3, r4, r5, r6, r7, r8, r9, pc}
 8006d9a:	4611      	mov	r1, r2
 8006d9c:	e8bd 43f8 	ldmia.w	sp!, {r3, r4, r5, r6, r7, r8, r9, lr}
 8006da0:	f7ff bf9e 	b.w	8006ce0 <taabe201>

08006da4 <taabe278.part.0>:
 8006da4:	b5f8      	push	{r3, r4, r5, r6, r7, lr}
 8006da6:	4606      	mov	r6, r0
 8006da8:	6900      	ldr	r0, [r0, #16]
 8006daa:	6837      	ldr	r7, [r6, #0]
 8006dac:	f000 fb12 	bl	80073d4 <taabe18>
 8006db0:	68f0      	ldr	r0, [r6, #12]
 8006db2:	f000 f8f3 	bl	8006f9c <taabe15>
 8006db6:	68b1      	ldr	r1, [r6, #8]
 8006db8:	b181      	cbz	r1, 8006ddc <taabe278.part.0+0x38>
 8006dba:	6873      	ldr	r3, [r6, #4]
 8006dbc:	681c      	ldr	r4, [r3, #0]
 8006dbe:	3c01      	subs	r4, #1
 8006dc0:	d409      	bmi.n	8006dd6 <taabe278.part.0+0x32>
 8006dc2:	00a5      	lsls	r5, r4, #2
 8006dc4:	5948      	ldr	r0, [r1, r5]
 8006dc6:	3c01      	subs	r4, #1
 8006dc8:	f000 fa38 	bl	800723c <taabe4>
 8006dcc:	1c63      	adds	r3, r4, #1
 8006dce:	f1a5 0504 	sub.w	r5, r5, #4
 8006dd2:	68b1      	ldr	r1, [r6, #8]
 8006dd4:	d1f6      	bne.n	8006dc4 <taabe278.part.0+0x20>
 8006dd6:	4638      	mov	r0, r7
 8006dd8:	f7ff fb42 	bl	8006460 <taabe292>
 8006ddc:	4631      	mov	r1, r6
 8006dde:	4638      	mov	r0, r7
 8006de0:	e8bd 40f8 	ldmia.w	sp!, {r3, r4, r5, r6, r7, lr}
 8006de4:	f7ff bb3c 	b.w	8006460 <taabe292>

08006de8 <taabe277>:
 8006de8:	e92d 43f8 	stmdb	sp!, {r3, r4, r5, r6, r7, r8, r9, lr}
 8006dec:	4614      	mov	r4, r2
 8006dee:	4688      	mov	r8, r1
 8006df0:	2201      	movs	r2, #1
 8006df2:	2114      	movs	r1, #20
 8006df4:	4607      	mov	r7, r0
 8006df6:	f7ff fb01 	bl	80063fc <taabe291>
 8006dfa:	6020      	str	r0, [r4, #0]
 8006dfc:	b340      	cbz	r0, 8006e50 <taabe277+0x68>
 8006dfe:	f8d8 9000 	ldr.w	r9, [r8]
 8006e02:	4606      	mov	r6, r0
 8006e04:	e9c0 7800 	strd	r7, r8, [r0]
 8006e08:	ea4f 0189 	mov.w	r1, r9, lsl #2
 8006e0c:	2201      	movs	r2, #1
 8006e0e:	4638      	mov	r0, r7
 8006e10:	f7ff faf4 	bl	80063fc <taabe291>
 8006e14:	60b0      	str	r0, [r6, #8]
 8006e16:	b3b0      	cbz	r0, 8006e86 <taabe277+0x9e>
 8006e18:	f1b9 0f00 	cmp.w	r9, #0
 8006e1c:	bfc8      	it	gt
 8006e1e:	2400      	movgt	r4, #0
 8006e20:	dc03      	bgt.n	8006e2a <taabe277+0x42>
 8006e22:	e019      	b.n	8006e58 <taabe277+0x70>
 8006e24:	45a1      	cmp	r9, r4
 8006e26:	d017      	beq.n	8006e58 <taabe277+0x70>
 8006e28:	68b0      	ldr	r0, [r6, #8]
 8006e2a:	f8d8 3004 	ldr.w	r3, [r8, #4]
 8006e2e:	eb00 0284 	add.w	r2, r0, r4, lsl #2
 8006e32:	f853 1024 	ldr.w	r1, [r3, r4, lsl #2]
 8006e36:	4638      	mov	r0, r7
 8006e38:	f000 f9c2 	bl	80071c0 <taabe3>
 8006e3c:	3401      	adds	r4, #1
 8006e3e:	4605      	mov	r5, r0
 8006e40:	2800      	cmp	r0, #0
 8006e42:	d0ef      	beq.n	8006e24 <taabe277+0x3c>
 8006e44:	4630      	mov	r0, r6
 8006e46:	f7ff ffad 	bl	8006da4 <taabe278.part.0>
 8006e4a:	4628      	mov	r0, r5
 8006e4c:	e8bd 83f8 	ldmia.w	sp!, {r3, r4, r5, r6, r7, r8, r9, pc}
 8006e50:	2501      	movs	r5, #1
 8006e52:	4628      	mov	r0, r5
 8006e54:	e8bd 83f8 	ldmia.w	sp!, {r3, r4, r5, r6, r7, r8, r9, pc}
 8006e58:	f106 030c 	add.w	r3, r6, #12
 8006e5c:	2200      	movs	r2, #0
 8006e5e:	f8d8 1008 	ldr.w	r1, [r8, #8]
 8006e62:	4638      	mov	r0, r7
 8006e64:	f000 f882 	bl	8006f6c <taabe14>
 8006e68:	4605      	mov	r5, r0
 8006e6a:	2800      	cmp	r0, #0
 8006e6c:	d1ea      	bne.n	8006e44 <taabe277+0x5c>
 8006e6e:	f8d8 3008 	ldr.w	r3, [r8, #8]
 8006e72:	4638      	mov	r0, r7
 8006e74:	6859      	ldr	r1, [r3, #4]
 8006e76:	f106 0210 	add.w	r2, r6, #16
 8006e7a:	f000 fa9b 	bl	80073b4 <taabe17>
 8006e7e:	4605      	mov	r5, r0
 8006e80:	2800      	cmp	r0, #0
 8006e82:	d0e2      	beq.n	8006e4a <taabe277+0x62>
 8006e84:	e7de      	b.n	8006e44 <taabe277+0x5c>
 8006e86:	4630      	mov	r0, r6
 8006e88:	f7ff ff8c 	bl	8006da4 <taabe278.part.0>
 8006e8c:	2501      	movs	r5, #1
 8006e8e:	e7dc      	b.n	8006e4a <taabe277+0x62>

08006e90 <taabe278>:
 8006e90:	b108      	cbz	r0, 8006e96 <taabe278+0x6>
 8006e92:	f7ff bf87 	b.w	8006da4 <taabe278.part.0>
 8006e96:	4770      	bx	lr

08006e98 <taabe279>:
 8006e98:	e92d 47f0 	stmdb	sp!, {r4, r5, r6, r7, r8, r9, sl, lr}
 8006e9c:	e9d0 8a00 	ldrd	r8, sl, [r0]
 8006ea0:	f8da 3004 	ldr.w	r3, [sl, #4]
 8006ea4:	681b      	ldr	r3, [r3, #0]
 8006ea6:	685b      	ldr	r3, [r3, #4]
 8006ea8:	460e      	mov	r6, r1
 8006eaa:	6819      	ldr	r1, [r3, #0]
 8006eac:	4607      	mov	r7, r0
 8006eae:	4691      	mov	r9, r2
 8006eb0:	0049      	lsls	r1, r1, #1
 8006eb2:	4640      	mov	r0, r8
 8006eb4:	2200      	movs	r2, #0
 8006eb6:	f7ff faa1 	bl	80063fc <taabe291>
 8006eba:	b3b0      	cbz	r0, 8006f2a <taabe279+0x92>
 8006ebc:	f8da 3000 	ldr.w	r3, [sl]
 8006ec0:	2b00      	cmp	r3, #0
 8006ec2:	4605      	mov	r5, r0
 8006ec4:	dd12      	ble.n	8006eec <taabe279+0x54>
 8006ec6:	2400      	movs	r4, #0
 8006ec8:	e003      	b.n	8006ed2 <taabe279+0x3a>
 8006eca:	f8da 3000 	ldr.w	r3, [sl]
 8006ece:	42a3      	cmp	r3, r4
 8006ed0:	dd0c      	ble.n	8006eec <taabe279+0x54>
 8006ed2:	68bb      	ldr	r3, [r7, #8]
 8006ed4:	4631      	mov	r1, r6
 8006ed6:	f853 0024 	ldr.w	r0, [r3, r4, lsl #2]
 8006eda:	462a      	mov	r2, r5
 8006edc:	f000 f9b2 	bl	8007244 <taabe5>
 8006ee0:	3401      	adds	r4, #1
 8006ee2:	462e      	mov	r6, r5
 8006ee4:	2800      	cmp	r0, #0
 8006ee6:	d0f0      	beq.n	8006eca <taabe279+0x32>
 8006ee8:	e8bd 87f0 	ldmia.w	sp!, {r4, r5, r6, r7, r8, r9, sl, pc}
 8006eec:	f8da 3008 	ldr.w	r3, [sl, #8]
 8006ef0:	6859      	ldr	r1, [r3, #4]
 8006ef2:	2200      	movs	r2, #0
 8006ef4:	0089      	lsls	r1, r1, #2
 8006ef6:	4640      	mov	r0, r8
 8006ef8:	f7ff fa80 	bl	80063fc <taabe291>
 8006efc:	4604      	mov	r4, r0
 8006efe:	b1b8      	cbz	r0, 8006f30 <taabe279+0x98>
 8006f00:	4631      	mov	r1, r6
 8006f02:	4602      	mov	r2, r0
 8006f04:	68f8      	ldr	r0, [r7, #12]
 8006f06:	f000 f84f 	bl	8006fa8 <taabe16>
 8006f0a:	464a      	mov	r2, r9
 8006f0c:	4621      	mov	r1, r4
 8006f0e:	6938      	ldr	r0, [r7, #16]
 8006f10:	f000 fa66 	bl	80073e0 <taabe19>
 8006f14:	4621      	mov	r1, r4
 8006f16:	4640      	mov	r0, r8
 8006f18:	f7ff faa2 	bl	8006460 <taabe292>
 8006f1c:	4640      	mov	r0, r8
 8006f1e:	4629      	mov	r1, r5
 8006f20:	f7ff fa9e 	bl	8006460 <taabe292>
 8006f24:	2000      	movs	r0, #0
 8006f26:	e8bd 87f0 	ldmia.w	sp!, {r4, r5, r6, r7, r8, r9, sl, pc}
 8006f2a:	2001      	movs	r0, #1
 8006f2c:	e8bd 87f0 	ldmia.w	sp!, {r4, r5, r6, r7, r8, r9, sl, pc}
 8006f30:	4640      	mov	r0, r8
 8006f32:	4629      	mov	r1, r5
 8006f34:	f7ff fa94 	bl	8006460 <taabe292>
 8006f38:	2001      	movs	r0, #1
 8006f3a:	e8bd 87f0 	ldmia.w	sp!, {r4, r5, r6, r7, r8, r9, sl, pc}
 8006f3e:	bf00      	nop

08006f40 <taabe280>:
 8006f40:	b538      	push	{r3, r4, r5, lr}
 8006f42:	6843      	ldr	r3, [r0, #4]
 8006f44:	681b      	ldr	r3, [r3, #0]
 8006f46:	2b00      	cmp	r3, #0
 8006f48:	dd0b      	ble.n	8006f62 <taabe280+0x22>
 8006f4a:	4605      	mov	r5, r0
 8006f4c:	2400      	movs	r4, #0
 8006f4e:	68ab      	ldr	r3, [r5, #8]
 8006f50:	f853 0024 	ldr.w	r0, [r3, r4, lsl #2]
 8006f54:	f000 fa1a 	bl	800738c <taabe6>
 8006f58:	686b      	ldr	r3, [r5, #4]
 8006f5a:	681b      	ldr	r3, [r3, #0]
 8006f5c:	3401      	adds	r4, #1
 8006f5e:	42a3      	cmp	r3, r4
 8006f60:	dcf5      	bgt.n	8006f4e <taabe280+0xe>
 8006f62:	bd38      	pop	{r3, r4, r5, pc}

08006f64 <taabe281>:
 8006f64:	6843      	ldr	r3, [r0, #4]
 8006f66:	8998      	ldrh	r0, [r3, #12]
 8006f68:	4770      	bx	lr
 8006f6a:	bf00      	nop

08006f6c <taabe14>:
 8006f6c:	e92d 41f0 	stmdb	sp!, {r4, r5, r6, r7, r8, lr}
 8006f70:	2400      	movs	r4, #0
 8006f72:	460f      	mov	r7, r1
 8006f74:	4616      	mov	r6, r2
 8006f76:	601c      	str	r4, [r3, #0]
 8006f78:	2201      	movs	r2, #1
 8006f7a:	210c      	movs	r1, #12
 8006f7c:	461d      	mov	r5, r3
 8006f7e:	4680      	mov	r8, r0
 8006f80:	f7ff fa3c 	bl	80063fc <taabe291>
 8006f84:	b138      	cbz	r0, 8006f96 <taabe14+0x2a>
 8006f86:	4602      	mov	r2, r0
 8006f88:	e9c0 8700 	strd	r8, r7, [r0]
 8006f8c:	7206      	strb	r6, [r0, #8]
 8006f8e:	4620      	mov	r0, r4
 8006f90:	602a      	str	r2, [r5, #0]
 8006f92:	e8bd 81f0 	ldmia.w	sp!, {r4, r5, r6, r7, r8, pc}
 8006f96:	2001      	movs	r0, #1
 8006f98:	e8bd 81f0 	ldmia.w	sp!, {r4, r5, r6, r7, r8, pc}

08006f9c <taabe15>:
 8006f9c:	b118      	cbz	r0, 8006fa6 <taabe15+0xa>
 8006f9e:	4601      	mov	r1, r0
 8006fa0:	6800      	ldr	r0, [r0, #0]
 8006fa2:	f7ff ba5d 	b.w	8006460 <taabe292>
 8006fa6:	4770      	bx	lr

08006fa8 <taabe16>:
 8006fa8:	e92d 4ff0 	stmdb	sp!, {r4, r5, r6, r7, r8, r9, sl, fp, lr}
 8006fac:	6843      	ldr	r3, [r0, #4]
 8006fae:	7a00      	ldrb	r0, [r0, #8]
 8006fb0:	685c      	ldr	r4, [r3, #4]
 8006fb2:	b08d      	sub	sp, #52	; 0x34
 8006fb4:	10a5      	asrs	r5, r4, #2
 8006fb6:	9000      	str	r0, [sp, #0]
 8006fb8:	6818      	ldr	r0, [r3, #0]
 8006fba:	9407      	str	r4, [sp, #28]
 8006fbc:	9009      	str	r0, [sp, #36]	; 0x24
 8006fbe:	e9d3 9a02 	ldrd	r9, sl, [r3, #8]
 8006fc2:	9206      	str	r2, [sp, #24]
 8006fc4:	9508      	str	r5, [sp, #32]
 8006fc6:	f000 809f 	beq.w	8007108 <taabe16+0x160>
 8006fca:	0043      	lsls	r3, r0, #1
 8006fcc:	1044      	asrs	r4, r0, #1
 8006fce:	f10a 0b04 	add.w	fp, sl, #4
 8006fd2:	00ad      	lsls	r5, r5, #2
 8006fd4:	425b      	negs	r3, r3
 8006fd6:	00a6      	lsls	r6, r4, #2
 8006fd8:	9401      	str	r4, [sp, #4]
 8006fda:	9302      	str	r3, [sp, #8]
 8006fdc:	00e4      	lsls	r4, r4, #3
 8006fde:	eb0b 0305 	add.w	r3, fp, r5
 8006fe2:	f000 0001 	and.w	r0, r0, #1
 8006fe6:	f8cd a02c 	str.w	sl, [sp, #44]	; 0x2c
 8006fea:	950a      	str	r5, [sp, #40]	; 0x28
 8006fec:	9604      	str	r6, [sp, #16]
 8006fee:	9405      	str	r4, [sp, #20]
 8006ff0:	9003      	str	r0, [sp, #12]
 8006ff2:	4690      	mov	r8, r2
 8006ff4:	469a      	mov	sl, r3
 8006ff6:	f91b cc04 	ldrsb.w	ip, [fp, #-4]
 8006ffa:	f91b 7c03 	ldrsb.w	r7, [fp, #-3]
 8006ffe:	f91b 6c02 	ldrsb.w	r6, [fp, #-2]
 8007002:	f91b 4c01 	ldrsb.w	r4, [fp, #-1]
 8007006:	9b01      	ldr	r3, [sp, #4]
 8007008:	ea4f 2c8c 	mov.w	ip, ip, lsl #10
 800700c:	02bf      	lsls	r7, r7, #10
 800700e:	02b6      	lsls	r6, r6, #10
 8007010:	02a4      	lsls	r4, r4, #10
 8007012:	f10c 0c40 	add.w	ip, ip, #64	; 0x40
 8007016:	3740      	adds	r7, #64	; 0x40
 8007018:	3640      	adds	r6, #64	; 0x40
 800701a:	3440      	adds	r4, #64	; 0x40
 800701c:	2b00      	cmp	r3, #0
 800701e:	f000 80b3 	beq.w	8007188 <taabe16+0x1e0>
 8007022:	9b04      	ldr	r3, [sp, #16]
 8007024:	f109 0008 	add.w	r0, r9, #8
 8007028:	eb01 0e03 	add.w	lr, r1, r3
 800702c:	f850 5c08 	ldr.w	r5, [r0, #-8]
 8007030:	ea4f 2235 	mov.w	r2, r5, ror #8
 8007034:	fa2f f282 	sxtb16	r2, r2
 8007038:	fa2f f585 	sxtb16	r5, r5
 800703c:	f851 3b04 	ldr.w	r3, [r1], #4
 8007040:	fb25 cc03 	smlad	ip, r5, r3, ip
 8007044:	fb22 7703 	smlad	r7, r2, r3, r7
 8007048:	f850 2c04 	ldr.w	r2, [r0, #-4]
 800704c:	ea4f 2532 	mov.w	r5, r2, ror #8
 8007050:	fa2f f585 	sxtb16	r5, r5
 8007054:	fa2f f282 	sxtb16	r2, r2
 8007058:	fb22 6603 	smlad	r6, r2, r3, r6
 800705c:	fb25 4403 	smlad	r4, r5, r3, r4
 8007060:	4571      	cmp	r1, lr
 8007062:	f100 0008 	add.w	r0, r0, #8
 8007066:	d1e1      	bne.n	800702c <taabe16+0x84>
 8007068:	9b05      	ldr	r3, [sp, #20]
 800706a:	4499      	add	r9, r3
 800706c:	9b03      	ldr	r3, [sp, #12]
 800706e:	b1ab      	cbz	r3, 800709c <taabe16+0xf4>
 8007070:	f9be 3000 	ldrsh.w	r3, [lr]
 8007074:	f999 5000 	ldrsb.w	r5, [r9]
 8007078:	f999 0001 	ldrsb.w	r0, [r9, #1]
 800707c:	f999 1002 	ldrsb.w	r1, [r9, #2]
 8007080:	f999 2003 	ldrsb.w	r2, [r9, #3]
 8007084:	f10e 0e02 	add.w	lr, lr, #2
 8007088:	fb13 cc05 	smlabb	ip, r3, r5, ip
 800708c:	fb13 7700 	smlabb	r7, r3, r0, r7
 8007090:	fb13 6601 	smlabb	r6, r3, r1, r6
 8007094:	fb13 4402 	smlabb	r4, r3, r2, r4
 8007098:	f109 0904 	add.w	r9, r9, #4
 800709c:	9b00      	ldr	r3, [sp, #0]
 800709e:	ea4f 1cec 	mov.w	ip, ip, asr #7
 80070a2:	11ff      	asrs	r7, r7, #7
 80070a4:	11f6      	asrs	r6, r6, #7
 80070a6:	11e4      	asrs	r4, r4, #7
 80070a8:	f108 0808 	add.w	r8, r8, #8
 80070ac:	2b00      	cmp	r3, #0
 80070ae:	d055      	beq.n	800715c <taabe16+0x1b4>
 80070b0:	f938 1c08 	ldrsh.w	r1, [r8, #-8]
 80070b4:	f938 2c06 	ldrsh.w	r2, [r8, #-6]
 80070b8:	f938 3c04 	ldrsh.w	r3, [r8, #-4]
 80070bc:	f938 0c02 	ldrsh.w	r0, [r8, #-2]
 80070c0:	448c      	add	ip, r1
 80070c2:	4417      	add	r7, r2
 80070c4:	f30c 0c0f 	ssat	ip, #16, ip
 80070c8:	f307 070f 	ssat	r7, #16, r7
 80070cc:	441e      	add	r6, r3
 80070ce:	4404      	add	r4, r0
 80070d0:	f306 060f 	ssat	r6, #16, r6
 80070d4:	f304 040f 	ssat	r4, #16, r4
 80070d8:	f828 cc08 	strh.w	ip, [r8, #-8]
 80070dc:	f828 7c06 	strh.w	r7, [r8, #-6]
 80070e0:	f828 6c04 	strh.w	r6, [r8, #-4]
 80070e4:	f828 4c02 	strh.w	r4, [r8, #-2]
 80070e8:	f10b 0b04 	add.w	fp, fp, #4
 80070ec:	9b02      	ldr	r3, [sp, #8]
 80070ee:	45da      	cmp	sl, fp
 80070f0:	eb0e 0103 	add.w	r1, lr, r3
 80070f4:	f47f af7f 	bne.w	8006ff6 <taabe16+0x4e>
 80070f8:	e9dd 3a0a 	ldrd	r3, sl, [sp, #40]	; 0x28
 80070fc:	9a08      	ldr	r2, [sp, #32]
 80070fe:	449a      	add	sl, r3
 8007100:	9b06      	ldr	r3, [sp, #24]
 8007102:	eb03 03c2 	add.w	r3, r3, r2, lsl #3
 8007106:	9306      	str	r3, [sp, #24]
 8007108:	9b07      	ldr	r3, [sp, #28]
 800710a:	f013 0203 	ands.w	r2, r3, #3
 800710e:	d022      	beq.n	8007156 <taabe16+0x1ae>
 8007110:	9e09      	ldr	r6, [sp, #36]	; 0x24
 8007112:	9f00      	ldr	r7, [sp, #0]
 8007114:	9d06      	ldr	r5, [sp, #24]
 8007116:	0070      	lsls	r0, r6, #1
 8007118:	4452      	add	r2, sl
 800711a:	4244      	negs	r4, r0
 800711c:	f91a 3b01 	ldrsb.w	r3, [sl], #1
 8007120:	029b      	lsls	r3, r3, #10
 8007122:	3340      	adds	r3, #64	; 0x40
 8007124:	b396      	cbz	r6, 800718c <taabe16+0x1e4>
 8007126:	eb01 0e00 	add.w	lr, r1, r0
 800712a:	46cc      	mov	ip, r9
 800712c:	f831 bb02 	ldrh.w	fp, [r1], #2
 8007130:	f91c 8b01 	ldrsb.w	r8, [ip], #1
 8007134:	4571      	cmp	r1, lr
 8007136:	fb1b 3308 	smlabb	r3, fp, r8, r3
 800713a:	d1f7      	bne.n	800712c <taabe16+0x184>
 800713c:	44b1      	add	r9, r6
 800713e:	11db      	asrs	r3, r3, #7
 8007140:	b1ef      	cbz	r7, 800717e <taabe16+0x1d6>
 8007142:	f9b5 1000 	ldrsh.w	r1, [r5]
 8007146:	440b      	add	r3, r1
 8007148:	f303 030f 	ssat	r3, #16, r3
 800714c:	802b      	strh	r3, [r5, #0]
 800714e:	4592      	cmp	sl, r2
 8007150:	eb0e 0104 	add.w	r1, lr, r4
 8007154:	d1e2      	bne.n	800711c <taabe16+0x174>
 8007156:	b00d      	add	sp, #52	; 0x34
 8007158:	e8bd 8ff0 	ldmia.w	sp!, {r4, r5, r6, r7, r8, r9, sl, fp, pc}
 800715c:	f30c 0c0f 	ssat	ip, #16, ip
 8007160:	f307 070f 	ssat	r7, #16, r7
 8007164:	f306 060f 	ssat	r6, #16, r6
 8007168:	f304 040f 	ssat	r4, #16, r4
 800716c:	f828 cc08 	strh.w	ip, [r8, #-8]
 8007170:	f828 7c06 	strh.w	r7, [r8, #-6]
 8007174:	f828 6c04 	strh.w	r6, [r8, #-4]
 8007178:	f828 4c02 	strh.w	r4, [r8, #-2]
 800717c:	e7b4      	b.n	80070e8 <taabe16+0x140>
 800717e:	f303 030f 	ssat	r3, #16, r3
 8007182:	f825 3b02 	strh.w	r3, [r5], #2
 8007186:	e7e2      	b.n	800714e <taabe16+0x1a6>
 8007188:	468e      	mov	lr, r1
 800718a:	e76f      	b.n	800706c <taabe16+0xc4>
 800718c:	468e      	mov	lr, r1
 800718e:	e7d6      	b.n	800713e <taabe16+0x196>

08007190 <taabe4.part.0>:
 8007190:	b538      	push	{r3, r4, r5, lr}
 8007192:	4604      	mov	r4, r0
 8007194:	6805      	ldr	r5, [r0, #0]
 8007196:	6940      	ldr	r0, [r0, #20]
 8007198:	f7ff ff00 	bl	8006f9c <taabe15>
 800719c:	6920      	ldr	r0, [r4, #16]
 800719e:	f7ff fefd 	bl	8006f9c <taabe15>
 80071a2:	4628      	mov	r0, r5
 80071a4:	68e1      	ldr	r1, [r4, #12]
 80071a6:	f7ff f95b 	bl	8006460 <taabe292>
 80071aa:	4628      	mov	r0, r5
 80071ac:	68a1      	ldr	r1, [r4, #8]
 80071ae:	f7ff f957 	bl	8006460 <taabe292>
 80071b2:	4621      	mov	r1, r4
 80071b4:	4628      	mov	r0, r5
 80071b6:	e8bd 4038 	ldmia.w	sp!, {r3, r4, r5, lr}
 80071ba:	f7ff b951 	b.w	8006460 <taabe292>
 80071be:	bf00      	nop

080071c0 <taabe3>:
 80071c0:	b5f8      	push	{r3, r4, r5, r6, r7, lr}
 80071c2:	4616      	mov	r6, r2
 80071c4:	460f      	mov	r7, r1
 80071c6:	2201      	movs	r2, #1
 80071c8:	2118      	movs	r1, #24
 80071ca:	4605      	mov	r5, r0
 80071cc:	f7ff f916 	bl	80063fc <taabe291>
 80071d0:	6030      	str	r0, [r6, #0]
 80071d2:	b380      	cbz	r0, 8007236 <taabe3+0x76>
 80071d4:	687b      	ldr	r3, [r7, #4]
 80071d6:	6005      	str	r5, [r0, #0]
 80071d8:	681e      	ldr	r6, [r3, #0]
 80071da:	6047      	str	r7, [r0, #4]
 80071dc:	0076      	lsls	r6, r6, #1
 80071de:	4604      	mov	r4, r0
 80071e0:	4631      	mov	r1, r6
 80071e2:	2201      	movs	r2, #1
 80071e4:	4628      	mov	r0, r5
 80071e6:	f7ff f909 	bl	80063fc <taabe291>
 80071ea:	60a0      	str	r0, [r4, #8]
 80071ec:	b1e8      	cbz	r0, 800722a <taabe3+0x6a>
 80071ee:	4631      	mov	r1, r6
 80071f0:	2201      	movs	r2, #1
 80071f2:	4628      	mov	r0, r5
 80071f4:	f7ff f902 	bl	80063fc <taabe291>
 80071f8:	60e0      	str	r0, [r4, #12]
 80071fa:	b1b0      	cbz	r0, 800722a <taabe3+0x6a>
 80071fc:	f104 0310 	add.w	r3, r4, #16
 8007200:	2200      	movs	r2, #0
 8007202:	6839      	ldr	r1, [r7, #0]
 8007204:	4628      	mov	r0, r5
 8007206:	f7ff feb1 	bl	8006f6c <taabe14>
 800720a:	4606      	mov	r6, r0
 800720c:	b940      	cbnz	r0, 8007220 <taabe3+0x60>
 800720e:	6879      	ldr	r1, [r7, #4]
 8007210:	4628      	mov	r0, r5
 8007212:	f104 0314 	add.w	r3, r4, #20
 8007216:	2201      	movs	r2, #1
 8007218:	f7ff fea8 	bl	8006f6c <taabe14>
 800721c:	4606      	mov	r6, r0
 800721e:	b140      	cbz	r0, 8007232 <taabe3+0x72>
 8007220:	4620      	mov	r0, r4
 8007222:	f7ff ffb5 	bl	8007190 <taabe4.part.0>
 8007226:	4630      	mov	r0, r6
 8007228:	bdf8      	pop	{r3, r4, r5, r6, r7, pc}
 800722a:	4620      	mov	r0, r4
 800722c:	f7ff ffb0 	bl	8007190 <taabe4.part.0>
 8007230:	2601      	movs	r6, #1
 8007232:	4630      	mov	r0, r6
 8007234:	bdf8      	pop	{r3, r4, r5, r6, r7, pc}
 8007236:	2601      	movs	r6, #1
 8007238:	4630      	mov	r0, r6
 800723a:	bdf8      	pop	{r3, r4, r5, r6, r7, pc}

0800723c <taabe4>:
 800723c:	b108      	cbz	r0, 8007242 <taabe4+0x6>
 800723e:	f7ff bfa7 	b.w	8007190 <taabe4.part.0>
 8007242:	4770      	bx	lr

08007244 <taabe5>:
 8007244:	e92d 4ff0 	stmdb	sp!, {r4, r5, r6, r7, r8, r9, sl, fp, lr}
 8007248:	4605      	mov	r5, r0
 800724a:	e9d0 0300 	ldrd	r0, r3, [r0]
 800724e:	685b      	ldr	r3, [r3, #4]
 8007250:	f8d3 8000 	ldr.w	r8, [r3]
 8007254:	b087      	sub	sp, #28
 8007256:	ea4f 0948 	mov.w	r9, r8, lsl #1
 800725a:	460c      	mov	r4, r1
 800725c:	eb09 0108 	add.w	r1, r9, r8
 8007260:	9201      	str	r2, [sp, #4]
 8007262:	0049      	lsls	r1, r1, #1
 8007264:	2201      	movs	r2, #1
 8007266:	9000      	str	r0, [sp, #0]
 8007268:	f7ff f8c8 	bl	80063fc <taabe291>
 800726c:	2800      	cmp	r0, #0
 800726e:	f000 8082 	beq.w	8007376 <taabe5+0x132>
 8007272:	4682      	mov	sl, r0
 8007274:	4621      	mov	r1, r4
 8007276:	4602      	mov	r2, r0
 8007278:	6928      	ldr	r0, [r5, #16]
 800727a:	f7ff fe95 	bl	8006fa8 <taabe16>
 800727e:	68ab      	ldr	r3, [r5, #8]
 8007280:	6968      	ldr	r0, [r5, #20]
 8007282:	9303      	str	r3, [sp, #12]
 8007284:	4619      	mov	r1, r3
 8007286:	4652      	mov	r2, sl
 8007288:	f7ff fe8e 	bl	8006fa8 <taabe16>
 800728c:	eb0a 0409 	add.w	r4, sl, r9
 8007290:	4652      	mov	r2, sl
 8007292:	4651      	mov	r1, sl
 8007294:	4640      	mov	r0, r8
 8007296:	f7ff fd23 	bl	8006ce0 <taabe201>
 800729a:	eb04 0309 	add.w	r3, r4, r9
 800729e:	461e      	mov	r6, r3
 80072a0:	4622      	mov	r2, r4
 80072a2:	4621      	mov	r1, r4
 80072a4:	4640      	mov	r0, r8
 80072a6:	9304      	str	r3, [sp, #16]
 80072a8:	f7ff fd4c 	bl	8006d44 <taabe202>
 80072ac:	4632      	mov	r2, r6
 80072ae:	4631      	mov	r1, r6
 80072b0:	4640      	mov	r0, r8
 80072b2:	f7ff fd15 	bl	8006ce0 <taabe201>
 80072b6:	68eb      	ldr	r3, [r5, #12]
 80072b8:	9302      	str	r3, [sp, #8]
 80072ba:	f1b8 0f00 	cmp.w	r8, #0
 80072be:	dd5e      	ble.n	800737e <taabe5+0x13a>
 80072c0:	f1a9 0102 	sub.w	r1, r9, #2
 80072c4:	9105      	str	r1, [sp, #20]
 80072c6:	eb0a 0b01 	add.w	fp, sl, r1
 80072ca:	1ea2      	subs	r2, r4, #2
 80072cc:	f1aa 0702 	sub.w	r7, sl, #2
 80072d0:	1e9e      	subs	r6, r3, #2
 80072d2:	f647 7eff 	movw	lr, #32767	; 0x7fff
 80072d6:	f44f 2c00 	mov.w	ip, #524288	; 0x80000
 80072da:	f44f 4180 	mov.w	r1, #16384	; 0x4000
 80072de:	f937 4f02 	ldrsh.w	r4, [r7, #2]!
 80072e2:	f836 3f02 	ldrh.w	r3, [r6, #2]!
 80072e6:	f832 0f02 	ldrh.w	r0, [r2, #2]!
 80072ea:	ebae 0504 	sub.w	r5, lr, r4
 80072ee:	f305 050f 	ssat	r5, #16, r5
 80072f2:	fb13 1305 	smlabb	r3, r3, r5, r1
 80072f6:	13db      	asrs	r3, r3, #15
 80072f8:	fb10 c004 	smlabb	r0, r0, r4, ip
 80072fc:	455f      	cmp	r7, fp
 80072fe:	eb03 5320 	add.w	r3, r3, r0, asr #20
 8007302:	f303 030f 	ssat	r3, #16, r3
 8007306:	8033      	strh	r3, [r6, #0]
 8007308:	d1e9      	bne.n	80072de <taabe5+0x9a>
 800730a:	9c01      	ldr	r4, [sp, #4]
 800730c:	9902      	ldr	r1, [sp, #8]
 800730e:	4640      	mov	r0, r8
 8007310:	4622      	mov	r2, r4
 8007312:	f7ff fd17 	bl	8006d44 <taabe202>
 8007316:	9b05      	ldr	r3, [sp, #20]
 8007318:	461f      	mov	r7, r3
 800731a:	9b04      	ldr	r3, [sp, #16]
 800731c:	1ea6      	subs	r6, r4, #2
 800731e:	441f      	add	r7, r3
 8007320:	f1a3 0c02 	sub.w	ip, r3, #2
 8007324:	4635      	mov	r5, r6
 8007326:	4634      	mov	r4, r6
 8007328:	f44f 2000 	mov.w	r0, #524288	; 0x80000
 800732c:	2100      	movs	r1, #0
 800732e:	46ce      	mov	lr, r9
 8007330:	f83c 2f02 	ldrh.w	r2, [ip, #2]!
 8007334:	f834 3f02 	ldrh.w	r3, [r4, #2]!
 8007338:	4680      	mov	r8, r0
 800733a:	4689      	mov	r9, r1
 800733c:	fbc2 8983 	smlalbb	r8, r9, r2, r3
 8007340:	ea4f 5318 	mov.w	r3, r8, lsr #20
 8007344:	4567      	cmp	r7, ip
 8007346:	ea43 3309 	orr.w	r3, r3, r9, lsl #12
 800734a:	f303 030f 	ssat	r3, #16, r3
 800734e:	8023      	strh	r3, [r4, #0]
 8007350:	d1ee      	bne.n	8007330 <taabe5+0xec>
 8007352:	9b03      	ldr	r3, [sp, #12]
 8007354:	46f1      	mov	r9, lr
 8007356:	3b02      	subs	r3, #2
 8007358:	44b1      	add	r9, r6
 800735a:	f935 2f02 	ldrsh.w	r2, [r5, #2]!
 800735e:	f823 2f02 	strh.w	r2, [r3, #2]!
 8007362:	454d      	cmp	r5, r9
 8007364:	d1f9      	bne.n	800735a <taabe5+0x116>
 8007366:	9800      	ldr	r0, [sp, #0]
 8007368:	4651      	mov	r1, sl
 800736a:	f7ff f879 	bl	8006460 <taabe292>
 800736e:	2000      	movs	r0, #0
 8007370:	b007      	add	sp, #28
 8007372:	e8bd 8ff0 	ldmia.w	sp!, {r4, r5, r6, r7, r8, r9, sl, fp, pc}
 8007376:	2001      	movs	r0, #1
 8007378:	b007      	add	sp, #28
 800737a:	e8bd 8ff0 	ldmia.w	sp!, {r4, r5, r6, r7, r8, r9, sl, fp, pc}
 800737e:	e9dd 2101 	ldrd	r2, r1, [sp, #4]
 8007382:	4640      	mov	r0, r8
 8007384:	f7ff fcde 	bl	8006d44 <taabe202>
 8007388:	e7ed      	b.n	8007366 <taabe5+0x122>
 800738a:	bf00      	nop

0800738c <taabe6>:
 800738c:	e9d0 2301 	ldrd	r2, r3, [r0, #4]
 8007390:	6851      	ldr	r1, [r2, #4]
 8007392:	68c2      	ldr	r2, [r0, #12]
 8007394:	6808      	ldr	r0, [r1, #0]
 8007396:	2800      	cmp	r0, #0
 8007398:	dd0a      	ble.n	80073b0 <taabe6+0x24>
 800739a:	3b02      	subs	r3, #2
 800739c:	eb03 0040 	add.w	r0, r3, r0, lsl #1
 80073a0:	3a02      	subs	r2, #2
 80073a2:	2100      	movs	r1, #0
 80073a4:	f823 1f02 	strh.w	r1, [r3, #2]!
 80073a8:	4283      	cmp	r3, r0
 80073aa:	f822 1f02 	strh.w	r1, [r2, #2]!
 80073ae:	d1f9      	bne.n	80073a4 <taabe6+0x18>
 80073b0:	4770      	bx	lr
 80073b2:	bf00      	nop

080073b4 <taabe17>:
 80073b4:	b570      	push	{r4, r5, r6, lr}
 80073b6:	4614      	mov	r4, r2
 80073b8:	460d      	mov	r5, r1
 80073ba:	2201      	movs	r2, #1
 80073bc:	2108      	movs	r1, #8
 80073be:	4606      	mov	r6, r0
 80073c0:	f7ff f81c 	bl	80063fc <taabe291>
 80073c4:	6020      	str	r0, [r4, #0]
 80073c6:	b118      	cbz	r0, 80073d0 <taabe17+0x1c>
 80073c8:	e9c0 6500 	strd	r6, r5, [r0]
 80073cc:	2000      	movs	r0, #0
 80073ce:	bd70      	pop	{r4, r5, r6, pc}
 80073d0:	2001      	movs	r0, #1
 80073d2:	bd70      	pop	{r4, r5, r6, pc}

080073d4 <taabe18>:
 80073d4:	b118      	cbz	r0, 80073de <taabe18+0xa>
 80073d6:	4601      	mov	r1, r0
 80073d8:	6800      	ldr	r0, [r0, #0]
 80073da:	f7ff b841 	b.w	8006460 <taabe292>
 80073de:	4770      	bx	lr

080073e0 <taabe19>:
 80073e0:	e92d 4ff8 	stmdb	sp!, {r3, r4, r5, r6, r7, r8, r9, sl, fp, lr}
 80073e4:	6846      	ldr	r6, [r0, #4]
 80073e6:	2e00      	cmp	r6, #0
 80073e8:	dd64      	ble.n	80074b4 <taabe19+0xd4>
 80073ea:	1e8d      	subs	r5, r1, #2
 80073ec:	f8df 90c8 	ldr.w	r9, [pc, #200]	; 80074b8 <taabe19+0xd8>
 80073f0:	eb05 0146 	add.w	r1, r5, r6, lsl #1
 80073f4:	462c      	mov	r4, r5
 80073f6:	f934 3f02 	ldrsh.w	r3, [r4, #2]!
 80073fa:	4599      	cmp	r9, r3
 80073fc:	bfb8      	it	lt
 80073fe:	4699      	movlt	r9, r3
 8007400:	428c      	cmp	r4, r1
 8007402:	d1f8      	bne.n	80073f6 <taabe19+0x16>
 8007404:	f1a2 0804 	sub.w	r8, r2, #4
 8007408:	4647      	mov	r7, r8
 800740a:	46c2      	mov	sl, r8
 800740c:	f935 0f02 	ldrsh.w	r0, [r5, #2]!
 8007410:	eba0 0009 	sub.w	r0, r0, r9
 8007414:	f300 000f 	ssat	r0, #16, r0
 8007418:	b200      	sxth	r0, r0
 800741a:	f7ff fc2f 	bl	8006c7c <taabe200>
 800741e:	42ac      	cmp	r4, r5
 8007420:	f84a 0f04 	str.w	r0, [sl, #4]!
 8007424:	d1f2      	bne.n	800740c <taabe19+0x2c>
 8007426:	eb08 0086 	add.w	r0, r8, r6, lsl #2
 800742a:	2200      	movs	r2, #0
 800742c:	4646      	mov	r6, r8
 800742e:	2300      	movs	r3, #0
 8007430:	f856 1f04 	ldr.w	r1, [r6, #4]!
 8007434:	1852      	adds	r2, r2, r1
 8007436:	eb43 73e1 	adc.w	r3, r3, r1, asr #31
 800743a:	42b0      	cmp	r0, r6
 800743c:	d1f8      	bne.n	8007430 <taabe19+0x50>
 800743e:	2000      	movs	r0, #0
 8007440:	f04f 4180 	mov.w	r1, #1073741824	; 0x40000000
 8007444:	f7f9 fb6a 	bl	8000b1c <__aeabi_ldivmod>
 8007448:	f06f 4200 	mvn.w	r2, #2147483648	; 0x80000000
 800744c:	2300      	movs	r3, #0
 800744e:	4282      	cmp	r2, r0
 8007450:	eb73 0401 	sbcs.w	r4, r3, r1
 8007454:	bfbc      	itt	lt
 8007456:	4610      	movlt	r0, r2
 8007458:	4619      	movlt	r1, r3
 800745a:	f1b0 4f00 	cmp.w	r0, #2147483648	; 0x80000000
 800745e:	f171 33ff 	sbcs.w	r3, r1, #4294967295	; 0xffffffff
 8007462:	bfbc      	itt	lt
 8007464:	f04f 4000 	movlt.w	r0, #2147483648	; 0x80000000
 8007468:	f04f 31ff 	movlt.w	r1, #4294967295	; 0xffffffff
 800746c:	f06f 4800 	mvn.w	r8, #2147483648	; 0x80000000
 8007470:	f04f 0900 	mov.w	r9, #0
 8007474:	f857 2f04 	ldr.w	r2, [r7, #4]!
 8007478:	ea4f 7be2 	mov.w	fp, r2, asr #31
 800747c:	fb02 f401 	mul.w	r4, r2, r1
 8007480:	fb00 440b 	mla	r4, r0, fp, r4
 8007484:	fba2 2300 	umull	r2, r3, r2, r0
 8007488:	4423      	add	r3, r4
 800748a:	f112 4a80 	adds.w	sl, r2, #1073741824	; 0x40000000
 800748e:	f143 0b00 	adc.w	fp, r3, #0
 8007492:	ea4f 74da 	mov.w	r4, sl, lsr #31
 8007496:	ea44 044b 	orr.w	r4, r4, fp, lsl #1
 800749a:	45a0      	cmp	r8, r4
 800749c:	ea4f 75eb 	mov.w	r5, fp, asr #31
 80074a0:	eb79 0305 	sbcs.w	r3, r9, r5
 80074a4:	bfb8      	it	lt
 80074a6:	f06f 4400 	mvnlt.w	r4, #2147483648	; 0x80000000
 80074aa:	42be      	cmp	r6, r7
 80074ac:	603c      	str	r4, [r7, #0]
 80074ae:	d1e1      	bne.n	8007474 <taabe19+0x94>
 80074b0:	e8bd 8ff8 	ldmia.w	sp!, {r3, r4, r5, r6, r7, r8, r9, sl, fp, pc}
 80074b4:	deff      	udf	#255	; 0xff
 80074b6:	bf00      	nop
 80074b8:	ffff8000 	.word	0xffff8000

080074bc <taabe226.part.0>:
 80074bc:	b538      	push	{r3, r4, r5, lr}
 80074be:	6805      	ldr	r5, [r0, #0]
 80074c0:	6981      	ldr	r1, [r0, #24]
 80074c2:	4604      	mov	r4, r0
 80074c4:	4628      	mov	r0, r5
 80074c6:	f7fe ffcb 	bl	8006460 <taabe292>
 80074ca:	4628      	mov	r0, r5
 80074cc:	6961      	ldr	r1, [r4, #20]
 80074ce:	f7fe ffc7 	bl	8006460 <taabe292>
 80074d2:	4628      	mov	r0, r5
 80074d4:	6921      	ldr	r1, [r4, #16]
 80074d6:	f7fe ffc3 	bl	8006460 <taabe292>
 80074da:	4628      	mov	r0, r5
 80074dc:	68a1      	ldr	r1, [r4, #8]
 80074de:	f7fe ffbf 	bl	8006460 <taabe292>
 80074e2:	4621      	mov	r1, r4
 80074e4:	4628      	mov	r0, r5
 80074e6:	e8bd 4038 	ldmia.w	sp!, {r3, r4, r5, lr}
 80074ea:	f7fe bfb9 	b.w	8006460 <taabe292>
 80074ee:	bf00      	nop

080074f0 <taabe225>:
 80074f0:	e92d 43f8 	stmdb	sp!, {r3, r4, r5, r6, r7, r8, r9, lr}
 80074f4:	4689      	mov	r9, r1
 80074f6:	4615      	mov	r5, r2
 80074f8:	2124      	movs	r1, #36	; 0x24
 80074fa:	2201      	movs	r2, #1
 80074fc:	9f08      	ldr	r7, [sp, #32]
 80074fe:	461e      	mov	r6, r3
 8007500:	4680      	mov	r8, r0
 8007502:	f7fe ff7b 	bl	80063fc <taabe291>
 8007506:	6038      	str	r0, [r7, #0]
 8007508:	2800      	cmp	r0, #0
 800750a:	d06e      	beq.n	80075ea <taabe225+0xfa>
 800750c:	006b      	lsls	r3, r5, #1
 800750e:	4604      	mov	r4, r0
 8007510:	e9c0 8300 	strd	r8, r3, [r0]
 8007514:	2201      	movs	r2, #1
 8007516:	00e9      	lsls	r1, r5, #3
 8007518:	4640      	mov	r0, r8
 800751a:	f7fe ff6f 	bl	80063fc <taabe291>
 800751e:	60a0      	str	r0, [r4, #8]
 8007520:	2800      	cmp	r0, #0
 8007522:	d05c      	beq.n	80075de <taabe225+0xee>
 8007524:	2d00      	cmp	r5, #0
 8007526:	dd09      	ble.n	800753c <taabe225+0x4c>
 8007528:	f1a9 0104 	sub.w	r1, r9, #4
 800752c:	2300      	movs	r3, #0
 800752e:	f851 2f04 	ldr.w	r2, [r1, #4]!
 8007532:	f840 2033 	str.w	r2, [r0, r3, lsl #3]
 8007536:	3301      	adds	r3, #1
 8007538:	429d      	cmp	r5, r3
 800753a:	d1f8      	bne.n	800752e <taabe225+0x3e>
 800753c:	6861      	ldr	r1, [r4, #4]
 800753e:	eb05 0385 	add.w	r3, r5, r5, lsl #2
 8007542:	0089      	lsls	r1, r1, #2
 8007544:	60e3      	str	r3, [r4, #12]
 8007546:	2200      	movs	r2, #0
 8007548:	4640      	mov	r0, r8
 800754a:	f7fe ff57 	bl	80063fc <taabe291>
 800754e:	6120      	str	r0, [r4, #16]
 8007550:	2800      	cmp	r0, #0
 8007552:	d044      	beq.n	80075de <taabe225+0xee>
 8007554:	6861      	ldr	r1, [r4, #4]
 8007556:	2900      	cmp	r1, #0
 8007558:	dd09      	ble.n	800756e <taabe225+0x7e>
 800755a:	3804      	subs	r0, #4
 800755c:	2200      	movs	r2, #0
 800755e:	68e3      	ldr	r3, [r4, #12]
 8007560:	3301      	adds	r3, #1
 8007562:	f840 3f04 	str.w	r3, [r0, #4]!
 8007566:	6861      	ldr	r1, [r4, #4]
 8007568:	3201      	adds	r2, #1
 800756a:	4291      	cmp	r1, r2
 800756c:	dcf7      	bgt.n	800755e <taabe225+0x6e>
 800756e:	2200      	movs	r2, #0
 8007570:	0089      	lsls	r1, r1, #2
 8007572:	4640      	mov	r0, r8
 8007574:	f7fe ff42 	bl	80063fc <taabe291>
 8007578:	6862      	ldr	r2, [r4, #4]
 800757a:	6160      	str	r0, [r4, #20]
 800757c:	2a00      	cmp	r2, #0
 800757e:	dd09      	ble.n	8007594 <taabe225+0xa4>
 8007580:	3804      	subs	r0, #4
 8007582:	2300      	movs	r3, #0
 8007584:	f647 71ff 	movw	r1, #32767	; 0x7fff
 8007588:	f840 1f04 	str.w	r1, [r0, #4]!
 800758c:	6862      	ldr	r2, [r4, #4]
 800758e:	3301      	adds	r3, #1
 8007590:	429a      	cmp	r2, r3
 8007592:	dcf9      	bgt.n	8007588 <taabe225+0x98>
 8007594:	1053      	asrs	r3, r2, #1
 8007596:	f103 0901 	add.w	r9, r3, #1
 800759a:	07d2      	lsls	r2, r2, #31
 800759c:	bf54      	ite	pl
 800759e:	fb03 f909 	mulpl.w	r9, r3, r9
 80075a2:	fb09 f909 	mulmi.w	r9, r9, r9
 80075a6:	ea4f 0749 	mov.w	r7, r9, lsl #1
 80075aa:	4640      	mov	r0, r8
 80075ac:	4639      	mov	r1, r7
 80075ae:	2200      	movs	r2, #0
 80075b0:	f7fe ff24 	bl	80063fc <taabe291>
 80075b4:	61a0      	str	r0, [r4, #24]
 80075b6:	b190      	cbz	r0, 80075de <taabe225+0xee>
 80075b8:	f1b9 0f00 	cmp.w	r9, #0
 80075bc:	dd07      	ble.n	80075ce <taabe225+0xde>
 80075be:	3802      	subs	r0, #2
 80075c0:	19c1      	adds	r1, r0, r7
 80075c2:	f647 73ff 	movw	r3, #32767	; 0x7fff
 80075c6:	f820 3f02 	strh.w	r3, [r0, #2]!
 80075ca:	4281      	cmp	r1, r0
 80075cc:	d1fb      	bne.n	80075c6 <taabe225+0xd6>
 80075ce:	42b5      	cmp	r5, r6
 80075d0:	bfa8      	it	ge
 80075d2:	4635      	movge	r5, r6
 80075d4:	2000      	movs	r0, #0
 80075d6:	e9c4 5007 	strd	r5, r0, [r4, #28]
 80075da:	e8bd 83f8 	ldmia.w	sp!, {r3, r4, r5, r6, r7, r8, r9, pc}
 80075de:	4620      	mov	r0, r4
 80075e0:	f7ff ff6c 	bl	80074bc <taabe226.part.0>
 80075e4:	2001      	movs	r0, #1
 80075e6:	e8bd 83f8 	ldmia.w	sp!, {r3, r4, r5, r6, r7, r8, r9, pc}
 80075ea:	2001      	movs	r0, #1
 80075ec:	e8bd 83f8 	ldmia.w	sp!, {r3, r4, r5, r6, r7, r8, r9, pc}

080075f0 <taabe226>:
 80075f0:	b108      	cbz	r0, 80075f6 <taabe226+0x6>
 80075f2:	f7ff bf63 	b.w	80074bc <taabe226.part.0>
 80075f6:	4770      	bx	lr

080075f8 <taabe227>:
 80075f8:	e92d 4ff0 	stmdb	sp!, {r4, r5, r6, r7, r8, r9, sl, fp, lr}
 80075fc:	b089      	sub	sp, #36	; 0x24
 80075fe:	4603      	mov	r3, r0
 8007600:	9102      	str	r1, [sp, #8]
 8007602:	6841      	ldr	r1, [r0, #4]
 8007604:	9004      	str	r0, [sp, #16]
 8007606:	e9d3 8204 	ldrd	r8, r2, [r3, #16]
 800760a:	1e4c      	subs	r4, r1, #1
 800760c:	6880      	ldr	r0, [r0, #8]
 800760e:	9105      	str	r1, [sp, #20]
 8007610:	2c00      	cmp	r4, #0
 8007612:	9006      	str	r0, [sp, #24]
 8007614:	9207      	str	r2, [sp, #28]
 8007616:	f8d3 b018 	ldr.w	fp, [r3, #24]
 800761a:	9401      	str	r4, [sp, #4]
 800761c:	dd7a      	ble.n	8007714 <taabe227+0x11c>
 800761e:	ea4f 0a81 	mov.w	sl, r1, lsl #2
 8007622:	f1aa 0904 	sub.w	r9, sl, #4
 8007626:	4491      	add	r9, r2
 8007628:	4482      	add	sl, r0
 800762a:	f8cd 800c 	str.w	r8, [sp, #12]
 800762e:	f85a 3d04 	ldr.w	r3, [sl, #-4]!
 8007632:	9a02      	ldr	r2, [sp, #8]
 8007634:	2000      	movs	r0, #0
 8007636:	f852 1023 	ldr.w	r1, [r2, r3, lsl #2]
 800763a:	f7ff fad9 	bl	8006bf0 <taabe199>
 800763e:	f510 4f00 	cmn.w	r0, #32768	; 0x8000
 8007642:	ea4f 0784 	mov.w	r7, r4, lsl #2
 8007646:	f000 80c5 	beq.w	80077d4 <taabe227+0x1dc>
 800764a:	4240      	negs	r0, r0
 800764c:	fa0f f880 	sxth.w	r8, r0
 8007650:	46c6      	mov	lr, r8
 8007652:	e959 1201 	ldrd	r1, r2, [r9, #-4]
 8007656:	f104 3cff 	add.w	ip, r4, #4294967295	; 0xffffffff
 800765a:	4291      	cmp	r1, r2
 800765c:	4663      	mov	r3, ip
 800765e:	f280 80b3 	bge.w	80077c8 <taabe227+0x1d0>
 8007662:	f1a9 0504 	sub.w	r5, r9, #4
 8007666:	462a      	mov	r2, r5
 8007668:	1f3e      	subs	r6, r7, #4
 800766a:	2c01      	cmp	r4, #1
 800766c:	d00f      	beq.n	800768e <taabe227+0x96>
 800766e:	f8da 0000 	ldr.w	r0, [sl]
 8007672:	f85a 1c08 	ldr.w	r1, [sl, #-8]
 8007676:	4288      	cmp	r0, r1
 8007678:	d009      	beq.n	800768e <taabe227+0x96>
 800767a:	f859 0c08 	ldr.w	r0, [r9, #-8]
 800767e:	6811      	ldr	r1, [r2, #0]
 8007680:	4288      	cmp	r0, r1
 8007682:	da04      	bge.n	800768e <taabe227+0x96>
 8007684:	f1a7 0608 	sub.w	r6, r7, #8
 8007688:	1ea3      	subs	r3, r4, #2
 800768a:	f1a9 0208 	sub.w	r2, r9, #8
 800768e:	9901      	ldr	r1, [sp, #4]
 8007690:	42a1      	cmp	r1, r4
 8007692:	f000 80b6 	beq.w	8007802 <taabe227+0x20a>
 8007696:	9803      	ldr	r0, [sp, #12]
 8007698:	5981      	ldr	r1, [r0, r6]
 800769a:	2601      	movs	r6, #1
 800769c:	fa86 f181 	qadd	r1, r1, r6
 80076a0:	f840 1024 	str.w	r1, [r0, r4, lsl #2]
 80076a4:	f9b2 1000 	ldrsh.w	r1, [r2]
 80076a8:	fa44 f206 	asr.w	r2, r4, r6
 80076ac:	1990      	adds	r0, r2, r6
 80076ae:	07e4      	lsls	r4, r4, #31
 80076b0:	bf58      	it	pl
 80076b2:	fb00 f402 	mulpl.w	r4, r0, r2
 80076b6:	4471      	add	r1, lr
 80076b8:	ea4f 0263 	mov.w	r2, r3, asr #1
 80076bc:	f301 010f 	ssat	r1, #16, r1
 80076c0:	b209      	sxth	r1, r1
 80076c2:	f8c9 1000 	str.w	r1, [r9]
 80076c6:	bf48      	it	mi
 80076c8:	fb00 f400 	mulmi.w	r4, r0, r0
 80076cc:	46a9      	mov	r9, r5
 80076ce:	07d9      	lsls	r1, r3, #31
 80076d0:	f102 0501 	add.w	r5, r2, #1
 80076d4:	bf54      	ite	pl
 80076d6:	fb02 f105 	mulpl.w	r1, r2, r5
 80076da:	fb05 f105 	mulmi.w	r1, r5, r5
 80076de:	004e      	lsls	r6, r1, #1
 80076e0:	eb0b 0444 	add.w	r4, fp, r4, lsl #1
 80076e4:	eb0b 0142 	add.w	r1, fp, r2, lsl #1
 80076e8:	1eb3      	subs	r3, r6, #2
 80076ea:	4431      	add	r1, r6
 80076ec:	445b      	add	r3, fp
 80076ee:	1ea2      	subs	r2, r4, #2
 80076f0:	f933 6f02 	ldrsh.w	r6, [r3, #2]!
 80076f4:	f822 6f02 	strh.w	r6, [r2, #2]!
 80076f8:	4299      	cmp	r1, r3
 80076fa:	d1f9      	bne.n	80076f0 <taabe227+0xf8>
 80076fc:	4285      	cmp	r5, r0
 80076fe:	d06d      	beq.n	80077dc <taabe227+0x1e4>
 8007700:	f100 4000 	add.w	r0, r0, #2147483648	; 0x80000000
 8007704:	3801      	subs	r0, #1
 8007706:	f824 8010 	strh.w	r8, [r4, r0, lsl #1]
 800770a:	4664      	mov	r4, ip
 800770c:	2c00      	cmp	r4, #0
 800770e:	d18e      	bne.n	800762e <taabe227+0x36>
 8007710:	f8dd 800c 	ldr.w	r8, [sp, #12]
 8007714:	9a02      	ldr	r2, [sp, #8]
 8007716:	2301      	movs	r3, #1
 8007718:	f8c8 3000 	str.w	r3, [r8]
 800771c:	9b06      	ldr	r3, [sp, #24]
 800771e:	681b      	ldr	r3, [r3, #0]
 8007720:	2000      	movs	r0, #0
 8007722:	f852 1023 	ldr.w	r1, [r2, r3, lsl #2]
 8007726:	f7ff fa63 	bl	8006bf0 <taabe199>
 800772a:	f510 4f00 	cmn.w	r0, #32768	; 0x8000
 800772e:	d062      	beq.n	80077f6 <taabe227+0x1fe>
 8007730:	4242      	negs	r2, r0
 8007732:	b212      	sxth	r2, r2
 8007734:	4611      	mov	r1, r2
 8007736:	9801      	ldr	r0, [sp, #4]
 8007738:	9c07      	ldr	r4, [sp, #28]
 800773a:	6021      	str	r1, [r4, #0]
 800773c:	f8ab 2000 	strh.w	r2, [fp]
 8007740:	07c2      	lsls	r2, r0, #31
 8007742:	9a04      	ldr	r2, [sp, #16]
 8007744:	ea4f 0360 	mov.w	r3, r0, asr #1
 8007748:	69d4      	ldr	r4, [r2, #28]
 800774a:	f103 0101 	add.w	r1, r3, #1
 800774e:	bf54      	ite	pl
 8007750:	434b      	mulpl	r3, r1
 8007752:	fb01 f301 	mulmi.w	r3, r1, r1
 8007756:	1b09      	subs	r1, r1, r4
 8007758:	ea4f 0343 	mov.w	r3, r3, lsl #1
 800775c:	d44f      	bmi.n	80077fe <taabe227+0x206>
 800775e:	f10b 0502 	add.w	r5, fp, #2
 8007762:	eb05 0141 	add.w	r1, r5, r1, lsl #1
 8007766:	18cd      	adds	r5, r1, r3
 8007768:	449b      	add	fp, r3
 800776a:	0066      	lsls	r6, r4, #1
 800776c:	2000      	movs	r0, #0
 800776e:	2c00      	cmp	r4, #0
 8007770:	dd3f      	ble.n	80077f2 <taabe227+0x1fa>
 8007772:	eb0b 0706 	add.w	r7, fp, r6
 8007776:	465a      	mov	r2, fp
 8007778:	2300      	movs	r3, #0
 800777a:	f932 1b02 	ldrsh.w	r1, [r2], #2
 800777e:	4297      	cmp	r7, r2
 8007780:	440b      	add	r3, r1
 8007782:	d1fa      	bne.n	800777a <taabe227+0x182>
 8007784:	fb93 f3f4 	sdiv	r3, r3, r4
 8007788:	f303 030f 	ssat	r3, #16, r3
 800778c:	b21b      	sxth	r3, r3
 800778e:	4298      	cmp	r0, r3
 8007790:	f10b 0b02 	add.w	fp, fp, #2
 8007794:	bfb8      	it	lt
 8007796:	4618      	movlt	r0, r3
 8007798:	455d      	cmp	r5, fp
 800779a:	d1e8      	bne.n	800776e <taabe227+0x176>
 800779c:	9b05      	ldr	r3, [sp, #20]
 800779e:	9904      	ldr	r1, [sp, #16]
 80077a0:	f103 4380 	add.w	r3, r3, #1073741824	; 0x40000000
 80077a4:	3b01      	subs	r3, #1
 80077a6:	68ca      	ldr	r2, [r1, #12]
 80077a8:	f858 3023 	ldr.w	r3, [r8, r3, lsl #2]
 80077ac:	4293      	cmp	r3, r2
 80077ae:	dc07      	bgt.n	80077c0 <taabe227+0x1c8>
 80077b0:	6a0b      	ldr	r3, [r1, #32]
 80077b2:	2b07      	cmp	r3, #7
 80077b4:	dc04      	bgt.n	80077c0 <taabe227+0x1c8>
 80077b6:	4240      	negs	r0, r0
 80077b8:	b200      	sxth	r0, r0
 80077ba:	b009      	add	sp, #36	; 0x24
 80077bc:	e8bd 8ff0 	ldmia.w	sp!, {r4, r5, r6, r7, r8, r9, sl, fp, pc}
 80077c0:	4816      	ldr	r0, [pc, #88]	; (800781c <taabe227+0x224>)
 80077c2:	b009      	add	sp, #36	; 0x24
 80077c4:	e8bd 8ff0 	ldmia.w	sp!, {r4, r5, r6, r7, r8, r9, sl, fp, pc}
 80077c8:	464a      	mov	r2, r9
 80077ca:	463e      	mov	r6, r7
 80077cc:	4623      	mov	r3, r4
 80077ce:	f1a9 0504 	sub.w	r5, r9, #4
 80077d2:	e74a      	b.n	800766a <taabe227+0x72>
 80077d4:	f647 7eff 	movw	lr, #32767	; 0x7fff
 80077d8:	46f0      	mov	r8, lr
 80077da:	e73a      	b.n	8007652 <taabe227+0x5a>
 80077dc:	f105 4500 	add.w	r5, r5, #2147483648	; 0x80000000
 80077e0:	3d01      	subs	r5, #1
 80077e2:	f934 3015 	ldrsh.w	r3, [r4, r5, lsl #1]
 80077e6:	449e      	add	lr, r3
 80077e8:	f30e 0e0f 	ssat	lr, #16, lr
 80077ec:	f824 e015 	strh.w	lr, [r4, r5, lsl #1]
 80077f0:	e78b      	b.n	800770a <taabe227+0x112>
 80077f2:	2300      	movs	r3, #0
 80077f4:	e7c8      	b.n	8007788 <taabe227+0x190>
 80077f6:	f647 71ff 	movw	r1, #32767	; 0x7fff
 80077fa:	460a      	mov	r2, r1
 80077fc:	e79b      	b.n	8007736 <taabe227+0x13e>
 80077fe:	2000      	movs	r0, #0
 8007800:	e7cc      	b.n	800779c <taabe227+0x1a4>
 8007802:	428b      	cmp	r3, r1
 8007804:	d004      	beq.n	8007810 <taabe227+0x218>
 8007806:	9904      	ldr	r1, [sp, #16]
 8007808:	4608      	mov	r0, r1
 800780a:	2101      	movs	r1, #1
 800780c:	6201      	str	r1, [r0, #32]
 800780e:	e742      	b.n	8007696 <taabe227+0x9e>
 8007810:	9804      	ldr	r0, [sp, #16]
 8007812:	6a01      	ldr	r1, [r0, #32]
 8007814:	3101      	adds	r1, #1
 8007816:	6201      	str	r1, [r0, #32]
 8007818:	e73d      	b.n	8007696 <taabe227+0x9e>
 800781a:	bf00      	nop
 800781c:	ffff8000 	.word	0xffff8000

08007820 <taabe228>:
 8007820:	6843      	ldr	r3, [r0, #4]
 8007822:	2b00      	cmp	r3, #0
 8007824:	dd2f      	ble.n	8007886 <taabe228+0x66>
 8007826:	6901      	ldr	r1, [r0, #16]
 8007828:	2200      	movs	r2, #0
 800782a:	3904      	subs	r1, #4
 800782c:	68c3      	ldr	r3, [r0, #12]
 800782e:	3301      	adds	r3, #1
 8007830:	f841 3f04 	str.w	r3, [r1, #4]!
 8007834:	6843      	ldr	r3, [r0, #4]
 8007836:	3201      	adds	r2, #1
 8007838:	4293      	cmp	r3, r2
 800783a:	dcf7      	bgt.n	800782c <taabe228+0xc>
 800783c:	2b00      	cmp	r3, #0
 800783e:	dd22      	ble.n	8007886 <taabe228+0x66>
 8007840:	6941      	ldr	r1, [r0, #20]
 8007842:	b410      	push	{r4}
 8007844:	2200      	movs	r2, #0
 8007846:	3904      	subs	r1, #4
 8007848:	f647 74ff 	movw	r4, #32767	; 0x7fff
 800784c:	f841 4f04 	str.w	r4, [r1, #4]!
 8007850:	6843      	ldr	r3, [r0, #4]
 8007852:	3201      	adds	r2, #1
 8007854:	4293      	cmp	r3, r2
 8007856:	dcf9      	bgt.n	800784c <taabe228+0x2c>
 8007858:	1059      	asrs	r1, r3, #1
 800785a:	1c4a      	adds	r2, r1, #1
 800785c:	07dc      	lsls	r4, r3, #31
 800785e:	bf54      	ite	pl
 8007860:	434a      	mulpl	r2, r1
 8007862:	4352      	mulmi	r2, r2
 8007864:	2a00      	cmp	r2, #0
 8007866:	dd09      	ble.n	800787c <taabe228+0x5c>
 8007868:	6983      	ldr	r3, [r0, #24]
 800786a:	3b02      	subs	r3, #2
 800786c:	eb03 0242 	add.w	r2, r3, r2, lsl #1
 8007870:	f647 71ff 	movw	r1, #32767	; 0x7fff
 8007874:	f823 1f02 	strh.w	r1, [r3, #2]!
 8007878:	429a      	cmp	r2, r3
 800787a:	d1fb      	bne.n	8007874 <taabe228+0x54>
 800787c:	2300      	movs	r3, #0
 800787e:	6203      	str	r3, [r0, #32]
 8007880:	f85d 4b04 	ldr.w	r4, [sp], #4
 8007884:	4770      	bx	lr
 8007886:	1059      	asrs	r1, r3, #1
 8007888:	1c4a      	adds	r2, r1, #1
 800788a:	07db      	lsls	r3, r3, #31
 800788c:	bf54      	ite	pl
 800788e:	434a      	mulpl	r2, r1
 8007890:	4352      	mulmi	r2, r2
 8007892:	2a00      	cmp	r2, #0
 8007894:	dd09      	ble.n	80078aa <taabe228+0x8a>
 8007896:	6983      	ldr	r3, [r0, #24]
 8007898:	3b02      	subs	r3, #2
 800789a:	eb03 0242 	add.w	r2, r3, r2, lsl #1
 800789e:	f647 71ff 	movw	r1, #32767	; 0x7fff
 80078a2:	f823 1f02 	strh.w	r1, [r3, #2]!
 80078a6:	429a      	cmp	r2, r3
 80078a8:	d1fb      	bne.n	80078a2 <taabe228+0x82>
 80078aa:	2300      	movs	r3, #0
 80078ac:	6203      	str	r3, [r0, #32]
 80078ae:	4770      	bx	lr

080078b0 <D16_GENERIC>:
 80078b0:	e92d 4ff0 	stmdb	sp!, {r4, r5, r6, r7, r8, r9, sl, fp, lr}
 80078b4:	b089      	sub	sp, #36	; 0x24
 80078b6:	68d4      	ldr	r4, [r2, #12]
 80078b8:	8cd5      	ldrh	r5, [r2, #38]	; 0x26
 80078ba:	6993      	ldr	r3, [r2, #24]
 80078bc:	9407      	str	r4, [sp, #28]
 80078be:	6b14      	ldr	r4, [r2, #48]	; 0x30
 80078c0:	9306      	str	r3, [sp, #24]
 80078c2:	9402      	str	r4, [sp, #8]
 80078c4:	f8d2 a010 	ldr.w	sl, [r2, #16]
 80078c8:	f8d2 b014 	ldr.w	fp, [r2, #20]
 80078cc:	69d3      	ldr	r3, [r2, #28]
 80078ce:	6896      	ldr	r6, [r2, #8]
 80078d0:	6b54      	ldr	r4, [r2, #52]	; 0x34
 80078d2:	9103      	str	r1, [sp, #12]
 80078d4:	2d00      	cmp	r5, #0
 80078d6:	d066      	beq.n	80079a6 <D16_GENERIC+0xf6>
 80078d8:	f004 0510 	and.w	r5, r4, #16
 80078dc:	f004 0420 	and.w	r4, r4, #32
 80078e0:	9504      	str	r5, [sp, #16]
 80078e2:	4938      	ldr	r1, [pc, #224]	; (80079c4 <D16_GENERIC+0x114>)
 80078e4:	9405      	str	r4, [sp, #20]
 80078e6:	f04f 0e00 	mov.w	lr, #0
 80078ea:	4635      	mov	r5, r6
 80078ec:	e04f      	b.n	800798e <D16_GENERIC+0xde>
 80078ee:	5d87      	ldrb	r7, [r0, r6]
 80078f0:	7804      	ldrb	r4, [r0, #0]
 80078f2:	eb00 0046 	add.w	r0, r0, r6, lsl #1
 80078f6:	eb04 2407 	add.w	r4, r4, r7, lsl #8
 80078fa:	b2e6      	uxtb	r6, r4
 80078fc:	f3c4 2407 	ubfx	r4, r4, #8, #8
 8007900:	f851 6026 	ldr.w	r6, [r1, r6, lsl #2]
 8007904:	f851 4024 	ldr.w	r4, [r1, r4, lsl #2]
 8007908:	4433      	add	r3, r6
 800790a:	eb04 2493 	add.w	r4, r4, r3, lsr #10
 800790e:	f3c4 0609 	ubfx	r6, r4, #0, #10
 8007912:	f3c3 0309 	ubfx	r3, r3, #0, #10
 8007916:	ea46 4603 	orr.w	r6, r6, r3, lsl #16
 800791a:	0aa3      	lsrs	r3, r4, #10
 800791c:	4c2a      	ldr	r4, [pc, #168]	; (80079c8 <D16_GENERIC+0x118>)
 800791e:	fb26 5404 	smlad	r4, r6, r4, r5
 8007922:	4d2a      	ldr	r5, [pc, #168]	; (80079cc <D16_GENERIC+0x11c>)
 8007924:	fb26 f505 	smuad	r5, r6, r5
 8007928:	f5a4 6400 	sub.w	r4, r4, #2048	; 0x800
 800792c:	eb04 080a 	add.w	r8, r4, sl
 8007930:	eba8 080b 	sub.w	r8, r8, fp
 8007934:	4646      	mov	r6, r8
 8007936:	17f7      	asrs	r7, r6, #31
 8007938:	e9cd 6700 	strd	r6, r7, [sp]
 800793c:	9e04      	ldr	r6, [sp, #16]
 800793e:	f10e 0c01 	add.w	ip, lr, #1
 8007942:	b16e      	cbz	r6, 8007960 <D16_GENERIC+0xb0>
 8007944:	6a16      	ldr	r6, [r2, #32]
 8007946:	9f01      	ldr	r7, [sp, #4]
 8007948:	fba8 8906 	umull	r8, r9, r8, r6
 800794c:	fb06 9907 	mla	r9, r6, r7, r9
 8007950:	f118 4800 	adds.w	r8, r8, #2147483648	; 0x80000000
 8007954:	f149 0900 	adc.w	r9, r9, #0
 8007958:	ea4f 0a49 	mov.w	sl, r9, lsl #1
 800795c:	46a3      	mov	fp, r4
 800795e:	4654      	mov	r4, sl
 8007960:	8d16      	ldrh	r6, [r2, #40]	; 0x28
 8007962:	9f02      	ldr	r7, [sp, #8]
 8007964:	0424      	lsls	r4, r4, #16
 8007966:	f04f 4800 	mov.w	r8, #2147483648	; 0x80000000
 800796a:	f04f 0900 	mov.w	r9, #0
 800796e:	fb0e fe06 	mul.w	lr, lr, r6
 8007972:	fbc7 8904 	smlal	r8, r9, r7, r4
 8007976:	9e03      	ldr	r6, [sp, #12]
 8007978:	464f      	mov	r7, r9
 800797a:	10bc      	asrs	r4, r7, #2
 800797c:	f304 040f 	ssat	r4, #16, r4
 8007980:	f826 401e 	strh.w	r4, [r6, lr, lsl #1]
 8007984:	8cd4      	ldrh	r4, [r2, #38]	; 0x26
 8007986:	fa1f fe8c 	uxth.w	lr, ip
 800798a:	4574      	cmp	r4, lr
 800798c:	d90a      	bls.n	80079a4 <D16_GENERIC+0xf4>
 800798e:	8d54      	ldrh	r4, [r2, #42]	; 0x2a
 8007990:	2c01      	cmp	r4, #1
 8007992:	b2e6      	uxtb	r6, r4
 8007994:	d1ab      	bne.n	80078ee <D16_GENERIC+0x3e>
 8007996:	9e05      	ldr	r6, [sp, #20]
 8007998:	f850 4b02 	ldr.w	r4, [r0], #2
 800799c:	2e00      	cmp	r6, #0
 800799e:	d0ac      	beq.n	80078fa <D16_GENERIC+0x4a>
 80079a0:	ba64      	rev16	r4, r4
 80079a2:	e7aa      	b.n	80078fa <D16_GENERIC+0x4a>
 80079a4:	462e      	mov	r6, r5
 80079a6:	9907      	ldr	r1, [sp, #28]
 80079a8:	61d3      	str	r3, [r2, #28]
 80079aa:	9b06      	ldr	r3, [sp, #24]
 80079ac:	6096      	str	r6, [r2, #8]
 80079ae:	2000      	movs	r0, #0
 80079b0:	60d1      	str	r1, [r2, #12]
 80079b2:	f8c2 a010 	str.w	sl, [r2, #16]
 80079b6:	f8c2 b014 	str.w	fp, [r2, #20]
 80079ba:	6193      	str	r3, [r2, #24]
 80079bc:	b009      	add	sp, #36	; 0x24
 80079be:	e8bd 8ff0 	ldmia.w	sp!, {r4, r5, r6, r7, r8, r9, sl, fp, pc}
 80079c2:	bf00      	nop
 80079c4:	20000000 	.word	0x20000000
 80079c8:	00030001 	.word	0x00030001
 80079cc:	00010003 	.word	0x00010003

080079d0 <D24_GENERIC>:
 80079d0:	e92d 4ff0 	stmdb	sp!, {r4, r5, r6, r7, r8, r9, sl, fp, lr}
 80079d4:	8cd6      	ldrh	r6, [r2, #38]	; 0x26
 80079d6:	6993      	ldr	r3, [r2, #24]
 80079d8:	6b15      	ldr	r5, [r2, #48]	; 0x30
 80079da:	f8d2 a010 	ldr.w	sl, [r2, #16]
 80079de:	f8d2 9014 	ldr.w	r9, [r2, #20]
 80079e2:	6894      	ldr	r4, [r2, #8]
 80079e4:	f8d2 b00c 	ldr.w	fp, [r2, #12]
 80079e8:	b089      	sub	sp, #36	; 0x24
 80079ea:	9307      	str	r3, [sp, #28]
 80079ec:	9503      	str	r5, [sp, #12]
 80079ee:	69d3      	ldr	r3, [r2, #28]
 80079f0:	6b55      	ldr	r5, [r2, #52]	; 0x34
 80079f2:	9104      	str	r1, [sp, #16]
 80079f4:	2e00      	cmp	r6, #0
 80079f6:	f000 8096 	beq.w	8007b26 <D24_GENERIC+0x156>
 80079fa:	f005 0610 	and.w	r6, r5, #16
 80079fe:	f005 0520 	and.w	r5, r5, #32
 8007a02:	4954      	ldr	r1, [pc, #336]	; (8007b54 <D24_GENERIC+0x184>)
 8007a04:	9605      	str	r6, [sp, #20]
 8007a06:	9506      	str	r5, [sp, #24]
 8007a08:	f04f 0e00 	mov.w	lr, #0
 8007a0c:	f8cd 9008 	str.w	r9, [sp, #8]
 8007a10:	e06a      	b.n	8007ae8 <D24_GENERIC+0x118>
 8007a12:	f810 5016 	ldrb.w	r5, [r0, r6, lsl #1]
 8007a16:	f810 8007 	ldrb.w	r8, [r0, r7]
 8007a1a:	f890 c000 	ldrb.w	ip, [r0]
 8007a1e:	042d      	lsls	r5, r5, #16
 8007a20:	eb00 0046 	add.w	r0, r0, r6, lsl #1
 8007a24:	eb05 2508 	add.w	r5, r5, r8, lsl #8
 8007a28:	44ac      	add	ip, r5
 8007a2a:	4438      	add	r0, r7
 8007a2c:	fa5f f68c 	uxtb.w	r6, ip
 8007a30:	f3cc 2507 	ubfx	r5, ip, #8, #8
 8007a34:	f851 6026 	ldr.w	r6, [r1, r6, lsl #2]
 8007a38:	f851 7025 	ldr.w	r7, [r1, r5, lsl #2]
 8007a3c:	ea4f 4c1c 	mov.w	ip, ip, lsr #16
 8007a40:	eb06 2693 	add.w	r6, r6, r3, lsr #10
 8007a44:	eb07 2796 	add.w	r7, r7, r6, lsr #10
 8007a48:	f851 302c 	ldr.w	r3, [r1, ip, lsl #2]
 8007a4c:	f3c7 0509 	ubfx	r5, r7, #0, #10
 8007a50:	f3c6 0609 	ubfx	r6, r6, #0, #10
 8007a54:	ea45 4606 	orr.w	r6, r5, r6, lsl #16
 8007a58:	eb03 2397 	add.w	r3, r3, r7, lsr #10
 8007a5c:	4d3e      	ldr	r5, [pc, #248]	; (8007b58 <D24_GENERIC+0x188>)
 8007a5e:	fb26 b705 	smlad	r7, r6, r5, fp
 8007a62:	4d3e      	ldr	r5, [pc, #248]	; (8007b5c <D24_GENERIC+0x18c>)
 8007a64:	fb26 4b05 	smlad	fp, r6, r5, r4
 8007a68:	f3c3 0409 	ubfx	r4, r3, #0, #10
 8007a6c:	eb04 0844 	add.w	r8, r4, r4, lsl #1
 8007a70:	eb0b 0b48 	add.w	fp, fp, r8, lsl #1
 8007a74:	2401      	movs	r4, #1
 8007a76:	fb26 f604 	smuad	r6, r6, r4
 8007a7a:	f5a7 55d8 	sub.w	r5, r7, #6912	; 0x1b00
 8007a7e:	9f02      	ldr	r7, [sp, #8]
 8007a80:	eb0e 0c04 	add.w	ip, lr, r4
 8007a84:	eb08 0406 	add.w	r4, r8, r6
 8007a88:	eb05 060a 	add.w	r6, r5, sl
 8007a8c:	1bf6      	subs	r6, r6, r7
 8007a8e:	4637      	mov	r7, r6
 8007a90:	ea4f 78e6 	mov.w	r8, r6, asr #31
 8007a94:	e9cd 7800 	strd	r7, r8, [sp]
 8007a98:	9f05      	ldr	r7, [sp, #20]
 8007a9a:	b177      	cbz	r7, 8007aba <D24_GENERIC+0xea>
 8007a9c:	f8d2 8020 	ldr.w	r8, [r2, #32]
 8007aa0:	9502      	str	r5, [sp, #8]
 8007aa2:	fba6 9a08 	umull	r9, sl, r6, r8
 8007aa6:	9e01      	ldr	r6, [sp, #4]
 8007aa8:	fb08 aa06 	mla	sl, r8, r6, sl
 8007aac:	f119 4600 	adds.w	r6, r9, #2147483648	; 0x80000000
 8007ab0:	f14a 0700 	adc.w	r7, sl, #0
 8007ab4:	ea4f 0a47 	mov.w	sl, r7, lsl #1
 8007ab8:	4655      	mov	r5, sl
 8007aba:	8d16      	ldrh	r6, [r2, #40]	; 0x28
 8007abc:	9f03      	ldr	r7, [sp, #12]
 8007abe:	03ad      	lsls	r5, r5, #14
 8007ac0:	f04f 4800 	mov.w	r8, #2147483648	; 0x80000000
 8007ac4:	f04f 0900 	mov.w	r9, #0
 8007ac8:	fb0e fe06 	mul.w	lr, lr, r6
 8007acc:	fbc7 8905 	smlal	r8, r9, r7, r5
 8007ad0:	9e04      	ldr	r6, [sp, #16]
 8007ad2:	464f      	mov	r7, r9
 8007ad4:	10bd      	asrs	r5, r7, #2
 8007ad6:	f305 050f 	ssat	r5, #16, r5
 8007ada:	f826 501e 	strh.w	r5, [r6, lr, lsl #1]
 8007ade:	8cd5      	ldrh	r5, [r2, #38]	; 0x26
 8007ae0:	fa1f fe8c 	uxth.w	lr, ip
 8007ae4:	4575      	cmp	r5, lr
 8007ae6:	d91c      	bls.n	8007b22 <D24_GENERIC+0x152>
 8007ae8:	8d55      	ldrh	r5, [r2, #42]	; 0x2a
 8007aea:	b2ef      	uxtb	r7, r5
 8007aec:	2d01      	cmp	r5, #1
 8007aee:	b23e      	sxth	r6, r7
 8007af0:	d18f      	bne.n	8007a12 <D24_GENERIC+0x42>
 8007af2:	9d06      	ldr	r5, [sp, #24]
 8007af4:	b15d      	cbz	r5, 8007b0e <D24_GENERIC+0x13e>
 8007af6:	f01e 0f01 	tst.w	lr, #1
 8007afa:	d122      	bne.n	8007b42 <D24_GENERIC+0x172>
 8007afc:	7805      	ldrb	r5, [r0, #0]
 8007afe:	78c7      	ldrb	r7, [r0, #3]
 8007b00:	7846      	ldrb	r6, [r0, #1]
 8007b02:	022d      	lsls	r5, r5, #8
 8007b04:	eb05 4c07 	add.w	ip, r5, r7, lsl #16
 8007b08:	44b4      	add	ip, r6
 8007b0a:	3002      	adds	r0, #2
 8007b0c:	e78e      	b.n	8007a2c <D24_GENERIC+0x5c>
 8007b0e:	7846      	ldrb	r6, [r0, #1]
 8007b10:	f890 c002 	ldrb.w	ip, [r0, #2]
 8007b14:	f810 5b03 	ldrb.w	r5, [r0], #3
 8007b18:	0236      	lsls	r6, r6, #8
 8007b1a:	eb06 4c0c 	add.w	ip, r6, ip, lsl #16
 8007b1e:	44ac      	add	ip, r5
 8007b20:	e784      	b.n	8007a2c <D24_GENERIC+0x5c>
 8007b22:	f8dd 9008 	ldr.w	r9, [sp, #8]
 8007b26:	61d3      	str	r3, [r2, #28]
 8007b28:	9b07      	ldr	r3, [sp, #28]
 8007b2a:	6094      	str	r4, [r2, #8]
 8007b2c:	2000      	movs	r0, #0
 8007b2e:	f8c2 b00c 	str.w	fp, [r2, #12]
 8007b32:	f8c2 a010 	str.w	sl, [r2, #16]
 8007b36:	f8c2 9014 	str.w	r9, [r2, #20]
 8007b3a:	6193      	str	r3, [r2, #24]
 8007b3c:	b009      	add	sp, #36	; 0x24
 8007b3e:	e8bd 8ff0 	ldmia.w	sp!, {r4, r5, r6, r7, r8, r9, sl, fp, pc}
 8007b42:	78c5      	ldrb	r5, [r0, #3]
 8007b44:	7887      	ldrb	r7, [r0, #2]
 8007b46:	f810 6b04 	ldrb.w	r6, [r0], #4
 8007b4a:	022d      	lsls	r5, r5, #8
 8007b4c:	eb05 4c07 	add.w	ip, r5, r7, lsl #16
 8007b50:	44b4      	add	ip, r6
 8007b52:	e76b      	b.n	8007a2c <D24_GENERIC+0x5c>
 8007b54:	20000000 	.word	0x20000000
 8007b58:	00030001 	.word	0x00030001
 8007b5c:	00060007 	.word	0x00060007

08007b60 <D32_GENERIC>:
 8007b60:	e92d 4ff0 	stmdb	sp!, {r4, r5, r6, r7, r8, r9, sl, fp, lr}
 8007b64:	8cd5      	ldrh	r5, [r2, #38]	; 0x26
 8007b66:	6993      	ldr	r3, [r2, #24]
 8007b68:	6b14      	ldr	r4, [r2, #48]	; 0x30
 8007b6a:	f8d2 a010 	ldr.w	sl, [r2, #16]
 8007b6e:	f8d2 9014 	ldr.w	r9, [r2, #20]
 8007b72:	69d6      	ldr	r6, [r2, #28]
 8007b74:	f8d2 b00c 	ldr.w	fp, [r2, #12]
 8007b78:	b089      	sub	sp, #36	; 0x24
 8007b7a:	9307      	str	r3, [sp, #28]
 8007b7c:	9403      	str	r4, [sp, #12]
 8007b7e:	6893      	ldr	r3, [r2, #8]
 8007b80:	6b54      	ldr	r4, [r2, #52]	; 0x34
 8007b82:	9104      	str	r1, [sp, #16]
 8007b84:	2d00      	cmp	r5, #0
 8007b86:	f000 809f 	beq.w	8007cc8 <D32_GENERIC+0x168>
 8007b8a:	f004 0510 	and.w	r5, r4, #16
 8007b8e:	f004 0420 	and.w	r4, r4, #32
 8007b92:	9505      	str	r5, [sp, #20]
 8007b94:	4953      	ldr	r1, [pc, #332]	; (8007ce4 <D32_GENERIC+0x184>)
 8007b96:	9406      	str	r4, [sp, #24]
 8007b98:	f04f 0c00 	mov.w	ip, #0
 8007b9c:	f8cd 9008 	str.w	r9, [sp, #8]
 8007ba0:	461d      	mov	r5, r3
 8007ba2:	4617      	mov	r7, r2
 8007ba4:	e077      	b.n	8007c96 <D32_GENERIC+0x136>
 8007ba6:	f818 3003 	ldrb.w	r3, [r8, r3]
 8007baa:	f810 800e 	ldrb.w	r8, [r0, lr]
 8007bae:	f810 e002 	ldrb.w	lr, [r0, r2]
 8007bb2:	7800      	ldrb	r0, [r0, #0]
 8007bb4:	041b      	lsls	r3, r3, #16
 8007bb6:	eb03 6308 	add.w	r3, r3, r8, lsl #24
 8007bba:	eb03 230e 	add.w	r3, r3, lr, lsl #8
 8007bbe:	4403      	add	r3, r0
 8007bc0:	eb04 0042 	add.w	r0, r4, r2, lsl #1
 8007bc4:	b2dc      	uxtb	r4, r3
 8007bc6:	f3c3 2207 	ubfx	r2, r3, #8, #8
 8007bca:	f3c3 4807 	ubfx	r8, r3, #16, #8
 8007bce:	f851 4024 	ldr.w	r4, [r1, r4, lsl #2]
 8007bd2:	f851 2022 	ldr.w	r2, [r1, r2, lsl #2]
 8007bd6:	0e1b      	lsrs	r3, r3, #24
 8007bd8:	eb04 2496 	add.w	r4, r4, r6, lsr #10
 8007bdc:	f851 6028 	ldr.w	r6, [r1, r8, lsl #2]
 8007be0:	f851 3023 	ldr.w	r3, [r1, r3, lsl #2]
 8007be4:	eb02 2294 	add.w	r2, r2, r4, lsr #10
 8007be8:	eb06 2e92 	add.w	lr, r6, r2, lsr #10
 8007bec:	eb03 269e 	add.w	r6, r3, lr, lsr #10
 8007bf0:	f3c6 0309 	ubfx	r3, r6, #0, #10
 8007bf4:	f3c4 0409 	ubfx	r4, r4, #0, #10
 8007bf8:	f3c2 0209 	ubfx	r2, r2, #0, #10
 8007bfc:	f3ce 0e09 	ubfx	lr, lr, #0, #10
 8007c00:	ea43 4e0e 	orr.w	lr, r3, lr, lsl #16
 8007c04:	ea42 4204 	orr.w	r2, r2, r4, lsl #16
 8007c08:	4b37      	ldr	r3, [pc, #220]	; (8007ce8 <D32_GENERIC+0x188>)
 8007c0a:	fb22 b403 	smlad	r4, r2, r3, fp
 8007c0e:	f44f 3380 	mov.w	r3, #65536	; 0x10000
 8007c12:	fb2e 4803 	smlad	r8, lr, r3, r4
 8007c16:	4b35      	ldr	r3, [pc, #212]	; (8007cec <D32_GENERIC+0x18c>)
 8007c18:	fb22 5503 	smlad	r5, r2, r3, r5
 8007c1c:	4b34      	ldr	r3, [pc, #208]	; (8007cf0 <D32_GENERIC+0x190>)
 8007c1e:	fb2e 5b03 	smlad	fp, lr, r3, r5
 8007c22:	2301      	movs	r3, #1
 8007c24:	fb22 f203 	smuad	r2, r2, r3
 8007c28:	4b32      	ldr	r3, [pc, #200]	; (8007cf4 <D32_GENERIC+0x194>)
 8007c2a:	fb2e 2503 	smlad	r5, lr, r3, r2
 8007c2e:	9b02      	ldr	r3, [sp, #8]
 8007c30:	f5a8 4480 	sub.w	r4, r8, #16384	; 0x4000
 8007c34:	eb04 080a 	add.w	r8, r4, sl
 8007c38:	eba8 0803 	sub.w	r8, r8, r3
 8007c3c:	4642      	mov	r2, r8
 8007c3e:	17d3      	asrs	r3, r2, #31
 8007c40:	e9cd 2300 	strd	r2, r3, [sp]
 8007c44:	9b05      	ldr	r3, [sp, #20]
 8007c46:	f10c 0e01 	add.w	lr, ip, #1
 8007c4a:	b16b      	cbz	r3, 8007c68 <D32_GENERIC+0x108>
 8007c4c:	6a3a      	ldr	r2, [r7, #32]
 8007c4e:	9b01      	ldr	r3, [sp, #4]
 8007c50:	9402      	str	r4, [sp, #8]
 8007c52:	fba8 8902 	umull	r8, r9, r8, r2
 8007c56:	fb02 9903 	mla	r9, r2, r3, r9
 8007c5a:	f118 4800 	adds.w	r8, r8, #2147483648	; 0x80000000
 8007c5e:	f149 0900 	adc.w	r9, r9, #0
 8007c62:	ea4f 0a49 	mov.w	sl, r9, lsl #1
 8007c66:	4654      	mov	r4, sl
 8007c68:	8d3b      	ldrh	r3, [r7, #40]	; 0x28
 8007c6a:	9a04      	ldr	r2, [sp, #16]
 8007c6c:	fb0c fc03 	mul.w	ip, ip, r3
 8007c70:	9b03      	ldr	r3, [sp, #12]
 8007c72:	0364      	lsls	r4, r4, #13
 8007c74:	f04f 4800 	mov.w	r8, #2147483648	; 0x80000000
 8007c78:	f04f 0900 	mov.w	r9, #0
 8007c7c:	fbc3 8904 	smlal	r8, r9, r3, r4
 8007c80:	464b      	mov	r3, r9
 8007c82:	109b      	asrs	r3, r3, #2
 8007c84:	f303 030f 	ssat	r3, #16, r3
 8007c88:	f822 301c 	strh.w	r3, [r2, ip, lsl #1]
 8007c8c:	8cfb      	ldrh	r3, [r7, #38]	; 0x26
 8007c8e:	fa1f fc8e 	uxth.w	ip, lr
 8007c92:	4563      	cmp	r3, ip
 8007c94:	d914      	bls.n	8007cc0 <D32_GENERIC+0x160>
 8007c96:	8d7c      	ldrh	r4, [r7, #42]	; 0x2a
 8007c98:	b2e2      	uxtb	r2, r4
 8007c9a:	eb02 0e42 	add.w	lr, r2, r2, lsl #1
 8007c9e:	eb00 080e 	add.w	r8, r0, lr
 8007ca2:	4253      	negs	r3, r2
 8007ca4:	2c01      	cmp	r4, #1
 8007ca6:	eb08 0403 	add.w	r4, r8, r3
 8007caa:	f47f af7c 	bne.w	8007ba6 <D32_GENERIC+0x46>
 8007cae:	1d02      	adds	r2, r0, #4
 8007cb0:	6803      	ldr	r3, [r0, #0]
 8007cb2:	9806      	ldr	r0, [sp, #24]
 8007cb4:	b110      	cbz	r0, 8007cbc <D32_GENERIC+0x15c>
 8007cb6:	ba5b      	rev16	r3, r3
 8007cb8:	4610      	mov	r0, r2
 8007cba:	e783      	b.n	8007bc4 <D32_GENERIC+0x64>
 8007cbc:	4610      	mov	r0, r2
 8007cbe:	e781      	b.n	8007bc4 <D32_GENERIC+0x64>
 8007cc0:	f8dd 9008 	ldr.w	r9, [sp, #8]
 8007cc4:	462b      	mov	r3, r5
 8007cc6:	463a      	mov	r2, r7
 8007cc8:	6093      	str	r3, [r2, #8]
 8007cca:	9b07      	ldr	r3, [sp, #28]
 8007ccc:	f8c2 b00c 	str.w	fp, [r2, #12]
 8007cd0:	2000      	movs	r0, #0
 8007cd2:	61d6      	str	r6, [r2, #28]
 8007cd4:	f8c2 a010 	str.w	sl, [r2, #16]
 8007cd8:	f8c2 9014 	str.w	r9, [r2, #20]
 8007cdc:	6193      	str	r3, [r2, #24]
 8007cde:	b009      	add	sp, #36	; 0x24
 8007ce0:	e8bd 8ff0 	ldmia.w	sp!, {r4, r5, r6, r7, r8, r9, sl, fp, pc}
 8007ce4:	20000000 	.word	0x20000000
 8007ce8:	00060003 	.word	0x00060003
 8007cec:	000a000c 	.word	0x000a000c
 8007cf0:	000c000a 	.word	0x000c000a
 8007cf4:	00030006 	.word	0x00030006

08007cf8 <D48_GENERIC>:
 8007cf8:	e92d 4ff0 	stmdb	sp!, {r4, r5, r6, r7, r8, r9, sl, fp, lr}
 8007cfc:	b089      	sub	sp, #36	; 0x24
 8007cfe:	6953      	ldr	r3, [r2, #20]
 8007d00:	68d4      	ldr	r4, [r2, #12]
 8007d02:	8cd5      	ldrh	r5, [r2, #38]	; 0x26
 8007d04:	9302      	str	r3, [sp, #8]
 8007d06:	9400      	str	r4, [sp, #0]
 8007d08:	6993      	ldr	r3, [r2, #24]
 8007d0a:	6b14      	ldr	r4, [r2, #48]	; 0x30
 8007d0c:	9307      	str	r3, [sp, #28]
 8007d0e:	9403      	str	r4, [sp, #12]
 8007d10:	f8d2 a010 	ldr.w	sl, [r2, #16]
 8007d14:	69d6      	ldr	r6, [r2, #28]
 8007d16:	6893      	ldr	r3, [r2, #8]
 8007d18:	6b54      	ldr	r4, [r2, #52]	; 0x34
 8007d1a:	9104      	str	r1, [sp, #16]
 8007d1c:	2d00      	cmp	r5, #0
 8007d1e:	f000 80c5 	beq.w	8007eac <D48_GENERIC+0x1b4>
 8007d22:	f004 0510 	and.w	r5, r4, #16
 8007d26:	f004 0420 	and.w	r4, r4, #32
 8007d2a:	4967      	ldr	r1, [pc, #412]	; (8007ec8 <D48_GENERIC+0x1d0>)
 8007d2c:	9505      	str	r5, [sp, #20]
 8007d2e:	9406      	str	r4, [sp, #24]
 8007d30:	f04f 0c00 	mov.w	ip, #0
 8007d34:	4657      	mov	r7, sl
 8007d36:	9301      	str	r3, [sp, #4]
 8007d38:	e09c      	b.n	8007e74 <D48_GENERIC+0x17c>
 8007d3a:	f81b 4005 	ldrb.w	r4, [fp, r5]
 8007d3e:	f810 b009 	ldrb.w	fp, [r0, r9]
 8007d42:	f81a 9009 	ldrb.w	r9, [sl, r9]
 8007d46:	f810 a00e 	ldrb.w	sl, [r0, lr]
 8007d4a:	7800      	ldrb	r0, [r0, #0]
 8007d4c:	0424      	lsls	r4, r4, #16
 8007d4e:	eb04 6b0b 	add.w	fp, r4, fp, lsl #24
 8007d52:	f818 4005 	ldrb.w	r4, [r8, r5]
 8007d56:	eb0b 2b0a 	add.w	fp, fp, sl, lsl #8
 8007d5a:	44a8      	add	r8, r5
 8007d5c:	eb04 2409 	add.w	r4, r4, r9, lsl #8
 8007d60:	eb0b 0500 	add.w	r5, fp, r0
 8007d64:	eb08 004e 	add.w	r0, r8, lr, lsl #1
 8007d68:	fa5f f885 	uxtb.w	r8, r5
 8007d6c:	f3c5 2e07 	ubfx	lr, r5, #8, #8
 8007d70:	f851 a028 	ldr.w	sl, [r1, r8, lsl #2]
 8007d74:	f851 902e 	ldr.w	r9, [r1, lr, lsl #2]
 8007d78:	f3c5 4e07 	ubfx	lr, r5, #16, #8
 8007d7c:	0e2d      	lsrs	r5, r5, #24
 8007d7e:	eb0a 2a96 	add.w	sl, sl, r6, lsr #10
 8007d82:	f851 802e 	ldr.w	r8, [r1, lr, lsl #2]
 8007d86:	f851 e025 	ldr.w	lr, [r1, r5, lsl #2]
 8007d8a:	b2e6      	uxtb	r6, r4
 8007d8c:	eb09 259a 	add.w	r5, r9, sl, lsr #10
 8007d90:	f3c4 2407 	ubfx	r4, r4, #8, #8
 8007d94:	eb08 2895 	add.w	r8, r8, r5, lsr #10
 8007d98:	f851 6026 	ldr.w	r6, [r1, r6, lsl #2]
 8007d9c:	f851 9024 	ldr.w	r9, [r1, r4, lsl #2]
 8007da0:	eb0e 2498 	add.w	r4, lr, r8, lsr #10
 8007da4:	eb06 2e94 	add.w	lr, r6, r4, lsr #10
 8007da8:	eb09 269e 	add.w	r6, r9, lr, lsr #10
 8007dac:	f3c5 0509 	ubfx	r5, r5, #0, #10
 8007db0:	f3c4 0409 	ubfx	r4, r4, #0, #10
 8007db4:	f3c6 0909 	ubfx	r9, r6, #0, #10
 8007db8:	f3ca 0a09 	ubfx	sl, sl, #0, #10
 8007dbc:	f3c8 0809 	ubfx	r8, r8, #0, #10
 8007dc0:	f3ce 0e09 	ubfx	lr, lr, #0, #10
 8007dc4:	ea45 4a0a 	orr.w	sl, r5, sl, lsl #16
 8007dc8:	ea44 4808 	orr.w	r8, r4, r8, lsl #16
 8007dcc:	ea49 4e0e 	orr.w	lr, r9, lr, lsl #16
 8007dd0:	4c3e      	ldr	r4, [pc, #248]	; (8007ecc <D48_GENERIC+0x1d4>)
 8007dd2:	9d00      	ldr	r5, [sp, #0]
 8007dd4:	fb2a 5404 	smlad	r4, sl, r4, r5
 8007dd8:	4d3d      	ldr	r5, [pc, #244]	; (8007ed0 <D48_GENERIC+0x1d8>)
 8007dda:	fb28 4405 	smlad	r4, r8, r5, r4
 8007dde:	f44f 3380 	mov.w	r3, #65536	; 0x10000
 8007de2:	fb2e 4b03 	smlad	fp, lr, r3, r4
 8007de6:	4c3b      	ldr	r4, [pc, #236]	; (8007ed4 <D48_GENERIC+0x1dc>)
 8007de8:	9b01      	ldr	r3, [sp, #4]
 8007dea:	fb2a 3304 	smlad	r3, sl, r4, r3
 8007dee:	f04f 141b 	mov.w	r4, #1769499	; 0x1b001b
 8007df2:	fb28 3304 	smlad	r3, r8, r4, r3
 8007df6:	4c38      	ldr	r4, [pc, #224]	; (8007ed8 <D48_GENERIC+0x1e0>)
 8007df8:	fb2e 3304 	smlad	r3, lr, r4, r3
 8007dfc:	2501      	movs	r5, #1
 8007dfe:	9300      	str	r3, [sp, #0]
 8007e00:	fb2a fa05 	smuad	sl, sl, r5
 8007e04:	4b35      	ldr	r3, [pc, #212]	; (8007edc <D48_GENERIC+0x1e4>)
 8007e06:	fb28 a803 	smlad	r8, r8, r3, sl
 8007e0a:	4b35      	ldr	r3, [pc, #212]	; (8007ee0 <D48_GENERIC+0x1e8>)
 8007e0c:	fb2e 8303 	smlad	r3, lr, r3, r8
 8007e10:	f5ab 4458 	sub.w	r4, fp, #55296	; 0xd800
 8007e14:	9301      	str	r3, [sp, #4]
 8007e16:	9b02      	ldr	r3, [sp, #8]
 8007e18:	eb04 0807 	add.w	r8, r4, r7
 8007e1c:	eba8 0803 	sub.w	r8, r8, r3
 8007e20:	9b05      	ldr	r3, [sp, #20]
 8007e22:	4465      	add	r5, ip
 8007e24:	ea4f 7be8 	mov.w	fp, r8, asr #31
 8007e28:	b163      	cbz	r3, 8007e44 <D48_GENERIC+0x14c>
 8007e2a:	6a17      	ldr	r7, [r2, #32]
 8007e2c:	9402      	str	r4, [sp, #8]
 8007e2e:	fba8 8907 	umull	r8, r9, r8, r7
 8007e32:	fb07 990b 	mla	r9, r7, fp, r9
 8007e36:	f118 4800 	adds.w	r8, r8, #2147483648	; 0x80000000
 8007e3a:	f149 0900 	adc.w	r9, r9, #0
 8007e3e:	ea4f 0749 	mov.w	r7, r9, lsl #1
 8007e42:	463c      	mov	r4, r7
 8007e44:	f8b2 e028 	ldrh.w	lr, [r2, #40]	; 0x28
 8007e48:	9b03      	ldr	r3, [sp, #12]
 8007e4a:	02e4      	lsls	r4, r4, #11
 8007e4c:	f04f 4800 	mov.w	r8, #2147483648	; 0x80000000
 8007e50:	f04f 0900 	mov.w	r9, #0
 8007e54:	fb0c fc0e 	mul.w	ip, ip, lr
 8007e58:	fbc3 8904 	smlal	r8, r9, r3, r4
 8007e5c:	9b04      	ldr	r3, [sp, #16]
 8007e5e:	ea4f 04a9 	mov.w	r4, r9, asr #2
 8007e62:	f304 040f 	ssat	r4, #16, r4
 8007e66:	f823 401c 	strh.w	r4, [r3, ip, lsl #1]
 8007e6a:	8cd4      	ldrh	r4, [r2, #38]	; 0x26
 8007e6c:	fa1f fc85 	uxth.w	ip, r5
 8007e70:	4564      	cmp	r4, ip
 8007e72:	d919      	bls.n	8007ea8 <D48_GENERIC+0x1b0>
 8007e74:	8d54      	ldrh	r4, [r2, #42]	; 0x2a
 8007e76:	fa5f fe84 	uxtb.w	lr, r4
 8007e7a:	eb0e 094e 	add.w	r9, lr, lr, lsl #1
 8007e7e:	f1ce 0500 	rsb	r5, lr, #0
 8007e82:	eb00 0b09 	add.w	fp, r0, r9
 8007e86:	eb0b 0a05 	add.w	sl, fp, r5
 8007e8a:	2c01      	cmp	r4, #1
 8007e8c:	eb0a 0809 	add.w	r8, sl, r9
 8007e90:	f47f af53 	bne.w	8007d3a <D48_GENERIC+0x42>
 8007e94:	9b06      	ldr	r3, [sp, #24]
 8007e96:	6805      	ldr	r5, [r0, #0]
 8007e98:	6844      	ldr	r4, [r0, #4]
 8007e9a:	3006      	adds	r0, #6
 8007e9c:	2b00      	cmp	r3, #0
 8007e9e:	f43f af63 	beq.w	8007d68 <D48_GENERIC+0x70>
 8007ea2:	ba6d      	rev16	r5, r5
 8007ea4:	ba64      	rev16	r4, r4
 8007ea6:	e75f      	b.n	8007d68 <D48_GENERIC+0x70>
 8007ea8:	9b01      	ldr	r3, [sp, #4]
 8007eaa:	46ba      	mov	sl, r7
 8007eac:	6093      	str	r3, [r2, #8]
 8007eae:	9b00      	ldr	r3, [sp, #0]
 8007eb0:	60d3      	str	r3, [r2, #12]
 8007eb2:	9b02      	ldr	r3, [sp, #8]
 8007eb4:	6153      	str	r3, [r2, #20]
 8007eb6:	9b07      	ldr	r3, [sp, #28]
 8007eb8:	61d6      	str	r6, [r2, #28]
 8007eba:	2000      	movs	r0, #0
 8007ebc:	f8c2 a010 	str.w	sl, [r2, #16]
 8007ec0:	6193      	str	r3, [r2, #24]
 8007ec2:	b009      	add	sp, #36	; 0x24
 8007ec4:	e8bd 8ff0 	ldmia.w	sp!, {r4, r5, r6, r7, r8, r9, sl, fp, pc}
 8007ec8:	20000000 	.word	0x20000000
 8007ecc:	000f000a 	.word	0x000f000a
 8007ed0:	00060003 	.word	0x00060003
 8007ed4:	00150019 	.word	0x00150019
 8007ed8:	00190015 	.word	0x00190015
 8007edc:	00030006 	.word	0x00030006
 8007ee0:	000a000f 	.word	0x000a000f

08007ee4 <D64_GENERIC>:
 8007ee4:	e92d 4ff0 	stmdb	sp!, {r4, r5, r6, r7, r8, r9, sl, fp, lr}
 8007ee8:	b089      	sub	sp, #36	; 0x24
 8007eea:	6913      	ldr	r3, [r2, #16]
 8007eec:	6895      	ldr	r5, [r2, #8]
 8007eee:	9303      	str	r3, [sp, #12]
 8007ef0:	9501      	str	r5, [sp, #4]
 8007ef2:	6953      	ldr	r3, [r2, #20]
 8007ef4:	68d5      	ldr	r5, [r2, #12]
 8007ef6:	8cd4      	ldrh	r4, [r2, #38]	; 0x26
 8007ef8:	9304      	str	r3, [sp, #16]
 8007efa:	9500      	str	r5, [sp, #0]
 8007efc:	6993      	ldr	r3, [r2, #24]
 8007efe:	6b15      	ldr	r5, [r2, #48]	; 0x30
 8007f00:	9307      	str	r3, [sp, #28]
 8007f02:	9505      	str	r5, [sp, #20]
 8007f04:	69d3      	ldr	r3, [r2, #28]
 8007f06:	9106      	str	r1, [sp, #24]
 8007f08:	2c00      	cmp	r4, #0
 8007f0a:	f000 80d9 	beq.w	80080c0 <D64_GENERIC+0x1dc>
 8007f0e:	6a11      	ldr	r1, [r2, #32]
 8007f10:	9102      	str	r1, [sp, #8]
 8007f12:	f8df e1ec 	ldr.w	lr, [pc, #492]	; 8008100 <D64_GENERIC+0x21c>
 8007f16:	f04f 0c00 	mov.w	ip, #0
 8007f1a:	4681      	mov	r9, r0
 8007f1c:	e0c1      	b.n	80080a2 <D64_GENERIC+0x1be>
 8007f1e:	eb06 0846 	add.w	r8, r6, r6, lsl #1
 8007f22:	4274      	negs	r4, r6
 8007f24:	eb09 0708 	add.w	r7, r9, r8
 8007f28:	eb07 0a44 	add.w	sl, r7, r4, lsl #1
 8007f2c:	eb0a 0548 	add.w	r5, sl, r8, lsl #1
 8007f30:	5d38      	ldrb	r0, [r7, r4]
 8007f32:	5d29      	ldrb	r1, [r5, r4]
 8007f34:	f81a b018 	ldrb.w	fp, [sl, r8, lsl #1]
 8007f38:	f819 a008 	ldrb.w	sl, [r9, r8]
 8007f3c:	f817 8014 	ldrb.w	r8, [r7, r4, lsl #1]
 8007f40:	f899 7000 	ldrb.w	r7, [r9]
 8007f44:	f815 9014 	ldrb.w	r9, [r5, r4, lsl #1]
 8007f48:	4425      	add	r5, r4
 8007f4a:	0409      	lsls	r1, r1, #16
 8007f4c:	0400      	lsls	r0, r0, #16
 8007f4e:	eb01 610b 	add.w	r1, r1, fp, lsl #24
 8007f52:	eb00 600a 	add.w	r0, r0, sl, lsl #24
 8007f56:	f815 b014 	ldrb.w	fp, [r5, r4, lsl #1]
 8007f5a:	eb01 2109 	add.w	r1, r1, r9, lsl #8
 8007f5e:	eb05 0444 	add.w	r4, r5, r4, lsl #1
 8007f62:	eb00 2008 	add.w	r0, r0, r8, lsl #8
 8007f66:	4459      	add	r1, fp
 8007f68:	eb04 0986 	add.w	r9, r4, r6, lsl #2
 8007f6c:	4438      	add	r0, r7
 8007f6e:	b2c5      	uxtb	r5, r0
 8007f70:	f3c0 2407 	ubfx	r4, r0, #8, #8
 8007f74:	f85e 6025 	ldr.w	r6, [lr, r5, lsl #2]
 8007f78:	f85e 5024 	ldr.w	r5, [lr, r4, lsl #2]
 8007f7c:	f3c0 4407 	ubfx	r4, r0, #16, #8
 8007f80:	0e00      	lsrs	r0, r0, #24
 8007f82:	eb03 0806 	add.w	r8, r3, r6
 8007f86:	f85e 7024 	ldr.w	r7, [lr, r4, lsl #2]
 8007f8a:	f85e 4020 	ldr.w	r4, [lr, r0, lsl #2]
 8007f8e:	f3c1 2307 	ubfx	r3, r1, #8, #8
 8007f92:	b2c8      	uxtb	r0, r1
 8007f94:	eb05 2598 	add.w	r5, r5, r8, lsr #10
 8007f98:	eb07 2795 	add.w	r7, r7, r5, lsr #10
 8007f9c:	f85e 6020 	ldr.w	r6, [lr, r0, lsl #2]
 8007fa0:	f85e 0023 	ldr.w	r0, [lr, r3, lsl #2]
 8007fa4:	f3c1 4307 	ubfx	r3, r1, #16, #8
 8007fa8:	eb04 2497 	add.w	r4, r4, r7, lsr #10
 8007fac:	0e09      	lsrs	r1, r1, #24
 8007fae:	eb06 2694 	add.w	r6, r6, r4, lsr #10
 8007fb2:	f85e 3023 	ldr.w	r3, [lr, r3, lsl #2]
 8007fb6:	f85e 1021 	ldr.w	r1, [lr, r1, lsl #2]
 8007fba:	eb00 2096 	add.w	r0, r0, r6, lsr #10
 8007fbe:	eb03 2a90 	add.w	sl, r3, r0, lsr #10
 8007fc2:	eb01 219a 	add.w	r1, r1, sl, lsr #10
 8007fc6:	f3ca 0309 	ubfx	r3, sl, #0, #10
 8007fca:	f3c5 0509 	ubfx	r5, r5, #0, #10
 8007fce:	f3c4 0409 	ubfx	r4, r4, #0, #10
 8007fd2:	f3c6 0609 	ubfx	r6, r6, #0, #10
 8007fd6:	f3c1 0a09 	ubfx	sl, r1, #0, #10
 8007fda:	f3c8 0809 	ubfx	r8, r8, #0, #10
 8007fde:	f3c7 0709 	ubfx	r7, r7, #0, #10
 8007fe2:	f3c0 0009 	ubfx	r0, r0, #0, #10
 8007fe6:	ea44 4707 	orr.w	r7, r4, r7, lsl #16
 8007fea:	ea4a 4a03 	orr.w	sl, sl, r3, lsl #16
 8007fee:	ea45 4808 	orr.w	r8, r5, r8, lsl #16
 8007ff2:	0a8b      	lsrs	r3, r1, #10
 8007ff4:	ea40 4006 	orr.w	r0, r0, r6, lsl #16
 8007ff8:	4939      	ldr	r1, [pc, #228]	; (80080e0 <D64_GENERIC+0x1fc>)
 8007ffa:	9c00      	ldr	r4, [sp, #0]
 8007ffc:	fb28 4101 	smlad	r1, r8, r1, r4
 8008000:	4c38      	ldr	r4, [pc, #224]	; (80080e4 <D64_GENERIC+0x200>)
 8008002:	fb27 1104 	smlad	r1, r7, r4, r1
 8008006:	4c38      	ldr	r4, [pc, #224]	; (80080e8 <D64_GENERIC+0x204>)
 8008008:	fb20 1104 	smlad	r1, r0, r4, r1
 800800c:	f44f 3680 	mov.w	r6, #65536	; 0x10000
 8008010:	fb2a 1106 	smlad	r1, sl, r6, r1
 8008014:	4c35      	ldr	r4, [pc, #212]	; (80080ec <D64_GENERIC+0x208>)
 8008016:	9d01      	ldr	r5, [sp, #4]
 8008018:	fb28 5404 	smlad	r4, r8, r4, r5
 800801c:	4d33      	ldr	r5, [pc, #204]	; (80080ec <D64_GENERIC+0x208>)
 800801e:	fb2a 4415 	smladx	r4, sl, r5, r4
 8008022:	4d33      	ldr	r5, [pc, #204]	; (80080f0 <D64_GENERIC+0x20c>)
 8008024:	fb27 4405 	smlad	r4, r7, r5, r4
 8008028:	fb20 4415 	smladx	r4, r0, r5, r4
 800802c:	2501      	movs	r5, #1
 800802e:	9400      	str	r4, [sp, #0]
 8008030:	fb28 f805 	smuad	r8, r8, r5
 8008034:	4c2f      	ldr	r4, [pc, #188]	; (80080f4 <D64_GENERIC+0x210>)
 8008036:	fb27 8704 	smlad	r7, r7, r4, r8
 800803a:	4c2f      	ldr	r4, [pc, #188]	; (80080f8 <D64_GENERIC+0x214>)
 800803c:	fb20 7004 	smlad	r0, r0, r4, r7
 8008040:	4c2e      	ldr	r4, [pc, #184]	; (80080fc <D64_GENERIC+0x218>)
 8008042:	fb2a 0004 	smlad	r0, sl, r4, r0
 8008046:	f5a1 3600 	sub.w	r6, r1, #131072	; 0x20000
 800804a:	9902      	ldr	r1, [sp, #8]
 800804c:	9001      	str	r0, [sp, #4]
 800804e:	b189      	cbz	r1, 8008074 <D64_GENERIC+0x190>
 8008050:	9803      	ldr	r0, [sp, #12]
 8008052:	9c04      	ldr	r4, [sp, #16]
 8008054:	9604      	str	r6, [sp, #16]
 8008056:	4430      	add	r0, r6
 8008058:	1b00      	subs	r0, r0, r4
 800805a:	17c5      	asrs	r5, r0, #31
 800805c:	460f      	mov	r7, r1
 800805e:	fba0 0101 	umull	r0, r1, r0, r1
 8008062:	fb07 1105 	mla	r1, r7, r5, r1
 8008066:	f110 4000 	adds.w	r0, r0, #2147483648	; 0x80000000
 800806a:	f141 0100 	adc.w	r1, r1, #0
 800806e:	0049      	lsls	r1, r1, #1
 8008070:	9103      	str	r1, [sp, #12]
 8008072:	460e      	mov	r6, r1
 8008074:	8d14      	ldrh	r4, [r2, #40]	; 0x28
 8008076:	9905      	ldr	r1, [sp, #20]
 8008078:	9806      	ldr	r0, [sp, #24]
 800807a:	02b6      	lsls	r6, r6, #10
 800807c:	f04f 4700 	mov.w	r7, #2147483648	; 0x80000000
 8008080:	f04f 0800 	mov.w	r8, #0
 8008084:	fb0c f404 	mul.w	r4, ip, r4
 8008088:	fbc1 7806 	smlal	r7, r8, r1, r6
 800808c:	4641      	mov	r1, r8
 800808e:	1089      	asrs	r1, r1, #2
 8008090:	f301 010f 	ssat	r1, #16, r1
 8008094:	f820 1014 	strh.w	r1, [r0, r4, lsl #1]
 8008098:	8cd1      	ldrh	r1, [r2, #38]	; 0x26
 800809a:	f10c 0c01 	add.w	ip, ip, #1
 800809e:	4561      	cmp	r1, ip
 80080a0:	dd0e      	ble.n	80080c0 <D64_GENERIC+0x1dc>
 80080a2:	8d56      	ldrh	r6, [r2, #42]	; 0x2a
 80080a4:	2e01      	cmp	r6, #1
 80080a6:	f47f af3a 	bne.w	8007f1e <D64_GENERIC+0x3a>
 80080aa:	6b56      	ldr	r6, [r2, #52]	; 0x34
 80080ac:	06b4      	lsls	r4, r6, #26
 80080ae:	e899 0003 	ldmia.w	r9, {r0, r1}
 80080b2:	f109 0908 	add.w	r9, r9, #8
 80080b6:	f57f af5a 	bpl.w	8007f6e <D64_GENERIC+0x8a>
 80080ba:	ba40      	rev16	r0, r0
 80080bc:	ba49      	rev16	r1, r1
 80080be:	e756      	b.n	8007f6e <D64_GENERIC+0x8a>
 80080c0:	61d3      	str	r3, [r2, #28]
 80080c2:	9b03      	ldr	r3, [sp, #12]
 80080c4:	9901      	ldr	r1, [sp, #4]
 80080c6:	6113      	str	r3, [r2, #16]
 80080c8:	9b04      	ldr	r3, [sp, #16]
 80080ca:	6091      	str	r1, [r2, #8]
 80080cc:	6153      	str	r3, [r2, #20]
 80080ce:	9900      	ldr	r1, [sp, #0]
 80080d0:	9b07      	ldr	r3, [sp, #28]
 80080d2:	60d1      	str	r1, [r2, #12]
 80080d4:	2000      	movs	r0, #0
 80080d6:	6193      	str	r3, [r2, #24]
 80080d8:	b009      	add	sp, #36	; 0x24
 80080da:	e8bd 8ff0 	ldmia.w	sp!, {r4, r5, r6, r7, r8, r9, sl, fp, pc}
 80080de:	bf00      	nop
 80080e0:	001c0015 	.word	0x001c0015
 80080e4:	000f000a 	.word	0x000f000a
 80080e8:	00060003 	.word	0x00060003
 80080ec:	0024002a 	.word	0x0024002a
 80080f0:	002e0030 	.word	0x002e0030
 80080f4:	00030006 	.word	0x00030006
 80080f8:	000a000f 	.word	0x000a000f
 80080fc:	0015001c 	.word	0x0015001c
 8008100:	20000000 	.word	0x20000000

08008104 <D80_GENERIC>:
 8008104:	e92d 4ff0 	stmdb	sp!, {r4, r5, r6, r7, r8, r9, sl, fp, lr}
 8008108:	b08b      	sub	sp, #44	; 0x2c
 800810a:	6914      	ldr	r4, [r2, #16]
 800810c:	9404      	str	r4, [sp, #16]
 800810e:	6954      	ldr	r4, [r2, #20]
 8008110:	9405      	str	r4, [sp, #20]
 8008112:	6994      	ldr	r4, [r2, #24]
 8008114:	9409      	str	r4, [sp, #36]	; 0x24
 8008116:	6894      	ldr	r4, [r2, #8]
 8008118:	9402      	str	r4, [sp, #8]
 800811a:	8cd3      	ldrh	r3, [r2, #38]	; 0x26
 800811c:	68d4      	ldr	r4, [r2, #12]
 800811e:	9401      	str	r4, [sp, #4]
 8008120:	6b14      	ldr	r4, [r2, #48]	; 0x30
 8008122:	f8d2 b01c 	ldr.w	fp, [r2, #28]
 8008126:	9406      	str	r4, [sp, #24]
 8008128:	9107      	str	r1, [sp, #28]
 800812a:	2b00      	cmp	r3, #0
 800812c:	f000 810f 	beq.w	800834e <D80_GENERIC+0x24a>
 8008130:	6a13      	ldr	r3, [r2, #32]
 8008132:	9308      	str	r3, [sp, #32]
 8008134:	2300      	movs	r3, #0
 8008136:	9200      	str	r2, [sp, #0]
 8008138:	f8df 9264 	ldr.w	r9, [pc, #612]	; 80083a0 <D80_GENERIC+0x29c>
 800813c:	f8cd b00c 	str.w	fp, [sp, #12]
 8008140:	461a      	mov	r2, r3
 8008142:	e0ed      	b.n	8008320 <D80_GENERIC+0x21c>
 8008144:	fa5f fc8c 	uxtb.w	ip, ip
 8008148:	fa0f f48c 	sxth.w	r4, ip
 800814c:	0066      	lsls	r6, r4, #1
 800814e:	eb06 0804 	add.w	r8, r6, r4
 8008152:	f1cc 0500 	rsb	r5, ip, #0
 8008156:	eb00 0108 	add.w	r1, r0, r8
 800815a:	eb04 0484 	add.w	r4, r4, r4, lsl #2
 800815e:	194b      	adds	r3, r1, r5
 8008160:	5d49      	ldrb	r1, [r1, r5]
 8008162:	f810 a008 	ldrb.w	sl, [r0, r8]
 8008166:	f813 b004 	ldrb.w	fp, [r3, r4]
 800816a:	f810 c00c 	ldrb.w	ip, [r0, ip]
 800816e:	f890 8000 	ldrb.w	r8, [r0]
 8008172:	eb03 0e04 	add.w	lr, r3, r4
 8008176:	eb0e 0705 	add.w	r7, lr, r5
 800817a:	0409      	lsls	r1, r1, #16
 800817c:	f81e 3005 	ldrb.w	r3, [lr, r5]
 8008180:	f81e e015 	ldrb.w	lr, [lr, r5, lsl #1]
 8008184:	eb01 610a 	add.w	r1, r1, sl, lsl #24
 8008188:	eb07 0a45 	add.w	sl, r7, r5, lsl #1
 800818c:	eb0a 0004 	add.w	r0, sl, r4
 8008190:	041b      	lsls	r3, r3, #16
 8008192:	f81a a004 	ldrb.w	sl, [sl, r4]
 8008196:	f817 7015 	ldrb.w	r7, [r7, r5, lsl #1]
 800819a:	5d44      	ldrb	r4, [r0, r5]
 800819c:	eb03 630b 	add.w	r3, r3, fp, lsl #24
 80081a0:	eb01 210c 	add.w	r1, r1, ip, lsl #8
 80081a4:	4428      	add	r0, r5
 80081a6:	eb03 230e 	add.w	r3, r3, lr, lsl #8
 80081aa:	4441      	add	r1, r8
 80081ac:	4430      	add	r0, r6
 80081ae:	eb04 240a 	add.w	r4, r4, sl, lsl #8
 80081b2:	441f      	add	r7, r3
 80081b4:	b2cd      	uxtb	r5, r1
 80081b6:	f3c1 2307 	ubfx	r3, r1, #8, #8
 80081ba:	f859 6025 	ldr.w	r6, [r9, r5, lsl #2]
 80081be:	f859 e023 	ldr.w	lr, [r9, r3, lsl #2]
 80081c2:	9b03      	ldr	r3, [sp, #12]
 80081c4:	f3c1 4507 	ubfx	r5, r1, #16, #8
 80081c8:	0e09      	lsrs	r1, r1, #24
 80081ca:	4433      	add	r3, r6
 80081cc:	f859 8025 	ldr.w	r8, [r9, r5, lsl #2]
 80081d0:	f859 6021 	ldr.w	r6, [r9, r1, lsl #2]
 80081d4:	b2fd      	uxtb	r5, r7
 80081d6:	eb0e 2193 	add.w	r1, lr, r3, lsr #10
 80081da:	469b      	mov	fp, r3
 80081dc:	f3c7 2307 	ubfx	r3, r7, #8, #8
 80081e0:	eb08 2891 	add.w	r8, r8, r1, lsr #10
 80081e4:	f859 c025 	ldr.w	ip, [r9, r5, lsl #2]
 80081e8:	f859 5023 	ldr.w	r5, [r9, r3, lsl #2]
 80081ec:	f3c7 4e07 	ubfx	lr, r7, #16, #8
 80081f0:	eb06 2698 	add.w	r6, r6, r8, lsr #10
 80081f4:	0e3b      	lsrs	r3, r7, #24
 80081f6:	eb0c 2c96 	add.w	ip, ip, r6, lsr #10
 80081fa:	f859 702e 	ldr.w	r7, [r9, lr, lsl #2]
 80081fe:	f859 3023 	ldr.w	r3, [r9, r3, lsl #2]
 8008202:	fa5f fe84 	uxtb.w	lr, r4
 8008206:	eb05 259c 	add.w	r5, r5, ip, lsr #10
 800820a:	f3c4 2407 	ubfx	r4, r4, #8, #8
 800820e:	eb07 2795 	add.w	r7, r7, r5, lsr #10
 8008212:	f859 e02e 	ldr.w	lr, [r9, lr, lsl #2]
 8008216:	f859 4024 	ldr.w	r4, [r9, r4, lsl #2]
 800821a:	eb03 2397 	add.w	r3, r3, r7, lsr #10
 800821e:	eb0e 2e93 	add.w	lr, lr, r3, lsr #10
 8008222:	eb04 249e 	add.w	r4, r4, lr, lsr #10
 8008226:	f3c1 0109 	ubfx	r1, r1, #0, #10
 800822a:	f3c3 0309 	ubfx	r3, r3, #0, #10
 800822e:	f3cb 0b09 	ubfx	fp, fp, #0, #10
 8008232:	f3c7 0709 	ubfx	r7, r7, #0, #10
 8008236:	f3c6 0609 	ubfx	r6, r6, #0, #10
 800823a:	f3c5 0509 	ubfx	r5, r5, #0, #10
 800823e:	ea41 4b0b 	orr.w	fp, r1, fp, lsl #16
 8008242:	ea43 4707 	orr.w	r7, r3, r7, lsl #16
 8008246:	f3c4 0109 	ubfx	r1, r4, #0, #10
 800824a:	0aa3      	lsrs	r3, r4, #10
 800824c:	f3c8 0809 	ubfx	r8, r8, #0, #10
 8008250:	f3cc 0c09 	ubfx	ip, ip, #0, #10
 8008254:	f3ce 0e09 	ubfx	lr, lr, #0, #10
 8008258:	ea41 4e0e 	orr.w	lr, r1, lr, lsl #16
 800825c:	9303      	str	r3, [sp, #12]
 800825e:	ea46 4808 	orr.w	r8, r6, r8, lsl #16
 8008262:	ea45 4c0c 	orr.w	ip, r5, ip, lsl #16
 8008266:	4b42      	ldr	r3, [pc, #264]	; (8008370 <D80_GENERIC+0x26c>)
 8008268:	9901      	ldr	r1, [sp, #4]
 800826a:	fb2b 1303 	smlad	r3, fp, r3, r1
 800826e:	4941      	ldr	r1, [pc, #260]	; (8008374 <D80_GENERIC+0x270>)
 8008270:	fb28 3301 	smlad	r3, r8, r1, r3
 8008274:	4940      	ldr	r1, [pc, #256]	; (8008378 <D80_GENERIC+0x274>)
 8008276:	fb2c 3301 	smlad	r3, ip, r1, r3
 800827a:	4940      	ldr	r1, [pc, #256]	; (800837c <D80_GENERIC+0x278>)
 800827c:	fb27 3301 	smlad	r3, r7, r1, r3
 8008280:	f44f 3180 	mov.w	r1, #65536	; 0x10000
 8008284:	fb2e 3301 	smlad	r3, lr, r1, r3
 8008288:	493d      	ldr	r1, [pc, #244]	; (8008380 <D80_GENERIC+0x27c>)
 800828a:	9c02      	ldr	r4, [sp, #8]
 800828c:	fb2b 4401 	smlad	r4, fp, r1, r4
 8008290:	493c      	ldr	r1, [pc, #240]	; (8008384 <D80_GENERIC+0x280>)
 8008292:	fb28 4401 	smlad	r4, r8, r1, r4
 8008296:	f04f 114b 	mov.w	r1, #4915275	; 0x4b004b
 800829a:	fb2c 4101 	smlad	r1, ip, r1, r4
 800829e:	4c3a      	ldr	r4, [pc, #232]	; (8008388 <D80_GENERIC+0x284>)
 80082a0:	fb27 1104 	smlad	r1, r7, r4, r1
 80082a4:	4c39      	ldr	r4, [pc, #228]	; (800838c <D80_GENERIC+0x288>)
 80082a6:	fb2e 1104 	smlad	r1, lr, r4, r1
 80082aa:	9101      	str	r1, [sp, #4]
 80082ac:	2101      	movs	r1, #1
 80082ae:	fb2b fb01 	smuad	fp, fp, r1
 80082b2:	4937      	ldr	r1, [pc, #220]	; (8008390 <D80_GENERIC+0x28c>)
 80082b4:	fb28 b801 	smlad	r8, r8, r1, fp
 80082b8:	4d36      	ldr	r5, [pc, #216]	; (8008394 <D80_GENERIC+0x290>)
 80082ba:	fb2c 8c05 	smlad	ip, ip, r5, r8
 80082be:	4d36      	ldr	r5, [pc, #216]	; (8008398 <D80_GENERIC+0x294>)
 80082c0:	fb27 c705 	smlad	r7, r7, r5, ip
 80082c4:	4d35      	ldr	r5, [pc, #212]	; (800839c <D80_GENERIC+0x298>)
 80082c6:	fb2e 7105 	smlad	r1, lr, r5, r7
 80082ca:	9102      	str	r1, [sp, #8]
 80082cc:	9908      	ldr	r1, [sp, #32]
 80082ce:	f5a3 337a 	sub.w	r3, r3, #256000	; 0x3e800
 80082d2:	b181      	cbz	r1, 80082f6 <D80_GENERIC+0x1f2>
 80082d4:	9c04      	ldr	r4, [sp, #16]
 80082d6:	9d05      	ldr	r5, [sp, #20]
 80082d8:	9305      	str	r3, [sp, #20]
 80082da:	441c      	add	r4, r3
 80082dc:	1b64      	subs	r4, r4, r5
 80082de:	17e7      	asrs	r7, r4, #31
 80082e0:	fba4 4501 	umull	r4, r5, r4, r1
 80082e4:	fb01 5507 	mla	r5, r1, r7, r5
 80082e8:	f114 4400 	adds.w	r4, r4, #2147483648	; 0x80000000
 80082ec:	f145 0500 	adc.w	r5, r5, #0
 80082f0:	0069      	lsls	r1, r5, #1
 80082f2:	9104      	str	r1, [sp, #16]
 80082f4:	460b      	mov	r3, r1
 80082f6:	9e00      	ldr	r6, [sp, #0]
 80082f8:	9f06      	ldr	r7, [sp, #24]
 80082fa:	8d31      	ldrh	r1, [r6, #40]	; 0x28
 80082fc:	025b      	lsls	r3, r3, #9
 80082fe:	f04f 4400 	mov.w	r4, #2147483648	; 0x80000000
 8008302:	2500      	movs	r5, #0
 8008304:	fb02 f101 	mul.w	r1, r2, r1
 8008308:	fbc7 4503 	smlal	r4, r5, r7, r3
 800830c:	9c07      	ldr	r4, [sp, #28]
 800830e:	10ab      	asrs	r3, r5, #2
 8008310:	f303 030f 	ssat	r3, #16, r3
 8008314:	f824 3011 	strh.w	r3, [r4, r1, lsl #1]
 8008318:	8cf3      	ldrh	r3, [r6, #38]	; 0x26
 800831a:	3201      	adds	r2, #1
 800831c:	4293      	cmp	r3, r2
 800831e:	dd13      	ble.n	8008348 <D80_GENERIC+0x244>
 8008320:	9b00      	ldr	r3, [sp, #0]
 8008322:	f8b3 c02a 	ldrh.w	ip, [r3, #42]	; 0x2a
 8008326:	f1bc 0f01 	cmp.w	ip, #1
 800832a:	f47f af0b 	bne.w	8008144 <D80_GENERIC+0x40>
 800832e:	6b5b      	ldr	r3, [r3, #52]	; 0x34
 8008330:	6884      	ldr	r4, [r0, #8]
 8008332:	069b      	lsls	r3, r3, #26
 8008334:	e890 0082 	ldmia.w	r0, {r1, r7}
 8008338:	f100 000a 	add.w	r0, r0, #10
 800833c:	f57f af3a 	bpl.w	80081b4 <D80_GENERIC+0xb0>
 8008340:	ba49      	rev16	r1, r1
 8008342:	ba7f      	rev16	r7, r7
 8008344:	ba64      	rev16	r4, r4
 8008346:	e735      	b.n	80081b4 <D80_GENERIC+0xb0>
 8008348:	f8dd b00c 	ldr.w	fp, [sp, #12]
 800834c:	4632      	mov	r2, r6
 800834e:	9b02      	ldr	r3, [sp, #8]
 8008350:	6093      	str	r3, [r2, #8]
 8008352:	9b01      	ldr	r3, [sp, #4]
 8008354:	60d3      	str	r3, [r2, #12]
 8008356:	9b04      	ldr	r3, [sp, #16]
 8008358:	6113      	str	r3, [r2, #16]
 800835a:	9b05      	ldr	r3, [sp, #20]
 800835c:	6153      	str	r3, [r2, #20]
 800835e:	9b09      	ldr	r3, [sp, #36]	; 0x24
 8008360:	f8c2 b01c 	str.w	fp, [r2, #28]
 8008364:	2000      	movs	r0, #0
 8008366:	6193      	str	r3, [r2, #24]
 8008368:	b00b      	add	sp, #44	; 0x2c
 800836a:	e8bd 8ff0 	ldmia.w	sp!, {r4, r5, r6, r7, r8, r9, sl, fp, pc}
 800836e:	bf00      	nop
 8008370:	002d0024 	.word	0x002d0024
 8008374:	001c0015 	.word	0x001c0015
 8008378:	000f000a 	.word	0x000f000a
 800837c:	00060003 	.word	0x00060003
 8008380:	0037003f 	.word	0x0037003f
 8008384:	00450049 	.word	0x00450049
 8008388:	00490045 	.word	0x00490045
 800838c:	003f0037 	.word	0x003f0037
 8008390:	00030006 	.word	0x00030006
 8008394:	000a000f 	.word	0x000a000f
 8008398:	0015001c 	.word	0x0015001c
 800839c:	0024002d 	.word	0x0024002d
 80083a0:	20000000 	.word	0x20000000

080083a4 <D128_GENERIC>:
 80083a4:	e92d 4ff0 	stmdb	sp!, {r4, r5, r6, r7, r8, r9, sl, fp, lr}
 80083a8:	b093      	sub	sp, #76	; 0x4c
 80083aa:	8cd3      	ldrh	r3, [r2, #38]	; 0x26
 80083ac:	9005      	str	r0, [sp, #20]
 80083ae:	4610      	mov	r0, r2
 80083b0:	9201      	str	r2, [sp, #4]
 80083b2:	6912      	ldr	r2, [r2, #16]
 80083b4:	920c      	str	r2, [sp, #48]	; 0x30
 80083b6:	4602      	mov	r2, r0
 80083b8:	6940      	ldr	r0, [r0, #20]
 80083ba:	900d      	str	r0, [sp, #52]	; 0x34
 80083bc:	4610      	mov	r0, r2
 80083be:	4614      	mov	r4, r2
 80083c0:	6992      	ldr	r2, [r2, #24]
 80083c2:	9211      	str	r2, [sp, #68]	; 0x44
 80083c4:	69c2      	ldr	r2, [r0, #28]
 80083c6:	9202      	str	r2, [sp, #8]
 80083c8:	68e2      	ldr	r2, [r4, #12]
 80083ca:	6880      	ldr	r0, [r0, #8]
 80083cc:	9203      	str	r2, [sp, #12]
 80083ce:	6b22      	ldr	r2, [r4, #48]	; 0x30
 80083d0:	9004      	str	r0, [sp, #16]
 80083d2:	920e      	str	r2, [sp, #56]	; 0x38
 80083d4:	910f      	str	r1, [sp, #60]	; 0x3c
 80083d6:	2b00      	cmp	r3, #0
 80083d8:	f000 819b 	beq.w	8008712 <D128_GENERIC+0x36e>
 80083dc:	6a23      	ldr	r3, [r4, #32]
 80083de:	9310      	str	r3, [sp, #64]	; 0x40
 80083e0:	2300      	movs	r3, #0
 80083e2:	f8df 93a8 	ldr.w	r9, [pc, #936]	; 800878c <D128_GENERIC+0x3e8>
 80083e6:	9306      	str	r3, [sp, #24]
 80083e8:	e17a      	b.n	80086e0 <D128_GENERIC+0x33c>
 80083ea:	b2d2      	uxtb	r2, r2
 80083ec:	9d05      	ldr	r5, [sp, #20]
 80083ee:	b214      	sxth	r4, r2
 80083f0:	eb04 0a44 	add.w	sl, r4, r4, lsl #1
 80083f4:	4250      	negs	r0, r2
 80083f6:	eb05 010a 	add.w	r1, r5, sl
 80083fa:	ea4f 0b84 	mov.w	fp, r4, lsl #2
 80083fe:	eb01 0800 	add.w	r8, r1, r0
 8008402:	eb0b 0c04 	add.w	ip, fp, r4
 8008406:	eb08 070c 	add.w	r7, r8, ip
 800840a:	183b      	adds	r3, r7, r0
 800840c:	ebc4 04c4 	rsb	r4, r4, r4, lsl #3
 8008410:	eb03 0e40 	add.w	lr, r3, r0, lsl #1
 8008414:	eb0e 0604 	add.w	r6, lr, r4
 8008418:	9307      	str	r3, [sp, #28]
 800841a:	1833      	adds	r3, r6, r0
 800841c:	9305      	str	r3, [sp, #20]
 800841e:	462b      	mov	r3, r5
 8008420:	f815 a00a 	ldrb.w	sl, [r5, sl]
 8008424:	f8cd a020 	str.w	sl, [sp, #32]
 8008428:	f818 a00c 	ldrb.w	sl, [r8, ip]
 800842c:	f813 c002 	ldrb.w	ip, [r3, r2]
 8008430:	f81e 8004 	ldrb.w	r8, [lr, r4]
 8008434:	5c3a      	ldrb	r2, [r7, r0]
 8008436:	f817 e010 	ldrb.w	lr, [r7, r0, lsl #1]
 800843a:	781f      	ldrb	r7, [r3, #0]
 800843c:	9b07      	ldr	r3, [sp, #28]
 800843e:	9d05      	ldr	r5, [sp, #20]
 8008440:	f813 3010 	ldrb.w	r3, [r3, r0, lsl #1]
 8008444:	5c09      	ldrb	r1, [r1, r0]
 8008446:	9709      	str	r7, [sp, #36]	; 0x24
 8008448:	9307      	str	r3, [sp, #28]
 800844a:	f816 7010 	ldrb.w	r7, [r6, r0, lsl #1]
 800844e:	5c33      	ldrb	r3, [r6, r0]
 8008450:	0412      	lsls	r2, r2, #16
 8008452:	eb05 0640 	add.w	r6, r5, r0, lsl #1
 8008456:	eb02 620a 	add.w	r2, r2, sl, lsl #24
 800845a:	9d08      	ldr	r5, [sp, #32]
 800845c:	eb06 0a04 	add.w	sl, r6, r4
 8008460:	0409      	lsls	r1, r1, #16
 8008462:	eb01 6105 	add.w	r1, r1, r5, lsl #24
 8008466:	f81a 5000 	ldrb.w	r5, [sl, r0]
 800846a:	5d36      	ldrb	r6, [r6, r4]
 800846c:	9c05      	ldr	r4, [sp, #20]
 800846e:	042d      	lsls	r5, r5, #16
 8008470:	eb05 6606 	add.w	r6, r5, r6, lsl #24
 8008474:	eb01 210c 	add.w	r1, r1, ip, lsl #8
 8008478:	f81a 5010 	ldrb.w	r5, [sl, r0, lsl #1]
 800847c:	f814 4010 	ldrb.w	r4, [r4, r0, lsl #1]
 8008480:	eb0a 0c00 	add.w	ip, sl, r0
 8008484:	041b      	lsls	r3, r3, #16
 8008486:	eb03 6308 	add.w	r3, r3, r8, lsl #24
 800848a:	eb06 2605 	add.w	r6, r6, r5, lsl #8
 800848e:	f81c a010 	ldrb.w	sl, [ip, r0, lsl #1]
 8008492:	9d07      	ldr	r5, [sp, #28]
 8008494:	eb03 2307 	add.w	r3, r3, r7, lsl #8
 8008498:	eb0c 0040 	add.w	r0, ip, r0, lsl #1
 800849c:	9f09      	ldr	r7, [sp, #36]	; 0x24
 800849e:	4458      	add	r0, fp
 80084a0:	eb02 220e 	add.w	r2, r2, lr, lsl #8
 80084a4:	9005      	str	r0, [sp, #20]
 80084a6:	4439      	add	r1, r7
 80084a8:	442a      	add	r2, r5
 80084aa:	44b2      	add	sl, r6
 80084ac:	1918      	adds	r0, r3, r4
 80084ae:	b2cb      	uxtb	r3, r1
 80084b0:	f3c1 2407 	ubfx	r4, r1, #8, #8
 80084b4:	9e02      	ldr	r6, [sp, #8]
 80084b6:	f859 3023 	ldr.w	r3, [r9, r3, lsl #2]
 80084ba:	f859 5024 	ldr.w	r5, [r9, r4, lsl #2]
 80084be:	f3c1 4407 	ubfx	r4, r1, #16, #8
 80084c2:	441e      	add	r6, r3
 80084c4:	0e09      	lsrs	r1, r1, #24
 80084c6:	4633      	mov	r3, r6
 80084c8:	f859 6024 	ldr.w	r6, [r9, r4, lsl #2]
 80084cc:	f859 7021 	ldr.w	r7, [r9, r1, lsl #2]
 80084d0:	b2d4      	uxtb	r4, r2
 80084d2:	eb05 2593 	add.w	r5, r5, r3, lsr #10
 80084d6:	f3c2 2107 	ubfx	r1, r2, #8, #8
 80084da:	eb06 2b95 	add.w	fp, r6, r5, lsr #10
 80084de:	f859 6024 	ldr.w	r6, [r9, r4, lsl #2]
 80084e2:	f859 1021 	ldr.w	r1, [r9, r1, lsl #2]
 80084e6:	f3c2 4407 	ubfx	r4, r2, #16, #8
 80084ea:	0e12      	lsrs	r2, r2, #24
 80084ec:	eb07 279b 	add.w	r7, r7, fp, lsr #10
 80084f0:	eb06 2897 	add.w	r8, r6, r7, lsr #10
 80084f4:	f859 6024 	ldr.w	r6, [r9, r4, lsl #2]
 80084f8:	f859 4022 	ldr.w	r4, [r9, r2, lsl #2]
 80084fc:	9702      	str	r7, [sp, #8]
 80084fe:	b2c2      	uxtb	r2, r0
 8008500:	eb01 2198 	add.w	r1, r1, r8, lsr #10
 8008504:	eb06 2c91 	add.w	ip, r6, r1, lsr #10
 8008508:	f859 6022 	ldr.w	r6, [r9, r2, lsl #2]
 800850c:	eb04 249c 	add.w	r4, r4, ip, lsr #10
 8008510:	f3c0 2207 	ubfx	r2, r0, #8, #8
 8008514:	eb06 2e94 	add.w	lr, r6, r4, lsr #10
 8008518:	f3c0 4607 	ubfx	r6, r0, #16, #8
 800851c:	f859 2022 	ldr.w	r2, [r9, r2, lsl #2]
 8008520:	f859 7026 	ldr.w	r7, [r9, r6, lsl #2]
 8008524:	0e00      	lsrs	r0, r0, #24
 8008526:	fa5f f68a 	uxtb.w	r6, sl
 800852a:	f3c3 0309 	ubfx	r3, r3, #0, #10
 800852e:	9309      	str	r3, [sp, #36]	; 0x24
 8008530:	f859 0020 	ldr.w	r0, [r9, r0, lsl #2]
 8008534:	f859 6026 	ldr.w	r6, [r9, r6, lsl #2]
 8008538:	eb02 229e 	add.w	r2, r2, lr, lsr #10
 800853c:	f3ca 2307 	ubfx	r3, sl, #8, #8
 8008540:	f3c5 0509 	ubfx	r5, r5, #0, #10
 8008544:	950a      	str	r5, [sp, #40]	; 0x28
 8008546:	eb07 2792 	add.w	r7, r7, r2, lsr #10
 800854a:	f3ca 4507 	ubfx	r5, sl, #16, #8
 800854e:	eb00 2097 	add.w	r0, r0, r7, lsr #10
 8008552:	f859 3023 	ldr.w	r3, [r9, r3, lsl #2]
 8008556:	f859 5025 	ldr.w	r5, [r9, r5, lsl #2]
 800855a:	f3c2 0209 	ubfx	r2, r2, #0, #10
 800855e:	920b      	str	r2, [sp, #44]	; 0x2c
 8008560:	eb06 2690 	add.w	r6, r6, r0, lsr #10
 8008564:	9a0a      	ldr	r2, [sp, #40]	; 0x28
 8008566:	eb03 2396 	add.w	r3, r3, r6, lsr #10
 800856a:	f3cc 0c09 	ubfx	ip, ip, #0, #10
 800856e:	9307      	str	r3, [sp, #28]
 8008570:	eb05 2593 	add.w	r5, r5, r3, lsr #10
 8008574:	ea4f 6a1a 	mov.w	sl, sl, lsr #24
 8008578:	9b02      	ldr	r3, [sp, #8]
 800857a:	f8cd c008 	str.w	ip, [sp, #8]
 800857e:	4694      	mov	ip, r2
 8008580:	9a09      	ldr	r2, [sp, #36]	; 0x24
 8008582:	f859 a02a 	ldr.w	sl, [r9, sl, lsl #2]
 8008586:	ea4c 4c02 	orr.w	ip, ip, r2, lsl #16
 800858a:	9a02      	ldr	r2, [sp, #8]
 800858c:	f3c4 0409 	ubfx	r4, r4, #0, #10
 8008590:	eb0a 2a95 	add.w	sl, sl, r5, lsr #10
 8008594:	ea44 4402 	orr.w	r4, r4, r2, lsl #16
 8008598:	9a0b      	ldr	r2, [sp, #44]	; 0x2c
 800859a:	f8cd a020 	str.w	sl, [sp, #32]
 800859e:	f3c8 0809 	ubfx	r8, r8, #0, #10
 80085a2:	f3c3 0a09 	ubfx	sl, r3, #0, #10
 80085a6:	f3ce 0e09 	ubfx	lr, lr, #0, #10
 80085aa:	9b07      	ldr	r3, [sp, #28]
 80085ac:	f3c1 0109 	ubfx	r1, r1, #0, #10
 80085b0:	ea41 4108 	orr.w	r1, r1, r8, lsl #16
 80085b4:	ea42 480e 	orr.w	r8, r2, lr, lsl #16
 80085b8:	9a08      	ldr	r2, [sp, #32]
 80085ba:	f3c6 0609 	ubfx	r6, r6, #0, #10
 80085be:	f3c3 0309 	ubfx	r3, r3, #0, #10
 80085c2:	f3cb 0b09 	ubfx	fp, fp, #0, #10
 80085c6:	f3c7 0709 	ubfx	r7, r7, #0, #10
 80085ca:	f3c2 0e09 	ubfx	lr, r2, #0, #10
 80085ce:	ea43 4306 	orr.w	r3, r3, r6, lsl #16
 80085d2:	f3c0 0009 	ubfx	r0, r0, #0, #10
 80085d6:	0a96      	lsrs	r6, r2, #10
 80085d8:	f3c5 0509 	ubfx	r5, r5, #0, #10
 80085dc:	9602      	str	r6, [sp, #8]
 80085de:	ea40 4007 	orr.w	r0, r0, r7, lsl #16
 80085e2:	ea4a 4a0b 	orr.w	sl, sl, fp, lsl #16
 80085e6:	ea4e 4505 	orr.w	r5, lr, r5, lsl #16
 80085ea:	4e53      	ldr	r6, [pc, #332]	; (8008738 <D128_GENERIC+0x394>)
 80085ec:	9f03      	ldr	r7, [sp, #12]
 80085ee:	fb2c 7606 	smlad	r6, ip, r6, r7
 80085f2:	4f52      	ldr	r7, [pc, #328]	; (800873c <D128_GENERIC+0x398>)
 80085f4:	fb2a 6607 	smlad	r6, sl, r7, r6
 80085f8:	4f51      	ldr	r7, [pc, #324]	; (8008740 <D128_GENERIC+0x39c>)
 80085fa:	fb21 6607 	smlad	r6, r1, r7, r6
 80085fe:	4f51      	ldr	r7, [pc, #324]	; (8008744 <D128_GENERIC+0x3a0>)
 8008600:	fb24 6607 	smlad	r6, r4, r7, r6
 8008604:	4f50      	ldr	r7, [pc, #320]	; (8008748 <D128_GENERIC+0x3a4>)
 8008606:	fb28 6607 	smlad	r6, r8, r7, r6
 800860a:	4f50      	ldr	r7, [pc, #320]	; (800874c <D128_GENERIC+0x3a8>)
 800860c:	fb20 6607 	smlad	r6, r0, r7, r6
 8008610:	4f4f      	ldr	r7, [pc, #316]	; (8008750 <D128_GENERIC+0x3ac>)
 8008612:	fb23 6607 	smlad	r6, r3, r7, r6
 8008616:	f44f 3780 	mov.w	r7, #65536	; 0x10000
 800861a:	fb25 6607 	smlad	r6, r5, r7, r6
 800861e:	4f4d      	ldr	r7, [pc, #308]	; (8008754 <D128_GENERIC+0x3b0>)
 8008620:	9a04      	ldr	r2, [sp, #16]
 8008622:	fb2c 2e07 	smlad	lr, ip, r7, r2
 8008626:	4a4c      	ldr	r2, [pc, #304]	; (8008758 <D128_GENERIC+0x3b4>)
 8008628:	fb2a ee02 	smlad	lr, sl, r2, lr
 800862c:	4f4b      	ldr	r7, [pc, #300]	; (800875c <D128_GENERIC+0x3b8>)
 800862e:	fb21 ee07 	smlad	lr, r1, r7, lr
 8008632:	4f4b      	ldr	r7, [pc, #300]	; (8008760 <D128_GENERIC+0x3bc>)
 8008634:	fb24 ee07 	smlad	lr, r4, r7, lr
 8008638:	4f4a      	ldr	r7, [pc, #296]	; (8008764 <D128_GENERIC+0x3c0>)
 800863a:	fb28 ee07 	smlad	lr, r8, r7, lr
 800863e:	4f4a      	ldr	r7, [pc, #296]	; (8008768 <D128_GENERIC+0x3c4>)
 8008640:	fb20 ee07 	smlad	lr, r0, r7, lr
 8008644:	4f49      	ldr	r7, [pc, #292]	; (800876c <D128_GENERIC+0x3c8>)
 8008646:	fb23 e707 	smlad	r7, r3, r7, lr
 800864a:	f8df e144 	ldr.w	lr, [pc, #324]	; 8008790 <D128_GENERIC+0x3ec>
 800864e:	fb25 720e 	smlad	r2, r5, lr, r7
 8008652:	f04f 0b01 	mov.w	fp, #1
 8008656:	9203      	str	r2, [sp, #12]
 8008658:	fb2c fb0b 	smuad	fp, ip, fp
 800865c:	4f44      	ldr	r7, [pc, #272]	; (8008770 <D128_GENERIC+0x3cc>)
 800865e:	fb2a ba07 	smlad	sl, sl, r7, fp
 8008662:	4f44      	ldr	r7, [pc, #272]	; (8008774 <D128_GENERIC+0x3d0>)
 8008664:	fb21 aa07 	smlad	sl, r1, r7, sl
 8008668:	4f43      	ldr	r7, [pc, #268]	; (8008778 <D128_GENERIC+0x3d4>)
 800866a:	fb24 aa07 	smlad	sl, r4, r7, sl
 800866e:	4f43      	ldr	r7, [pc, #268]	; (800877c <D128_GENERIC+0x3d8>)
 8008670:	fb28 a707 	smlad	r7, r8, r7, sl
 8008674:	4a42      	ldr	r2, [pc, #264]	; (8008780 <D128_GENERIC+0x3dc>)
 8008676:	fb20 7702 	smlad	r7, r0, r2, r7
 800867a:	4a42      	ldr	r2, [pc, #264]	; (8008784 <D128_GENERIC+0x3e0>)
 800867c:	fb23 7702 	smlad	r7, r3, r2, r7
 8008680:	4b41      	ldr	r3, [pc, #260]	; (8008788 <D128_GENERIC+0x3e4>)
 8008682:	fb25 7303 	smlad	r3, r5, r3, r7
 8008686:	9d10      	ldr	r5, [sp, #64]	; 0x40
 8008688:	9304      	str	r3, [sp, #16]
 800868a:	f5a6 1680 	sub.w	r6, r6, #1048576	; 0x100000
 800868e:	b185      	cbz	r5, 80086b2 <D128_GENERIC+0x30e>
 8008690:	9a0c      	ldr	r2, [sp, #48]	; 0x30
 8008692:	990d      	ldr	r1, [sp, #52]	; 0x34
 8008694:	960d      	str	r6, [sp, #52]	; 0x34
 8008696:	4432      	add	r2, r6
 8008698:	1a52      	subs	r2, r2, r1
 800869a:	17d1      	asrs	r1, r2, #31
 800869c:	fba2 2305 	umull	r2, r3, r2, r5
 80086a0:	fb05 3301 	mla	r3, r5, r1, r3
 80086a4:	f112 4200 	adds.w	r2, r2, #2147483648	; 0x80000000
 80086a8:	f143 0300 	adc.w	r3, r3, #0
 80086ac:	005b      	lsls	r3, r3, #1
 80086ae:	930c      	str	r3, [sp, #48]	; 0x30
 80086b0:	461e      	mov	r6, r3
 80086b2:	9801      	ldr	r0, [sp, #4]
 80086b4:	9c06      	ldr	r4, [sp, #24]
 80086b6:	8d01      	ldrh	r1, [r0, #40]	; 0x28
 80086b8:	9d0e      	ldr	r5, [sp, #56]	; 0x38
 80086ba:	01f6      	lsls	r6, r6, #7
 80086bc:	f04f 4200 	mov.w	r2, #2147483648	; 0x80000000
 80086c0:	2300      	movs	r3, #0
 80086c2:	fbc5 2306 	smlal	r2, r3, r5, r6
 80086c6:	fb04 f101 	mul.w	r1, r4, r1
 80086ca:	9a0f      	ldr	r2, [sp, #60]	; 0x3c
 80086cc:	109b      	asrs	r3, r3, #2
 80086ce:	f303 030f 	ssat	r3, #16, r3
 80086d2:	f822 3011 	strh.w	r3, [r2, r1, lsl #1]
 80086d6:	8cc3      	ldrh	r3, [r0, #38]	; 0x26
 80086d8:	1c62      	adds	r2, r4, #1
 80086da:	4293      	cmp	r3, r2
 80086dc:	9206      	str	r2, [sp, #24]
 80086de:	dd18      	ble.n	8008712 <D128_GENERIC+0x36e>
 80086e0:	9b01      	ldr	r3, [sp, #4]
 80086e2:	8d5a      	ldrh	r2, [r3, #42]	; 0x2a
 80086e4:	2a01      	cmp	r2, #1
 80086e6:	f47f ae80 	bne.w	80083ea <D128_GENERIC+0x46>
 80086ea:	6b5b      	ldr	r3, [r3, #52]	; 0x34
 80086ec:	9d05      	ldr	r5, [sp, #20]
 80086ee:	069b      	lsls	r3, r3, #26
 80086f0:	6829      	ldr	r1, [r5, #0]
 80086f2:	686a      	ldr	r2, [r5, #4]
 80086f4:	68a8      	ldr	r0, [r5, #8]
 80086f6:	f8d5 a00c 	ldr.w	sl, [r5, #12]
 80086fa:	f105 0410 	add.w	r4, r5, #16
 80086fe:	d506      	bpl.n	800870e <D128_GENERIC+0x36a>
 8008700:	ba49      	rev16	r1, r1
 8008702:	ba52      	rev16	r2, r2
 8008704:	ba40      	rev16	r0, r0
 8008706:	fa9a fa9a 	rev16.w	sl, sl
 800870a:	9405      	str	r4, [sp, #20]
 800870c:	e6cf      	b.n	80084ae <D128_GENERIC+0x10a>
 800870e:	9405      	str	r4, [sp, #20]
 8008710:	e6cd      	b.n	80084ae <D128_GENERIC+0x10a>
 8008712:	9a01      	ldr	r2, [sp, #4]
 8008714:	9904      	ldr	r1, [sp, #16]
 8008716:	6091      	str	r1, [r2, #8]
 8008718:	9903      	ldr	r1, [sp, #12]
 800871a:	60d1      	str	r1, [r2, #12]
 800871c:	9b02      	ldr	r3, [sp, #8]
 800871e:	61d3      	str	r3, [r2, #28]
 8008720:	4611      	mov	r1, r2
 8008722:	4613      	mov	r3, r2
 8008724:	9a0c      	ldr	r2, [sp, #48]	; 0x30
 8008726:	610a      	str	r2, [r1, #16]
 8008728:	990d      	ldr	r1, [sp, #52]	; 0x34
 800872a:	6159      	str	r1, [r3, #20]
 800872c:	9911      	ldr	r1, [sp, #68]	; 0x44
 800872e:	6199      	str	r1, [r3, #24]
 8008730:	2000      	movs	r0, #0
 8008732:	b013      	add	sp, #76	; 0x4c
 8008734:	e8bd 8ff0 	ldmia.w	sp!, {r4, r5, r6, r7, r8, r9, sl, fp, pc}
 8008738:	00780069 	.word	0x00780069
 800873c:	005b004e 	.word	0x005b004e
 8008740:	00420037 	.word	0x00420037
 8008744:	002d0024 	.word	0x002d0024
 8008748:	001c0015 	.word	0x001c0015
 800874c:	000f000a 	.word	0x000f000a
 8008750:	00060003 	.word	0x00060003
 8008754:	00880096 	.word	0x00880096
 8008758:	00a200ac 	.word	0x00a200ac
 800875c:	00b400ba 	.word	0x00b400ba
 8008760:	00be00c0 	.word	0x00be00c0
 8008764:	00c000be 	.word	0x00c000be
 8008768:	00ba00b4 	.word	0x00ba00b4
 800876c:	00ac00a2 	.word	0x00ac00a2
 8008770:	00030006 	.word	0x00030006
 8008774:	000a000f 	.word	0x000a000f
 8008778:	0015001c 	.word	0x0015001c
 800877c:	0024002d 	.word	0x0024002d
 8008780:	00370042 	.word	0x00370042
 8008784:	004e005b 	.word	0x004e005b
 8008788:	00690078 	.word	0x00690078
 800878c:	20000000 	.word	0x20000000
 8008790:	00960088 	.word	0x00960088

08008794 <D16_1CH_HTONS_VOL_HP>:
 8008794:	e92d 4ff0 	stmdb	sp!, {r4, r5, r6, r7, r8, r9, sl, fp, lr}
 8008798:	4691      	mov	r9, r2
 800879a:	b083      	sub	sp, #12
 800879c:	8cd2      	ldrh	r2, [r2, #38]	; 0x26
 800879e:	f8d9 3018 	ldr.w	r3, [r9, #24]
 80087a2:	f8d9 400c 	ldr.w	r4, [r9, #12]
 80087a6:	9300      	str	r3, [sp, #0]
 80087a8:	4680      	mov	r8, r0
 80087aa:	f8d9 7014 	ldr.w	r7, [r9, #20]
 80087ae:	f8d9 0010 	ldr.w	r0, [r9, #16]
 80087b2:	f8d9 301c 	ldr.w	r3, [r9, #28]
 80087b6:	f8d9 5008 	ldr.w	r5, [r9, #8]
 80087ba:	9401      	str	r4, [sp, #4]
 80087bc:	f8d9 a030 	ldr.w	sl, [r9, #48]	; 0x30
 80087c0:	f8d9 e020 	ldr.w	lr, [r9, #32]
 80087c4:	2a00      	cmp	r2, #0
 80087c6:	d04e      	beq.n	8008866 <D16_1CH_HTONS_VOL_HP+0xd2>
 80087c8:	f8df c0a8 	ldr.w	ip, [pc, #168]	; 8008874 <D16_1CH_HTONS_VOL_HP+0xe0>
 80087cc:	1e8c      	subs	r4, r1, #2
 80087ce:	eb08 0b42 	add.w	fp, r8, r2, lsl #1
 80087d2:	f858 2b02 	ldr.w	r2, [r8], #2
 80087d6:	ba52      	rev16	r2, r2
 80087d8:	b2d6      	uxtb	r6, r2
 80087da:	f3c2 2107 	ubfx	r1, r2, #8, #8
 80087de:	f85c 2026 	ldr.w	r2, [ip, r6, lsl #2]
 80087e2:	f85c 1021 	ldr.w	r1, [ip, r1, lsl #2]
 80087e6:	4413      	add	r3, r2
 80087e8:	eb01 2293 	add.w	r2, r1, r3, lsr #10
 80087ec:	f3c2 0109 	ubfx	r1, r2, #0, #10
 80087f0:	f3c3 0309 	ubfx	r3, r3, #0, #10
 80087f4:	ea41 4103 	orr.w	r1, r1, r3, lsl #16
 80087f8:	0a93      	lsrs	r3, r2, #10
 80087fa:	4a1c      	ldr	r2, [pc, #112]	; (800886c <D16_1CH_HTONS_VOL_HP+0xd8>)
 80087fc:	fb21 5202 	smlad	r2, r1, r2, r5
 8008800:	4d1b      	ldr	r5, [pc, #108]	; (8008870 <D16_1CH_HTONS_VOL_HP+0xdc>)
 8008802:	fb21 f505 	smuad	r5, r1, r5
 8008806:	f5a2 6200 	sub.w	r2, r2, #2048	; 0x800
 800880a:	4410      	add	r0, r2
 800880c:	1bc0      	subs	r0, r0, r7
 800880e:	17c7      	asrs	r7, r0, #31
 8008810:	fba0 010e 	umull	r0, r1, r0, lr
 8008814:	f110 4000 	adds.w	r0, r0, #2147483648	; 0x80000000
 8008818:	fb0e 1107 	mla	r1, lr, r7, r1
 800881c:	f141 0100 	adc.w	r1, r1, #0
 8008820:	0448      	lsls	r0, r1, #17
 8008822:	f04f 4600 	mov.w	r6, #2147483648	; 0x80000000
 8008826:	2700      	movs	r7, #0
 8008828:	fbc0 670a 	smlal	r6, r7, r0, sl
 800882c:	45d8      	cmp	r8, fp
 800882e:	ea4f 0041 	mov.w	r0, r1, lsl #1
 8008832:	ea4f 01a7 	mov.w	r1, r7, asr #2
 8008836:	4617      	mov	r7, r2
 8008838:	f301 010f 	ssat	r1, #16, r1
 800883c:	f824 1f02 	strh.w	r1, [r4, #2]!
 8008840:	d1c7      	bne.n	80087d2 <D16_1CH_HTONS_VOL_HP+0x3e>
 8008842:	9901      	ldr	r1, [sp, #4]
 8008844:	f8c9 301c 	str.w	r3, [r9, #28]
 8008848:	9b00      	ldr	r3, [sp, #0]
 800884a:	f8c9 0010 	str.w	r0, [r9, #16]
 800884e:	2000      	movs	r0, #0
 8008850:	f8c9 5008 	str.w	r5, [r9, #8]
 8008854:	f8c9 100c 	str.w	r1, [r9, #12]
 8008858:	f8c9 2014 	str.w	r2, [r9, #20]
 800885c:	f8c9 3018 	str.w	r3, [r9, #24]
 8008860:	b003      	add	sp, #12
 8008862:	e8bd 8ff0 	ldmia.w	sp!, {r4, r5, r6, r7, r8, r9, sl, fp, pc}
 8008866:	463a      	mov	r2, r7
 8008868:	4621      	mov	r1, r4
 800886a:	e7eb      	b.n	8008844 <D16_1CH_HTONS_VOL_HP+0xb0>
 800886c:	00030001 	.word	0x00030001
 8008870:	00010003 	.word	0x00010003
 8008874:	20000000 	.word	0x20000000

08008878 <D24_1CH_HTONS_VOL_HP>:
 8008878:	e92d 4ff0 	stmdb	sp!, {r4, r5, r6, r7, r8, r9, sl, fp, lr}
 800887c:	b089      	sub	sp, #36	; 0x24
 800887e:	8cd3      	ldrh	r3, [r2, #38]	; 0x26
 8008880:	6996      	ldr	r6, [r2, #24]
 8008882:	9304      	str	r3, [sp, #16]
 8008884:	6b17      	ldr	r7, [r2, #48]	; 0x30
 8008886:	9207      	str	r2, [sp, #28]
 8008888:	6915      	ldr	r5, [r2, #16]
 800888a:	6954      	ldr	r4, [r2, #20]
 800888c:	9606      	str	r6, [sp, #24]
 800888e:	6893      	ldr	r3, [r2, #8]
 8008890:	69d6      	ldr	r6, [r2, #28]
 8008892:	f8d2 c00c 	ldr.w	ip, [r2, #12]
 8008896:	f8d2 a020 	ldr.w	sl, [r2, #32]
 800889a:	9a04      	ldr	r2, [sp, #16]
 800889c:	9705      	str	r7, [sp, #20]
 800889e:	2a00      	cmp	r2, #0
 80088a0:	d07e      	beq.n	80089a0 <D24_1CH_HTONS_VOL_HP+0x128>
 80088a2:	f1a1 0b02 	sub.w	fp, r1, #2
 80088a6:	2700      	movs	r7, #0
 80088a8:	46a8      	mov	r8, r5
 80088aa:	f8cd b004 	str.w	fp, [sp, #4]
 80088ae:	4655      	mov	r5, sl
 80088b0:	46e3      	mov	fp, ip
 80088b2:	f8df e0f8 	ldr.w	lr, [pc, #248]	; 80089ac <D24_1CH_HTONS_VOL_HP+0x134>
 80088b6:	46ba      	mov	sl, r7
 80088b8:	469c      	mov	ip, r3
 80088ba:	e055      	b.n	8008968 <D24_1CH_HTONS_VOL_HP+0xf0>
 80088bc:	7802      	ldrb	r2, [r0, #0]
 80088be:	78c3      	ldrb	r3, [r0, #3]
 80088c0:	7841      	ldrb	r1, [r0, #1]
 80088c2:	0212      	lsls	r2, r2, #8
 80088c4:	eb02 4303 	add.w	r3, r2, r3, lsl #16
 80088c8:	440b      	add	r3, r1
 80088ca:	3002      	adds	r0, #2
 80088cc:	b2d9      	uxtb	r1, r3
 80088ce:	f3c3 2207 	ubfx	r2, r3, #8, #8
 80088d2:	f85e 7021 	ldr.w	r7, [lr, r1, lsl #2]
 80088d6:	f85e 2022 	ldr.w	r2, [lr, r2, lsl #2]
 80088da:	0c1b      	lsrs	r3, r3, #16
 80088dc:	eb07 2796 	add.w	r7, r7, r6, lsr #10
 80088e0:	eb02 2297 	add.w	r2, r2, r7, lsr #10
 80088e4:	f85e 6023 	ldr.w	r6, [lr, r3, lsl #2]
 80088e8:	f3c7 0309 	ubfx	r3, r7, #0, #10
 80088ec:	f3c2 0709 	ubfx	r7, r2, #0, #10
 80088f0:	eb06 2692 	add.w	r6, r6, r2, lsr #10
 80088f4:	ea47 4303 	orr.w	r3, r7, r3, lsl #16
 80088f8:	4a2a      	ldr	r2, [pc, #168]	; (80089a4 <D24_1CH_HTONS_VOL_HP+0x12c>)
 80088fa:	fb23 b102 	smlad	r1, r3, r2, fp
 80088fe:	4a2a      	ldr	r2, [pc, #168]	; (80089a8 <D24_1CH_HTONS_VOL_HP+0x130>)
 8008900:	fb23 cb02 	smlad	fp, r3, r2, ip
 8008904:	f3c6 0c09 	ubfx	ip, r6, #0, #10
 8008908:	eb0c 0c4c 	add.w	ip, ip, ip, lsl #1
 800890c:	eb0b 0b4c 	add.w	fp, fp, ip, lsl #1
 8008910:	2201      	movs	r2, #1
 8008912:	fb23 f702 	smuad	r7, r3, r2
 8008916:	f5a1 51d8 	sub.w	r1, r1, #6912	; 0x1b00
 800891a:	eb01 0208 	add.w	r2, r1, r8
 800891e:	1b12      	subs	r2, r2, r4
 8008920:	17d4      	asrs	r4, r2, #31
 8008922:	fba2 2305 	umull	r2, r3, r2, r5
 8008926:	f112 4200 	adds.w	r2, r2, #2147483648	; 0x80000000
 800892a:	fb05 3304 	mla	r3, r5, r4, r3
 800892e:	f143 0300 	adc.w	r3, r3, #0
 8008932:	9c05      	ldr	r4, [sp, #20]
 8008934:	03da      	lsls	r2, r3, #15
 8008936:	f04f 4800 	mov.w	r8, #2147483648	; 0x80000000
 800893a:	f04f 0900 	mov.w	r9, #0
 800893e:	fbc4 8902 	smlal	r8, r9, r4, r2
 8008942:	e9cd 8902 	strd	r8, r9, [sp, #8]
 8008946:	9a01      	ldr	r2, [sp, #4]
 8008948:	ea4f 0843 	mov.w	r8, r3, lsl #1
 800894c:	9b03      	ldr	r3, [sp, #12]
 800894e:	109b      	asrs	r3, r3, #2
 8008950:	f303 030f 	ssat	r3, #16, r3
 8008954:	f822 3f02 	strh.w	r3, [r2, #2]!
 8008958:	9b04      	ldr	r3, [sp, #16]
 800895a:	9201      	str	r2, [sp, #4]
 800895c:	f10a 0a01 	add.w	sl, sl, #1
 8008960:	459a      	cmp	sl, r3
 8008962:	44bc      	add	ip, r7
 8008964:	460c      	mov	r4, r1
 8008966:	d00b      	beq.n	8008980 <D24_1CH_HTONS_VOL_HP+0x108>
 8008968:	f01a 0f01 	tst.w	sl, #1
 800896c:	d0a6      	beq.n	80088bc <D24_1CH_HTONS_VOL_HP+0x44>
 800896e:	78c2      	ldrb	r2, [r0, #3]
 8008970:	7883      	ldrb	r3, [r0, #2]
 8008972:	f810 1b04 	ldrb.w	r1, [r0], #4
 8008976:	0212      	lsls	r2, r2, #8
 8008978:	eb02 4303 	add.w	r3, r2, r3, lsl #16
 800897c:	440b      	add	r3, r1
 800897e:	e7a5      	b.n	80088cc <D24_1CH_HTONS_VOL_HP+0x54>
 8008980:	4663      	mov	r3, ip
 8008982:	4645      	mov	r5, r8
 8008984:	46dc      	mov	ip, fp
 8008986:	9807      	ldr	r0, [sp, #28]
 8008988:	6141      	str	r1, [r0, #20]
 800898a:	9906      	ldr	r1, [sp, #24]
 800898c:	6083      	str	r3, [r0, #8]
 800898e:	f8c0 c00c 	str.w	ip, [r0, #12]
 8008992:	61c6      	str	r6, [r0, #28]
 8008994:	6105      	str	r5, [r0, #16]
 8008996:	6181      	str	r1, [r0, #24]
 8008998:	2000      	movs	r0, #0
 800899a:	b009      	add	sp, #36	; 0x24
 800899c:	e8bd 8ff0 	ldmia.w	sp!, {r4, r5, r6, r7, r8, r9, sl, fp, pc}
 80089a0:	4621      	mov	r1, r4
 80089a2:	e7f0      	b.n	8008986 <D24_1CH_HTONS_VOL_HP+0x10e>
 80089a4:	00030001 	.word	0x00030001
 80089a8:	00060007 	.word	0x00060007
 80089ac:	20000000 	.word	0x20000000

080089b0 <D32_1CH_HTONS_VOL_HP>:
 80089b0:	e92d 4ff0 	stmdb	sp!, {r4, r5, r6, r7, r8, r9, sl, fp, lr}
 80089b4:	4692      	mov	sl, r2
 80089b6:	b087      	sub	sp, #28
 80089b8:	8cd2      	ldrh	r2, [r2, #38]	; 0x26
 80089ba:	f8da 3018 	ldr.w	r3, [sl, #24]
 80089be:	f8da 5030 	ldr.w	r5, [sl, #48]	; 0x30
 80089c2:	9304      	str	r3, [sp, #16]
 80089c4:	f8da 4010 	ldr.w	r4, [sl, #16]
 80089c8:	f8da 8014 	ldr.w	r8, [sl, #20]
 80089cc:	f8da 601c 	ldr.w	r6, [sl, #28]
 80089d0:	f8da 3008 	ldr.w	r3, [sl, #8]
 80089d4:	f8da e00c 	ldr.w	lr, [sl, #12]
 80089d8:	9501      	str	r5, [sp, #4]
 80089da:	f8da c020 	ldr.w	ip, [sl, #32]
 80089de:	2a00      	cmp	r2, #0
 80089e0:	d07b      	beq.n	8008ada <D32_1CH_HTONS_VOL_HP+0x12a>
 80089e2:	eb01 0242 	add.w	r2, r1, r2, lsl #1
 80089e6:	4f3e      	ldr	r7, [pc, #248]	; (8008ae0 <D32_1CH_HTONS_VOL_HP+0x130>)
 80089e8:	f8cd c00c 	str.w	ip, [sp, #12]
 80089ec:	9202      	str	r2, [sp, #8]
 80089ee:	460d      	mov	r5, r1
 80089f0:	46a1      	mov	r9, r4
 80089f2:	4684      	mov	ip, r0
 80089f4:	f8cd a014 	str.w	sl, [sp, #20]
 80089f8:	f85c 1b04 	ldr.w	r1, [ip], #4
 80089fc:	ba49      	rev16	r1, r1
 80089fe:	b2c8      	uxtb	r0, r1
 8008a00:	f3c1 2207 	ubfx	r2, r1, #8, #8
 8008a04:	f3c1 4a07 	ubfx	sl, r1, #16, #8
 8008a08:	f857 0020 	ldr.w	r0, [r7, r0, lsl #2]
 8008a0c:	f857 2022 	ldr.w	r2, [r7, r2, lsl #2]
 8008a10:	0e09      	lsrs	r1, r1, #24
 8008a12:	eb00 2096 	add.w	r0, r0, r6, lsr #10
 8008a16:	f857 602a 	ldr.w	r6, [r7, sl, lsl #2]
 8008a1a:	f857 1021 	ldr.w	r1, [r7, r1, lsl #2]
 8008a1e:	eb02 2290 	add.w	r2, r2, r0, lsr #10
 8008a22:	eb06 2a92 	add.w	sl, r6, r2, lsr #10
 8008a26:	eb01 269a 	add.w	r6, r1, sl, lsr #10
 8008a2a:	f3c2 0209 	ubfx	r2, r2, #0, #10
 8008a2e:	f3c6 0109 	ubfx	r1, r6, #0, #10
 8008a32:	f3c0 0009 	ubfx	r0, r0, #0, #10
 8008a36:	f3ca 0a09 	ubfx	sl, sl, #0, #10
 8008a3a:	ea42 4000 	orr.w	r0, r2, r0, lsl #16
 8008a3e:	ea41 4a0a 	orr.w	sl, r1, sl, lsl #16
 8008a42:	4a28      	ldr	r2, [pc, #160]	; (8008ae4 <D32_1CH_HTONS_VOL_HP+0x134>)
 8008a44:	fb20 e202 	smlad	r2, r0, r2, lr
 8008a48:	f44f 3180 	mov.w	r1, #65536	; 0x10000
 8008a4c:	fb2a 2101 	smlad	r1, sl, r1, r2
 8008a50:	4a25      	ldr	r2, [pc, #148]	; (8008ae8 <D32_1CH_HTONS_VOL_HP+0x138>)
 8008a52:	fb20 3302 	smlad	r3, r0, r2, r3
 8008a56:	4a25      	ldr	r2, [pc, #148]	; (8008aec <D32_1CH_HTONS_VOL_HP+0x13c>)
 8008a58:	fb2a 3e02 	smlad	lr, sl, r2, r3
 8008a5c:	2301      	movs	r3, #1
 8008a5e:	fb20 f003 	smuad	r0, r0, r3
 8008a62:	4b23      	ldr	r3, [pc, #140]	; (8008af0 <D32_1CH_HTONS_VOL_HP+0x140>)
 8008a64:	fb2a 0303 	smlad	r3, sl, r3, r0
 8008a68:	f5a1 4280 	sub.w	r2, r1, #16384	; 0x4000
 8008a6c:	9c03      	ldr	r4, [sp, #12]
 8008a6e:	eb02 0009 	add.w	r0, r2, r9
 8008a72:	eba0 0008 	sub.w	r0, r0, r8
 8008a76:	ea4f 7be0 	mov.w	fp, r0, asr #31
 8008a7a:	fba0 0104 	umull	r0, r1, r0, r4
 8008a7e:	f110 4000 	adds.w	r0, r0, #2147483648	; 0x80000000
 8008a82:	fb04 110b 	mla	r1, r4, fp, r1
 8008a86:	f141 0100 	adc.w	r1, r1, #0
 8008a8a:	9c01      	ldr	r4, [sp, #4]
 8008a8c:	0388      	lsls	r0, r1, #14
 8008a8e:	f04f 4800 	mov.w	r8, #2147483648	; 0x80000000
 8008a92:	f04f 0900 	mov.w	r9, #0
 8008a96:	fbc0 8904 	smlal	r8, r9, r0, r4
 8008a9a:	ea4f 00a9 	mov.w	r0, r9, asr #2
 8008a9e:	ea4f 0941 	mov.w	r9, r1, lsl #1
 8008aa2:	f300 000f 	ssat	r0, #16, r0
 8008aa6:	9902      	ldr	r1, [sp, #8]
 8008aa8:	f825 0b02 	strh.w	r0, [r5], #2
 8008aac:	428d      	cmp	r5, r1
 8008aae:	4690      	mov	r8, r2
 8008ab0:	d1a2      	bne.n	80089f8 <D32_1CH_HTONS_VOL_HP+0x48>
 8008ab2:	f8dd a014 	ldr.w	sl, [sp, #20]
 8008ab6:	464c      	mov	r4, r9
 8008ab8:	f8ca 3008 	str.w	r3, [sl, #8]
 8008abc:	9b04      	ldr	r3, [sp, #16]
 8008abe:	f8ca e00c 	str.w	lr, [sl, #12]
 8008ac2:	2000      	movs	r0, #0
 8008ac4:	f8ca 601c 	str.w	r6, [sl, #28]
 8008ac8:	f8ca 4010 	str.w	r4, [sl, #16]
 8008acc:	f8ca 2014 	str.w	r2, [sl, #20]
 8008ad0:	f8ca 3018 	str.w	r3, [sl, #24]
 8008ad4:	b007      	add	sp, #28
 8008ad6:	e8bd 8ff0 	ldmia.w	sp!, {r4, r5, r6, r7, r8, r9, sl, fp, pc}
 8008ada:	4642      	mov	r2, r8
 8008adc:	e7ec      	b.n	8008ab8 <D32_1CH_HTONS_VOL_HP+0x108>
 8008ade:	bf00      	nop
 8008ae0:	20000000 	.word	0x20000000
 8008ae4:	00060003 	.word	0x00060003
 8008ae8:	000a000c 	.word	0x000a000c
 8008aec:	000c000a 	.word	0x000c000a
 8008af0:	00030006 	.word	0x00030006

08008af4 <D48_1CH_HTONS_VOL_HP>:
 8008af4:	e92d 4ff0 	stmdb	sp!, {r4, r5, r6, r7, r8, r9, sl, fp, lr}
 8008af8:	4613      	mov	r3, r2
 8008afa:	461c      	mov	r4, r3
 8008afc:	b087      	sub	sp, #28
 8008afe:	4625      	mov	r5, r4
 8008b00:	4626      	mov	r6, r4
 8008b02:	6b2d      	ldr	r5, [r5, #48]	; 0x30
 8008b04:	9205      	str	r2, [sp, #20]
 8008b06:	8cd2      	ldrh	r2, [r2, #38]	; 0x26
 8008b08:	f8d3 9014 	ldr.w	r9, [r3, #20]
 8008b0c:	9501      	str	r5, [sp, #4]
 8008b0e:	4680      	mov	r8, r0
 8008b10:	6a35      	ldr	r5, [r6, #32]
 8008b12:	6918      	ldr	r0, [r3, #16]
 8008b14:	699b      	ldr	r3, [r3, #24]
 8008b16:	9304      	str	r3, [sp, #16]
 8008b18:	f8d4 e01c 	ldr.w	lr, [r4, #28]
 8008b1c:	68a3      	ldr	r3, [r4, #8]
 8008b1e:	9502      	str	r5, [sp, #8]
 8008b20:	68e4      	ldr	r4, [r4, #12]
 8008b22:	2a00      	cmp	r2, #0
 8008b24:	f000 808c 	beq.w	8008c40 <D48_1CH_HTONS_VOL_HP+0x14c>
 8008b28:	eb01 0242 	add.w	r2, r1, r2, lsl #1
 8008b2c:	4d45      	ldr	r5, [pc, #276]	; (8008c44 <D48_1CH_HTONS_VOL_HP+0x150>)
 8008b2e:	9203      	str	r2, [sp, #12]
 8008b30:	468c      	mov	ip, r1
 8008b32:	e898 0044 	ldmia.w	r8, {r2, r6}
 8008b36:	f108 0806 	add.w	r8, r8, #6
 8008b3a:	ba52      	rev16	r2, r2
 8008b3c:	ba76      	rev16	r6, r6
 8008b3e:	b2d7      	uxtb	r7, r2
 8008b40:	f3c2 2107 	ubfx	r1, r2, #8, #8
 8008b44:	f855 a027 	ldr.w	sl, [r5, r7, lsl #2]
 8008b48:	f855 1021 	ldr.w	r1, [r5, r1, lsl #2]
 8008b4c:	f3c2 4707 	ubfx	r7, r2, #16, #8
 8008b50:	0e12      	lsrs	r2, r2, #24
 8008b52:	eb0a 2a9e 	add.w	sl, sl, lr, lsr #10
 8008b56:	f855 7027 	ldr.w	r7, [r5, r7, lsl #2]
 8008b5a:	f855 2022 	ldr.w	r2, [r5, r2, lsl #2]
 8008b5e:	fa5f fb86 	uxtb.w	fp, r6
 8008b62:	eb01 219a 	add.w	r1, r1, sl, lsr #10
 8008b66:	f3c6 2e07 	ubfx	lr, r6, #8, #8
 8008b6a:	eb07 2791 	add.w	r7, r7, r1, lsr #10
 8008b6e:	f855 602b 	ldr.w	r6, [r5, fp, lsl #2]
 8008b72:	f855 e02e 	ldr.w	lr, [r5, lr, lsl #2]
 8008b76:	eb02 2297 	add.w	r2, r2, r7, lsr #10
 8008b7a:	eb06 2692 	add.w	r6, r6, r2, lsr #10
 8008b7e:	eb0e 2e96 	add.w	lr, lr, r6, lsr #10
 8008b82:	f3c1 0109 	ubfx	r1, r1, #0, #10
 8008b86:	f3c2 0209 	ubfx	r2, r2, #0, #10
 8008b8a:	f3ce 0b09 	ubfx	fp, lr, #0, #10
 8008b8e:	f3ca 0a09 	ubfx	sl, sl, #0, #10
 8008b92:	f3c7 0709 	ubfx	r7, r7, #0, #10
 8008b96:	f3c6 0609 	ubfx	r6, r6, #0, #10
 8008b9a:	ea42 4707 	orr.w	r7, r2, r7, lsl #16
 8008b9e:	ea41 4a0a 	orr.w	sl, r1, sl, lsl #16
 8008ba2:	ea4b 4606 	orr.w	r6, fp, r6, lsl #16
 8008ba6:	4a28      	ldr	r2, [pc, #160]	; (8008c48 <D48_1CH_HTONS_VOL_HP+0x154>)
 8008ba8:	fb2a 4202 	smlad	r2, sl, r2, r4
 8008bac:	4927      	ldr	r1, [pc, #156]	; (8008c4c <D48_1CH_HTONS_VOL_HP+0x158>)
 8008bae:	fb27 2201 	smlad	r2, r7, r1, r2
 8008bb2:	f44f 3180 	mov.w	r1, #65536	; 0x10000
 8008bb6:	fb26 2201 	smlad	r2, r6, r1, r2
 8008bba:	4925      	ldr	r1, [pc, #148]	; (8008c50 <D48_1CH_HTONS_VOL_HP+0x15c>)
 8008bbc:	fb2a 3401 	smlad	r4, sl, r1, r3
 8008bc0:	f04f 131b 	mov.w	r3, #1769499	; 0x1b001b
 8008bc4:	fb27 4403 	smlad	r4, r7, r3, r4
 8008bc8:	4b22      	ldr	r3, [pc, #136]	; (8008c54 <D48_1CH_HTONS_VOL_HP+0x160>)
 8008bca:	fb26 4403 	smlad	r4, r6, r3, r4
 8008bce:	2101      	movs	r1, #1
 8008bd0:	fb2a fa01 	smuad	sl, sl, r1
 8008bd4:	4b20      	ldr	r3, [pc, #128]	; (8008c58 <D48_1CH_HTONS_VOL_HP+0x164>)
 8008bd6:	fb27 a703 	smlad	r7, r7, r3, sl
 8008bda:	4b20      	ldr	r3, [pc, #128]	; (8008c5c <D48_1CH_HTONS_VOL_HP+0x168>)
 8008bdc:	fb26 7303 	smlad	r3, r6, r3, r7
 8008be0:	f5a2 4258 	sub.w	r2, r2, #55296	; 0xd800
 8008be4:	9e02      	ldr	r6, [sp, #8]
 8008be6:	9f01      	ldr	r7, [sp, #4]
 8008be8:	4410      	add	r0, r2
 8008bea:	eba0 0009 	sub.w	r0, r0, r9
 8008bee:	ea4f 7ae0 	mov.w	sl, r0, asr #31
 8008bf2:	fba0 0106 	umull	r0, r1, r0, r6
 8008bf6:	f110 4000 	adds.w	r0, r0, #2147483648	; 0x80000000
 8008bfa:	fb06 110a 	mla	r1, r6, sl, r1
 8008bfe:	f141 0100 	adc.w	r1, r1, #0
 8008c02:	0308      	lsls	r0, r1, #12
 8008c04:	f04f 4900 	mov.w	r9, #2147483648	; 0x80000000
 8008c08:	f04f 0a00 	mov.w	sl, #0
 8008c0c:	fbc0 9a07 	smlal	r9, sl, r0, r7
 8008c10:	4657      	mov	r7, sl
 8008c12:	10b8      	asrs	r0, r7, #2
 8008c14:	f300 000f 	ssat	r0, #16, r0
 8008c18:	f82c 0b02 	strh.w	r0, [ip], #2
 8008c1c:	0048      	lsls	r0, r1, #1
 8008c1e:	9903      	ldr	r1, [sp, #12]
 8008c20:	458c      	cmp	ip, r1
 8008c22:	4691      	mov	r9, r2
 8008c24:	d185      	bne.n	8008b32 <D48_1CH_HTONS_VOL_HP+0x3e>
 8008c26:	9d05      	ldr	r5, [sp, #20]
 8008c28:	616a      	str	r2, [r5, #20]
 8008c2a:	9a04      	ldr	r2, [sp, #16]
 8008c2c:	6128      	str	r0, [r5, #16]
 8008c2e:	2000      	movs	r0, #0
 8008c30:	60ab      	str	r3, [r5, #8]
 8008c32:	60ec      	str	r4, [r5, #12]
 8008c34:	f8c5 e01c 	str.w	lr, [r5, #28]
 8008c38:	61aa      	str	r2, [r5, #24]
 8008c3a:	b007      	add	sp, #28
 8008c3c:	e8bd 8ff0 	ldmia.w	sp!, {r4, r5, r6, r7, r8, r9, sl, fp, pc}
 8008c40:	464a      	mov	r2, r9
 8008c42:	e7f0      	b.n	8008c26 <D48_1CH_HTONS_VOL_HP+0x132>
 8008c44:	20000000 	.word	0x20000000
 8008c48:	000f000a 	.word	0x000f000a
 8008c4c:	00060003 	.word	0x00060003
 8008c50:	00150019 	.word	0x00150019
 8008c54:	00190015 	.word	0x00190015
 8008c58:	00030006 	.word	0x00030006
 8008c5c:	000a000f 	.word	0x000a000f

08008c60 <D64_1CH_HTONS_VOL_HP>:
 8008c60:	e92d 4ff0 	stmdb	sp!, {r4, r5, r6, r7, r8, r9, sl, fp, lr}
 8008c64:	b089      	sub	sp, #36	; 0x24
 8008c66:	4614      	mov	r4, r2
 8008c68:	9207      	str	r2, [sp, #28]
 8008c6a:	8cd3      	ldrh	r3, [r2, #38]	; 0x26
 8008c6c:	f8d2 c010 	ldr.w	ip, [r2, #16]
 8008c70:	f8d2 8014 	ldr.w	r8, [r2, #20]
 8008c74:	6992      	ldr	r2, [r2, #24]
 8008c76:	9206      	str	r2, [sp, #24]
 8008c78:	68e2      	ldr	r2, [r4, #12]
 8008c7a:	9201      	str	r2, [sp, #4]
 8008c7c:	6b22      	ldr	r2, [r4, #48]	; 0x30
 8008c7e:	9203      	str	r2, [sp, #12]
 8008c80:	6a22      	ldr	r2, [r4, #32]
 8008c82:	69e5      	ldr	r5, [r4, #28]
 8008c84:	68a6      	ldr	r6, [r4, #8]
 8008c86:	9204      	str	r2, [sp, #16]
 8008c88:	2b00      	cmp	r3, #0
 8008c8a:	f000 80b0 	beq.w	8008dee <D64_1CH_HTONS_VOL_HP+0x18e>
 8008c8e:	eb01 0343 	add.w	r3, r1, r3, lsl #1
 8008c92:	4f58      	ldr	r7, [pc, #352]	; (8008df4 <D64_1CH_HTONS_VOL_HP+0x194>)
 8008c94:	9305      	str	r3, [sp, #20]
 8008c96:	9102      	str	r1, [sp, #8]
 8008c98:	f850 2b08 	ldr.w	r2, [r0], #8
 8008c9c:	f850 3c04 	ldr.w	r3, [r0, #-4]
 8008ca0:	ba52      	rev16	r2, r2
 8008ca2:	fa93 f993 	rev16.w	r9, r3
 8008ca6:	b2d4      	uxtb	r4, r2
 8008ca8:	f3c2 2307 	ubfx	r3, r2, #8, #8
 8008cac:	f857 b024 	ldr.w	fp, [r7, r4, lsl #2]
 8008cb0:	f857 3023 	ldr.w	r3, [r7, r3, lsl #2]
 8008cb4:	9901      	ldr	r1, [sp, #4]
 8008cb6:	f3c2 4407 	ubfx	r4, r2, #16, #8
 8008cba:	0e12      	lsrs	r2, r2, #24
 8008cbc:	44ab      	add	fp, r5
 8008cbe:	f857 5024 	ldr.w	r5, [r7, r4, lsl #2]
 8008cc2:	f857 4022 	ldr.w	r4, [r7, r2, lsl #2]
 8008cc6:	fa5f f289 	uxtb.w	r2, r9
 8008cca:	eb03 2e9b 	add.w	lr, r3, fp, lsr #10
 8008cce:	f3c9 2307 	ubfx	r3, r9, #8, #8
 8008cd2:	eb05 2a9e 	add.w	sl, r5, lr, lsr #10
 8008cd6:	f857 2022 	ldr.w	r2, [r7, r2, lsl #2]
 8008cda:	f857 3023 	ldr.w	r3, [r7, r3, lsl #2]
 8008cde:	f3c9 4507 	ubfx	r5, r9, #16, #8
 8008ce2:	eb04 249a 	add.w	r4, r4, sl, lsr #10
 8008ce6:	ea4f 6919 	mov.w	r9, r9, lsr #24
 8008cea:	eb02 2294 	add.w	r2, r2, r4, lsr #10
 8008cee:	f857 5025 	ldr.w	r5, [r7, r5, lsl #2]
 8008cf2:	f857 9029 	ldr.w	r9, [r7, r9, lsl #2]
 8008cf6:	eb03 2392 	add.w	r3, r3, r2, lsr #10
 8008cfa:	eb05 2593 	add.w	r5, r5, r3, lsr #10
 8008cfe:	eb09 2995 	add.w	r9, r9, r5, lsr #10
 8008d02:	f3ce 0e09 	ubfx	lr, lr, #0, #10
 8008d06:	f3cb 0b09 	ubfx	fp, fp, #0, #10
 8008d0a:	f3ca 0a09 	ubfx	sl, sl, #0, #10
 8008d0e:	f3c3 0309 	ubfx	r3, r3, #0, #10
 8008d12:	f3c5 0509 	ubfx	r5, r5, #0, #10
 8008d16:	ea4e 4b0b 	orr.w	fp, lr, fp, lsl #16
 8008d1a:	f3c4 0409 	ubfx	r4, r4, #0, #10
 8008d1e:	f3c9 0e09 	ubfx	lr, r9, #0, #10
 8008d22:	f3c2 0209 	ubfx	r2, r2, #0, #10
 8008d26:	ea43 4202 	orr.w	r2, r3, r2, lsl #16
 8008d2a:	ea4e 4e05 	orr.w	lr, lr, r5, lsl #16
 8008d2e:	ea44 440a 	orr.w	r4, r4, sl, lsl #16
 8008d32:	ea4f 2599 	mov.w	r5, r9, lsr #10
 8008d36:	4b30      	ldr	r3, [pc, #192]	; (8008df8 <D64_1CH_HTONS_VOL_HP+0x198>)
 8008d38:	fb2b 1303 	smlad	r3, fp, r3, r1
 8008d3c:	492f      	ldr	r1, [pc, #188]	; (8008dfc <D64_1CH_HTONS_VOL_HP+0x19c>)
 8008d3e:	fb24 3301 	smlad	r3, r4, r1, r3
 8008d42:	492f      	ldr	r1, [pc, #188]	; (8008e00 <D64_1CH_HTONS_VOL_HP+0x1a0>)
 8008d44:	fb22 3301 	smlad	r3, r2, r1, r3
 8008d48:	f44f 3a80 	mov.w	sl, #65536	; 0x10000
 8008d4c:	fb2e 390a 	smlad	r9, lr, sl, r3
 8008d50:	4b2c      	ldr	r3, [pc, #176]	; (8008e04 <D64_1CH_HTONS_VOL_HP+0x1a4>)
 8008d52:	fb2b 6603 	smlad	r6, fp, r3, r6
 8008d56:	fb2e 6613 	smladx	r6, lr, r3, r6
 8008d5a:	4b2b      	ldr	r3, [pc, #172]	; (8008e08 <D64_1CH_HTONS_VOL_HP+0x1a8>)
 8008d5c:	fb24 6603 	smlad	r6, r4, r3, r6
 8008d60:	fb22 6313 	smladx	r3, r2, r3, r6
 8008d64:	f04f 0a01 	mov.w	sl, #1
 8008d68:	9301      	str	r3, [sp, #4]
 8008d6a:	fb2b fb0a 	smuad	fp, fp, sl
 8008d6e:	4b27      	ldr	r3, [pc, #156]	; (8008e0c <D64_1CH_HTONS_VOL_HP+0x1ac>)
 8008d70:	fb24 ba03 	smlad	sl, r4, r3, fp
 8008d74:	4b26      	ldr	r3, [pc, #152]	; (8008e10 <D64_1CH_HTONS_VOL_HP+0x1b0>)
 8008d76:	fb22 a203 	smlad	r2, r2, r3, sl
 8008d7a:	4b26      	ldr	r3, [pc, #152]	; (8008e14 <D64_1CH_HTONS_VOL_HP+0x1b4>)
 8008d7c:	fb2e 2603 	smlad	r6, lr, r3, r2
 8008d80:	f5a9 3a00 	sub.w	sl, r9, #131072	; 0x20000
 8008d84:	eb0a 020c 	add.w	r2, sl, ip
 8008d88:	9c04      	ldr	r4, [sp, #16]
 8008d8a:	9903      	ldr	r1, [sp, #12]
 8008d8c:	eba2 0208 	sub.w	r2, r2, r8
 8008d90:	ea4f 79e2 	mov.w	r9, r2, asr #31
 8008d94:	fba2 2304 	umull	r2, r3, r2, r4
 8008d98:	f112 4200 	adds.w	r2, r2, #2147483648	; 0x80000000
 8008d9c:	fb04 3309 	mla	r3, r4, r9, r3
 8008da0:	f143 0300 	adc.w	r3, r3, #0
 8008da4:	02da      	lsls	r2, r3, #11
 8008da6:	f04f 4800 	mov.w	r8, #2147483648	; 0x80000000
 8008daa:	f04f 0900 	mov.w	r9, #0
 8008dae:	fbc1 8902 	smlal	r8, r9, r1, r2
 8008db2:	9902      	ldr	r1, [sp, #8]
 8008db4:	ea4f 02a9 	mov.w	r2, r9, asr #2
 8008db8:	ea4f 0c43 	mov.w	ip, r3, lsl #1
 8008dbc:	f302 020f 	ssat	r2, #16, r2
 8008dc0:	9b05      	ldr	r3, [sp, #20]
 8008dc2:	f821 2b02 	strh.w	r2, [r1], #2
 8008dc6:	4299      	cmp	r1, r3
 8008dc8:	9102      	str	r1, [sp, #8]
 8008dca:	46d0      	mov	r8, sl
 8008dcc:	f47f af64 	bne.w	8008c98 <D64_1CH_HTONS_VOL_HP+0x38>
 8008dd0:	9a07      	ldr	r2, [sp, #28]
 8008dd2:	9901      	ldr	r1, [sp, #4]
 8008dd4:	60d1      	str	r1, [r2, #12]
 8008dd6:	9906      	ldr	r1, [sp, #24]
 8008dd8:	6096      	str	r6, [r2, #8]
 8008dda:	2000      	movs	r0, #0
 8008ddc:	61d5      	str	r5, [r2, #28]
 8008dde:	f8c2 c010 	str.w	ip, [r2, #16]
 8008de2:	f8c2 a014 	str.w	sl, [r2, #20]
 8008de6:	6191      	str	r1, [r2, #24]
 8008de8:	b009      	add	sp, #36	; 0x24
 8008dea:	e8bd 8ff0 	ldmia.w	sp!, {r4, r5, r6, r7, r8, r9, sl, fp, pc}
 8008dee:	46c2      	mov	sl, r8
 8008df0:	4622      	mov	r2, r4
 8008df2:	e7ee      	b.n	8008dd2 <D64_1CH_HTONS_VOL_HP+0x172>
 8008df4:	20000000 	.word	0x20000000
 8008df8:	001c0015 	.word	0x001c0015
 8008dfc:	000f000a 	.word	0x000f000a
 8008e00:	00060003 	.word	0x00060003
 8008e04:	0024002a 	.word	0x0024002a
 8008e08:	002e0030 	.word	0x002e0030
 8008e0c:	00030006 	.word	0x00030006
 8008e10:	000a000f 	.word	0x000a000f
 8008e14:	0015001c 	.word	0x0015001c

08008e18 <D80_1CH_HTONS_VOL_HP>:
 8008e18:	e92d 4ff0 	stmdb	sp!, {r4, r5, r6, r7, r8, r9, sl, fp, lr}
 8008e1c:	4613      	mov	r3, r2
 8008e1e:	b089      	sub	sp, #36	; 0x24
 8008e20:	4686      	mov	lr, r0
 8008e22:	6918      	ldr	r0, [r3, #16]
 8008e24:	9000      	str	r0, [sp, #0]
 8008e26:	4618      	mov	r0, r3
 8008e28:	461c      	mov	r4, r3
 8008e2a:	695b      	ldr	r3, [r3, #20]
 8008e2c:	9302      	str	r3, [sp, #8]
 8008e2e:	6983      	ldr	r3, [r0, #24]
 8008e30:	9306      	str	r3, [sp, #24]
 8008e32:	f8d0 c008 	ldr.w	ip, [r0, #8]
 8008e36:	69c3      	ldr	r3, [r0, #28]
 8008e38:	68c0      	ldr	r0, [r0, #12]
 8008e3a:	9207      	str	r2, [sp, #28]
 8008e3c:	9001      	str	r0, [sp, #4]
 8008e3e:	8cd2      	ldrh	r2, [r2, #38]	; 0x26
 8008e40:	6b20      	ldr	r0, [r4, #48]	; 0x30
 8008e42:	9003      	str	r0, [sp, #12]
 8008e44:	6a20      	ldr	r0, [r4, #32]
 8008e46:	9004      	str	r0, [sp, #16]
 8008e48:	2a00      	cmp	r2, #0
 8008e4a:	f000 80d2 	beq.w	8008ff2 <D80_1CH_HTONS_VOL_HP+0x1da>
 8008e4e:	eb01 0242 	add.w	r2, r1, r2, lsl #1
 8008e52:	4869      	ldr	r0, [pc, #420]	; (8008ff8 <D80_1CH_HTONS_VOL_HP+0x1e0>)
 8008e54:	9205      	str	r2, [sp, #20]
 8008e56:	461c      	mov	r4, r3
 8008e58:	f8de 5000 	ldr.w	r5, [lr]
 8008e5c:	f8de 2004 	ldr.w	r2, [lr, #4]
 8008e60:	f8de 3008 	ldr.w	r3, [lr, #8]
 8008e64:	f10e 0e0a 	add.w	lr, lr, #10
 8008e68:	ba6d      	rev16	r5, r5
 8008e6a:	ba52      	rev16	r2, r2
 8008e6c:	fa93 fb93 	rev16.w	fp, r3
 8008e70:	b2ee      	uxtb	r6, r5
 8008e72:	f3c5 2307 	ubfx	r3, r5, #8, #8
 8008e76:	f850 7026 	ldr.w	r7, [r0, r6, lsl #2]
 8008e7a:	f850 3023 	ldr.w	r3, [r0, r3, lsl #2]
 8008e7e:	f3c5 4607 	ubfx	r6, r5, #16, #8
 8008e82:	eb04 0a07 	add.w	sl, r4, r7
 8008e86:	0e2d      	lsrs	r5, r5, #24
 8008e88:	f850 4026 	ldr.w	r4, [r0, r6, lsl #2]
 8008e8c:	f850 6025 	ldr.w	r6, [r0, r5, lsl #2]
 8008e90:	eb03 239a 	add.w	r3, r3, sl, lsr #10
 8008e94:	eb04 2993 	add.w	r9, r4, r3, lsr #10
 8008e98:	b2d5      	uxtb	r5, r2
 8008e9a:	f3c2 2407 	ubfx	r4, r2, #8, #8
 8008e9e:	f850 7025 	ldr.w	r7, [r0, r5, lsl #2]
 8008ea2:	f850 5024 	ldr.w	r5, [r0, r4, lsl #2]
 8008ea6:	f3c2 4407 	ubfx	r4, r2, #16, #8
 8008eaa:	eb06 2699 	add.w	r6, r6, r9, lsr #10
 8008eae:	0e12      	lsrs	r2, r2, #24
 8008eb0:	eb07 2896 	add.w	r8, r7, r6, lsr #10
 8008eb4:	f850 7024 	ldr.w	r7, [r0, r4, lsl #2]
 8008eb8:	f850 2022 	ldr.w	r2, [r0, r2, lsl #2]
 8008ebc:	fa5f f48b 	uxtb.w	r4, fp
 8008ec0:	eb05 2598 	add.w	r5, r5, r8, lsr #10
 8008ec4:	f3cb 2b07 	ubfx	fp, fp, #8, #8
 8008ec8:	eb07 2795 	add.w	r7, r7, r5, lsr #10
 8008ecc:	f850 4024 	ldr.w	r4, [r0, r4, lsl #2]
 8008ed0:	f850 b02b 	ldr.w	fp, [r0, fp, lsl #2]
 8008ed4:	eb02 2297 	add.w	r2, r2, r7, lsr #10
 8008ed8:	eb04 2492 	add.w	r4, r4, r2, lsr #10
 8008edc:	eb0b 2b94 	add.w	fp, fp, r4, lsr #10
 8008ee0:	f3c6 0609 	ubfx	r6, r6, #0, #10
 8008ee4:	f3c9 0909 	ubfx	r9, r9, #0, #10
 8008ee8:	f3ca 0a09 	ubfx	sl, sl, #0, #10
 8008eec:	f3c5 0509 	ubfx	r5, r5, #0, #10
 8008ef0:	f3c7 0709 	ubfx	r7, r7, #0, #10
 8008ef4:	f3c4 0409 	ubfx	r4, r4, #0, #10
 8008ef8:	ea46 4909 	orr.w	r9, r6, r9, lsl #16
 8008efc:	f3c3 0309 	ubfx	r3, r3, #0, #10
 8008f00:	f3cb 0609 	ubfx	r6, fp, #0, #10
 8008f04:	f3c8 0809 	ubfx	r8, r8, #0, #10
 8008f08:	f3c2 0209 	ubfx	r2, r2, #0, #10
 8008f0c:	ea45 4808 	orr.w	r8, r5, r8, lsl #16
 8008f10:	ea42 4207 	orr.w	r2, r2, r7, lsl #16
 8008f14:	ea46 4604 	orr.w	r6, r6, r4, lsl #16
 8008f18:	ea43 430a 	orr.w	r3, r3, sl, lsl #16
 8008f1c:	ea4f 249b 	mov.w	r4, fp, lsr #10
 8008f20:	4d36      	ldr	r5, [pc, #216]	; (8008ffc <D80_1CH_HTONS_VOL_HP+0x1e4>)
 8008f22:	9f01      	ldr	r7, [sp, #4]
 8008f24:	fb23 7505 	smlad	r5, r3, r5, r7
 8008f28:	4f35      	ldr	r7, [pc, #212]	; (8009000 <D80_1CH_HTONS_VOL_HP+0x1e8>)
 8008f2a:	fb29 5507 	smlad	r5, r9, r7, r5
 8008f2e:	4f35      	ldr	r7, [pc, #212]	; (8009004 <D80_1CH_HTONS_VOL_HP+0x1ec>)
 8008f30:	fb28 5507 	smlad	r5, r8, r7, r5
 8008f34:	4f34      	ldr	r7, [pc, #208]	; (8009008 <D80_1CH_HTONS_VOL_HP+0x1f0>)
 8008f36:	fb22 5507 	smlad	r5, r2, r7, r5
 8008f3a:	f44f 3a80 	mov.w	sl, #65536	; 0x10000
 8008f3e:	fb26 5b0a 	smlad	fp, r6, sl, r5
 8008f42:	4d32      	ldr	r5, [pc, #200]	; (800900c <D80_1CH_HTONS_VOL_HP+0x1f4>)
 8008f44:	fb23 cc05 	smlad	ip, r3, r5, ip
 8008f48:	4d31      	ldr	r5, [pc, #196]	; (8009010 <D80_1CH_HTONS_VOL_HP+0x1f8>)
 8008f4a:	fb29 cc05 	smlad	ip, r9, r5, ip
 8008f4e:	f04f 154b 	mov.w	r5, #4915275	; 0x4b004b
 8008f52:	fb28 c505 	smlad	r5, r8, r5, ip
 8008f56:	4f2f      	ldr	r7, [pc, #188]	; (8009014 <D80_1CH_HTONS_VOL_HP+0x1fc>)
 8008f58:	fb22 5507 	smlad	r5, r2, r7, r5
 8008f5c:	4f2e      	ldr	r7, [pc, #184]	; (8009018 <D80_1CH_HTONS_VOL_HP+0x200>)
 8008f5e:	fb26 5507 	smlad	r5, r6, r7, r5
 8008f62:	f04f 0a01 	mov.w	sl, #1
 8008f66:	9501      	str	r5, [sp, #4]
 8008f68:	fb23 fa0a 	smuad	sl, r3, sl
 8008f6c:	4b2b      	ldr	r3, [pc, #172]	; (800901c <D80_1CH_HTONS_VOL_HP+0x204>)
 8008f6e:	fb29 a903 	smlad	r9, r9, r3, sl
 8008f72:	4d2b      	ldr	r5, [pc, #172]	; (8009020 <D80_1CH_HTONS_VOL_HP+0x208>)
 8008f74:	fb28 9805 	smlad	r8, r8, r5, r9
 8008f78:	4d2a      	ldr	r5, [pc, #168]	; (8009024 <D80_1CH_HTONS_VOL_HP+0x20c>)
 8008f7a:	fb22 8205 	smlad	r2, r2, r5, r8
 8008f7e:	4b2a      	ldr	r3, [pc, #168]	; (8009028 <D80_1CH_HTONS_VOL_HP+0x210>)
 8008f80:	fb26 2c03 	smlad	ip, r6, r3, r2
 8008f84:	9b00      	ldr	r3, [sp, #0]
 8008f86:	9d04      	ldr	r5, [sp, #16]
 8008f88:	f5ab 3a7a 	sub.w	sl, fp, #256000	; 0x3e800
 8008f8c:	4453      	add	r3, sl
 8008f8e:	461a      	mov	r2, r3
 8008f90:	9b02      	ldr	r3, [sp, #8]
 8008f92:	f8cd a008 	str.w	sl, [sp, #8]
 8008f96:	1ad2      	subs	r2, r2, r3
 8008f98:	17d7      	asrs	r7, r2, #31
 8008f9a:	fba2 2305 	umull	r2, r3, r2, r5
 8008f9e:	fb05 3307 	mla	r3, r5, r7, r3
 8008fa2:	f112 4200 	adds.w	r2, r2, #2147483648	; 0x80000000
 8008fa6:	f143 0300 	adc.w	r3, r3, #0
 8008faa:	9d03      	ldr	r5, [sp, #12]
 8008fac:	029a      	lsls	r2, r3, #10
 8008fae:	f04f 4600 	mov.w	r6, #2147483648	; 0x80000000
 8008fb2:	2700      	movs	r7, #0
 8008fb4:	005b      	lsls	r3, r3, #1
 8008fb6:	fbc5 6702 	smlal	r6, r7, r5, r2
 8008fba:	10ba      	asrs	r2, r7, #2
 8008fbc:	9300      	str	r3, [sp, #0]
 8008fbe:	f302 020f 	ssat	r2, #16, r2
 8008fc2:	9b05      	ldr	r3, [sp, #20]
 8008fc4:	f821 2b02 	strh.w	r2, [r1], #2
 8008fc8:	4299      	cmp	r1, r3
 8008fca:	f47f af45 	bne.w	8008e58 <D80_1CH_HTONS_VOL_HP+0x40>
 8008fce:	4623      	mov	r3, r4
 8008fd0:	9907      	ldr	r1, [sp, #28]
 8008fd2:	9801      	ldr	r0, [sp, #4]
 8008fd4:	60c8      	str	r0, [r1, #12]
 8008fd6:	9a00      	ldr	r2, [sp, #0]
 8008fd8:	f8c1 c008 	str.w	ip, [r1, #8]
 8008fdc:	4608      	mov	r0, r1
 8008fde:	61cb      	str	r3, [r1, #28]
 8008fe0:	610a      	str	r2, [r1, #16]
 8008fe2:	f8c1 a014 	str.w	sl, [r1, #20]
 8008fe6:	9906      	ldr	r1, [sp, #24]
 8008fe8:	6181      	str	r1, [r0, #24]
 8008fea:	2000      	movs	r0, #0
 8008fec:	b009      	add	sp, #36	; 0x24
 8008fee:	e8bd 8ff0 	ldmia.w	sp!, {r4, r5, r6, r7, r8, r9, sl, fp, pc}
 8008ff2:	f8dd a008 	ldr.w	sl, [sp, #8]
 8008ff6:	e7eb      	b.n	8008fd0 <D80_1CH_HTONS_VOL_HP+0x1b8>
 8008ff8:	20000000 	.word	0x20000000
 8008ffc:	002d0024 	.word	0x002d0024
 8009000:	001c0015 	.word	0x001c0015
 8009004:	000f000a 	.word	0x000f000a
 8009008:	00060003 	.word	0x00060003
 800900c:	0037003f 	.word	0x0037003f
 8009010:	00450049 	.word	0x00450049
 8009014:	00490045 	.word	0x00490045
 8009018:	003f0037 	.word	0x003f0037
 800901c:	00030006 	.word	0x00030006
 8009020:	000a000f 	.word	0x000a000f
 8009024:	0015001c 	.word	0x0015001c
 8009028:	0024002d 	.word	0x0024002d

0800902c <D128_1CH_HTONS_VOL_HP>:
 800902c:	e92d 4ff0 	stmdb	sp!, {r4, r5, r6, r7, r8, r9, sl, fp, lr}
 8009030:	b093      	sub	sp, #76	; 0x4c
 8009032:	4614      	mov	r4, r2
 8009034:	9211      	str	r2, [sp, #68]	; 0x44
 8009036:	8cd3      	ldrh	r3, [r2, #38]	; 0x26
 8009038:	6912      	ldr	r2, [r2, #16]
 800903a:	9203      	str	r2, [sp, #12]
 800903c:	4622      	mov	r2, r4
 800903e:	4615      	mov	r5, r2
 8009040:	6964      	ldr	r4, [r4, #20]
 8009042:	9406      	str	r4, [sp, #24]
 8009044:	4614      	mov	r4, r2
 8009046:	6992      	ldr	r2, [r2, #24]
 8009048:	9210      	str	r2, [sp, #64]	; 0x40
 800904a:	68ea      	ldr	r2, [r5, #12]
 800904c:	9204      	str	r2, [sp, #16]
 800904e:	6b2a      	ldr	r2, [r5, #48]	; 0x30
 8009050:	69e6      	ldr	r6, [r4, #28]
 8009052:	920d      	str	r2, [sp, #52]	; 0x34
 8009054:	68a4      	ldr	r4, [r4, #8]
 8009056:	6a2a      	ldr	r2, [r5, #32]
 8009058:	9405      	str	r4, [sp, #20]
 800905a:	920e      	str	r2, [sp, #56]	; 0x38
 800905c:	2b00      	cmp	r3, #0
 800905e:	f000 8145 	beq.w	80092ec <D128_1CH_HTONS_VOL_HP+0x2c0>
 8009062:	eb01 0343 	add.w	r3, r1, r3, lsl #1
 8009066:	930f      	str	r3, [sp, #60]	; 0x3c
 8009068:	f8df 82dc 	ldr.w	r8, [pc, #732]	; 8009348 <D128_1CH_HTONS_VOL_HP+0x31c>
 800906c:	9107      	str	r1, [sp, #28]
 800906e:	f100 0310 	add.w	r3, r0, #16
 8009072:	4699      	mov	r9, r3
 8009074:	f1a9 0110 	sub.w	r1, r9, #16
 8009078:	c90e      	ldmia	r1, {r1, r2, r3}
 800907a:	f859 0c04 	ldr.w	r0, [r9, #-4]
 800907e:	ba49      	rev16	r1, r1
 8009080:	ba52      	rev16	r2, r2
 8009082:	ba5b      	rev16	r3, r3
 8009084:	fa90 fa90 	rev16.w	sl, r0
 8009088:	f3c1 2007 	ubfx	r0, r1, #8, #8
 800908c:	b2cc      	uxtb	r4, r1
 800908e:	f858 5020 	ldr.w	r5, [r8, r0, lsl #2]
 8009092:	f858 4024 	ldr.w	r4, [r8, r4, lsl #2]
 8009096:	f3c1 4007 	ubfx	r0, r1, #16, #8
 800909a:	0e09      	lsrs	r1, r1, #24
 800909c:	4426      	add	r6, r4
 800909e:	f858 4020 	ldr.w	r4, [r8, r0, lsl #2]
 80090a2:	f858 7021 	ldr.w	r7, [r8, r1, lsl #2]
 80090a6:	b2d0      	uxtb	r0, r2
 80090a8:	eb05 2596 	add.w	r5, r5, r6, lsr #10
 80090ac:	eb04 2b95 	add.w	fp, r4, r5, lsr #10
 80090b0:	f3c2 2107 	ubfx	r1, r2, #8, #8
 80090b4:	f858 4020 	ldr.w	r4, [r8, r0, lsl #2]
 80090b8:	f858 1021 	ldr.w	r1, [r8, r1, lsl #2]
 80090bc:	eb07 279b 	add.w	r7, r7, fp, lsr #10
 80090c0:	f3c2 4007 	ubfx	r0, r2, #16, #8
 80090c4:	0e12      	lsrs	r2, r2, #24
 80090c6:	eb04 2497 	add.w	r4, r4, r7, lsr #10
 80090ca:	9701      	str	r7, [sp, #4]
 80090cc:	f858 0020 	ldr.w	r0, [r8, r0, lsl #2]
 80090d0:	4627      	mov	r7, r4
 80090d2:	f858 4022 	ldr.w	r4, [r8, r2, lsl #2]
 80090d6:	9702      	str	r7, [sp, #8]
 80090d8:	b2da      	uxtb	r2, r3
 80090da:	eb01 2197 	add.w	r1, r1, r7, lsr #10
 80090de:	eb00 2c91 	add.w	ip, r0, r1, lsr #10
 80090e2:	f858 0022 	ldr.w	r0, [r8, r2, lsl #2]
 80090e6:	eb04 249c 	add.w	r4, r4, ip, lsr #10
 80090ea:	eb00 2e94 	add.w	lr, r0, r4, lsr #10
 80090ee:	f3c3 2207 	ubfx	r2, r3, #8, #8
 80090f2:	f3c3 4007 	ubfx	r0, r3, #16, #8
 80090f6:	0e1b      	lsrs	r3, r3, #24
 80090f8:	f858 7020 	ldr.w	r7, [r8, r0, lsl #2]
 80090fc:	f858 2022 	ldr.w	r2, [r8, r2, lsl #2]
 8009100:	f858 0023 	ldr.w	r0, [r8, r3, lsl #2]
 8009104:	fa5f f38a 	uxtb.w	r3, sl
 8009108:	f3c6 0609 	ubfx	r6, r6, #0, #10
 800910c:	960a      	str	r6, [sp, #40]	; 0x28
 800910e:	eb02 229e 	add.w	r2, r2, lr, lsr #10
 8009112:	f858 6023 	ldr.w	r6, [r8, r3, lsl #2]
 8009116:	f3c5 0509 	ubfx	r5, r5, #0, #10
 800911a:	f3ca 2307 	ubfx	r3, sl, #8, #8
 800911e:	950b      	str	r5, [sp, #44]	; 0x2c
 8009120:	eb07 2792 	add.w	r7, r7, r2, lsr #10
 8009124:	f3ca 4507 	ubfx	r5, sl, #16, #8
 8009128:	eb00 2097 	add.w	r0, r0, r7, lsr #10
 800912c:	f858 3023 	ldr.w	r3, [r8, r3, lsl #2]
 8009130:	f858 5025 	ldr.w	r5, [r8, r5, lsl #2]
 8009134:	ea4f 6a1a 	mov.w	sl, sl, lsr #24
 8009138:	eb06 2690 	add.w	r6, r6, r0, lsr #10
 800913c:	eb03 2396 	add.w	r3, r3, r6, lsr #10
 8009140:	f858 a02a 	ldr.w	sl, [r8, sl, lsl #2]
 8009144:	9308      	str	r3, [sp, #32]
 8009146:	eb05 2593 	add.w	r5, r5, r3, lsr #10
 800914a:	9b01      	ldr	r3, [sp, #4]
 800914c:	eb0a 2a95 	add.w	sl, sl, r5, lsr #10
 8009150:	f8cd a024 	str.w	sl, [sp, #36]	; 0x24
 8009154:	f3c3 0a09 	ubfx	sl, r3, #0, #10
 8009158:	9b02      	ldr	r3, [sp, #8]
 800915a:	f3c3 0309 	ubfx	r3, r3, #0, #10
 800915e:	9302      	str	r3, [sp, #8]
 8009160:	9b08      	ldr	r3, [sp, #32]
 8009162:	f3c3 0309 	ubfx	r3, r3, #0, #10
 8009166:	9308      	str	r3, [sp, #32]
 8009168:	9b0b      	ldr	r3, [sp, #44]	; 0x2c
 800916a:	f3c5 0509 	ubfx	r5, r5, #0, #10
 800916e:	950c      	str	r5, [sp, #48]	; 0x30
 8009170:	461d      	mov	r5, r3
 8009172:	9b0a      	ldr	r3, [sp, #40]	; 0x28
 8009174:	f3ce 0e09 	ubfx	lr, lr, #0, #10
 8009178:	f3c2 0209 	ubfx	r2, r2, #0, #10
 800917c:	ea45 4303 	orr.w	r3, r5, r3, lsl #16
 8009180:	ea42 420e 	orr.w	r2, r2, lr, lsl #16
 8009184:	9301      	str	r3, [sp, #4]
 8009186:	9b02      	ldr	r3, [sp, #8]
 8009188:	9202      	str	r2, [sp, #8]
 800918a:	9a09      	ldr	r2, [sp, #36]	; 0x24
 800918c:	9d0c      	ldr	r5, [sp, #48]	; 0x30
 800918e:	f3c7 0709 	ubfx	r7, r7, #0, #10
 8009192:	f3c0 0009 	ubfx	r0, r0, #0, #10
 8009196:	ea40 4007 	orr.w	r0, r0, r7, lsl #16
 800919a:	f3c1 0109 	ubfx	r1, r1, #0, #10
 800919e:	f3c2 0709 	ubfx	r7, r2, #0, #10
 80091a2:	ea41 4103 	orr.w	r1, r1, r3, lsl #16
 80091a6:	ea47 4505 	orr.w	r5, r7, r5, lsl #16
 80091aa:	9b08      	ldr	r3, [sp, #32]
 80091ac:	9f01      	ldr	r7, [sp, #4]
 80091ae:	f3cb 0b09 	ubfx	fp, fp, #0, #10
 80091b2:	f3cc 0c09 	ubfx	ip, ip, #0, #10
 80091b6:	f3c6 0609 	ubfx	r6, r6, #0, #10
 80091ba:	f3c4 0409 	ubfx	r4, r4, #0, #10
 80091be:	ea43 4306 	orr.w	r3, r3, r6, lsl #16
 80091c2:	46be      	mov	lr, r7
 80091c4:	0a96      	lsrs	r6, r2, #10
 80091c6:	ea4a 4a0b 	orr.w	sl, sl, fp, lsl #16
 80091ca:	ea44 440c 	orr.w	r4, r4, ip, lsl #16
 80091ce:	4f49      	ldr	r7, [pc, #292]	; (80092f4 <D128_1CH_HTONS_VOL_HP+0x2c8>)
 80091d0:	9a04      	ldr	r2, [sp, #16]
 80091d2:	fb2e 2e07 	smlad	lr, lr, r7, r2
 80091d6:	4a48      	ldr	r2, [pc, #288]	; (80092f8 <D128_1CH_HTONS_VOL_HP+0x2cc>)
 80091d8:	fb2a ee02 	smlad	lr, sl, r2, lr
 80091dc:	4a47      	ldr	r2, [pc, #284]	; (80092fc <D128_1CH_HTONS_VOL_HP+0x2d0>)
 80091de:	fb21 ee02 	smlad	lr, r1, r2, lr
 80091e2:	4a47      	ldr	r2, [pc, #284]	; (8009300 <D128_1CH_HTONS_VOL_HP+0x2d4>)
 80091e4:	fb24 ee02 	smlad	lr, r4, r2, lr
 80091e8:	4a46      	ldr	r2, [pc, #280]	; (8009304 <D128_1CH_HTONS_VOL_HP+0x2d8>)
 80091ea:	9f02      	ldr	r7, [sp, #8]
 80091ec:	fb27 ee02 	smlad	lr, r7, r2, lr
 80091f0:	4a45      	ldr	r2, [pc, #276]	; (8009308 <D128_1CH_HTONS_VOL_HP+0x2dc>)
 80091f2:	fb20 ee02 	smlad	lr, r0, r2, lr
 80091f6:	4a45      	ldr	r2, [pc, #276]	; (800930c <D128_1CH_HTONS_VOL_HP+0x2e0>)
 80091f8:	fb23 e702 	smlad	r7, r3, r2, lr
 80091fc:	f44f 3e80 	mov.w	lr, #65536	; 0x10000
 8009200:	fb25 7e0e 	smlad	lr, r5, lr, r7
 8009204:	9f01      	ldr	r7, [sp, #4]
 8009206:	4a42      	ldr	r2, [pc, #264]	; (8009310 <D128_1CH_HTONS_VOL_HP+0x2e4>)
 8009208:	46bc      	mov	ip, r7
 800920a:	9f05      	ldr	r7, [sp, #20]
 800920c:	fb2c 7c02 	smlad	ip, ip, r2, r7
 8009210:	4a40      	ldr	r2, [pc, #256]	; (8009314 <D128_1CH_HTONS_VOL_HP+0x2e8>)
 8009212:	fb2a cc02 	smlad	ip, sl, r2, ip
 8009216:	4f40      	ldr	r7, [pc, #256]	; (8009318 <D128_1CH_HTONS_VOL_HP+0x2ec>)
 8009218:	fb21 cc07 	smlad	ip, r1, r7, ip
 800921c:	4f3f      	ldr	r7, [pc, #252]	; (800931c <D128_1CH_HTONS_VOL_HP+0x2f0>)
 800921e:	fb24 cc07 	smlad	ip, r4, r7, ip
 8009222:	4f3f      	ldr	r7, [pc, #252]	; (8009320 <D128_1CH_HTONS_VOL_HP+0x2f4>)
 8009224:	9a02      	ldr	r2, [sp, #8]
 8009226:	fb22 cc07 	smlad	ip, r2, r7, ip
 800922a:	4f3e      	ldr	r7, [pc, #248]	; (8009324 <D128_1CH_HTONS_VOL_HP+0x2f8>)
 800922c:	fb20 cc07 	smlad	ip, r0, r7, ip
 8009230:	4f3d      	ldr	r7, [pc, #244]	; (8009328 <D128_1CH_HTONS_VOL_HP+0x2fc>)
 8009232:	fb23 c707 	smlad	r7, r3, r7, ip
 8009236:	f8df c114 	ldr.w	ip, [pc, #276]	; 800934c <D128_1CH_HTONS_VOL_HP+0x320>
 800923a:	fb25 720c 	smlad	r2, r5, ip, r7
 800923e:	f04f 0b01 	mov.w	fp, #1
 8009242:	9204      	str	r2, [sp, #16]
 8009244:	9f01      	ldr	r7, [sp, #4]
 8009246:	fb27 fb0b 	smuad	fp, r7, fp
 800924a:	4f38      	ldr	r7, [pc, #224]	; (800932c <D128_1CH_HTONS_VOL_HP+0x300>)
 800924c:	fb2a ba07 	smlad	sl, sl, r7, fp
 8009250:	4f37      	ldr	r7, [pc, #220]	; (8009330 <D128_1CH_HTONS_VOL_HP+0x304>)
 8009252:	fb21 aa07 	smlad	sl, r1, r7, sl
 8009256:	4f37      	ldr	r7, [pc, #220]	; (8009334 <D128_1CH_HTONS_VOL_HP+0x308>)
 8009258:	fb24 aa07 	smlad	sl, r4, r7, sl
 800925c:	4f36      	ldr	r7, [pc, #216]	; (8009338 <D128_1CH_HTONS_VOL_HP+0x30c>)
 800925e:	9a02      	ldr	r2, [sp, #8]
 8009260:	fb22 a707 	smlad	r7, r2, r7, sl
 8009264:	4a35      	ldr	r2, [pc, #212]	; (800933c <D128_1CH_HTONS_VOL_HP+0x310>)
 8009266:	fb20 7702 	smlad	r7, r0, r2, r7
 800926a:	4a35      	ldr	r2, [pc, #212]	; (8009340 <D128_1CH_HTONS_VOL_HP+0x314>)
 800926c:	fb23 7702 	smlad	r7, r3, r2, r7
 8009270:	4b34      	ldr	r3, [pc, #208]	; (8009344 <D128_1CH_HTONS_VOL_HP+0x318>)
 8009272:	fb25 7303 	smlad	r3, r5, r3, r7
 8009276:	9305      	str	r3, [sp, #20]
 8009278:	9b03      	ldr	r3, [sp, #12]
 800927a:	9c0e      	ldr	r4, [sp, #56]	; 0x38
 800927c:	f5ae 1e80 	sub.w	lr, lr, #1048576	; 0x100000
 8009280:	4473      	add	r3, lr
 8009282:	461a      	mov	r2, r3
 8009284:	9b06      	ldr	r3, [sp, #24]
 8009286:	f8cd e018 	str.w	lr, [sp, #24]
 800928a:	1ad2      	subs	r2, r2, r3
 800928c:	17d1      	asrs	r1, r2, #31
 800928e:	fba2 2304 	umull	r2, r3, r2, r4
 8009292:	fb04 3301 	mla	r3, r4, r1, r3
 8009296:	f112 4200 	adds.w	r2, r2, #2147483648	; 0x80000000
 800929a:	f143 0300 	adc.w	r3, r3, #0
 800929e:	9c0d      	ldr	r4, [sp, #52]	; 0x34
 80092a0:	021a      	lsls	r2, r3, #8
 80092a2:	f04f 4000 	mov.w	r0, #2147483648	; 0x80000000
 80092a6:	2100      	movs	r1, #0
 80092a8:	fbc4 0102 	smlal	r0, r1, r4, r2
 80092ac:	108a      	asrs	r2, r1, #2
 80092ae:	9907      	ldr	r1, [sp, #28]
 80092b0:	f302 020f 	ssat	r2, #16, r2
 80092b4:	005b      	lsls	r3, r3, #1
 80092b6:	f821 2b02 	strh.w	r2, [r1], #2
 80092ba:	9303      	str	r3, [sp, #12]
 80092bc:	9b0f      	ldr	r3, [sp, #60]	; 0x3c
 80092be:	9107      	str	r1, [sp, #28]
 80092c0:	4299      	cmp	r1, r3
 80092c2:	f109 0910 	add.w	r9, r9, #16
 80092c6:	f47f aed5 	bne.w	8009074 <D128_1CH_HTONS_VOL_HP+0x48>
 80092ca:	9a11      	ldr	r2, [sp, #68]	; 0x44
 80092cc:	9905      	ldr	r1, [sp, #20]
 80092ce:	6091      	str	r1, [r2, #8]
 80092d0:	9904      	ldr	r1, [sp, #16]
 80092d2:	60d1      	str	r1, [r2, #12]
 80092d4:	4613      	mov	r3, r2
 80092d6:	61d6      	str	r6, [r2, #28]
 80092d8:	9910      	ldr	r1, [sp, #64]	; 0x40
 80092da:	9a03      	ldr	r2, [sp, #12]
 80092dc:	611a      	str	r2, [r3, #16]
 80092de:	2000      	movs	r0, #0
 80092e0:	f8c3 e014 	str.w	lr, [r3, #20]
 80092e4:	6199      	str	r1, [r3, #24]
 80092e6:	b013      	add	sp, #76	; 0x4c
 80092e8:	e8bd 8ff0 	ldmia.w	sp!, {r4, r5, r6, r7, r8, r9, sl, fp, pc}
 80092ec:	f8dd e018 	ldr.w	lr, [sp, #24]
 80092f0:	e7eb      	b.n	80092ca <D128_1CH_HTONS_VOL_HP+0x29e>
 80092f2:	bf00      	nop
 80092f4:	00780069 	.word	0x00780069
 80092f8:	005b004e 	.word	0x005b004e
 80092fc:	00420037 	.word	0x00420037
 8009300:	002d0024 	.word	0x002d0024
 8009304:	001c0015 	.word	0x001c0015
 8009308:	000f000a 	.word	0x000f000a
 800930c:	00060003 	.word	0x00060003
 8009310:	00880096 	.word	0x00880096
 8009314:	00a200ac 	.word	0x00a200ac
 8009318:	00b400ba 	.word	0x00b400ba
 800931c:	00be00c0 	.word	0x00be00c0
 8009320:	00c000be 	.word	0x00c000be
 8009324:	00ba00b4 	.word	0x00ba00b4
 8009328:	00ac00a2 	.word	0x00ac00a2
 800932c:	00030006 	.word	0x00030006
 8009330:	000a000f 	.word	0x000a000f
 8009334:	0015001c 	.word	0x0015001c
 8009338:	0024002d 	.word	0x0024002d
 800933c:	00370042 	.word	0x00370042
 8009340:	004e005b 	.word	0x004e005b
 8009344:	00690078 	.word	0x00690078
 8009348:	20000000 	.word	0x20000000
 800934c:	00960088 	.word	0x00960088

08009350 <PDM_Filter_Init>:
 8009350:	b5f8      	push	{r3, r4, r5, r6, r7, lr}
 8009352:	2240      	movs	r2, #64	; 0x40
 8009354:	4604      	mov	r4, r0
 8009356:	2100      	movs	r1, #0
 8009358:	300c      	adds	r0, #12
 800935a:	f000 fa14 	bl	8009786 <memset>
 800935e:	493b      	ldr	r1, [pc, #236]	; (800944c <PDM_Filter_Init+0xfc>)
 8009360:	483b      	ldr	r0, [pc, #236]	; (8009450 <PDM_Filter_Init+0x100>)
 8009362:	f000 f98d 	bl	8009680 <CRC_Lock>
 8009366:	8822      	ldrh	r2, [r4, #0]
 8009368:	8963      	ldrh	r3, [r4, #10]
 800936a:	4938      	ldr	r1, [pc, #224]	; (800944c <PDM_Filter_Init+0xfc>)
 800936c:	8925      	ldrh	r5, [r4, #8]
 800936e:	86a3      	strh	r3, [r4, #52]	; 0x34
 8009370:	2801      	cmp	r0, #1
 8009372:	f04f 0300 	mov.w	r3, #0
 8009376:	bf18      	it	ne
 8009378:	2100      	movne	r1, #0
 800937a:	2a01      	cmp	r2, #1
 800937c:	6461      	str	r1, [r4, #68]	; 0x44
 800937e:	86e5      	strh	r5, [r4, #54]	; 0x36
 8009380:	61a3      	str	r3, [r4, #24]
 8009382:	6123      	str	r3, [r4, #16]
 8009384:	6163      	str	r3, [r4, #20]
 8009386:	60e3      	str	r3, [r4, #12]
 8009388:	6263      	str	r3, [r4, #36]	; 0x24
 800938a:	61e3      	str	r3, [r4, #28]
 800938c:	6223      	str	r3, [r4, #32]
 800938e:	6423      	str	r3, [r4, #64]	; 0x40
 8009390:	d918      	bls.n	80093c4 <PDM_Filter_Init+0x74>
 8009392:	2003      	movs	r0, #3
 8009394:	2302      	movs	r3, #2
 8009396:	8862      	ldrh	r2, [r4, #2]
 8009398:	2a01      	cmp	r2, #1
 800939a:	d91d      	bls.n	80093d8 <PDM_Filter_Init+0x88>
 800939c:	2140      	movs	r1, #64	; 0x40
 800939e:	2300      	movs	r3, #0
 80093a0:	6b62      	ldr	r2, [r4, #52]	; 0x34
 80093a2:	f1b2 1f01 	cmp.w	r2, #65537	; 0x10001
 80093a6:	6862      	ldr	r2, [r4, #4]
 80093a8:	bf04      	itt	eq
 80093aa:	6421      	streq	r1, [r4, #64]	; 0x40
 80093ac:	460b      	moveq	r3, r1
 80093ae:	b11a      	cbz	r2, 80093b8 <PDM_Filter_Init+0x68>
 80093b0:	f043 0310 	orr.w	r3, r3, #16
 80093b4:	6423      	str	r3, [r4, #64]	; 0x40
 80093b6:	62e2      	str	r2, [r4, #44]	; 0x2c
 80093b8:	2200      	movs	r2, #0
 80093ba:	8722      	strh	r2, [r4, #56]	; 0x38
 80093bc:	b908      	cbnz	r0, 80093c2 <PDM_Filter_Init+0x72>
 80093be:	3380      	adds	r3, #128	; 0x80
 80093c0:	6423      	str	r3, [r4, #64]	; 0x40
 80093c2:	bdf8      	pop	{r3, r4, r5, r6, r7, pc}
 80093c4:	4d23      	ldr	r5, [pc, #140]	; (8009454 <PDM_Filter_Init+0x104>)
 80093c6:	d010      	beq.n	80093ea <PDM_Filter_Init+0x9a>
 80093c8:	782a      	ldrb	r2, [r5, #0]
 80093ca:	2a01      	cmp	r2, #1
 80093cc:	d027      	beq.n	800941e <PDM_Filter_Init+0xce>
 80093ce:	8862      	ldrh	r2, [r4, #2]
 80093d0:	2a01      	cmp	r2, #1
 80093d2:	f04f 0001 	mov.w	r0, #1
 80093d6:	d8e1      	bhi.n	800939c <PDM_Filter_Init+0x4c>
 80093d8:	d001      	beq.n	80093de <PDM_Filter_Init+0x8e>
 80093da:	4618      	mov	r0, r3
 80093dc:	e7de      	b.n	800939c <PDM_Filter_Init+0x4c>
 80093de:	2220      	movs	r2, #32
 80093e0:	4618      	mov	r0, r3
 80093e2:	6422      	str	r2, [r4, #64]	; 0x40
 80093e4:	4613      	mov	r3, r2
 80093e6:	2160      	movs	r1, #96	; 0x60
 80093e8:	e7da      	b.n	80093a0 <PDM_Filter_Init+0x50>
 80093ea:	7829      	ldrb	r1, [r5, #0]
 80093ec:	2900      	cmp	r1, #0
 80093ee:	d1ee      	bne.n	80093ce <PDM_Filter_Init+0x7e>
 80093f0:	4919      	ldr	r1, [pc, #100]	; (8009458 <PDM_Filter_Init+0x108>)
 80093f2:	f8df e06c 	ldr.w	lr, [pc, #108]	; 8009460 <PDM_Filter_Init+0x110>
 80093f6:	4f19      	ldr	r7, [pc, #100]	; (800945c <PDM_Filter_Init+0x10c>)
 80093f8:	f501 6680 	add.w	r6, r1, #1024	; 0x400
 80093fc:	684a      	ldr	r2, [r1, #4]
 80093fe:	ea0e 5302 	and.w	r3, lr, r2, lsl #20
 8009402:	ea02 0007 	and.w	r0, r2, r7
 8009406:	4303      	orrs	r3, r0
 8009408:	f3c2 5209 	ubfx	r2, r2, #20, #10
 800940c:	4413      	add	r3, r2
 800940e:	f841 3f04 	str.w	r3, [r1, #4]!
 8009412:	428e      	cmp	r6, r1
 8009414:	d1f2      	bne.n	80093fc <PDM_Filter_Init+0xac>
 8009416:	2001      	movs	r0, #1
 8009418:	7028      	strb	r0, [r5, #0]
 800941a:	2300      	movs	r3, #0
 800941c:	e7bb      	b.n	8009396 <PDM_Filter_Init+0x46>
 800941e:	490e      	ldr	r1, [pc, #56]	; (8009458 <PDM_Filter_Init+0x108>)
 8009420:	f8df e03c 	ldr.w	lr, [pc, #60]	; 8009460 <PDM_Filter_Init+0x110>
 8009424:	4f0d      	ldr	r7, [pc, #52]	; (800945c <PDM_Filter_Init+0x10c>)
 8009426:	f501 6680 	add.w	r6, r1, #1024	; 0x400
 800942a:	684a      	ldr	r2, [r1, #4]
 800942c:	ea0e 5302 	and.w	r3, lr, r2, lsl #20
 8009430:	ea02 0007 	and.w	r0, r2, r7
 8009434:	4303      	orrs	r3, r0
 8009436:	f3c2 5209 	ubfx	r2, r2, #20, #10
 800943a:	4413      	add	r3, r2
 800943c:	f841 3f04 	str.w	r3, [r1, #4]!
 8009440:	428e      	cmp	r6, r1
 8009442:	d1f2      	bne.n	800942a <PDM_Filter_Init+0xda>
 8009444:	2300      	movs	r3, #0
 8009446:	702b      	strb	r3, [r5, #0]
 8009448:	e7c1      	b.n	80093ce <PDM_Filter_Init+0x7e>
 800944a:	bf00      	nop
 800944c:	b5e8b5cd 	.word	0xb5e8b5cd
 8009450:	f407a5c2 	.word	0xf407a5c2
 8009454:	2000057c 	.word	0x2000057c
 8009458:	1ffffffc 	.word	0x1ffffffc
 800945c:	000ffc00 	.word	0x000ffc00
 8009460:	3ff00000 	.word	0x3ff00000

08009464 <PDM_Filter_setConfig>:
 8009464:	4b66      	ldr	r3, [pc, #408]	; (8009600 <PDM_Filter_setConfig+0x19c>)
 8009466:	6c42      	ldr	r2, [r0, #68]	; 0x44
 8009468:	429a      	cmp	r2, r3
 800946a:	d001      	beq.n	8009470 <PDM_Filter_setConfig+0xc>
 800946c:	2004      	movs	r0, #4
 800946e:	4770      	bx	lr
 8009470:	b530      	push	{r4, r5, lr}
 8009472:	880a      	ldrh	r2, [r1, #0]
 8009474:	6c03      	ldr	r3, [r0, #64]	; 0x40
 8009476:	ed2d 8b04 	vpush	{d8-d9}
 800947a:	4604      	mov	r4, r0
 800947c:	460d      	mov	r5, r1
 800947e:	1e51      	subs	r1, r2, #1
 8009480:	f423 7080 	bic.w	r0, r3, #256	; 0x100
 8009484:	2906      	cmp	r1, #6
 8009486:	b083      	sub	sp, #12
 8009488:	6420      	str	r0, [r4, #64]	; 0x40
 800948a:	d91a      	bls.n	80094c2 <PDM_Filter_setConfig+0x5e>
 800948c:	2008      	movs	r0, #8
 800948e:	f9b4 1038 	ldrsh.w	r1, [r4, #56]	; 0x38
 8009492:	f9b5 3004 	ldrsh.w	r3, [r5, #4]
 8009496:	4299      	cmp	r1, r3
 8009498:	d07e      	beq.n	8009598 <PDM_Filter_setConfig+0x134>
 800949a:	f113 0f0c 	cmn.w	r3, #12
 800949e:	da2a      	bge.n	80094f6 <PDM_Filter_setConfig+0x92>
 80094a0:	f64f 73f4 	movw	r3, #65524	; 0xfff4
 80094a4:	3040      	adds	r0, #64	; 0x40
 80094a6:	80ab      	strh	r3, [r5, #4]
 80094a8:	8622      	strh	r2, [r4, #48]	; 0x30
 80094aa:	886b      	ldrh	r3, [r5, #2]
 80094ac:	8663      	strh	r3, [r4, #50]	; 0x32
 80094ae:	b920      	cbnz	r0, 80094ba <PDM_Filter_setConfig+0x56>
 80094b0:	6c23      	ldr	r3, [r4, #64]	; 0x40
 80094b2:	f443 7380 	orr.w	r3, r3, #256	; 0x100
 80094b6:	6423      	str	r3, [r4, #64]	; 0x40
 80094b8:	2000      	movs	r0, #0
 80094ba:	b003      	add	sp, #12
 80094bc:	ecbd 8b04 	vpop	{d8-d9}
 80094c0:	bd30      	pop	{r4, r5, pc}
 80094c2:	8e21      	ldrh	r1, [r4, #48]	; 0x30
 80094c4:	4291      	cmp	r1, r2
 80094c6:	d06c      	beq.n	80095a2 <PDM_Filter_setConfig+0x13e>
 80094c8:	f423 7387 	bic.w	r3, r3, #270	; 0x10e
 80094cc:	f023 0301 	bic.w	r3, r3, #1
 80094d0:	4313      	orrs	r3, r2
 80094d2:	f003 0170 	and.w	r1, r3, #112	; 0x70
 80094d6:	6423      	str	r3, [r4, #64]	; 0x40
 80094d8:	2970      	cmp	r1, #112	; 0x70
 80094da:	f003 030f 	and.w	r3, r3, #15
 80094de:	f103 33ff 	add.w	r3, r3, #4294967295	; 0xffffffff
 80094e2:	d066      	beq.n	80095b2 <PDM_Filter_setConfig+0x14e>
 80094e4:	2b06      	cmp	r3, #6
 80094e6:	f200 8089 	bhi.w	80095fc <PDM_Filter_setConfig+0x198>
 80094ea:	e8df f003 	tbb	[pc, r3]
 80094ee:	4f52      	.short	0x4f52
 80094f0:	3d43494c 	.word	0x3d43494c
 80094f4:	46          	.byte	0x46
 80094f5:	00          	.byte	0x00
 80094f6:	2b33      	cmp	r3, #51	; 0x33
 80094f8:	dc32      	bgt.n	8009560 <PDM_Filter_setConfig+0xfc>
 80094fa:	6c22      	ldr	r2, [r4, #64]	; 0x40
 80094fc:	f002 020f 	and.w	r2, r2, #15
 8009500:	3a01      	subs	r2, #1
 8009502:	2a06      	cmp	r2, #6
 8009504:	d872      	bhi.n	80095ec <PDM_Filter_setConfig+0x188>
 8009506:	493f      	ldr	r1, [pc, #252]	; (8009604 <PDM_Filter_setConfig+0x1a0>)
 8009508:	eb01 0282 	add.w	r2, r1, r2, lsl #2
 800950c:	ed92 9a00 	vldr	s18, [r2]
 8009510:	ed92 8a07 	vldr	s16, [r2, #28]
 8009514:	9001      	str	r0, [sp, #4]
 8009516:	ee07 3a90 	vmov	s15, r3
 800951a:	eef8 7ae7 	vcvt.f32.s32	s15, s15
 800951e:	eef3 0a04 	vmov.f32	s1, #52	; 0x41a00000  20.0
 8009522:	eec7 0aa0 	vdiv.f32	s1, s15, s1
 8009526:	eeb2 0a04 	vmov.f32	s0, #36	; 0x41200000  10.0
 800952a:	f001 f8d9 	bl	800a6e0 <powf>
 800952e:	eddf 0a36 	vldr	s1, [pc, #216]	; 8009608 <PDM_Filter_setConfig+0x1a4>
 8009532:	eef0 8a40 	vmov.f32	s17, s0
 8009536:	ee70 0ac9 	vsub.f32	s1, s1, s18
 800953a:	eeb0 0a00 	vmov.f32	s0, #0	; 0x40000000  2.0
 800953e:	f001 f8cf 	bl	800a6e0 <powf>
 8009542:	ee28 8a28 	vmul.f32	s16, s16, s17
 8009546:	ee28 0a00 	vmul.f32	s0, s16, s0
 800954a:	f001 f8a3 	bl	800a694 <roundf>
 800954e:	eebc 0ac0 	vcvt.u32.f32	s0, s0
 8009552:	88ab      	ldrh	r3, [r5, #4]
 8009554:	882a      	ldrh	r2, [r5, #0]
 8009556:	9801      	ldr	r0, [sp, #4]
 8009558:	ed84 0a0f 	vstr	s0, [r4, #60]	; 0x3c
 800955c:	8723      	strh	r3, [r4, #56]	; 0x38
 800955e:	e7a3      	b.n	80094a8 <PDM_Filter_setConfig+0x44>
 8009560:	2333      	movs	r3, #51	; 0x33
 8009562:	3040      	adds	r0, #64	; 0x40
 8009564:	80ab      	strh	r3, [r5, #4]
 8009566:	e79f      	b.n	80094a8 <PDM_Filter_setConfig+0x44>
 8009568:	4b28      	ldr	r3, [pc, #160]	; (800960c <PDM_Filter_setConfig+0x1a8>)
 800956a:	64a3      	str	r3, [r4, #72]	; 0x48
 800956c:	f9b5 3004 	ldrsh.w	r3, [r5, #4]
 8009570:	2000      	movs	r0, #0
 8009572:	e792      	b.n	800949a <PDM_Filter_setConfig+0x36>
 8009574:	4b26      	ldr	r3, [pc, #152]	; (8009610 <PDM_Filter_setConfig+0x1ac>)
 8009576:	64a3      	str	r3, [r4, #72]	; 0x48
 8009578:	e7f8      	b.n	800956c <PDM_Filter_setConfig+0x108>
 800957a:	4b26      	ldr	r3, [pc, #152]	; (8009614 <PDM_Filter_setConfig+0x1b0>)
 800957c:	64a3      	str	r3, [r4, #72]	; 0x48
 800957e:	e7f5      	b.n	800956c <PDM_Filter_setConfig+0x108>
 8009580:	4b25      	ldr	r3, [pc, #148]	; (8009618 <PDM_Filter_setConfig+0x1b4>)
 8009582:	64a3      	str	r3, [r4, #72]	; 0x48
 8009584:	e7f2      	b.n	800956c <PDM_Filter_setConfig+0x108>
 8009586:	4b25      	ldr	r3, [pc, #148]	; (800961c <PDM_Filter_setConfig+0x1b8>)
 8009588:	64a3      	str	r3, [r4, #72]	; 0x48
 800958a:	e7ef      	b.n	800956c <PDM_Filter_setConfig+0x108>
 800958c:	4b24      	ldr	r3, [pc, #144]	; (8009620 <PDM_Filter_setConfig+0x1bc>)
 800958e:	64a3      	str	r3, [r4, #72]	; 0x48
 8009590:	e7ec      	b.n	800956c <PDM_Filter_setConfig+0x108>
 8009592:	4b24      	ldr	r3, [pc, #144]	; (8009624 <PDM_Filter_setConfig+0x1c0>)
 8009594:	64a3      	str	r3, [r4, #72]	; 0x48
 8009596:	e7e9      	b.n	800956c <PDM_Filter_setConfig+0x108>
 8009598:	8e21      	ldrh	r1, [r4, #48]	; 0x30
 800959a:	4291      	cmp	r1, r2
 800959c:	f47f af7d 	bne.w	800949a <PDM_Filter_setConfig+0x36>
 80095a0:	e783      	b.n	80094aa <PDM_Filter_setConfig+0x46>
 80095a2:	f9b5 3004 	ldrsh.w	r3, [r5, #4]
 80095a6:	f9b4 1038 	ldrsh.w	r1, [r4, #56]	; 0x38
 80095aa:	4299      	cmp	r1, r3
 80095ac:	d023      	beq.n	80095f6 <PDM_Filter_setConfig+0x192>
 80095ae:	2000      	movs	r0, #0
 80095b0:	e773      	b.n	800949a <PDM_Filter_setConfig+0x36>
 80095b2:	2b06      	cmp	r3, #6
 80095b4:	d822      	bhi.n	80095fc <PDM_Filter_setConfig+0x198>
 80095b6:	e8df f003 	tbb	[pc, r3]
 80095ba:	1316      	.short	0x1316
 80095bc:	070a0d10 	.word	0x070a0d10
 80095c0:	04          	.byte	0x04
 80095c1:	00          	.byte	0x00
 80095c2:	4b19      	ldr	r3, [pc, #100]	; (8009628 <PDM_Filter_setConfig+0x1c4>)
 80095c4:	64a3      	str	r3, [r4, #72]	; 0x48
 80095c6:	e7d1      	b.n	800956c <PDM_Filter_setConfig+0x108>
 80095c8:	4b18      	ldr	r3, [pc, #96]	; (800962c <PDM_Filter_setConfig+0x1c8>)
 80095ca:	64a3      	str	r3, [r4, #72]	; 0x48
 80095cc:	e7ce      	b.n	800956c <PDM_Filter_setConfig+0x108>
 80095ce:	4b18      	ldr	r3, [pc, #96]	; (8009630 <PDM_Filter_setConfig+0x1cc>)
 80095d0:	64a3      	str	r3, [r4, #72]	; 0x48
 80095d2:	e7cb      	b.n	800956c <PDM_Filter_setConfig+0x108>
 80095d4:	4b17      	ldr	r3, [pc, #92]	; (8009634 <PDM_Filter_setConfig+0x1d0>)
 80095d6:	64a3      	str	r3, [r4, #72]	; 0x48
 80095d8:	e7c8      	b.n	800956c <PDM_Filter_setConfig+0x108>
 80095da:	4b17      	ldr	r3, [pc, #92]	; (8009638 <PDM_Filter_setConfig+0x1d4>)
 80095dc:	64a3      	str	r3, [r4, #72]	; 0x48
 80095de:	e7c5      	b.n	800956c <PDM_Filter_setConfig+0x108>
 80095e0:	4b16      	ldr	r3, [pc, #88]	; (800963c <PDM_Filter_setConfig+0x1d8>)
 80095e2:	64a3      	str	r3, [r4, #72]	; 0x48
 80095e4:	e7c2      	b.n	800956c <PDM_Filter_setConfig+0x108>
 80095e6:	4b16      	ldr	r3, [pc, #88]	; (8009640 <PDM_Filter_setConfig+0x1dc>)
 80095e8:	64a3      	str	r3, [r4, #72]	; 0x48
 80095ea:	e7bf      	b.n	800956c <PDM_Filter_setConfig+0x108>
 80095ec:	ed9f 8a15 	vldr	s16, [pc, #84]	; 8009644 <PDM_Filter_setConfig+0x1e0>
 80095f0:	eeb0 9a48 	vmov.f32	s18, s16
 80095f4:	e78e      	b.n	8009514 <PDM_Filter_setConfig+0xb0>
 80095f6:	886b      	ldrh	r3, [r5, #2]
 80095f8:	8663      	strh	r3, [r4, #50]	; 0x32
 80095fa:	e759      	b.n	80094b0 <PDM_Filter_setConfig+0x4c>
 80095fc:	2000      	movs	r0, #0
 80095fe:	e746      	b.n	800948e <PDM_Filter_setConfig+0x2a>
 8009600:	b5e8b5cd 	.word	0xb5e8b5cd
 8009604:	0800b114 	.word	0x0800b114
 8009608:	42000000 	.word	0x42000000
 800960c:	080079d1 	.word	0x080079d1
 8009610:	080078b1 	.word	0x080078b1
 8009614:	08007b61 	.word	0x08007b61
 8009618:	080083a5 	.word	0x080083a5
 800961c:	08008105 	.word	0x08008105
 8009620:	08007ee5 	.word	0x08007ee5
 8009624:	08007cf9 	.word	0x08007cf9
 8009628:	080089b1 	.word	0x080089b1
 800962c:	08008879 	.word	0x08008879
 8009630:	08008795 	.word	0x08008795
 8009634:	0800902d 	.word	0x0800902d
 8009638:	08008e19 	.word	0x08008e19
 800963c:	08008c61 	.word	0x08008c61
 8009640:	08008af5 	.word	0x08008af5
 8009644:	00000000 	.word	0x00000000

08009648 <PDM_Filter>:
 8009648:	b410      	push	{r4}
 800964a:	4b0c      	ldr	r3, [pc, #48]	; (800967c <PDM_Filter+0x34>)
 800964c:	6c54      	ldr	r4, [r2, #68]	; 0x44
 800964e:	429c      	cmp	r4, r3
 8009650:	d003      	beq.n	800965a <PDM_Filter+0x12>
 8009652:	2004      	movs	r0, #4
 8009654:	f85d 4b04 	ldr.w	r4, [sp], #4
 8009658:	4770      	bx	lr
 800965a:	6c13      	ldr	r3, [r2, #64]	; 0x40
 800965c:	05dc      	lsls	r4, r3, #23
 800965e:	d407      	bmi.n	8009670 <PDM_Filter+0x28>
 8009660:	f013 0f80 	tst.w	r3, #128	; 0x80
 8009664:	bf14      	ite	ne
 8009666:	2020      	movne	r0, #32
 8009668:	2030      	moveq	r0, #48	; 0x30
 800966a:	f85d 4b04 	ldr.w	r4, [sp], #4
 800966e:	4770      	bx	lr
 8009670:	6c93      	ldr	r3, [r2, #72]	; 0x48
 8009672:	f85d 4b04 	ldr.w	r4, [sp], #4
 8009676:	320c      	adds	r2, #12
 8009678:	4718      	bx	r3
 800967a:	bf00      	nop
 800967c:	b5e8b5cd 	.word	0xb5e8b5cd

08009680 <CRC_Lock>:
 8009680:	4a17      	ldr	r2, [pc, #92]	; (80096e0 <CRC_Lock+0x60>)
 8009682:	6813      	ldr	r3, [r2, #0]
 8009684:	b410      	push	{r4}
 8009686:	f023 0301 	bic.w	r3, r3, #1
 800968a:	4c16      	ldr	r4, [pc, #88]	; (80096e4 <CRC_Lock+0x64>)
 800968c:	6013      	str	r3, [r2, #0]
 800968e:	6823      	ldr	r3, [r4, #0]
 8009690:	b933      	cbnz	r3, 80096a0 <CRC_Lock+0x20>
 8009692:	4b15      	ldr	r3, [pc, #84]	; (80096e8 <CRC_Lock+0x68>)
 8009694:	681b      	ldr	r3, [r3, #0]
 8009696:	f3c3 030b 	ubfx	r3, r3, #0, #12
 800969a:	f5b3 6f8a 	cmp.w	r3, #1104	; 0x450
 800969e:	d00f      	beq.n	80096c0 <CRC_Lock+0x40>
 80096a0:	4a12      	ldr	r2, [pc, #72]	; (80096ec <CRC_Lock+0x6c>)
 80096a2:	2301      	movs	r3, #1
 80096a4:	6013      	str	r3, [r2, #0]
 80096a6:	6813      	ldr	r3, [r2, #0]
 80096a8:	2b00      	cmp	r3, #0
 80096aa:	d1fc      	bne.n	80096a6 <CRC_Lock+0x26>
 80096ac:	4b10      	ldr	r3, [pc, #64]	; (80096f0 <CRC_Lock+0x70>)
 80096ae:	f85d 4b04 	ldr.w	r4, [sp], #4
 80096b2:	6018      	str	r0, [r3, #0]
 80096b4:	6818      	ldr	r0, [r3, #0]
 80096b6:	1a08      	subs	r0, r1, r0
 80096b8:	fab0 f080 	clz	r0, r0
 80096bc:	0940      	lsrs	r0, r0, #5
 80096be:	4770      	bx	lr
 80096c0:	4a0c      	ldr	r2, [pc, #48]	; (80096f4 <CRC_Lock+0x74>)
 80096c2:	2301      	movs	r3, #1
 80096c4:	6013      	str	r3, [r2, #0]
 80096c6:	6813      	ldr	r3, [r2, #0]
 80096c8:	2b00      	cmp	r3, #0
 80096ca:	d1fc      	bne.n	80096c6 <CRC_Lock+0x46>
 80096cc:	4b0a      	ldr	r3, [pc, #40]	; (80096f8 <CRC_Lock+0x78>)
 80096ce:	f85d 4b04 	ldr.w	r4, [sp], #4
 80096d2:	6018      	str	r0, [r3, #0]
 80096d4:	6818      	ldr	r0, [r3, #0]
 80096d6:	1a40      	subs	r0, r0, r1
 80096d8:	fab0 f080 	clz	r0, r0
 80096dc:	0940      	lsrs	r0, r0, #5
 80096de:	4770      	bx	lr
 80096e0:	e0002000 	.word	0xe0002000
 80096e4:	e0042000 	.word	0xe0042000
 80096e8:	5c001000 	.word	0x5c001000
 80096ec:	40023008 	.word	0x40023008
 80096f0:	40023000 	.word	0x40023000
 80096f4:	58024c08 	.word	0x58024c08
 80096f8:	58024c00 	.word	0x58024c00

080096fc <__errno>:
 80096fc:	4b01      	ldr	r3, [pc, #4]	; (8009704 <__errno+0x8>)
 80096fe:	6818      	ldr	r0, [r3, #0]
 8009700:	4770      	bx	lr
 8009702:	bf00      	nop
 8009704:	200004ec 	.word	0x200004ec

08009708 <__libc_init_array>:
 8009708:	b570      	push	{r4, r5, r6, lr}
 800970a:	4e0d      	ldr	r6, [pc, #52]	; (8009740 <__libc_init_array+0x38>)
 800970c:	4c0d      	ldr	r4, [pc, #52]	; (8009744 <__libc_init_array+0x3c>)
 800970e:	1ba4      	subs	r4, r4, r6
 8009710:	10a4      	asrs	r4, r4, #2
 8009712:	2500      	movs	r5, #0
 8009714:	42a5      	cmp	r5, r4
 8009716:	d109      	bne.n	800972c <__libc_init_array+0x24>
 8009718:	4e0b      	ldr	r6, [pc, #44]	; (8009748 <__libc_init_array+0x40>)
 800971a:	4c0c      	ldr	r4, [pc, #48]	; (800974c <__libc_init_array+0x44>)
 800971c:	f001 fcee 	bl	800b0fc <_init>
 8009720:	1ba4      	subs	r4, r4, r6
 8009722:	10a4      	asrs	r4, r4, #2
 8009724:	2500      	movs	r5, #0
 8009726:	42a5      	cmp	r5, r4
 8009728:	d105      	bne.n	8009736 <__libc_init_array+0x2e>
 800972a:	bd70      	pop	{r4, r5, r6, pc}
 800972c:	f856 3025 	ldr.w	r3, [r6, r5, lsl #2]
 8009730:	4798      	blx	r3
 8009732:	3501      	adds	r5, #1
 8009734:	e7ee      	b.n	8009714 <__libc_init_array+0xc>
 8009736:	f856 3025 	ldr.w	r3, [r6, r5, lsl #2]
 800973a:	4798      	blx	r3
 800973c:	3501      	adds	r5, #1
 800973e:	e7f2      	b.n	8009726 <__libc_init_array+0x1e>
 8009740:	080fdef0 	.word	0x080fdef0
 8009744:	080fdef0 	.word	0x080fdef0
 8009748:	080fdef0 	.word	0x080fdef0
 800974c:	080fdef4 	.word	0x080fdef4

08009750 <malloc>:
 8009750:	4b02      	ldr	r3, [pc, #8]	; (800975c <malloc+0xc>)
 8009752:	4601      	mov	r1, r0
 8009754:	6818      	ldr	r0, [r3, #0]
 8009756:	f000 b86d 	b.w	8009834 <_malloc_r>
 800975a:	bf00      	nop
 800975c:	200004ec 	.word	0x200004ec

08009760 <free>:
 8009760:	4b02      	ldr	r3, [pc, #8]	; (800976c <free+0xc>)
 8009762:	4601      	mov	r1, r0
 8009764:	6818      	ldr	r0, [r3, #0]
 8009766:	f000 b817 	b.w	8009798 <_free_r>
 800976a:	bf00      	nop
 800976c:	200004ec 	.word	0x200004ec

08009770 <memcpy>:
 8009770:	b510      	push	{r4, lr}
 8009772:	1e43      	subs	r3, r0, #1
 8009774:	440a      	add	r2, r1
 8009776:	4291      	cmp	r1, r2
 8009778:	d100      	bne.n	800977c <memcpy+0xc>
 800977a:	bd10      	pop	{r4, pc}
 800977c:	f811 4b01 	ldrb.w	r4, [r1], #1
 8009780:	f803 4f01 	strb.w	r4, [r3, #1]!
 8009784:	e7f7      	b.n	8009776 <memcpy+0x6>

08009786 <memset>:
 8009786:	4402      	add	r2, r0
 8009788:	4603      	mov	r3, r0
 800978a:	4293      	cmp	r3, r2
 800978c:	d100      	bne.n	8009790 <memset+0xa>
 800978e:	4770      	bx	lr
 8009790:	f803 1b01 	strb.w	r1, [r3], #1
 8009794:	e7f9      	b.n	800978a <memset+0x4>
	...

08009798 <_free_r>:
 8009798:	b538      	push	{r3, r4, r5, lr}
 800979a:	4605      	mov	r5, r0
 800979c:	2900      	cmp	r1, #0
 800979e:	d045      	beq.n	800982c <_free_r+0x94>
 80097a0:	f851 3c04 	ldr.w	r3, [r1, #-4]
 80097a4:	1f0c      	subs	r4, r1, #4
 80097a6:	2b00      	cmp	r3, #0
 80097a8:	bfb8      	it	lt
 80097aa:	18e4      	addlt	r4, r4, r3
 80097ac:	f000 fec4 	bl	800a538 <__malloc_lock>
 80097b0:	4a1f      	ldr	r2, [pc, #124]	; (8009830 <_free_r+0x98>)
 80097b2:	6813      	ldr	r3, [r2, #0]
 80097b4:	4610      	mov	r0, r2
 80097b6:	b933      	cbnz	r3, 80097c6 <_free_r+0x2e>
 80097b8:	6063      	str	r3, [r4, #4]
 80097ba:	6014      	str	r4, [r2, #0]
 80097bc:	4628      	mov	r0, r5
 80097be:	e8bd 4038 	ldmia.w	sp!, {r3, r4, r5, lr}
 80097c2:	f000 beba 	b.w	800a53a <__malloc_unlock>
 80097c6:	42a3      	cmp	r3, r4
 80097c8:	d90c      	bls.n	80097e4 <_free_r+0x4c>
 80097ca:	6821      	ldr	r1, [r4, #0]
 80097cc:	1862      	adds	r2, r4, r1
 80097ce:	4293      	cmp	r3, r2
 80097d0:	bf04      	itt	eq
 80097d2:	681a      	ldreq	r2, [r3, #0]
 80097d4:	685b      	ldreq	r3, [r3, #4]
 80097d6:	6063      	str	r3, [r4, #4]
 80097d8:	bf04      	itt	eq
 80097da:	1852      	addeq	r2, r2, r1
 80097dc:	6022      	streq	r2, [r4, #0]
 80097de:	6004      	str	r4, [r0, #0]
 80097e0:	e7ec      	b.n	80097bc <_free_r+0x24>
 80097e2:	4613      	mov	r3, r2
 80097e4:	685a      	ldr	r2, [r3, #4]
 80097e6:	b10a      	cbz	r2, 80097ec <_free_r+0x54>
 80097e8:	42a2      	cmp	r2, r4
 80097ea:	d9fa      	bls.n	80097e2 <_free_r+0x4a>
 80097ec:	6819      	ldr	r1, [r3, #0]
 80097ee:	1858      	adds	r0, r3, r1
 80097f0:	42a0      	cmp	r0, r4
 80097f2:	d10b      	bne.n	800980c <_free_r+0x74>
 80097f4:	6820      	ldr	r0, [r4, #0]
 80097f6:	4401      	add	r1, r0
 80097f8:	1858      	adds	r0, r3, r1
 80097fa:	4282      	cmp	r2, r0
 80097fc:	6019      	str	r1, [r3, #0]
 80097fe:	d1dd      	bne.n	80097bc <_free_r+0x24>
 8009800:	6810      	ldr	r0, [r2, #0]
 8009802:	6852      	ldr	r2, [r2, #4]
 8009804:	605a      	str	r2, [r3, #4]
 8009806:	4401      	add	r1, r0
 8009808:	6019      	str	r1, [r3, #0]
 800980a:	e7d7      	b.n	80097bc <_free_r+0x24>
 800980c:	d902      	bls.n	8009814 <_free_r+0x7c>
 800980e:	230c      	movs	r3, #12
 8009810:	602b      	str	r3, [r5, #0]
 8009812:	e7d3      	b.n	80097bc <_free_r+0x24>
 8009814:	6820      	ldr	r0, [r4, #0]
 8009816:	1821      	adds	r1, r4, r0
 8009818:	428a      	cmp	r2, r1
 800981a:	bf04      	itt	eq
 800981c:	6811      	ldreq	r1, [r2, #0]
 800981e:	6852      	ldreq	r2, [r2, #4]
 8009820:	6062      	str	r2, [r4, #4]
 8009822:	bf04      	itt	eq
 8009824:	1809      	addeq	r1, r1, r0
 8009826:	6021      	streq	r1, [r4, #0]
 8009828:	605c      	str	r4, [r3, #4]
 800982a:	e7c7      	b.n	80097bc <_free_r+0x24>
 800982c:	bd38      	pop	{r3, r4, r5, pc}
 800982e:	bf00      	nop
 8009830:	20006038 	.word	0x20006038

08009834 <_malloc_r>:
 8009834:	b570      	push	{r4, r5, r6, lr}
 8009836:	1ccd      	adds	r5, r1, #3
 8009838:	f025 0503 	bic.w	r5, r5, #3
 800983c:	3508      	adds	r5, #8
 800983e:	2d0c      	cmp	r5, #12
 8009840:	bf38      	it	cc
 8009842:	250c      	movcc	r5, #12
 8009844:	2d00      	cmp	r5, #0
 8009846:	4606      	mov	r6, r0
 8009848:	db01      	blt.n	800984e <_malloc_r+0x1a>
 800984a:	42a9      	cmp	r1, r5
 800984c:	d903      	bls.n	8009856 <_malloc_r+0x22>
 800984e:	230c      	movs	r3, #12
 8009850:	6033      	str	r3, [r6, #0]
 8009852:	2000      	movs	r0, #0
 8009854:	bd70      	pop	{r4, r5, r6, pc}
 8009856:	f000 fe6f 	bl	800a538 <__malloc_lock>
 800985a:	4a21      	ldr	r2, [pc, #132]	; (80098e0 <_malloc_r+0xac>)
 800985c:	6814      	ldr	r4, [r2, #0]
 800985e:	4621      	mov	r1, r4
 8009860:	b991      	cbnz	r1, 8009888 <_malloc_r+0x54>
 8009862:	4c20      	ldr	r4, [pc, #128]	; (80098e4 <_malloc_r+0xb0>)
 8009864:	6823      	ldr	r3, [r4, #0]
 8009866:	b91b      	cbnz	r3, 8009870 <_malloc_r+0x3c>
 8009868:	4630      	mov	r0, r6
 800986a:	f000 fb8b 	bl	8009f84 <_sbrk_r>
 800986e:	6020      	str	r0, [r4, #0]
 8009870:	4629      	mov	r1, r5
 8009872:	4630      	mov	r0, r6
 8009874:	f000 fb86 	bl	8009f84 <_sbrk_r>
 8009878:	1c43      	adds	r3, r0, #1
 800987a:	d124      	bne.n	80098c6 <_malloc_r+0x92>
 800987c:	230c      	movs	r3, #12
 800987e:	6033      	str	r3, [r6, #0]
 8009880:	4630      	mov	r0, r6
 8009882:	f000 fe5a 	bl	800a53a <__malloc_unlock>
 8009886:	e7e4      	b.n	8009852 <_malloc_r+0x1e>
 8009888:	680b      	ldr	r3, [r1, #0]
 800988a:	1b5b      	subs	r3, r3, r5
 800988c:	d418      	bmi.n	80098c0 <_malloc_r+0x8c>
 800988e:	2b0b      	cmp	r3, #11
 8009890:	d90f      	bls.n	80098b2 <_malloc_r+0x7e>
 8009892:	600b      	str	r3, [r1, #0]
 8009894:	50cd      	str	r5, [r1, r3]
 8009896:	18cc      	adds	r4, r1, r3
 8009898:	4630      	mov	r0, r6
 800989a:	f000 fe4e 	bl	800a53a <__malloc_unlock>
 800989e:	f104 000b 	add.w	r0, r4, #11
 80098a2:	1d23      	adds	r3, r4, #4
 80098a4:	f020 0007 	bic.w	r0, r0, #7
 80098a8:	1ac3      	subs	r3, r0, r3
 80098aa:	d0d3      	beq.n	8009854 <_malloc_r+0x20>
 80098ac:	425a      	negs	r2, r3
 80098ae:	50e2      	str	r2, [r4, r3]
 80098b0:	e7d0      	b.n	8009854 <_malloc_r+0x20>
 80098b2:	428c      	cmp	r4, r1
 80098b4:	684b      	ldr	r3, [r1, #4]
 80098b6:	bf16      	itet	ne
 80098b8:	6063      	strne	r3, [r4, #4]
 80098ba:	6013      	streq	r3, [r2, #0]
 80098bc:	460c      	movne	r4, r1
 80098be:	e7eb      	b.n	8009898 <_malloc_r+0x64>
 80098c0:	460c      	mov	r4, r1
 80098c2:	6849      	ldr	r1, [r1, #4]
 80098c4:	e7cc      	b.n	8009860 <_malloc_r+0x2c>
 80098c6:	1cc4      	adds	r4, r0, #3
 80098c8:	f024 0403 	bic.w	r4, r4, #3
 80098cc:	42a0      	cmp	r0, r4
 80098ce:	d005      	beq.n	80098dc <_malloc_r+0xa8>
 80098d0:	1a21      	subs	r1, r4, r0
 80098d2:	4630      	mov	r0, r6
 80098d4:	f000 fb56 	bl	8009f84 <_sbrk_r>
 80098d8:	3001      	adds	r0, #1
 80098da:	d0cf      	beq.n	800987c <_malloc_r+0x48>
 80098dc:	6025      	str	r5, [r4, #0]
 80098de:	e7db      	b.n	8009898 <_malloc_r+0x64>
 80098e0:	20006038 	.word	0x20006038
 80098e4:	2000603c 	.word	0x2000603c

080098e8 <__sfputc_r>:
 80098e8:	6893      	ldr	r3, [r2, #8]
 80098ea:	3b01      	subs	r3, #1
 80098ec:	2b00      	cmp	r3, #0
 80098ee:	b410      	push	{r4}
 80098f0:	6093      	str	r3, [r2, #8]
 80098f2:	da08      	bge.n	8009906 <__sfputc_r+0x1e>
 80098f4:	6994      	ldr	r4, [r2, #24]
 80098f6:	42a3      	cmp	r3, r4
 80098f8:	db01      	blt.n	80098fe <__sfputc_r+0x16>
 80098fa:	290a      	cmp	r1, #10
 80098fc:	d103      	bne.n	8009906 <__sfputc_r+0x1e>
 80098fe:	f85d 4b04 	ldr.w	r4, [sp], #4
 8009902:	f000 bb69 	b.w	8009fd8 <__swbuf_r>
 8009906:	6813      	ldr	r3, [r2, #0]
 8009908:	1c58      	adds	r0, r3, #1
 800990a:	6010      	str	r0, [r2, #0]
 800990c:	7019      	strb	r1, [r3, #0]
 800990e:	4608      	mov	r0, r1
 8009910:	f85d 4b04 	ldr.w	r4, [sp], #4
 8009914:	4770      	bx	lr

08009916 <__sfputs_r>:
 8009916:	b5f8      	push	{r3, r4, r5, r6, r7, lr}
 8009918:	4606      	mov	r6, r0
 800991a:	460f      	mov	r7, r1
 800991c:	4614      	mov	r4, r2
 800991e:	18d5      	adds	r5, r2, r3
 8009920:	42ac      	cmp	r4, r5
 8009922:	d101      	bne.n	8009928 <__sfputs_r+0x12>
 8009924:	2000      	movs	r0, #0
 8009926:	e007      	b.n	8009938 <__sfputs_r+0x22>
 8009928:	463a      	mov	r2, r7
 800992a:	f814 1b01 	ldrb.w	r1, [r4], #1
 800992e:	4630      	mov	r0, r6
 8009930:	f7ff ffda 	bl	80098e8 <__sfputc_r>
 8009934:	1c43      	adds	r3, r0, #1
 8009936:	d1f3      	bne.n	8009920 <__sfputs_r+0xa>
 8009938:	bdf8      	pop	{r3, r4, r5, r6, r7, pc}
	...

0800993c <_vfiprintf_r>:
 800993c:	e92d 4ff0 	stmdb	sp!, {r4, r5, r6, r7, r8, r9, sl, fp, lr}
 8009940:	460c      	mov	r4, r1
 8009942:	b09d      	sub	sp, #116	; 0x74
 8009944:	4617      	mov	r7, r2
 8009946:	461d      	mov	r5, r3
 8009948:	4606      	mov	r6, r0
 800994a:	b118      	cbz	r0, 8009954 <_vfiprintf_r+0x18>
 800994c:	6983      	ldr	r3, [r0, #24]
 800994e:	b90b      	cbnz	r3, 8009954 <_vfiprintf_r+0x18>
 8009950:	f000 fcf2 	bl	800a338 <__sinit>
 8009954:	4b7c      	ldr	r3, [pc, #496]	; (8009b48 <_vfiprintf_r+0x20c>)
 8009956:	429c      	cmp	r4, r3
 8009958:	d158      	bne.n	8009a0c <_vfiprintf_r+0xd0>
 800995a:	6874      	ldr	r4, [r6, #4]
 800995c:	89a3      	ldrh	r3, [r4, #12]
 800995e:	0718      	lsls	r0, r3, #28
 8009960:	d55e      	bpl.n	8009a20 <_vfiprintf_r+0xe4>
 8009962:	6923      	ldr	r3, [r4, #16]
 8009964:	2b00      	cmp	r3, #0
 8009966:	d05b      	beq.n	8009a20 <_vfiprintf_r+0xe4>
 8009968:	2300      	movs	r3, #0
 800996a:	9309      	str	r3, [sp, #36]	; 0x24
 800996c:	2320      	movs	r3, #32
 800996e:	f88d 3029 	strb.w	r3, [sp, #41]	; 0x29
 8009972:	2330      	movs	r3, #48	; 0x30
 8009974:	f88d 302a 	strb.w	r3, [sp, #42]	; 0x2a
 8009978:	9503      	str	r5, [sp, #12]
 800997a:	f04f 0b01 	mov.w	fp, #1
 800997e:	46b8      	mov	r8, r7
 8009980:	4645      	mov	r5, r8
 8009982:	f815 3b01 	ldrb.w	r3, [r5], #1
 8009986:	b10b      	cbz	r3, 800998c <_vfiprintf_r+0x50>
 8009988:	2b25      	cmp	r3, #37	; 0x25
 800998a:	d154      	bne.n	8009a36 <_vfiprintf_r+0xfa>
 800998c:	ebb8 0a07 	subs.w	sl, r8, r7
 8009990:	d00b      	beq.n	80099aa <_vfiprintf_r+0x6e>
 8009992:	4653      	mov	r3, sl
 8009994:	463a      	mov	r2, r7
 8009996:	4621      	mov	r1, r4
 8009998:	4630      	mov	r0, r6
 800999a:	f7ff ffbc 	bl	8009916 <__sfputs_r>
 800999e:	3001      	adds	r0, #1
 80099a0:	f000 80c2 	beq.w	8009b28 <_vfiprintf_r+0x1ec>
 80099a4:	9b09      	ldr	r3, [sp, #36]	; 0x24
 80099a6:	4453      	add	r3, sl
 80099a8:	9309      	str	r3, [sp, #36]	; 0x24
 80099aa:	f898 3000 	ldrb.w	r3, [r8]
 80099ae:	2b00      	cmp	r3, #0
 80099b0:	f000 80ba 	beq.w	8009b28 <_vfiprintf_r+0x1ec>
 80099b4:	2300      	movs	r3, #0
 80099b6:	f04f 32ff 	mov.w	r2, #4294967295	; 0xffffffff
 80099ba:	e9cd 2305 	strd	r2, r3, [sp, #20]
 80099be:	9304      	str	r3, [sp, #16]
 80099c0:	9307      	str	r3, [sp, #28]
 80099c2:	f88d 3053 	strb.w	r3, [sp, #83]	; 0x53
 80099c6:	931a      	str	r3, [sp, #104]	; 0x68
 80099c8:	46a8      	mov	r8, r5
 80099ca:	2205      	movs	r2, #5
 80099cc:	f818 1b01 	ldrb.w	r1, [r8], #1
 80099d0:	485e      	ldr	r0, [pc, #376]	; (8009b4c <_vfiprintf_r+0x210>)
 80099d2:	f7f6 fc0d 	bl	80001f0 <memchr>
 80099d6:	9b04      	ldr	r3, [sp, #16]
 80099d8:	bb78      	cbnz	r0, 8009a3a <_vfiprintf_r+0xfe>
 80099da:	06d9      	lsls	r1, r3, #27
 80099dc:	bf44      	itt	mi
 80099de:	2220      	movmi	r2, #32
 80099e0:	f88d 2053 	strbmi.w	r2, [sp, #83]	; 0x53
 80099e4:	071a      	lsls	r2, r3, #28
 80099e6:	bf44      	itt	mi
 80099e8:	222b      	movmi	r2, #43	; 0x2b
 80099ea:	f88d 2053 	strbmi.w	r2, [sp, #83]	; 0x53
 80099ee:	782a      	ldrb	r2, [r5, #0]
 80099f0:	2a2a      	cmp	r2, #42	; 0x2a
 80099f2:	d02a      	beq.n	8009a4a <_vfiprintf_r+0x10e>
 80099f4:	9a07      	ldr	r2, [sp, #28]
 80099f6:	46a8      	mov	r8, r5
 80099f8:	2000      	movs	r0, #0
 80099fa:	250a      	movs	r5, #10
 80099fc:	4641      	mov	r1, r8
 80099fe:	f811 3b01 	ldrb.w	r3, [r1], #1
 8009a02:	3b30      	subs	r3, #48	; 0x30
 8009a04:	2b09      	cmp	r3, #9
 8009a06:	d969      	bls.n	8009adc <_vfiprintf_r+0x1a0>
 8009a08:	b360      	cbz	r0, 8009a64 <_vfiprintf_r+0x128>
 8009a0a:	e024      	b.n	8009a56 <_vfiprintf_r+0x11a>
 8009a0c:	4b50      	ldr	r3, [pc, #320]	; (8009b50 <_vfiprintf_r+0x214>)
 8009a0e:	429c      	cmp	r4, r3
 8009a10:	d101      	bne.n	8009a16 <_vfiprintf_r+0xda>
 8009a12:	68b4      	ldr	r4, [r6, #8]
 8009a14:	e7a2      	b.n	800995c <_vfiprintf_r+0x20>
 8009a16:	4b4f      	ldr	r3, [pc, #316]	; (8009b54 <_vfiprintf_r+0x218>)
 8009a18:	429c      	cmp	r4, r3
 8009a1a:	bf08      	it	eq
 8009a1c:	68f4      	ldreq	r4, [r6, #12]
 8009a1e:	e79d      	b.n	800995c <_vfiprintf_r+0x20>
 8009a20:	4621      	mov	r1, r4
 8009a22:	4630      	mov	r0, r6
 8009a24:	f000 fb2a 	bl	800a07c <__swsetup_r>
 8009a28:	2800      	cmp	r0, #0
 8009a2a:	d09d      	beq.n	8009968 <_vfiprintf_r+0x2c>
 8009a2c:	f04f 30ff 	mov.w	r0, #4294967295	; 0xffffffff
 8009a30:	b01d      	add	sp, #116	; 0x74
 8009a32:	e8bd 8ff0 	ldmia.w	sp!, {r4, r5, r6, r7, r8, r9, sl, fp, pc}
 8009a36:	46a8      	mov	r8, r5
 8009a38:	e7a2      	b.n	8009980 <_vfiprintf_r+0x44>
 8009a3a:	4a44      	ldr	r2, [pc, #272]	; (8009b4c <_vfiprintf_r+0x210>)
 8009a3c:	1a80      	subs	r0, r0, r2
 8009a3e:	fa0b f000 	lsl.w	r0, fp, r0
 8009a42:	4318      	orrs	r0, r3
 8009a44:	9004      	str	r0, [sp, #16]
 8009a46:	4645      	mov	r5, r8
 8009a48:	e7be      	b.n	80099c8 <_vfiprintf_r+0x8c>
 8009a4a:	9a03      	ldr	r2, [sp, #12]
 8009a4c:	1d11      	adds	r1, r2, #4
 8009a4e:	6812      	ldr	r2, [r2, #0]
 8009a50:	9103      	str	r1, [sp, #12]
 8009a52:	2a00      	cmp	r2, #0
 8009a54:	db01      	blt.n	8009a5a <_vfiprintf_r+0x11e>
 8009a56:	9207      	str	r2, [sp, #28]
 8009a58:	e004      	b.n	8009a64 <_vfiprintf_r+0x128>
 8009a5a:	4252      	negs	r2, r2
 8009a5c:	f043 0302 	orr.w	r3, r3, #2
 8009a60:	9207      	str	r2, [sp, #28]
 8009a62:	9304      	str	r3, [sp, #16]
 8009a64:	f898 3000 	ldrb.w	r3, [r8]
 8009a68:	2b2e      	cmp	r3, #46	; 0x2e
 8009a6a:	d10e      	bne.n	8009a8a <_vfiprintf_r+0x14e>
 8009a6c:	f898 3001 	ldrb.w	r3, [r8, #1]
 8009a70:	2b2a      	cmp	r3, #42	; 0x2a
 8009a72:	d138      	bne.n	8009ae6 <_vfiprintf_r+0x1aa>
 8009a74:	9b03      	ldr	r3, [sp, #12]
 8009a76:	1d1a      	adds	r2, r3, #4
 8009a78:	681b      	ldr	r3, [r3, #0]
 8009a7a:	9203      	str	r2, [sp, #12]
 8009a7c:	2b00      	cmp	r3, #0
 8009a7e:	bfb8      	it	lt
 8009a80:	f04f 33ff 	movlt.w	r3, #4294967295	; 0xffffffff
 8009a84:	f108 0802 	add.w	r8, r8, #2
 8009a88:	9305      	str	r3, [sp, #20]
 8009a8a:	4d33      	ldr	r5, [pc, #204]	; (8009b58 <_vfiprintf_r+0x21c>)
 8009a8c:	f898 1000 	ldrb.w	r1, [r8]
 8009a90:	2203      	movs	r2, #3
 8009a92:	4628      	mov	r0, r5
 8009a94:	f7f6 fbac 	bl	80001f0 <memchr>
 8009a98:	b140      	cbz	r0, 8009aac <_vfiprintf_r+0x170>
 8009a9a:	2340      	movs	r3, #64	; 0x40
 8009a9c:	1b40      	subs	r0, r0, r5
 8009a9e:	fa03 f000 	lsl.w	r0, r3, r0
 8009aa2:	9b04      	ldr	r3, [sp, #16]
 8009aa4:	4303      	orrs	r3, r0
 8009aa6:	f108 0801 	add.w	r8, r8, #1
 8009aaa:	9304      	str	r3, [sp, #16]
 8009aac:	f898 1000 	ldrb.w	r1, [r8]
 8009ab0:	482a      	ldr	r0, [pc, #168]	; (8009b5c <_vfiprintf_r+0x220>)
 8009ab2:	f88d 1028 	strb.w	r1, [sp, #40]	; 0x28
 8009ab6:	2206      	movs	r2, #6
 8009ab8:	f108 0701 	add.w	r7, r8, #1
 8009abc:	f7f6 fb98 	bl	80001f0 <memchr>
 8009ac0:	2800      	cmp	r0, #0
 8009ac2:	d037      	beq.n	8009b34 <_vfiprintf_r+0x1f8>
 8009ac4:	4b26      	ldr	r3, [pc, #152]	; (8009b60 <_vfiprintf_r+0x224>)
 8009ac6:	bb1b      	cbnz	r3, 8009b10 <_vfiprintf_r+0x1d4>
 8009ac8:	9b03      	ldr	r3, [sp, #12]
 8009aca:	3307      	adds	r3, #7
 8009acc:	f023 0307 	bic.w	r3, r3, #7
 8009ad0:	3308      	adds	r3, #8
 8009ad2:	9303      	str	r3, [sp, #12]
 8009ad4:	9b09      	ldr	r3, [sp, #36]	; 0x24
 8009ad6:	444b      	add	r3, r9
 8009ad8:	9309      	str	r3, [sp, #36]	; 0x24
 8009ada:	e750      	b.n	800997e <_vfiprintf_r+0x42>
 8009adc:	fb05 3202 	mla	r2, r5, r2, r3
 8009ae0:	2001      	movs	r0, #1
 8009ae2:	4688      	mov	r8, r1
 8009ae4:	e78a      	b.n	80099fc <_vfiprintf_r+0xc0>
 8009ae6:	2300      	movs	r3, #0
 8009ae8:	f108 0801 	add.w	r8, r8, #1
 8009aec:	9305      	str	r3, [sp, #20]
 8009aee:	4619      	mov	r1, r3
 8009af0:	250a      	movs	r5, #10
 8009af2:	4640      	mov	r0, r8
 8009af4:	f810 2b01 	ldrb.w	r2, [r0], #1
 8009af8:	3a30      	subs	r2, #48	; 0x30
 8009afa:	2a09      	cmp	r2, #9
 8009afc:	d903      	bls.n	8009b06 <_vfiprintf_r+0x1ca>
 8009afe:	2b00      	cmp	r3, #0
 8009b00:	d0c3      	beq.n	8009a8a <_vfiprintf_r+0x14e>
 8009b02:	9105      	str	r1, [sp, #20]
 8009b04:	e7c1      	b.n	8009a8a <_vfiprintf_r+0x14e>
 8009b06:	fb05 2101 	mla	r1, r5, r1, r2
 8009b0a:	2301      	movs	r3, #1
 8009b0c:	4680      	mov	r8, r0
 8009b0e:	e7f0      	b.n	8009af2 <_vfiprintf_r+0x1b6>
 8009b10:	ab03      	add	r3, sp, #12
 8009b12:	9300      	str	r3, [sp, #0]
 8009b14:	4622      	mov	r2, r4
 8009b16:	4b13      	ldr	r3, [pc, #76]	; (8009b64 <_vfiprintf_r+0x228>)
 8009b18:	a904      	add	r1, sp, #16
 8009b1a:	4630      	mov	r0, r6
 8009b1c:	f3af 8000 	nop.w
 8009b20:	f1b0 3fff 	cmp.w	r0, #4294967295	; 0xffffffff
 8009b24:	4681      	mov	r9, r0
 8009b26:	d1d5      	bne.n	8009ad4 <_vfiprintf_r+0x198>
 8009b28:	89a3      	ldrh	r3, [r4, #12]
 8009b2a:	065b      	lsls	r3, r3, #25
 8009b2c:	f53f af7e 	bmi.w	8009a2c <_vfiprintf_r+0xf0>
 8009b30:	9809      	ldr	r0, [sp, #36]	; 0x24
 8009b32:	e77d      	b.n	8009a30 <_vfiprintf_r+0xf4>
 8009b34:	ab03      	add	r3, sp, #12
 8009b36:	9300      	str	r3, [sp, #0]
 8009b38:	4622      	mov	r2, r4
 8009b3a:	4b0a      	ldr	r3, [pc, #40]	; (8009b64 <_vfiprintf_r+0x228>)
 8009b3c:	a904      	add	r1, sp, #16
 8009b3e:	4630      	mov	r0, r6
 8009b40:	f000 f892 	bl	8009c68 <_printf_i>
 8009b44:	e7ec      	b.n	8009b20 <_vfiprintf_r+0x1e4>
 8009b46:	bf00      	nop
 8009b48:	080fde80 	.word	0x080fde80
 8009b4c:	080fde2c 	.word	0x080fde2c
 8009b50:	080fdea0 	.word	0x080fdea0
 8009b54:	080fde60 	.word	0x080fde60
 8009b58:	080fde32 	.word	0x080fde32
 8009b5c:	080fde36 	.word	0x080fde36
 8009b60:	00000000 	.word	0x00000000
 8009b64:	08009917 	.word	0x08009917

08009b68 <vfiprintf>:
 8009b68:	4613      	mov	r3, r2
 8009b6a:	460a      	mov	r2, r1
 8009b6c:	4601      	mov	r1, r0
 8009b6e:	4802      	ldr	r0, [pc, #8]	; (8009b78 <vfiprintf+0x10>)
 8009b70:	6800      	ldr	r0, [r0, #0]
 8009b72:	f7ff bee3 	b.w	800993c <_vfiprintf_r>
 8009b76:	bf00      	nop
 8009b78:	200004ec 	.word	0x200004ec

08009b7c <_printf_common>:
 8009b7c:	e92d 47f0 	stmdb	sp!, {r4, r5, r6, r7, r8, r9, sl, lr}
 8009b80:	4691      	mov	r9, r2
 8009b82:	461f      	mov	r7, r3
 8009b84:	688a      	ldr	r2, [r1, #8]
 8009b86:	690b      	ldr	r3, [r1, #16]
 8009b88:	f8dd 8020 	ldr.w	r8, [sp, #32]
 8009b8c:	4293      	cmp	r3, r2
 8009b8e:	bfb8      	it	lt
 8009b90:	4613      	movlt	r3, r2
 8009b92:	f8c9 3000 	str.w	r3, [r9]
 8009b96:	f891 2043 	ldrb.w	r2, [r1, #67]	; 0x43
 8009b9a:	4606      	mov	r6, r0
 8009b9c:	460c      	mov	r4, r1
 8009b9e:	b112      	cbz	r2, 8009ba6 <_printf_common+0x2a>
 8009ba0:	3301      	adds	r3, #1
 8009ba2:	f8c9 3000 	str.w	r3, [r9]
 8009ba6:	6823      	ldr	r3, [r4, #0]
 8009ba8:	0699      	lsls	r1, r3, #26
 8009baa:	bf42      	ittt	mi
 8009bac:	f8d9 3000 	ldrmi.w	r3, [r9]
 8009bb0:	3302      	addmi	r3, #2
 8009bb2:	f8c9 3000 	strmi.w	r3, [r9]
 8009bb6:	6825      	ldr	r5, [r4, #0]
 8009bb8:	f015 0506 	ands.w	r5, r5, #6
 8009bbc:	d107      	bne.n	8009bce <_printf_common+0x52>
 8009bbe:	f104 0a19 	add.w	sl, r4, #25
 8009bc2:	68e3      	ldr	r3, [r4, #12]
 8009bc4:	f8d9 2000 	ldr.w	r2, [r9]
 8009bc8:	1a9b      	subs	r3, r3, r2
 8009bca:	42ab      	cmp	r3, r5
 8009bcc:	dc28      	bgt.n	8009c20 <_printf_common+0xa4>
 8009bce:	f894 3043 	ldrb.w	r3, [r4, #67]	; 0x43
 8009bd2:	6822      	ldr	r2, [r4, #0]
 8009bd4:	3300      	adds	r3, #0
 8009bd6:	bf18      	it	ne
 8009bd8:	2301      	movne	r3, #1
 8009bda:	0692      	lsls	r2, r2, #26
 8009bdc:	d42d      	bmi.n	8009c3a <_printf_common+0xbe>
 8009bde:	f104 0243 	add.w	r2, r4, #67	; 0x43
 8009be2:	4639      	mov	r1, r7
 8009be4:	4630      	mov	r0, r6
 8009be6:	47c0      	blx	r8
 8009be8:	3001      	adds	r0, #1
 8009bea:	d020      	beq.n	8009c2e <_printf_common+0xb2>
 8009bec:	6823      	ldr	r3, [r4, #0]
 8009bee:	68e5      	ldr	r5, [r4, #12]
 8009bf0:	f8d9 2000 	ldr.w	r2, [r9]
 8009bf4:	f003 0306 	and.w	r3, r3, #6
 8009bf8:	2b04      	cmp	r3, #4
 8009bfa:	bf08      	it	eq
 8009bfc:	1aad      	subeq	r5, r5, r2
 8009bfe:	68a3      	ldr	r3, [r4, #8]
 8009c00:	6922      	ldr	r2, [r4, #16]
 8009c02:	bf0c      	ite	eq
 8009c04:	ea25 75e5 	biceq.w	r5, r5, r5, asr #31
 8009c08:	2500      	movne	r5, #0
 8009c0a:	4293      	cmp	r3, r2
 8009c0c:	bfc4      	itt	gt
 8009c0e:	1a9b      	subgt	r3, r3, r2
 8009c10:	18ed      	addgt	r5, r5, r3
 8009c12:	f04f 0900 	mov.w	r9, #0
 8009c16:	341a      	adds	r4, #26
 8009c18:	454d      	cmp	r5, r9
 8009c1a:	d11a      	bne.n	8009c52 <_printf_common+0xd6>
 8009c1c:	2000      	movs	r0, #0
 8009c1e:	e008      	b.n	8009c32 <_printf_common+0xb6>
 8009c20:	2301      	movs	r3, #1
 8009c22:	4652      	mov	r2, sl
 8009c24:	4639      	mov	r1, r7
 8009c26:	4630      	mov	r0, r6
 8009c28:	47c0      	blx	r8
 8009c2a:	3001      	adds	r0, #1
 8009c2c:	d103      	bne.n	8009c36 <_printf_common+0xba>
 8009c2e:	f04f 30ff 	mov.w	r0, #4294967295	; 0xffffffff
 8009c32:	e8bd 87f0 	ldmia.w	sp!, {r4, r5, r6, r7, r8, r9, sl, pc}
 8009c36:	3501      	adds	r5, #1
 8009c38:	e7c3      	b.n	8009bc2 <_printf_common+0x46>
 8009c3a:	18e1      	adds	r1, r4, r3
 8009c3c:	1c5a      	adds	r2, r3, #1
 8009c3e:	2030      	movs	r0, #48	; 0x30
 8009c40:	f881 0043 	strb.w	r0, [r1, #67]	; 0x43
 8009c44:	4422      	add	r2, r4
 8009c46:	f894 1045 	ldrb.w	r1, [r4, #69]	; 0x45
 8009c4a:	f882 1043 	strb.w	r1, [r2, #67]	; 0x43
 8009c4e:	3302      	adds	r3, #2
 8009c50:	e7c5      	b.n	8009bde <_printf_common+0x62>
 8009c52:	2301      	movs	r3, #1
 8009c54:	4622      	mov	r2, r4
 8009c56:	4639      	mov	r1, r7
 8009c58:	4630      	mov	r0, r6
 8009c5a:	47c0      	blx	r8
 8009c5c:	3001      	adds	r0, #1
 8009c5e:	d0e6      	beq.n	8009c2e <_printf_common+0xb2>
 8009c60:	f109 0901 	add.w	r9, r9, #1
 8009c64:	e7d8      	b.n	8009c18 <_printf_common+0x9c>
	...

08009c68 <_printf_i>:
 8009c68:	e92d 43f0 	stmdb	sp!, {r4, r5, r6, r7, r8, r9, lr}
 8009c6c:	f101 0c43 	add.w	ip, r1, #67	; 0x43
 8009c70:	460c      	mov	r4, r1
 8009c72:	7e09      	ldrb	r1, [r1, #24]
 8009c74:	b085      	sub	sp, #20
 8009c76:	296e      	cmp	r1, #110	; 0x6e
 8009c78:	4617      	mov	r7, r2
 8009c7a:	4606      	mov	r6, r0
 8009c7c:	4698      	mov	r8, r3
 8009c7e:	9a0c      	ldr	r2, [sp, #48]	; 0x30
 8009c80:	f000 80b3 	beq.w	8009dea <_printf_i+0x182>
 8009c84:	d822      	bhi.n	8009ccc <_printf_i+0x64>
 8009c86:	2963      	cmp	r1, #99	; 0x63
 8009c88:	d036      	beq.n	8009cf8 <_printf_i+0x90>
 8009c8a:	d80a      	bhi.n	8009ca2 <_printf_i+0x3a>
 8009c8c:	2900      	cmp	r1, #0
 8009c8e:	f000 80b9 	beq.w	8009e04 <_printf_i+0x19c>
 8009c92:	2958      	cmp	r1, #88	; 0x58
 8009c94:	f000 8083 	beq.w	8009d9e <_printf_i+0x136>
 8009c98:	f104 0542 	add.w	r5, r4, #66	; 0x42
 8009c9c:	f884 1042 	strb.w	r1, [r4, #66]	; 0x42
 8009ca0:	e032      	b.n	8009d08 <_printf_i+0xa0>
 8009ca2:	2964      	cmp	r1, #100	; 0x64
 8009ca4:	d001      	beq.n	8009caa <_printf_i+0x42>
 8009ca6:	2969      	cmp	r1, #105	; 0x69
 8009ca8:	d1f6      	bne.n	8009c98 <_printf_i+0x30>
 8009caa:	6820      	ldr	r0, [r4, #0]
 8009cac:	6813      	ldr	r3, [r2, #0]
 8009cae:	0605      	lsls	r5, r0, #24
 8009cb0:	f103 0104 	add.w	r1, r3, #4
 8009cb4:	d52a      	bpl.n	8009d0c <_printf_i+0xa4>
 8009cb6:	681b      	ldr	r3, [r3, #0]
 8009cb8:	6011      	str	r1, [r2, #0]
 8009cba:	2b00      	cmp	r3, #0
 8009cbc:	da03      	bge.n	8009cc6 <_printf_i+0x5e>
 8009cbe:	222d      	movs	r2, #45	; 0x2d
 8009cc0:	425b      	negs	r3, r3
 8009cc2:	f884 2043 	strb.w	r2, [r4, #67]	; 0x43
 8009cc6:	486f      	ldr	r0, [pc, #444]	; (8009e84 <_printf_i+0x21c>)
 8009cc8:	220a      	movs	r2, #10
 8009cca:	e039      	b.n	8009d40 <_printf_i+0xd8>
 8009ccc:	2973      	cmp	r1, #115	; 0x73
 8009cce:	f000 809d 	beq.w	8009e0c <_printf_i+0x1a4>
 8009cd2:	d808      	bhi.n	8009ce6 <_printf_i+0x7e>
 8009cd4:	296f      	cmp	r1, #111	; 0x6f
 8009cd6:	d020      	beq.n	8009d1a <_printf_i+0xb2>
 8009cd8:	2970      	cmp	r1, #112	; 0x70
 8009cda:	d1dd      	bne.n	8009c98 <_printf_i+0x30>
 8009cdc:	6823      	ldr	r3, [r4, #0]
 8009cde:	f043 0320 	orr.w	r3, r3, #32
 8009ce2:	6023      	str	r3, [r4, #0]
 8009ce4:	e003      	b.n	8009cee <_printf_i+0x86>
 8009ce6:	2975      	cmp	r1, #117	; 0x75
 8009ce8:	d017      	beq.n	8009d1a <_printf_i+0xb2>
 8009cea:	2978      	cmp	r1, #120	; 0x78
 8009cec:	d1d4      	bne.n	8009c98 <_printf_i+0x30>
 8009cee:	2378      	movs	r3, #120	; 0x78
 8009cf0:	f884 3045 	strb.w	r3, [r4, #69]	; 0x45
 8009cf4:	4864      	ldr	r0, [pc, #400]	; (8009e88 <_printf_i+0x220>)
 8009cf6:	e055      	b.n	8009da4 <_printf_i+0x13c>
 8009cf8:	6813      	ldr	r3, [r2, #0]
 8009cfa:	1d19      	adds	r1, r3, #4
 8009cfc:	681b      	ldr	r3, [r3, #0]
 8009cfe:	6011      	str	r1, [r2, #0]
 8009d00:	f104 0542 	add.w	r5, r4, #66	; 0x42
 8009d04:	f884 3042 	strb.w	r3, [r4, #66]	; 0x42
 8009d08:	2301      	movs	r3, #1
 8009d0a:	e08c      	b.n	8009e26 <_printf_i+0x1be>
 8009d0c:	681b      	ldr	r3, [r3, #0]
 8009d0e:	6011      	str	r1, [r2, #0]
 8009d10:	f010 0f40 	tst.w	r0, #64	; 0x40
 8009d14:	bf18      	it	ne
 8009d16:	b21b      	sxthne	r3, r3
 8009d18:	e7cf      	b.n	8009cba <_printf_i+0x52>
 8009d1a:	6813      	ldr	r3, [r2, #0]
 8009d1c:	6825      	ldr	r5, [r4, #0]
 8009d1e:	1d18      	adds	r0, r3, #4
 8009d20:	6010      	str	r0, [r2, #0]
 8009d22:	0628      	lsls	r0, r5, #24
 8009d24:	d501      	bpl.n	8009d2a <_printf_i+0xc2>
 8009d26:	681b      	ldr	r3, [r3, #0]
 8009d28:	e002      	b.n	8009d30 <_printf_i+0xc8>
 8009d2a:	0668      	lsls	r0, r5, #25
 8009d2c:	d5fb      	bpl.n	8009d26 <_printf_i+0xbe>
 8009d2e:	881b      	ldrh	r3, [r3, #0]
 8009d30:	4854      	ldr	r0, [pc, #336]	; (8009e84 <_printf_i+0x21c>)
 8009d32:	296f      	cmp	r1, #111	; 0x6f
 8009d34:	bf14      	ite	ne
 8009d36:	220a      	movne	r2, #10
 8009d38:	2208      	moveq	r2, #8
 8009d3a:	2100      	movs	r1, #0
 8009d3c:	f884 1043 	strb.w	r1, [r4, #67]	; 0x43
 8009d40:	6865      	ldr	r5, [r4, #4]
 8009d42:	60a5      	str	r5, [r4, #8]
 8009d44:	2d00      	cmp	r5, #0
 8009d46:	f2c0 8095 	blt.w	8009e74 <_printf_i+0x20c>
 8009d4a:	6821      	ldr	r1, [r4, #0]
 8009d4c:	f021 0104 	bic.w	r1, r1, #4
 8009d50:	6021      	str	r1, [r4, #0]
 8009d52:	2b00      	cmp	r3, #0
 8009d54:	d13d      	bne.n	8009dd2 <_printf_i+0x16a>
 8009d56:	2d00      	cmp	r5, #0
 8009d58:	f040 808e 	bne.w	8009e78 <_printf_i+0x210>
 8009d5c:	4665      	mov	r5, ip
 8009d5e:	2a08      	cmp	r2, #8
 8009d60:	d10b      	bne.n	8009d7a <_printf_i+0x112>
 8009d62:	6823      	ldr	r3, [r4, #0]
 8009d64:	07db      	lsls	r3, r3, #31
 8009d66:	d508      	bpl.n	8009d7a <_printf_i+0x112>
 8009d68:	6923      	ldr	r3, [r4, #16]
 8009d6a:	6862      	ldr	r2, [r4, #4]
 8009d6c:	429a      	cmp	r2, r3
 8009d6e:	bfde      	ittt	le
 8009d70:	2330      	movle	r3, #48	; 0x30
 8009d72:	f805 3c01 	strble.w	r3, [r5, #-1]
 8009d76:	f105 35ff 	addle.w	r5, r5, #4294967295	; 0xffffffff
 8009d7a:	ebac 0305 	sub.w	r3, ip, r5
 8009d7e:	6123      	str	r3, [r4, #16]
 8009d80:	f8cd 8000 	str.w	r8, [sp]
 8009d84:	463b      	mov	r3, r7
 8009d86:	aa03      	add	r2, sp, #12
 8009d88:	4621      	mov	r1, r4
 8009d8a:	4630      	mov	r0, r6
 8009d8c:	f7ff fef6 	bl	8009b7c <_printf_common>
 8009d90:	3001      	adds	r0, #1
 8009d92:	d14d      	bne.n	8009e30 <_printf_i+0x1c8>
 8009d94:	f04f 30ff 	mov.w	r0, #4294967295	; 0xffffffff
 8009d98:	b005      	add	sp, #20
 8009d9a:	e8bd 83f0 	ldmia.w	sp!, {r4, r5, r6, r7, r8, r9, pc}
 8009d9e:	4839      	ldr	r0, [pc, #228]	; (8009e84 <_printf_i+0x21c>)
 8009da0:	f884 1045 	strb.w	r1, [r4, #69]	; 0x45
 8009da4:	6813      	ldr	r3, [r2, #0]
 8009da6:	6821      	ldr	r1, [r4, #0]
 8009da8:	1d1d      	adds	r5, r3, #4
 8009daa:	681b      	ldr	r3, [r3, #0]
 8009dac:	6015      	str	r5, [r2, #0]
 8009dae:	060a      	lsls	r2, r1, #24
 8009db0:	d50b      	bpl.n	8009dca <_printf_i+0x162>
 8009db2:	07ca      	lsls	r2, r1, #31
 8009db4:	bf44      	itt	mi
 8009db6:	f041 0120 	orrmi.w	r1, r1, #32
 8009dba:	6021      	strmi	r1, [r4, #0]
 8009dbc:	b91b      	cbnz	r3, 8009dc6 <_printf_i+0x15e>
 8009dbe:	6822      	ldr	r2, [r4, #0]
 8009dc0:	f022 0220 	bic.w	r2, r2, #32
 8009dc4:	6022      	str	r2, [r4, #0]
 8009dc6:	2210      	movs	r2, #16
 8009dc8:	e7b7      	b.n	8009d3a <_printf_i+0xd2>
 8009dca:	064d      	lsls	r5, r1, #25
 8009dcc:	bf48      	it	mi
 8009dce:	b29b      	uxthmi	r3, r3
 8009dd0:	e7ef      	b.n	8009db2 <_printf_i+0x14a>
 8009dd2:	4665      	mov	r5, ip
 8009dd4:	fbb3 f1f2 	udiv	r1, r3, r2
 8009dd8:	fb02 3311 	mls	r3, r2, r1, r3
 8009ddc:	5cc3      	ldrb	r3, [r0, r3]
 8009dde:	f805 3d01 	strb.w	r3, [r5, #-1]!
 8009de2:	460b      	mov	r3, r1
 8009de4:	2900      	cmp	r1, #0
 8009de6:	d1f5      	bne.n	8009dd4 <_printf_i+0x16c>
 8009de8:	e7b9      	b.n	8009d5e <_printf_i+0xf6>
 8009dea:	6813      	ldr	r3, [r2, #0]
 8009dec:	6825      	ldr	r5, [r4, #0]
 8009dee:	6961      	ldr	r1, [r4, #20]
 8009df0:	1d18      	adds	r0, r3, #4
 8009df2:	6010      	str	r0, [r2, #0]
 8009df4:	0628      	lsls	r0, r5, #24
 8009df6:	681b      	ldr	r3, [r3, #0]
 8009df8:	d501      	bpl.n	8009dfe <_printf_i+0x196>
 8009dfa:	6019      	str	r1, [r3, #0]
 8009dfc:	e002      	b.n	8009e04 <_printf_i+0x19c>
 8009dfe:	066a      	lsls	r2, r5, #25
 8009e00:	d5fb      	bpl.n	8009dfa <_printf_i+0x192>
 8009e02:	8019      	strh	r1, [r3, #0]
 8009e04:	2300      	movs	r3, #0
 8009e06:	6123      	str	r3, [r4, #16]
 8009e08:	4665      	mov	r5, ip
 8009e0a:	e7b9      	b.n	8009d80 <_printf_i+0x118>
 8009e0c:	6813      	ldr	r3, [r2, #0]
 8009e0e:	1d19      	adds	r1, r3, #4
 8009e10:	6011      	str	r1, [r2, #0]
 8009e12:	681d      	ldr	r5, [r3, #0]
 8009e14:	6862      	ldr	r2, [r4, #4]
 8009e16:	2100      	movs	r1, #0
 8009e18:	4628      	mov	r0, r5
 8009e1a:	f7f6 f9e9 	bl	80001f0 <memchr>
 8009e1e:	b108      	cbz	r0, 8009e24 <_printf_i+0x1bc>
 8009e20:	1b40      	subs	r0, r0, r5
 8009e22:	6060      	str	r0, [r4, #4]
 8009e24:	6863      	ldr	r3, [r4, #4]
 8009e26:	6123      	str	r3, [r4, #16]
 8009e28:	2300      	movs	r3, #0
 8009e2a:	f884 3043 	strb.w	r3, [r4, #67]	; 0x43
 8009e2e:	e7a7      	b.n	8009d80 <_printf_i+0x118>
 8009e30:	6923      	ldr	r3, [r4, #16]
 8009e32:	462a      	mov	r2, r5
 8009e34:	4639      	mov	r1, r7
 8009e36:	4630      	mov	r0, r6
 8009e38:	47c0      	blx	r8
 8009e3a:	3001      	adds	r0, #1
 8009e3c:	d0aa      	beq.n	8009d94 <_printf_i+0x12c>
 8009e3e:	6823      	ldr	r3, [r4, #0]
 8009e40:	079b      	lsls	r3, r3, #30
 8009e42:	d413      	bmi.n	8009e6c <_printf_i+0x204>
 8009e44:	68e0      	ldr	r0, [r4, #12]
 8009e46:	9b03      	ldr	r3, [sp, #12]
 8009e48:	4298      	cmp	r0, r3
 8009e4a:	bfb8      	it	lt
 8009e4c:	4618      	movlt	r0, r3
 8009e4e:	e7a3      	b.n	8009d98 <_printf_i+0x130>
 8009e50:	2301      	movs	r3, #1
 8009e52:	464a      	mov	r2, r9
 8009e54:	4639      	mov	r1, r7
 8009e56:	4630      	mov	r0, r6
 8009e58:	47c0      	blx	r8
 8009e5a:	3001      	adds	r0, #1
 8009e5c:	d09a      	beq.n	8009d94 <_printf_i+0x12c>
 8009e5e:	3501      	adds	r5, #1
 8009e60:	68e3      	ldr	r3, [r4, #12]
 8009e62:	9a03      	ldr	r2, [sp, #12]
 8009e64:	1a9b      	subs	r3, r3, r2
 8009e66:	42ab      	cmp	r3, r5
 8009e68:	dcf2      	bgt.n	8009e50 <_printf_i+0x1e8>
 8009e6a:	e7eb      	b.n	8009e44 <_printf_i+0x1dc>
 8009e6c:	2500      	movs	r5, #0
 8009e6e:	f104 0919 	add.w	r9, r4, #25
 8009e72:	e7f5      	b.n	8009e60 <_printf_i+0x1f8>
 8009e74:	2b00      	cmp	r3, #0
 8009e76:	d1ac      	bne.n	8009dd2 <_printf_i+0x16a>
 8009e78:	7803      	ldrb	r3, [r0, #0]
 8009e7a:	f884 3042 	strb.w	r3, [r4, #66]	; 0x42
 8009e7e:	f104 0542 	add.w	r5, r4, #66	; 0x42
 8009e82:	e76c      	b.n	8009d5e <_printf_i+0xf6>
 8009e84:	080fde3d 	.word	0x080fde3d
 8009e88:	080fde4e 	.word	0x080fde4e

08009e8c <iprintf>:
 8009e8c:	b40f      	push	{r0, r1, r2, r3}
 8009e8e:	4b0a      	ldr	r3, [pc, #40]	; (8009eb8 <iprintf+0x2c>)
 8009e90:	b513      	push	{r0, r1, r4, lr}
 8009e92:	681c      	ldr	r4, [r3, #0]
 8009e94:	b124      	cbz	r4, 8009ea0 <iprintf+0x14>
 8009e96:	69a3      	ldr	r3, [r4, #24]
 8009e98:	b913      	cbnz	r3, 8009ea0 <iprintf+0x14>
 8009e9a:	4620      	mov	r0, r4
 8009e9c:	f000 fa4c 	bl	800a338 <__sinit>
 8009ea0:	ab05      	add	r3, sp, #20
 8009ea2:	9a04      	ldr	r2, [sp, #16]
 8009ea4:	68a1      	ldr	r1, [r4, #8]
 8009ea6:	9301      	str	r3, [sp, #4]
 8009ea8:	4620      	mov	r0, r4
 8009eaa:	f7ff fd47 	bl	800993c <_vfiprintf_r>
 8009eae:	b002      	add	sp, #8
 8009eb0:	e8bd 4010 	ldmia.w	sp!, {r4, lr}
 8009eb4:	b004      	add	sp, #16
 8009eb6:	4770      	bx	lr
 8009eb8:	200004ec 	.word	0x200004ec

08009ebc <_puts_r>:
 8009ebc:	b570      	push	{r4, r5, r6, lr}
 8009ebe:	460e      	mov	r6, r1
 8009ec0:	4605      	mov	r5, r0
 8009ec2:	b118      	cbz	r0, 8009ecc <_puts_r+0x10>
 8009ec4:	6983      	ldr	r3, [r0, #24]
 8009ec6:	b90b      	cbnz	r3, 8009ecc <_puts_r+0x10>
 8009ec8:	f000 fa36 	bl	800a338 <__sinit>
 8009ecc:	69ab      	ldr	r3, [r5, #24]
 8009ece:	68ac      	ldr	r4, [r5, #8]
 8009ed0:	b913      	cbnz	r3, 8009ed8 <_puts_r+0x1c>
 8009ed2:	4628      	mov	r0, r5
 8009ed4:	f000 fa30 	bl	800a338 <__sinit>
 8009ed8:	4b23      	ldr	r3, [pc, #140]	; (8009f68 <_puts_r+0xac>)
 8009eda:	429c      	cmp	r4, r3
 8009edc:	d117      	bne.n	8009f0e <_puts_r+0x52>
 8009ede:	686c      	ldr	r4, [r5, #4]
 8009ee0:	89a3      	ldrh	r3, [r4, #12]
 8009ee2:	071b      	lsls	r3, r3, #28
 8009ee4:	d51d      	bpl.n	8009f22 <_puts_r+0x66>
 8009ee6:	6923      	ldr	r3, [r4, #16]
 8009ee8:	b1db      	cbz	r3, 8009f22 <_puts_r+0x66>
 8009eea:	3e01      	subs	r6, #1
 8009eec:	68a3      	ldr	r3, [r4, #8]
 8009eee:	f816 1f01 	ldrb.w	r1, [r6, #1]!
 8009ef2:	3b01      	subs	r3, #1
 8009ef4:	60a3      	str	r3, [r4, #8]
 8009ef6:	b9e9      	cbnz	r1, 8009f34 <_puts_r+0x78>
 8009ef8:	2b00      	cmp	r3, #0
 8009efa:	da2e      	bge.n	8009f5a <_puts_r+0x9e>
 8009efc:	4622      	mov	r2, r4
 8009efe:	210a      	movs	r1, #10
 8009f00:	4628      	mov	r0, r5
 8009f02:	f000 f869 	bl	8009fd8 <__swbuf_r>
 8009f06:	3001      	adds	r0, #1
 8009f08:	d011      	beq.n	8009f2e <_puts_r+0x72>
 8009f0a:	200a      	movs	r0, #10
 8009f0c:	e011      	b.n	8009f32 <_puts_r+0x76>
 8009f0e:	4b17      	ldr	r3, [pc, #92]	; (8009f6c <_puts_r+0xb0>)
 8009f10:	429c      	cmp	r4, r3
 8009f12:	d101      	bne.n	8009f18 <_puts_r+0x5c>
 8009f14:	68ac      	ldr	r4, [r5, #8]
 8009f16:	e7e3      	b.n	8009ee0 <_puts_r+0x24>
 8009f18:	4b15      	ldr	r3, [pc, #84]	; (8009f70 <_puts_r+0xb4>)
 8009f1a:	429c      	cmp	r4, r3
 8009f1c:	bf08      	it	eq
 8009f1e:	68ec      	ldreq	r4, [r5, #12]
 8009f20:	e7de      	b.n	8009ee0 <_puts_r+0x24>
 8009f22:	4621      	mov	r1, r4
 8009f24:	4628      	mov	r0, r5
 8009f26:	f000 f8a9 	bl	800a07c <__swsetup_r>
 8009f2a:	2800      	cmp	r0, #0
 8009f2c:	d0dd      	beq.n	8009eea <_puts_r+0x2e>
 8009f2e:	f04f 30ff 	mov.w	r0, #4294967295	; 0xffffffff
 8009f32:	bd70      	pop	{r4, r5, r6, pc}
 8009f34:	2b00      	cmp	r3, #0
 8009f36:	da04      	bge.n	8009f42 <_puts_r+0x86>
 8009f38:	69a2      	ldr	r2, [r4, #24]
 8009f3a:	429a      	cmp	r2, r3
 8009f3c:	dc06      	bgt.n	8009f4c <_puts_r+0x90>
 8009f3e:	290a      	cmp	r1, #10
 8009f40:	d004      	beq.n	8009f4c <_puts_r+0x90>
 8009f42:	6823      	ldr	r3, [r4, #0]
 8009f44:	1c5a      	adds	r2, r3, #1
 8009f46:	6022      	str	r2, [r4, #0]
 8009f48:	7019      	strb	r1, [r3, #0]
 8009f4a:	e7cf      	b.n	8009eec <_puts_r+0x30>
 8009f4c:	4622      	mov	r2, r4
 8009f4e:	4628      	mov	r0, r5
 8009f50:	f000 f842 	bl	8009fd8 <__swbuf_r>
 8009f54:	3001      	adds	r0, #1
 8009f56:	d1c9      	bne.n	8009eec <_puts_r+0x30>
 8009f58:	e7e9      	b.n	8009f2e <_puts_r+0x72>
 8009f5a:	6823      	ldr	r3, [r4, #0]
 8009f5c:	200a      	movs	r0, #10
 8009f5e:	1c5a      	adds	r2, r3, #1
 8009f60:	6022      	str	r2, [r4, #0]
 8009f62:	7018      	strb	r0, [r3, #0]
 8009f64:	e7e5      	b.n	8009f32 <_puts_r+0x76>
 8009f66:	bf00      	nop
 8009f68:	080fde80 	.word	0x080fde80
 8009f6c:	080fdea0 	.word	0x080fdea0
 8009f70:	080fde60 	.word	0x080fde60

08009f74 <puts>:
 8009f74:	4b02      	ldr	r3, [pc, #8]	; (8009f80 <puts+0xc>)
 8009f76:	4601      	mov	r1, r0
 8009f78:	6818      	ldr	r0, [r3, #0]
 8009f7a:	f7ff bf9f 	b.w	8009ebc <_puts_r>
 8009f7e:	bf00      	nop
 8009f80:	200004ec 	.word	0x200004ec

08009f84 <_sbrk_r>:
 8009f84:	b538      	push	{r3, r4, r5, lr}
 8009f86:	4c06      	ldr	r4, [pc, #24]	; (8009fa0 <_sbrk_r+0x1c>)
 8009f88:	2300      	movs	r3, #0
 8009f8a:	4605      	mov	r5, r0
 8009f8c:	4608      	mov	r0, r1
 8009f8e:	6023      	str	r3, [r4, #0]
 8009f90:	f7fb f9be 	bl	8005310 <_sbrk>
 8009f94:	1c43      	adds	r3, r0, #1
 8009f96:	d102      	bne.n	8009f9e <_sbrk_r+0x1a>
 8009f98:	6823      	ldr	r3, [r4, #0]
 8009f9a:	b103      	cbz	r3, 8009f9e <_sbrk_r+0x1a>
 8009f9c:	602b      	str	r3, [r5, #0]
 8009f9e:	bd38      	pop	{r3, r4, r5, pc}
 8009fa0:	20006250 	.word	0x20006250

08009fa4 <time>:
 8009fa4:	b51f      	push	{r0, r1, r2, r3, r4, lr}
 8009fa6:	4b0b      	ldr	r3, [pc, #44]	; (8009fd4 <time+0x30>)
 8009fa8:	4604      	mov	r4, r0
 8009faa:	2200      	movs	r2, #0
 8009fac:	4669      	mov	r1, sp
 8009fae:	6818      	ldr	r0, [r3, #0]
 8009fb0:	f000 fa4c 	bl	800a44c <_gettimeofday_r>
 8009fb4:	2800      	cmp	r0, #0
 8009fb6:	da05      	bge.n	8009fc4 <time+0x20>
 8009fb8:	f04f 32ff 	mov.w	r2, #4294967295	; 0xffffffff
 8009fbc:	f04f 33ff 	mov.w	r3, #4294967295	; 0xffffffff
 8009fc0:	e9cd 2300 	strd	r2, r3, [sp]
 8009fc4:	e9dd 0100 	ldrd	r0, r1, [sp]
 8009fc8:	b10c      	cbz	r4, 8009fce <time+0x2a>
 8009fca:	e9c4 0100 	strd	r0, r1, [r4]
 8009fce:	b004      	add	sp, #16
 8009fd0:	bd10      	pop	{r4, pc}
 8009fd2:	bf00      	nop
 8009fd4:	200004ec 	.word	0x200004ec

08009fd8 <__swbuf_r>:
 8009fd8:	b5f8      	push	{r3, r4, r5, r6, r7, lr}
 8009fda:	460e      	mov	r6, r1
 8009fdc:	4614      	mov	r4, r2
 8009fde:	4605      	mov	r5, r0
 8009fe0:	b118      	cbz	r0, 8009fea <__swbuf_r+0x12>
 8009fe2:	6983      	ldr	r3, [r0, #24]
 8009fe4:	b90b      	cbnz	r3, 8009fea <__swbuf_r+0x12>
 8009fe6:	f000 f9a7 	bl	800a338 <__sinit>
 8009fea:	4b21      	ldr	r3, [pc, #132]	; (800a070 <__swbuf_r+0x98>)
 8009fec:	429c      	cmp	r4, r3
 8009fee:	d12a      	bne.n	800a046 <__swbuf_r+0x6e>
 8009ff0:	686c      	ldr	r4, [r5, #4]
 8009ff2:	69a3      	ldr	r3, [r4, #24]
 8009ff4:	60a3      	str	r3, [r4, #8]
 8009ff6:	89a3      	ldrh	r3, [r4, #12]
 8009ff8:	071a      	lsls	r2, r3, #28
 8009ffa:	d52e      	bpl.n	800a05a <__swbuf_r+0x82>
 8009ffc:	6923      	ldr	r3, [r4, #16]
 8009ffe:	b363      	cbz	r3, 800a05a <__swbuf_r+0x82>
 800a000:	6923      	ldr	r3, [r4, #16]
 800a002:	6820      	ldr	r0, [r4, #0]
 800a004:	1ac0      	subs	r0, r0, r3
 800a006:	6963      	ldr	r3, [r4, #20]
 800a008:	b2f6      	uxtb	r6, r6
 800a00a:	4283      	cmp	r3, r0
 800a00c:	4637      	mov	r7, r6
 800a00e:	dc04      	bgt.n	800a01a <__swbuf_r+0x42>
 800a010:	4621      	mov	r1, r4
 800a012:	4628      	mov	r0, r5
 800a014:	f000 f926 	bl	800a264 <_fflush_r>
 800a018:	bb28      	cbnz	r0, 800a066 <__swbuf_r+0x8e>
 800a01a:	68a3      	ldr	r3, [r4, #8]
 800a01c:	3b01      	subs	r3, #1
 800a01e:	60a3      	str	r3, [r4, #8]
 800a020:	6823      	ldr	r3, [r4, #0]
 800a022:	1c5a      	adds	r2, r3, #1
 800a024:	6022      	str	r2, [r4, #0]
 800a026:	701e      	strb	r6, [r3, #0]
 800a028:	6963      	ldr	r3, [r4, #20]
 800a02a:	3001      	adds	r0, #1
 800a02c:	4283      	cmp	r3, r0
 800a02e:	d004      	beq.n	800a03a <__swbuf_r+0x62>
 800a030:	89a3      	ldrh	r3, [r4, #12]
 800a032:	07db      	lsls	r3, r3, #31
 800a034:	d519      	bpl.n	800a06a <__swbuf_r+0x92>
 800a036:	2e0a      	cmp	r6, #10
 800a038:	d117      	bne.n	800a06a <__swbuf_r+0x92>
 800a03a:	4621      	mov	r1, r4
 800a03c:	4628      	mov	r0, r5
 800a03e:	f000 f911 	bl	800a264 <_fflush_r>
 800a042:	b190      	cbz	r0, 800a06a <__swbuf_r+0x92>
 800a044:	e00f      	b.n	800a066 <__swbuf_r+0x8e>
 800a046:	4b0b      	ldr	r3, [pc, #44]	; (800a074 <__swbuf_r+0x9c>)
 800a048:	429c      	cmp	r4, r3
 800a04a:	d101      	bne.n	800a050 <__swbuf_r+0x78>
 800a04c:	68ac      	ldr	r4, [r5, #8]
 800a04e:	e7d0      	b.n	8009ff2 <__swbuf_r+0x1a>
 800a050:	4b09      	ldr	r3, [pc, #36]	; (800a078 <__swbuf_r+0xa0>)
 800a052:	429c      	cmp	r4, r3
 800a054:	bf08      	it	eq
 800a056:	68ec      	ldreq	r4, [r5, #12]
 800a058:	e7cb      	b.n	8009ff2 <__swbuf_r+0x1a>
 800a05a:	4621      	mov	r1, r4
 800a05c:	4628      	mov	r0, r5
 800a05e:	f000 f80d 	bl	800a07c <__swsetup_r>
 800a062:	2800      	cmp	r0, #0
 800a064:	d0cc      	beq.n	800a000 <__swbuf_r+0x28>
 800a066:	f04f 37ff 	mov.w	r7, #4294967295	; 0xffffffff
 800a06a:	4638      	mov	r0, r7
 800a06c:	bdf8      	pop	{r3, r4, r5, r6, r7, pc}
 800a06e:	bf00      	nop
 800a070:	080fde80 	.word	0x080fde80
 800a074:	080fdea0 	.word	0x080fdea0
 800a078:	080fde60 	.word	0x080fde60

0800a07c <__swsetup_r>:
 800a07c:	4b32      	ldr	r3, [pc, #200]	; (800a148 <__swsetup_r+0xcc>)
 800a07e:	b570      	push	{r4, r5, r6, lr}
 800a080:	681d      	ldr	r5, [r3, #0]
 800a082:	4606      	mov	r6, r0
 800a084:	460c      	mov	r4, r1
 800a086:	b125      	cbz	r5, 800a092 <__swsetup_r+0x16>
 800a088:	69ab      	ldr	r3, [r5, #24]
 800a08a:	b913      	cbnz	r3, 800a092 <__swsetup_r+0x16>
 800a08c:	4628      	mov	r0, r5
 800a08e:	f000 f953 	bl	800a338 <__sinit>
 800a092:	4b2e      	ldr	r3, [pc, #184]	; (800a14c <__swsetup_r+0xd0>)
 800a094:	429c      	cmp	r4, r3
 800a096:	d10f      	bne.n	800a0b8 <__swsetup_r+0x3c>
 800a098:	686c      	ldr	r4, [r5, #4]
 800a09a:	f9b4 300c 	ldrsh.w	r3, [r4, #12]
 800a09e:	b29a      	uxth	r2, r3
 800a0a0:	0715      	lsls	r5, r2, #28
 800a0a2:	d42c      	bmi.n	800a0fe <__swsetup_r+0x82>
 800a0a4:	06d0      	lsls	r0, r2, #27
 800a0a6:	d411      	bmi.n	800a0cc <__swsetup_r+0x50>
 800a0a8:	2209      	movs	r2, #9
 800a0aa:	6032      	str	r2, [r6, #0]
 800a0ac:	f043 0340 	orr.w	r3, r3, #64	; 0x40
 800a0b0:	81a3      	strh	r3, [r4, #12]
 800a0b2:	f04f 30ff 	mov.w	r0, #4294967295	; 0xffffffff
 800a0b6:	e03e      	b.n	800a136 <__swsetup_r+0xba>
 800a0b8:	4b25      	ldr	r3, [pc, #148]	; (800a150 <__swsetup_r+0xd4>)
 800a0ba:	429c      	cmp	r4, r3
 800a0bc:	d101      	bne.n	800a0c2 <__swsetup_r+0x46>
 800a0be:	68ac      	ldr	r4, [r5, #8]
 800a0c0:	e7eb      	b.n	800a09a <__swsetup_r+0x1e>
 800a0c2:	4b24      	ldr	r3, [pc, #144]	; (800a154 <__swsetup_r+0xd8>)
 800a0c4:	429c      	cmp	r4, r3
 800a0c6:	bf08      	it	eq
 800a0c8:	68ec      	ldreq	r4, [r5, #12]
 800a0ca:	e7e6      	b.n	800a09a <__swsetup_r+0x1e>
 800a0cc:	0751      	lsls	r1, r2, #29
 800a0ce:	d512      	bpl.n	800a0f6 <__swsetup_r+0x7a>
 800a0d0:	6b61      	ldr	r1, [r4, #52]	; 0x34
 800a0d2:	b141      	cbz	r1, 800a0e6 <__swsetup_r+0x6a>
 800a0d4:	f104 0344 	add.w	r3, r4, #68	; 0x44
 800a0d8:	4299      	cmp	r1, r3
 800a0da:	d002      	beq.n	800a0e2 <__swsetup_r+0x66>
 800a0dc:	4630      	mov	r0, r6
 800a0de:	f7ff fb5b 	bl	8009798 <_free_r>
 800a0e2:	2300      	movs	r3, #0
 800a0e4:	6363      	str	r3, [r4, #52]	; 0x34
 800a0e6:	89a3      	ldrh	r3, [r4, #12]
 800a0e8:	f023 0324 	bic.w	r3, r3, #36	; 0x24
 800a0ec:	81a3      	strh	r3, [r4, #12]
 800a0ee:	2300      	movs	r3, #0
 800a0f0:	6063      	str	r3, [r4, #4]
 800a0f2:	6923      	ldr	r3, [r4, #16]
 800a0f4:	6023      	str	r3, [r4, #0]
 800a0f6:	89a3      	ldrh	r3, [r4, #12]
 800a0f8:	f043 0308 	orr.w	r3, r3, #8
 800a0fc:	81a3      	strh	r3, [r4, #12]
 800a0fe:	6923      	ldr	r3, [r4, #16]
 800a100:	b94b      	cbnz	r3, 800a116 <__swsetup_r+0x9a>
 800a102:	89a3      	ldrh	r3, [r4, #12]
 800a104:	f403 7320 	and.w	r3, r3, #640	; 0x280
 800a108:	f5b3 7f00 	cmp.w	r3, #512	; 0x200
 800a10c:	d003      	beq.n	800a116 <__swsetup_r+0x9a>
 800a10e:	4621      	mov	r1, r4
 800a110:	4630      	mov	r0, r6
 800a112:	f000 f9d1 	bl	800a4b8 <__smakebuf_r>
 800a116:	89a2      	ldrh	r2, [r4, #12]
 800a118:	f012 0301 	ands.w	r3, r2, #1
 800a11c:	d00c      	beq.n	800a138 <__swsetup_r+0xbc>
 800a11e:	2300      	movs	r3, #0
 800a120:	60a3      	str	r3, [r4, #8]
 800a122:	6963      	ldr	r3, [r4, #20]
 800a124:	425b      	negs	r3, r3
 800a126:	61a3      	str	r3, [r4, #24]
 800a128:	6923      	ldr	r3, [r4, #16]
 800a12a:	b953      	cbnz	r3, 800a142 <__swsetup_r+0xc6>
 800a12c:	f9b4 300c 	ldrsh.w	r3, [r4, #12]
 800a130:	f013 0080 	ands.w	r0, r3, #128	; 0x80
 800a134:	d1ba      	bne.n	800a0ac <__swsetup_r+0x30>
 800a136:	bd70      	pop	{r4, r5, r6, pc}
 800a138:	0792      	lsls	r2, r2, #30
 800a13a:	bf58      	it	pl
 800a13c:	6963      	ldrpl	r3, [r4, #20]
 800a13e:	60a3      	str	r3, [r4, #8]
 800a140:	e7f2      	b.n	800a128 <__swsetup_r+0xac>
 800a142:	2000      	movs	r0, #0
 800a144:	e7f7      	b.n	800a136 <__swsetup_r+0xba>
 800a146:	bf00      	nop
 800a148:	200004ec 	.word	0x200004ec
 800a14c:	080fde80 	.word	0x080fde80
 800a150:	080fdea0 	.word	0x080fdea0
 800a154:	080fde60 	.word	0x080fde60

0800a158 <__sflush_r>:
 800a158:	898a      	ldrh	r2, [r1, #12]
 800a15a:	e92d 41f0 	stmdb	sp!, {r4, r5, r6, r7, r8, lr}
 800a15e:	4605      	mov	r5, r0
 800a160:	0710      	lsls	r0, r2, #28
 800a162:	460c      	mov	r4, r1
 800a164:	d458      	bmi.n	800a218 <__sflush_r+0xc0>
 800a166:	684b      	ldr	r3, [r1, #4]
 800a168:	2b00      	cmp	r3, #0
 800a16a:	dc05      	bgt.n	800a178 <__sflush_r+0x20>
 800a16c:	6c0b      	ldr	r3, [r1, #64]	; 0x40
 800a16e:	2b00      	cmp	r3, #0
 800a170:	dc02      	bgt.n	800a178 <__sflush_r+0x20>
 800a172:	2000      	movs	r0, #0
 800a174:	e8bd 81f0 	ldmia.w	sp!, {r4, r5, r6, r7, r8, pc}
 800a178:	6ae6      	ldr	r6, [r4, #44]	; 0x2c
 800a17a:	2e00      	cmp	r6, #0
 800a17c:	d0f9      	beq.n	800a172 <__sflush_r+0x1a>
 800a17e:	2300      	movs	r3, #0
 800a180:	f412 5280 	ands.w	r2, r2, #4096	; 0x1000
 800a184:	682f      	ldr	r7, [r5, #0]
 800a186:	6a21      	ldr	r1, [r4, #32]
 800a188:	602b      	str	r3, [r5, #0]
 800a18a:	d032      	beq.n	800a1f2 <__sflush_r+0x9a>
 800a18c:	6d60      	ldr	r0, [r4, #84]	; 0x54
 800a18e:	89a3      	ldrh	r3, [r4, #12]
 800a190:	075a      	lsls	r2, r3, #29
 800a192:	d505      	bpl.n	800a1a0 <__sflush_r+0x48>
 800a194:	6863      	ldr	r3, [r4, #4]
 800a196:	1ac0      	subs	r0, r0, r3
 800a198:	6b63      	ldr	r3, [r4, #52]	; 0x34
 800a19a:	b10b      	cbz	r3, 800a1a0 <__sflush_r+0x48>
 800a19c:	6c23      	ldr	r3, [r4, #64]	; 0x40
 800a19e:	1ac0      	subs	r0, r0, r3
 800a1a0:	2300      	movs	r3, #0
 800a1a2:	4602      	mov	r2, r0
 800a1a4:	6ae6      	ldr	r6, [r4, #44]	; 0x2c
 800a1a6:	6a21      	ldr	r1, [r4, #32]
 800a1a8:	4628      	mov	r0, r5
 800a1aa:	47b0      	blx	r6
 800a1ac:	1c43      	adds	r3, r0, #1
 800a1ae:	89a3      	ldrh	r3, [r4, #12]
 800a1b0:	d106      	bne.n	800a1c0 <__sflush_r+0x68>
 800a1b2:	6829      	ldr	r1, [r5, #0]
 800a1b4:	291d      	cmp	r1, #29
 800a1b6:	d848      	bhi.n	800a24a <__sflush_r+0xf2>
 800a1b8:	4a29      	ldr	r2, [pc, #164]	; (800a260 <__sflush_r+0x108>)
 800a1ba:	40ca      	lsrs	r2, r1
 800a1bc:	07d6      	lsls	r6, r2, #31
 800a1be:	d544      	bpl.n	800a24a <__sflush_r+0xf2>
 800a1c0:	2200      	movs	r2, #0
 800a1c2:	6062      	str	r2, [r4, #4]
 800a1c4:	04d9      	lsls	r1, r3, #19
 800a1c6:	6922      	ldr	r2, [r4, #16]
 800a1c8:	6022      	str	r2, [r4, #0]
 800a1ca:	d504      	bpl.n	800a1d6 <__sflush_r+0x7e>
 800a1cc:	1c42      	adds	r2, r0, #1
 800a1ce:	d101      	bne.n	800a1d4 <__sflush_r+0x7c>
 800a1d0:	682b      	ldr	r3, [r5, #0]
 800a1d2:	b903      	cbnz	r3, 800a1d6 <__sflush_r+0x7e>
 800a1d4:	6560      	str	r0, [r4, #84]	; 0x54
 800a1d6:	6b61      	ldr	r1, [r4, #52]	; 0x34
 800a1d8:	602f      	str	r7, [r5, #0]
 800a1da:	2900      	cmp	r1, #0
 800a1dc:	d0c9      	beq.n	800a172 <__sflush_r+0x1a>
 800a1de:	f104 0344 	add.w	r3, r4, #68	; 0x44
 800a1e2:	4299      	cmp	r1, r3
 800a1e4:	d002      	beq.n	800a1ec <__sflush_r+0x94>
 800a1e6:	4628      	mov	r0, r5
 800a1e8:	f7ff fad6 	bl	8009798 <_free_r>
 800a1ec:	2000      	movs	r0, #0
 800a1ee:	6360      	str	r0, [r4, #52]	; 0x34
 800a1f0:	e7c0      	b.n	800a174 <__sflush_r+0x1c>
 800a1f2:	2301      	movs	r3, #1
 800a1f4:	4628      	mov	r0, r5
 800a1f6:	47b0      	blx	r6
 800a1f8:	1c41      	adds	r1, r0, #1
 800a1fa:	d1c8      	bne.n	800a18e <__sflush_r+0x36>
 800a1fc:	682b      	ldr	r3, [r5, #0]
 800a1fe:	2b00      	cmp	r3, #0
 800a200:	d0c5      	beq.n	800a18e <__sflush_r+0x36>
 800a202:	2b1d      	cmp	r3, #29
 800a204:	d001      	beq.n	800a20a <__sflush_r+0xb2>
 800a206:	2b16      	cmp	r3, #22
 800a208:	d101      	bne.n	800a20e <__sflush_r+0xb6>
 800a20a:	602f      	str	r7, [r5, #0]
 800a20c:	e7b1      	b.n	800a172 <__sflush_r+0x1a>
 800a20e:	89a3      	ldrh	r3, [r4, #12]
 800a210:	f043 0340 	orr.w	r3, r3, #64	; 0x40
 800a214:	81a3      	strh	r3, [r4, #12]
 800a216:	e7ad      	b.n	800a174 <__sflush_r+0x1c>
 800a218:	690f      	ldr	r7, [r1, #16]
 800a21a:	2f00      	cmp	r7, #0
 800a21c:	d0a9      	beq.n	800a172 <__sflush_r+0x1a>
 800a21e:	0793      	lsls	r3, r2, #30
 800a220:	680e      	ldr	r6, [r1, #0]
 800a222:	bf08      	it	eq
 800a224:	694b      	ldreq	r3, [r1, #20]
 800a226:	600f      	str	r7, [r1, #0]
 800a228:	bf18      	it	ne
 800a22a:	2300      	movne	r3, #0
 800a22c:	eba6 0807 	sub.w	r8, r6, r7
 800a230:	608b      	str	r3, [r1, #8]
 800a232:	f1b8 0f00 	cmp.w	r8, #0
 800a236:	dd9c      	ble.n	800a172 <__sflush_r+0x1a>
 800a238:	4643      	mov	r3, r8
 800a23a:	463a      	mov	r2, r7
 800a23c:	6a21      	ldr	r1, [r4, #32]
 800a23e:	6aa6      	ldr	r6, [r4, #40]	; 0x28
 800a240:	4628      	mov	r0, r5
 800a242:	47b0      	blx	r6
 800a244:	2800      	cmp	r0, #0
 800a246:	dc06      	bgt.n	800a256 <__sflush_r+0xfe>
 800a248:	89a3      	ldrh	r3, [r4, #12]
 800a24a:	f043 0340 	orr.w	r3, r3, #64	; 0x40
 800a24e:	81a3      	strh	r3, [r4, #12]
 800a250:	f04f 30ff 	mov.w	r0, #4294967295	; 0xffffffff
 800a254:	e78e      	b.n	800a174 <__sflush_r+0x1c>
 800a256:	4407      	add	r7, r0
 800a258:	eba8 0800 	sub.w	r8, r8, r0
 800a25c:	e7e9      	b.n	800a232 <__sflush_r+0xda>
 800a25e:	bf00      	nop
 800a260:	20400001 	.word	0x20400001

0800a264 <_fflush_r>:
 800a264:	b538      	push	{r3, r4, r5, lr}
 800a266:	690b      	ldr	r3, [r1, #16]
 800a268:	4605      	mov	r5, r0
 800a26a:	460c      	mov	r4, r1
 800a26c:	b1db      	cbz	r3, 800a2a6 <_fflush_r+0x42>
 800a26e:	b118      	cbz	r0, 800a278 <_fflush_r+0x14>
 800a270:	6983      	ldr	r3, [r0, #24]
 800a272:	b90b      	cbnz	r3, 800a278 <_fflush_r+0x14>
 800a274:	f000 f860 	bl	800a338 <__sinit>
 800a278:	4b0c      	ldr	r3, [pc, #48]	; (800a2ac <_fflush_r+0x48>)
 800a27a:	429c      	cmp	r4, r3
 800a27c:	d109      	bne.n	800a292 <_fflush_r+0x2e>
 800a27e:	686c      	ldr	r4, [r5, #4]
 800a280:	f9b4 300c 	ldrsh.w	r3, [r4, #12]
 800a284:	b17b      	cbz	r3, 800a2a6 <_fflush_r+0x42>
 800a286:	4621      	mov	r1, r4
 800a288:	4628      	mov	r0, r5
 800a28a:	e8bd 4038 	ldmia.w	sp!, {r3, r4, r5, lr}
 800a28e:	f7ff bf63 	b.w	800a158 <__sflush_r>
 800a292:	4b07      	ldr	r3, [pc, #28]	; (800a2b0 <_fflush_r+0x4c>)
 800a294:	429c      	cmp	r4, r3
 800a296:	d101      	bne.n	800a29c <_fflush_r+0x38>
 800a298:	68ac      	ldr	r4, [r5, #8]
 800a29a:	e7f1      	b.n	800a280 <_fflush_r+0x1c>
 800a29c:	4b05      	ldr	r3, [pc, #20]	; (800a2b4 <_fflush_r+0x50>)
 800a29e:	429c      	cmp	r4, r3
 800a2a0:	bf08      	it	eq
 800a2a2:	68ec      	ldreq	r4, [r5, #12]
 800a2a4:	e7ec      	b.n	800a280 <_fflush_r+0x1c>
 800a2a6:	2000      	movs	r0, #0
 800a2a8:	bd38      	pop	{r3, r4, r5, pc}
 800a2aa:	bf00      	nop
 800a2ac:	080fde80 	.word	0x080fde80
 800a2b0:	080fdea0 	.word	0x080fdea0
 800a2b4:	080fde60 	.word	0x080fde60

0800a2b8 <std>:
 800a2b8:	2300      	movs	r3, #0
 800a2ba:	b510      	push	{r4, lr}
 800a2bc:	4604      	mov	r4, r0
 800a2be:	e9c0 3300 	strd	r3, r3, [r0]
 800a2c2:	6083      	str	r3, [r0, #8]
 800a2c4:	8181      	strh	r1, [r0, #12]
 800a2c6:	6643      	str	r3, [r0, #100]	; 0x64
 800a2c8:	81c2      	strh	r2, [r0, #14]
 800a2ca:	e9c0 3304 	strd	r3, r3, [r0, #16]
 800a2ce:	6183      	str	r3, [r0, #24]
 800a2d0:	4619      	mov	r1, r3
 800a2d2:	2208      	movs	r2, #8
 800a2d4:	305c      	adds	r0, #92	; 0x5c
 800a2d6:	f7ff fa56 	bl	8009786 <memset>
 800a2da:	4b05      	ldr	r3, [pc, #20]	; (800a2f0 <std+0x38>)
 800a2dc:	6263      	str	r3, [r4, #36]	; 0x24
 800a2de:	4b05      	ldr	r3, [pc, #20]	; (800a2f4 <std+0x3c>)
 800a2e0:	62a3      	str	r3, [r4, #40]	; 0x28
 800a2e2:	4b05      	ldr	r3, [pc, #20]	; (800a2f8 <std+0x40>)
 800a2e4:	62e3      	str	r3, [r4, #44]	; 0x2c
 800a2e6:	4b05      	ldr	r3, [pc, #20]	; (800a2fc <std+0x44>)
 800a2e8:	6224      	str	r4, [r4, #32]
 800a2ea:	6323      	str	r3, [r4, #48]	; 0x30
 800a2ec:	bd10      	pop	{r4, pc}
 800a2ee:	bf00      	nop
 800a2f0:	0800a53d 	.word	0x0800a53d
 800a2f4:	0800a55f 	.word	0x0800a55f
 800a2f8:	0800a597 	.word	0x0800a597
 800a2fc:	0800a5bb 	.word	0x0800a5bb

0800a300 <_cleanup_r>:
 800a300:	4901      	ldr	r1, [pc, #4]	; (800a308 <_cleanup_r+0x8>)
 800a302:	f000 b885 	b.w	800a410 <_fwalk_reent>
 800a306:	bf00      	nop
 800a308:	0800a265 	.word	0x0800a265

0800a30c <__sfmoreglue>:
 800a30c:	b570      	push	{r4, r5, r6, lr}
 800a30e:	1e4a      	subs	r2, r1, #1
 800a310:	2568      	movs	r5, #104	; 0x68
 800a312:	4355      	muls	r5, r2
 800a314:	460e      	mov	r6, r1
 800a316:	f105 0174 	add.w	r1, r5, #116	; 0x74
 800a31a:	f7ff fa8b 	bl	8009834 <_malloc_r>
 800a31e:	4604      	mov	r4, r0
 800a320:	b140      	cbz	r0, 800a334 <__sfmoreglue+0x28>
 800a322:	2100      	movs	r1, #0
 800a324:	e9c0 1600 	strd	r1, r6, [r0]
 800a328:	300c      	adds	r0, #12
 800a32a:	60a0      	str	r0, [r4, #8]
 800a32c:	f105 0268 	add.w	r2, r5, #104	; 0x68
 800a330:	f7ff fa29 	bl	8009786 <memset>
 800a334:	4620      	mov	r0, r4
 800a336:	bd70      	pop	{r4, r5, r6, pc}

0800a338 <__sinit>:
 800a338:	6983      	ldr	r3, [r0, #24]
 800a33a:	b510      	push	{r4, lr}
 800a33c:	4604      	mov	r4, r0
 800a33e:	bb33      	cbnz	r3, 800a38e <__sinit+0x56>
 800a340:	e9c0 3312 	strd	r3, r3, [r0, #72]	; 0x48
 800a344:	6503      	str	r3, [r0, #80]	; 0x50
 800a346:	4b12      	ldr	r3, [pc, #72]	; (800a390 <__sinit+0x58>)
 800a348:	4a12      	ldr	r2, [pc, #72]	; (800a394 <__sinit+0x5c>)
 800a34a:	681b      	ldr	r3, [r3, #0]
 800a34c:	6282      	str	r2, [r0, #40]	; 0x28
 800a34e:	4298      	cmp	r0, r3
 800a350:	bf04      	itt	eq
 800a352:	2301      	moveq	r3, #1
 800a354:	6183      	streq	r3, [r0, #24]
 800a356:	f000 f81f 	bl	800a398 <__sfp>
 800a35a:	6060      	str	r0, [r4, #4]
 800a35c:	4620      	mov	r0, r4
 800a35e:	f000 f81b 	bl	800a398 <__sfp>
 800a362:	60a0      	str	r0, [r4, #8]
 800a364:	4620      	mov	r0, r4
 800a366:	f000 f817 	bl	800a398 <__sfp>
 800a36a:	2200      	movs	r2, #0
 800a36c:	60e0      	str	r0, [r4, #12]
 800a36e:	2104      	movs	r1, #4
 800a370:	6860      	ldr	r0, [r4, #4]
 800a372:	f7ff ffa1 	bl	800a2b8 <std>
 800a376:	2201      	movs	r2, #1
 800a378:	2109      	movs	r1, #9
 800a37a:	68a0      	ldr	r0, [r4, #8]
 800a37c:	f7ff ff9c 	bl	800a2b8 <std>
 800a380:	2202      	movs	r2, #2
 800a382:	2112      	movs	r1, #18
 800a384:	68e0      	ldr	r0, [r4, #12]
 800a386:	f7ff ff97 	bl	800a2b8 <std>
 800a38a:	2301      	movs	r3, #1
 800a38c:	61a3      	str	r3, [r4, #24]
 800a38e:	bd10      	pop	{r4, pc}
 800a390:	080fde28 	.word	0x080fde28
 800a394:	0800a301 	.word	0x0800a301

0800a398 <__sfp>:
 800a398:	b5f8      	push	{r3, r4, r5, r6, r7, lr}
 800a39a:	4b1b      	ldr	r3, [pc, #108]	; (800a408 <__sfp+0x70>)
 800a39c:	681e      	ldr	r6, [r3, #0]
 800a39e:	69b3      	ldr	r3, [r6, #24]
 800a3a0:	4607      	mov	r7, r0
 800a3a2:	b913      	cbnz	r3, 800a3aa <__sfp+0x12>
 800a3a4:	4630      	mov	r0, r6
 800a3a6:	f7ff ffc7 	bl	800a338 <__sinit>
 800a3aa:	3648      	adds	r6, #72	; 0x48
 800a3ac:	e9d6 3401 	ldrd	r3, r4, [r6, #4]
 800a3b0:	3b01      	subs	r3, #1
 800a3b2:	d503      	bpl.n	800a3bc <__sfp+0x24>
 800a3b4:	6833      	ldr	r3, [r6, #0]
 800a3b6:	b133      	cbz	r3, 800a3c6 <__sfp+0x2e>
 800a3b8:	6836      	ldr	r6, [r6, #0]
 800a3ba:	e7f7      	b.n	800a3ac <__sfp+0x14>
 800a3bc:	f9b4 500c 	ldrsh.w	r5, [r4, #12]
 800a3c0:	b16d      	cbz	r5, 800a3de <__sfp+0x46>
 800a3c2:	3468      	adds	r4, #104	; 0x68
 800a3c4:	e7f4      	b.n	800a3b0 <__sfp+0x18>
 800a3c6:	2104      	movs	r1, #4
 800a3c8:	4638      	mov	r0, r7
 800a3ca:	f7ff ff9f 	bl	800a30c <__sfmoreglue>
 800a3ce:	6030      	str	r0, [r6, #0]
 800a3d0:	2800      	cmp	r0, #0
 800a3d2:	d1f1      	bne.n	800a3b8 <__sfp+0x20>
 800a3d4:	230c      	movs	r3, #12
 800a3d6:	603b      	str	r3, [r7, #0]
 800a3d8:	4604      	mov	r4, r0
 800a3da:	4620      	mov	r0, r4
 800a3dc:	bdf8      	pop	{r3, r4, r5, r6, r7, pc}
 800a3de:	4b0b      	ldr	r3, [pc, #44]	; (800a40c <__sfp+0x74>)
 800a3e0:	6665      	str	r5, [r4, #100]	; 0x64
 800a3e2:	e9c4 5500 	strd	r5, r5, [r4]
 800a3e6:	60a5      	str	r5, [r4, #8]
 800a3e8:	e9c4 3503 	strd	r3, r5, [r4, #12]
 800a3ec:	e9c4 5505 	strd	r5, r5, [r4, #20]
 800a3f0:	2208      	movs	r2, #8
 800a3f2:	4629      	mov	r1, r5
 800a3f4:	f104 005c 	add.w	r0, r4, #92	; 0x5c
 800a3f8:	f7ff f9c5 	bl	8009786 <memset>
 800a3fc:	e9c4 550d 	strd	r5, r5, [r4, #52]	; 0x34
 800a400:	e9c4 5512 	strd	r5, r5, [r4, #72]	; 0x48
 800a404:	e7e9      	b.n	800a3da <__sfp+0x42>
 800a406:	bf00      	nop
 800a408:	080fde28 	.word	0x080fde28
 800a40c:	ffff0001 	.word	0xffff0001

0800a410 <_fwalk_reent>:
 800a410:	e92d 43f8 	stmdb	sp!, {r3, r4, r5, r6, r7, r8, r9, lr}
 800a414:	4680      	mov	r8, r0
 800a416:	4689      	mov	r9, r1
 800a418:	f100 0448 	add.w	r4, r0, #72	; 0x48
 800a41c:	2600      	movs	r6, #0
 800a41e:	b914      	cbnz	r4, 800a426 <_fwalk_reent+0x16>
 800a420:	4630      	mov	r0, r6
 800a422:	e8bd 83f8 	ldmia.w	sp!, {r3, r4, r5, r6, r7, r8, r9, pc}
 800a426:	e9d4 7501 	ldrd	r7, r5, [r4, #4]
 800a42a:	3f01      	subs	r7, #1
 800a42c:	d501      	bpl.n	800a432 <_fwalk_reent+0x22>
 800a42e:	6824      	ldr	r4, [r4, #0]
 800a430:	e7f5      	b.n	800a41e <_fwalk_reent+0xe>
 800a432:	89ab      	ldrh	r3, [r5, #12]
 800a434:	2b01      	cmp	r3, #1
 800a436:	d907      	bls.n	800a448 <_fwalk_reent+0x38>
 800a438:	f9b5 300e 	ldrsh.w	r3, [r5, #14]
 800a43c:	3301      	adds	r3, #1
 800a43e:	d003      	beq.n	800a448 <_fwalk_reent+0x38>
 800a440:	4629      	mov	r1, r5
 800a442:	4640      	mov	r0, r8
 800a444:	47c8      	blx	r9
 800a446:	4306      	orrs	r6, r0
 800a448:	3568      	adds	r5, #104	; 0x68
 800a44a:	e7ee      	b.n	800a42a <_fwalk_reent+0x1a>

0800a44c <_gettimeofday_r>:
 800a44c:	b538      	push	{r3, r4, r5, lr}
 800a44e:	4c07      	ldr	r4, [pc, #28]	; (800a46c <_gettimeofday_r+0x20>)
 800a450:	2300      	movs	r3, #0
 800a452:	4605      	mov	r5, r0
 800a454:	4608      	mov	r0, r1
 800a456:	4611      	mov	r1, r2
 800a458:	6023      	str	r3, [r4, #0]
 800a45a:	f000 fe47 	bl	800b0ec <_gettimeofday>
 800a45e:	1c43      	adds	r3, r0, #1
 800a460:	d102      	bne.n	800a468 <_gettimeofday_r+0x1c>
 800a462:	6823      	ldr	r3, [r4, #0]
 800a464:	b103      	cbz	r3, 800a468 <_gettimeofday_r+0x1c>
 800a466:	602b      	str	r3, [r5, #0]
 800a468:	bd38      	pop	{r3, r4, r5, pc}
 800a46a:	bf00      	nop
 800a46c:	20006250 	.word	0x20006250

0800a470 <__swhatbuf_r>:
 800a470:	b570      	push	{r4, r5, r6, lr}
 800a472:	460e      	mov	r6, r1
 800a474:	f9b1 100e 	ldrsh.w	r1, [r1, #14]
 800a478:	2900      	cmp	r1, #0
 800a47a:	b096      	sub	sp, #88	; 0x58
 800a47c:	4614      	mov	r4, r2
 800a47e:	461d      	mov	r5, r3
 800a480:	da07      	bge.n	800a492 <__swhatbuf_r+0x22>
 800a482:	2300      	movs	r3, #0
 800a484:	602b      	str	r3, [r5, #0]
 800a486:	89b3      	ldrh	r3, [r6, #12]
 800a488:	061a      	lsls	r2, r3, #24
 800a48a:	d410      	bmi.n	800a4ae <__swhatbuf_r+0x3e>
 800a48c:	f44f 6380 	mov.w	r3, #1024	; 0x400
 800a490:	e00e      	b.n	800a4b0 <__swhatbuf_r+0x40>
 800a492:	466a      	mov	r2, sp
 800a494:	f000 f8b8 	bl	800a608 <_fstat_r>
 800a498:	2800      	cmp	r0, #0
 800a49a:	dbf2      	blt.n	800a482 <__swhatbuf_r+0x12>
 800a49c:	9a01      	ldr	r2, [sp, #4]
 800a49e:	f402 4270 	and.w	r2, r2, #61440	; 0xf000
 800a4a2:	f5a2 5300 	sub.w	r3, r2, #8192	; 0x2000
 800a4a6:	425a      	negs	r2, r3
 800a4a8:	415a      	adcs	r2, r3
 800a4aa:	602a      	str	r2, [r5, #0]
 800a4ac:	e7ee      	b.n	800a48c <__swhatbuf_r+0x1c>
 800a4ae:	2340      	movs	r3, #64	; 0x40
 800a4b0:	2000      	movs	r0, #0
 800a4b2:	6023      	str	r3, [r4, #0]
 800a4b4:	b016      	add	sp, #88	; 0x58
 800a4b6:	bd70      	pop	{r4, r5, r6, pc}

0800a4b8 <__smakebuf_r>:
 800a4b8:	898b      	ldrh	r3, [r1, #12]
 800a4ba:	b573      	push	{r0, r1, r4, r5, r6, lr}
 800a4bc:	079d      	lsls	r5, r3, #30
 800a4be:	4606      	mov	r6, r0
 800a4c0:	460c      	mov	r4, r1
 800a4c2:	d507      	bpl.n	800a4d4 <__smakebuf_r+0x1c>
 800a4c4:	f104 0347 	add.w	r3, r4, #71	; 0x47
 800a4c8:	6023      	str	r3, [r4, #0]
 800a4ca:	6123      	str	r3, [r4, #16]
 800a4cc:	2301      	movs	r3, #1
 800a4ce:	6163      	str	r3, [r4, #20]
 800a4d0:	b002      	add	sp, #8
 800a4d2:	bd70      	pop	{r4, r5, r6, pc}
 800a4d4:	ab01      	add	r3, sp, #4
 800a4d6:	466a      	mov	r2, sp
 800a4d8:	f7ff ffca 	bl	800a470 <__swhatbuf_r>
 800a4dc:	9900      	ldr	r1, [sp, #0]
 800a4de:	4605      	mov	r5, r0
 800a4e0:	4630      	mov	r0, r6
 800a4e2:	f7ff f9a7 	bl	8009834 <_malloc_r>
 800a4e6:	b948      	cbnz	r0, 800a4fc <__smakebuf_r+0x44>
 800a4e8:	f9b4 300c 	ldrsh.w	r3, [r4, #12]
 800a4ec:	059a      	lsls	r2, r3, #22
 800a4ee:	d4ef      	bmi.n	800a4d0 <__smakebuf_r+0x18>
 800a4f0:	f023 0303 	bic.w	r3, r3, #3
 800a4f4:	f043 0302 	orr.w	r3, r3, #2
 800a4f8:	81a3      	strh	r3, [r4, #12]
 800a4fa:	e7e3      	b.n	800a4c4 <__smakebuf_r+0xc>
 800a4fc:	4b0d      	ldr	r3, [pc, #52]	; (800a534 <__smakebuf_r+0x7c>)
 800a4fe:	62b3      	str	r3, [r6, #40]	; 0x28
 800a500:	89a3      	ldrh	r3, [r4, #12]
 800a502:	6020      	str	r0, [r4, #0]
 800a504:	f043 0380 	orr.w	r3, r3, #128	; 0x80
 800a508:	81a3      	strh	r3, [r4, #12]
 800a50a:	9b00      	ldr	r3, [sp, #0]
 800a50c:	6163      	str	r3, [r4, #20]
 800a50e:	9b01      	ldr	r3, [sp, #4]
 800a510:	6120      	str	r0, [r4, #16]
 800a512:	b15b      	cbz	r3, 800a52c <__smakebuf_r+0x74>
 800a514:	f9b4 100e 	ldrsh.w	r1, [r4, #14]
 800a518:	4630      	mov	r0, r6
 800a51a:	f000 f887 	bl	800a62c <_isatty_r>
 800a51e:	b128      	cbz	r0, 800a52c <__smakebuf_r+0x74>
 800a520:	89a3      	ldrh	r3, [r4, #12]
 800a522:	f023 0303 	bic.w	r3, r3, #3
 800a526:	f043 0301 	orr.w	r3, r3, #1
 800a52a:	81a3      	strh	r3, [r4, #12]
 800a52c:	89a3      	ldrh	r3, [r4, #12]
 800a52e:	431d      	orrs	r5, r3
 800a530:	81a5      	strh	r5, [r4, #12]
 800a532:	e7cd      	b.n	800a4d0 <__smakebuf_r+0x18>
 800a534:	0800a301 	.word	0x0800a301

0800a538 <__malloc_lock>:
 800a538:	4770      	bx	lr

0800a53a <__malloc_unlock>:
 800a53a:	4770      	bx	lr

0800a53c <__sread>:
 800a53c:	b510      	push	{r4, lr}
 800a53e:	460c      	mov	r4, r1
 800a540:	f9b1 100e 	ldrsh.w	r1, [r1, #14]
 800a544:	f000 f894 	bl	800a670 <_read_r>
 800a548:	2800      	cmp	r0, #0
 800a54a:	bfab      	itete	ge
 800a54c:	6d63      	ldrge	r3, [r4, #84]	; 0x54
 800a54e:	89a3      	ldrhlt	r3, [r4, #12]
 800a550:	181b      	addge	r3, r3, r0
 800a552:	f423 5380 	biclt.w	r3, r3, #4096	; 0x1000
 800a556:	bfac      	ite	ge
 800a558:	6563      	strge	r3, [r4, #84]	; 0x54
 800a55a:	81a3      	strhlt	r3, [r4, #12]
 800a55c:	bd10      	pop	{r4, pc}

0800a55e <__swrite>:
 800a55e:	e92d 41f0 	stmdb	sp!, {r4, r5, r6, r7, r8, lr}
 800a562:	461f      	mov	r7, r3
 800a564:	898b      	ldrh	r3, [r1, #12]
 800a566:	05db      	lsls	r3, r3, #23
 800a568:	4605      	mov	r5, r0
 800a56a:	460c      	mov	r4, r1
 800a56c:	4616      	mov	r6, r2
 800a56e:	d505      	bpl.n	800a57c <__swrite+0x1e>
 800a570:	2302      	movs	r3, #2
 800a572:	2200      	movs	r2, #0
 800a574:	f9b1 100e 	ldrsh.w	r1, [r1, #14]
 800a578:	f000 f868 	bl	800a64c <_lseek_r>
 800a57c:	89a3      	ldrh	r3, [r4, #12]
 800a57e:	f9b4 100e 	ldrsh.w	r1, [r4, #14]
 800a582:	f423 5380 	bic.w	r3, r3, #4096	; 0x1000
 800a586:	81a3      	strh	r3, [r4, #12]
 800a588:	4632      	mov	r2, r6
 800a58a:	463b      	mov	r3, r7
 800a58c:	4628      	mov	r0, r5
 800a58e:	e8bd 41f0 	ldmia.w	sp!, {r4, r5, r6, r7, r8, lr}
 800a592:	f000 b817 	b.w	800a5c4 <_write_r>

0800a596 <__sseek>:
 800a596:	b510      	push	{r4, lr}
 800a598:	460c      	mov	r4, r1
 800a59a:	f9b1 100e 	ldrsh.w	r1, [r1, #14]
 800a59e:	f000 f855 	bl	800a64c <_lseek_r>
 800a5a2:	1c43      	adds	r3, r0, #1
 800a5a4:	89a3      	ldrh	r3, [r4, #12]
 800a5a6:	bf15      	itete	ne
 800a5a8:	6560      	strne	r0, [r4, #84]	; 0x54
 800a5aa:	f423 5380 	biceq.w	r3, r3, #4096	; 0x1000
 800a5ae:	f443 5380 	orrne.w	r3, r3, #4096	; 0x1000
 800a5b2:	81a3      	strheq	r3, [r4, #12]
 800a5b4:	bf18      	it	ne
 800a5b6:	81a3      	strhne	r3, [r4, #12]
 800a5b8:	bd10      	pop	{r4, pc}

0800a5ba <__sclose>:
 800a5ba:	f9b1 100e 	ldrsh.w	r1, [r1, #14]
 800a5be:	f000 b813 	b.w	800a5e8 <_close_r>
	...

0800a5c4 <_write_r>:
 800a5c4:	b538      	push	{r3, r4, r5, lr}
 800a5c6:	4c07      	ldr	r4, [pc, #28]	; (800a5e4 <_write_r+0x20>)
 800a5c8:	4605      	mov	r5, r0
 800a5ca:	4608      	mov	r0, r1
 800a5cc:	4611      	mov	r1, r2
 800a5ce:	2200      	movs	r2, #0
 800a5d0:	6022      	str	r2, [r4, #0]
 800a5d2:	461a      	mov	r2, r3
 800a5d4:	f7fa fe80 	bl	80052d8 <_write>
 800a5d8:	1c43      	adds	r3, r0, #1
 800a5da:	d102      	bne.n	800a5e2 <_write_r+0x1e>
 800a5dc:	6823      	ldr	r3, [r4, #0]
 800a5de:	b103      	cbz	r3, 800a5e2 <_write_r+0x1e>
 800a5e0:	602b      	str	r3, [r5, #0]
 800a5e2:	bd38      	pop	{r3, r4, r5, pc}
 800a5e4:	20006250 	.word	0x20006250

0800a5e8 <_close_r>:
 800a5e8:	b538      	push	{r3, r4, r5, lr}
 800a5ea:	4c06      	ldr	r4, [pc, #24]	; (800a604 <_close_r+0x1c>)
 800a5ec:	2300      	movs	r3, #0
 800a5ee:	4605      	mov	r5, r0
 800a5f0:	4608      	mov	r0, r1
 800a5f2:	6023      	str	r3, [r4, #0]
 800a5f4:	f7fa fe7e 	bl	80052f4 <_close>
 800a5f8:	1c43      	adds	r3, r0, #1
 800a5fa:	d102      	bne.n	800a602 <_close_r+0x1a>
 800a5fc:	6823      	ldr	r3, [r4, #0]
 800a5fe:	b103      	cbz	r3, 800a602 <_close_r+0x1a>
 800a600:	602b      	str	r3, [r5, #0]
 800a602:	bd38      	pop	{r3, r4, r5, pc}
 800a604:	20006250 	.word	0x20006250

0800a608 <_fstat_r>:
 800a608:	b538      	push	{r3, r4, r5, lr}
 800a60a:	4c07      	ldr	r4, [pc, #28]	; (800a628 <_fstat_r+0x20>)
 800a60c:	2300      	movs	r3, #0
 800a60e:	4605      	mov	r5, r0
 800a610:	4608      	mov	r0, r1
 800a612:	4611      	mov	r1, r2
 800a614:	6023      	str	r3, [r4, #0]
 800a616:	f7fa fe71 	bl	80052fc <_fstat>
 800a61a:	1c43      	adds	r3, r0, #1
 800a61c:	d102      	bne.n	800a624 <_fstat_r+0x1c>
 800a61e:	6823      	ldr	r3, [r4, #0]
 800a620:	b103      	cbz	r3, 800a624 <_fstat_r+0x1c>
 800a622:	602b      	str	r3, [r5, #0]
 800a624:	bd38      	pop	{r3, r4, r5, pc}
 800a626:	bf00      	nop
 800a628:	20006250 	.word	0x20006250

0800a62c <_isatty_r>:
 800a62c:	b538      	push	{r3, r4, r5, lr}
 800a62e:	4c06      	ldr	r4, [pc, #24]	; (800a648 <_isatty_r+0x1c>)
 800a630:	2300      	movs	r3, #0
 800a632:	4605      	mov	r5, r0
 800a634:	4608      	mov	r0, r1
 800a636:	6023      	str	r3, [r4, #0]
 800a638:	f7fa fe66 	bl	8005308 <_isatty>
 800a63c:	1c43      	adds	r3, r0, #1
 800a63e:	d102      	bne.n	800a646 <_isatty_r+0x1a>
 800a640:	6823      	ldr	r3, [r4, #0]
 800a642:	b103      	cbz	r3, 800a646 <_isatty_r+0x1a>
 800a644:	602b      	str	r3, [r5, #0]
 800a646:	bd38      	pop	{r3, r4, r5, pc}
 800a648:	20006250 	.word	0x20006250

0800a64c <_lseek_r>:
 800a64c:	b538      	push	{r3, r4, r5, lr}
 800a64e:	4c07      	ldr	r4, [pc, #28]	; (800a66c <_lseek_r+0x20>)
 800a650:	4605      	mov	r5, r0
 800a652:	4608      	mov	r0, r1
 800a654:	4611      	mov	r1, r2
 800a656:	2200      	movs	r2, #0
 800a658:	6022      	str	r2, [r4, #0]
 800a65a:	461a      	mov	r2, r3
 800a65c:	f7fa fe56 	bl	800530c <_lseek>
 800a660:	1c43      	adds	r3, r0, #1
 800a662:	d102      	bne.n	800a66a <_lseek_r+0x1e>
 800a664:	6823      	ldr	r3, [r4, #0]
 800a666:	b103      	cbz	r3, 800a66a <_lseek_r+0x1e>
 800a668:	602b      	str	r3, [r5, #0]
 800a66a:	bd38      	pop	{r3, r4, r5, pc}
 800a66c:	20006250 	.word	0x20006250

0800a670 <_read_r>:
 800a670:	b538      	push	{r3, r4, r5, lr}
 800a672:	4c07      	ldr	r4, [pc, #28]	; (800a690 <_read_r+0x20>)
 800a674:	4605      	mov	r5, r0
 800a676:	4608      	mov	r0, r1
 800a678:	4611      	mov	r1, r2
 800a67a:	2200      	movs	r2, #0
 800a67c:	6022      	str	r2, [r4, #0]
 800a67e:	461a      	mov	r2, r3
 800a680:	f7fa fe1c 	bl	80052bc <_read>
 800a684:	1c43      	adds	r3, r0, #1
 800a686:	d102      	bne.n	800a68e <_read_r+0x1e>
 800a688:	6823      	ldr	r3, [r4, #0]
 800a68a:	b103      	cbz	r3, 800a68e <_read_r+0x1e>
 800a68c:	602b      	str	r3, [r5, #0]
 800a68e:	bd38      	pop	{r3, r4, r5, pc}
 800a690:	20006250 	.word	0x20006250

0800a694 <roundf>:
 800a694:	ee10 0a10 	vmov	r0, s0
 800a698:	f3c0 53c7 	ubfx	r3, r0, #23, #8
 800a69c:	f1a3 027f 	sub.w	r2, r3, #127	; 0x7f
 800a6a0:	2a16      	cmp	r2, #22
 800a6a2:	dc15      	bgt.n	800a6d0 <roundf+0x3c>
 800a6a4:	2a00      	cmp	r2, #0
 800a6a6:	da08      	bge.n	800a6ba <roundf+0x26>
 800a6a8:	3201      	adds	r2, #1
 800a6aa:	f000 4300 	and.w	r3, r0, #2147483648	; 0x80000000
 800a6ae:	d101      	bne.n	800a6b4 <roundf+0x20>
 800a6b0:	f043 537e 	orr.w	r3, r3, #1065353216	; 0x3f800000
 800a6b4:	ee00 3a10 	vmov	s0, r3
 800a6b8:	4770      	bx	lr
 800a6ba:	4908      	ldr	r1, [pc, #32]	; (800a6dc <roundf+0x48>)
 800a6bc:	4111      	asrs	r1, r2
 800a6be:	4208      	tst	r0, r1
 800a6c0:	d0fa      	beq.n	800a6b8 <roundf+0x24>
 800a6c2:	f44f 0380 	mov.w	r3, #4194304	; 0x400000
 800a6c6:	4113      	asrs	r3, r2
 800a6c8:	4403      	add	r3, r0
 800a6ca:	ea23 0301 	bic.w	r3, r3, r1
 800a6ce:	e7f1      	b.n	800a6b4 <roundf+0x20>
 800a6d0:	2a80      	cmp	r2, #128	; 0x80
 800a6d2:	d1f1      	bne.n	800a6b8 <roundf+0x24>
 800a6d4:	ee30 0a00 	vadd.f32	s0, s0, s0
 800a6d8:	4770      	bx	lr
 800a6da:	bf00      	nop
 800a6dc:	007fffff 	.word	0x007fffff

0800a6e0 <powf>:
 800a6e0:	e92d 4370 	stmdb	sp!, {r4, r5, r6, r8, r9, lr}
 800a6e4:	ed2d 8b04 	vpush	{d8-d9}
 800a6e8:	4ca7      	ldr	r4, [pc, #668]	; (800a988 <powf+0x2a8>)
 800a6ea:	b08a      	sub	sp, #40	; 0x28
 800a6ec:	eef0 8a40 	vmov.f32	s17, s0
 800a6f0:	eeb0 8a60 	vmov.f32	s16, s1
 800a6f4:	f000 f958 	bl	800a9a8 <__ieee754_powf>
 800a6f8:	f994 5000 	ldrsb.w	r5, [r4]
 800a6fc:	1c6b      	adds	r3, r5, #1
 800a6fe:	eeb0 9a40 	vmov.f32	s18, s0
 800a702:	4626      	mov	r6, r4
 800a704:	d05f      	beq.n	800a7c6 <powf+0xe6>
 800a706:	eeb4 8a48 	vcmp.f32	s16, s16
 800a70a:	eef1 fa10 	vmrs	APSR_nzcv, fpscr
 800a70e:	d65a      	bvs.n	800a7c6 <powf+0xe6>
 800a710:	eef4 8a68 	vcmp.f32	s17, s17
 800a714:	eef1 fa10 	vmrs	APSR_nzcv, fpscr
 800a718:	d721      	bvc.n	800a75e <powf+0x7e>
 800a71a:	eeb5 8a40 	vcmp.f32	s16, #0.0
 800a71e:	eef1 fa10 	vmrs	APSR_nzcv, fpscr
 800a722:	d150      	bne.n	800a7c6 <powf+0xe6>
 800a724:	2301      	movs	r3, #1
 800a726:	9300      	str	r3, [sp, #0]
 800a728:	4b98      	ldr	r3, [pc, #608]	; (800a98c <powf+0x2ac>)
 800a72a:	9301      	str	r3, [sp, #4]
 800a72c:	ee18 0a90 	vmov	r0, s17
 800a730:	2300      	movs	r3, #0
 800a732:	9308      	str	r3, [sp, #32]
 800a734:	f7f5 ff10 	bl	8000558 <__aeabi_f2d>
 800a738:	e9cd 0102 	strd	r0, r1, [sp, #8]
 800a73c:	ee18 0a10 	vmov	r0, s16
 800a740:	f7f5 ff0a 	bl	8000558 <__aeabi_f2d>
 800a744:	4b92      	ldr	r3, [pc, #584]	; (800a990 <powf+0x2b0>)
 800a746:	2200      	movs	r2, #0
 800a748:	2d02      	cmp	r5, #2
 800a74a:	e9cd 0104 	strd	r0, r1, [sp, #16]
 800a74e:	e9cd 2306 	strd	r2, r3, [sp, #24]
 800a752:	d032      	beq.n	800a7ba <powf+0xda>
 800a754:	4668      	mov	r0, sp
 800a756:	f000 fbea 	bl	800af2e <matherr>
 800a75a:	bb40      	cbnz	r0, 800a7ae <powf+0xce>
 800a75c:	e065      	b.n	800a82a <powf+0x14a>
 800a75e:	eddf 9a8d 	vldr	s19, [pc, #564]	; 800a994 <powf+0x2b4>
 800a762:	eef4 8a69 	vcmp.f32	s17, s19
 800a766:	eef1 fa10 	vmrs	APSR_nzcv, fpscr
 800a76a:	d163      	bne.n	800a834 <powf+0x154>
 800a76c:	eeb4 8a69 	vcmp.f32	s16, s19
 800a770:	eef1 fa10 	vmrs	APSR_nzcv, fpscr
 800a774:	d12e      	bne.n	800a7d4 <powf+0xf4>
 800a776:	2301      	movs	r3, #1
 800a778:	9300      	str	r3, [sp, #0]
 800a77a:	4b84      	ldr	r3, [pc, #528]	; (800a98c <powf+0x2ac>)
 800a77c:	9301      	str	r3, [sp, #4]
 800a77e:	ee18 0a90 	vmov	r0, s17
 800a782:	2300      	movs	r3, #0
 800a784:	9308      	str	r3, [sp, #32]
 800a786:	f7f5 fee7 	bl	8000558 <__aeabi_f2d>
 800a78a:	e9cd 0102 	strd	r0, r1, [sp, #8]
 800a78e:	ee18 0a10 	vmov	r0, s16
 800a792:	f7f5 fee1 	bl	8000558 <__aeabi_f2d>
 800a796:	2200      	movs	r2, #0
 800a798:	2300      	movs	r3, #0
 800a79a:	e9cd 0104 	strd	r0, r1, [sp, #16]
 800a79e:	e9cd 2306 	strd	r2, r3, [sp, #24]
 800a7a2:	2d00      	cmp	r5, #0
 800a7a4:	d0d6      	beq.n	800a754 <powf+0x74>
 800a7a6:	4b7a      	ldr	r3, [pc, #488]	; (800a990 <powf+0x2b0>)
 800a7a8:	2200      	movs	r2, #0
 800a7aa:	e9cd 2306 	strd	r2, r3, [sp, #24]
 800a7ae:	9b08      	ldr	r3, [sp, #32]
 800a7b0:	b11b      	cbz	r3, 800a7ba <powf+0xda>
 800a7b2:	f7fe ffa3 	bl	80096fc <__errno>
 800a7b6:	9b08      	ldr	r3, [sp, #32]
 800a7b8:	6003      	str	r3, [r0, #0]
 800a7ba:	e9dd 0106 	ldrd	r0, r1, [sp, #24]
 800a7be:	f7f6 f95d 	bl	8000a7c <__aeabi_d2f>
 800a7c2:	ee09 0a10 	vmov	s18, r0
 800a7c6:	eeb0 0a49 	vmov.f32	s0, s18
 800a7ca:	b00a      	add	sp, #40	; 0x28
 800a7cc:	ecbd 8b04 	vpop	{d8-d9}
 800a7d0:	e8bd 8370 	ldmia.w	sp!, {r4, r5, r6, r8, r9, pc}
 800a7d4:	eeb0 0a48 	vmov.f32	s0, s16
 800a7d8:	f000 fbb2 	bl	800af40 <finitef>
 800a7dc:	2800      	cmp	r0, #0
 800a7de:	d0f2      	beq.n	800a7c6 <powf+0xe6>
 800a7e0:	eeb5 8ac0 	vcmpe.f32	s16, #0.0
 800a7e4:	eef1 fa10 	vmrs	APSR_nzcv, fpscr
 800a7e8:	d5ed      	bpl.n	800a7c6 <powf+0xe6>
 800a7ea:	2301      	movs	r3, #1
 800a7ec:	9300      	str	r3, [sp, #0]
 800a7ee:	4b67      	ldr	r3, [pc, #412]	; (800a98c <powf+0x2ac>)
 800a7f0:	9301      	str	r3, [sp, #4]
 800a7f2:	ee18 0a90 	vmov	r0, s17
 800a7f6:	2300      	movs	r3, #0
 800a7f8:	9308      	str	r3, [sp, #32]
 800a7fa:	f7f5 fead 	bl	8000558 <__aeabi_f2d>
 800a7fe:	e9cd 0102 	strd	r0, r1, [sp, #8]
 800a802:	ee18 0a10 	vmov	r0, s16
 800a806:	f7f5 fea7 	bl	8000558 <__aeabi_f2d>
 800a80a:	f994 3000 	ldrsb.w	r3, [r4]
 800a80e:	e9cd 0104 	strd	r0, r1, [sp, #16]
 800a812:	b923      	cbnz	r3, 800a81e <powf+0x13e>
 800a814:	2200      	movs	r2, #0
 800a816:	2300      	movs	r3, #0
 800a818:	e9cd 2306 	strd	r2, r3, [sp, #24]
 800a81c:	e79a      	b.n	800a754 <powf+0x74>
 800a81e:	495e      	ldr	r1, [pc, #376]	; (800a998 <powf+0x2b8>)
 800a820:	2000      	movs	r0, #0
 800a822:	e9cd 0106 	strd	r0, r1, [sp, #24]
 800a826:	2b02      	cmp	r3, #2
 800a828:	d194      	bne.n	800a754 <powf+0x74>
 800a82a:	f7fe ff67 	bl	80096fc <__errno>
 800a82e:	2321      	movs	r3, #33	; 0x21
 800a830:	6003      	str	r3, [r0, #0]
 800a832:	e7bc      	b.n	800a7ae <powf+0xce>
 800a834:	f000 fb84 	bl	800af40 <finitef>
 800a838:	4605      	mov	r5, r0
 800a83a:	2800      	cmp	r0, #0
 800a83c:	d173      	bne.n	800a926 <powf+0x246>
 800a83e:	eeb0 0a68 	vmov.f32	s0, s17
 800a842:	f000 fb7d 	bl	800af40 <finitef>
 800a846:	2800      	cmp	r0, #0
 800a848:	d06d      	beq.n	800a926 <powf+0x246>
 800a84a:	eeb0 0a48 	vmov.f32	s0, s16
 800a84e:	f000 fb77 	bl	800af40 <finitef>
 800a852:	2800      	cmp	r0, #0
 800a854:	d067      	beq.n	800a926 <powf+0x246>
 800a856:	ee18 0a90 	vmov	r0, s17
 800a85a:	f7f5 fe7d 	bl	8000558 <__aeabi_f2d>
 800a85e:	4680      	mov	r8, r0
 800a860:	ee18 0a10 	vmov	r0, s16
 800a864:	4689      	mov	r9, r1
 800a866:	f7f5 fe77 	bl	8000558 <__aeabi_f2d>
 800a86a:	eeb4 9a49 	vcmp.f32	s18, s18
 800a86e:	eef1 fa10 	vmrs	APSR_nzcv, fpscr
 800a872:	f994 4000 	ldrsb.w	r4, [r4]
 800a876:	4b45      	ldr	r3, [pc, #276]	; (800a98c <powf+0x2ac>)
 800a878:	d713      	bvc.n	800a8a2 <powf+0x1c2>
 800a87a:	2201      	movs	r2, #1
 800a87c:	e9cd 2300 	strd	r2, r3, [sp]
 800a880:	9508      	str	r5, [sp, #32]
 800a882:	e9cd 8902 	strd	r8, r9, [sp, #8]
 800a886:	e9cd 0104 	strd	r0, r1, [sp, #16]
 800a88a:	2c00      	cmp	r4, #0
 800a88c:	d0c2      	beq.n	800a814 <powf+0x134>
 800a88e:	eec9 7aa9 	vdiv.f32	s15, s19, s19
 800a892:	ee17 0a90 	vmov	r0, s15
 800a896:	f7f5 fe5f 	bl	8000558 <__aeabi_f2d>
 800a89a:	2c02      	cmp	r4, #2
 800a89c:	e9cd 0106 	strd	r0, r1, [sp, #24]
 800a8a0:	e7c2      	b.n	800a828 <powf+0x148>
 800a8a2:	2203      	movs	r2, #3
 800a8a4:	eef6 7a00 	vmov.f32	s15, #96	; 0x3f000000  0.5
 800a8a8:	e9cd 2300 	strd	r2, r3, [sp]
 800a8ac:	9508      	str	r5, [sp, #32]
 800a8ae:	e9cd 8902 	strd	r8, r9, [sp, #8]
 800a8b2:	e9cd 0104 	strd	r0, r1, [sp, #16]
 800a8b6:	ee28 8a27 	vmul.f32	s16, s16, s15
 800a8ba:	b9fc      	cbnz	r4, 800a8fc <powf+0x21c>
 800a8bc:	4b37      	ldr	r3, [pc, #220]	; (800a99c <powf+0x2bc>)
 800a8be:	eef5 8ac0 	vcmpe.f32	s17, #0.0
 800a8c2:	f04f 4260 	mov.w	r2, #3758096384	; 0xe0000000
 800a8c6:	eef1 fa10 	vmrs	APSR_nzcv, fpscr
 800a8ca:	e9cd 2306 	strd	r2, r3, [sp, #24]
 800a8ce:	d553      	bpl.n	800a978 <powf+0x298>
 800a8d0:	eeb0 0a48 	vmov.f32	s0, s16
 800a8d4:	f000 fb44 	bl	800af60 <rintf>
 800a8d8:	eeb4 0a48 	vcmp.f32	s0, s16
 800a8dc:	eef1 fa10 	vmrs	APSR_nzcv, fpscr
 800a8e0:	d004      	beq.n	800a8ec <powf+0x20c>
 800a8e2:	4b2f      	ldr	r3, [pc, #188]	; (800a9a0 <powf+0x2c0>)
 800a8e4:	f04f 4260 	mov.w	r2, #3758096384	; 0xe0000000
 800a8e8:	e9cd 2306 	strd	r2, r3, [sp, #24]
 800a8ec:	f996 3000 	ldrsb.w	r3, [r6]
 800a8f0:	2b02      	cmp	r3, #2
 800a8f2:	d141      	bne.n	800a978 <powf+0x298>
 800a8f4:	f7fe ff02 	bl	80096fc <__errno>
 800a8f8:	2322      	movs	r3, #34	; 0x22
 800a8fa:	e799      	b.n	800a830 <powf+0x150>
 800a8fc:	4b29      	ldr	r3, [pc, #164]	; (800a9a4 <powf+0x2c4>)
 800a8fe:	eef5 8ac0 	vcmpe.f32	s17, #0.0
 800a902:	2200      	movs	r2, #0
 800a904:	eef1 fa10 	vmrs	APSR_nzcv, fpscr
 800a908:	e9cd 2306 	strd	r2, r3, [sp, #24]
 800a90c:	d5ee      	bpl.n	800a8ec <powf+0x20c>
 800a90e:	eeb0 0a48 	vmov.f32	s0, s16
 800a912:	f000 fb25 	bl	800af60 <rintf>
 800a916:	eeb4 0a48 	vcmp.f32	s0, s16
 800a91a:	eef1 fa10 	vmrs	APSR_nzcv, fpscr
 800a91e:	d0e5      	beq.n	800a8ec <powf+0x20c>
 800a920:	2200      	movs	r2, #0
 800a922:	4b1d      	ldr	r3, [pc, #116]	; (800a998 <powf+0x2b8>)
 800a924:	e7e0      	b.n	800a8e8 <powf+0x208>
 800a926:	eeb5 9a40 	vcmp.f32	s18, #0.0
 800a92a:	eef1 fa10 	vmrs	APSR_nzcv, fpscr
 800a92e:	f47f af4a 	bne.w	800a7c6 <powf+0xe6>
 800a932:	eeb0 0a68 	vmov.f32	s0, s17
 800a936:	f000 fb03 	bl	800af40 <finitef>
 800a93a:	2800      	cmp	r0, #0
 800a93c:	f43f af43 	beq.w	800a7c6 <powf+0xe6>
 800a940:	eeb0 0a48 	vmov.f32	s0, s16
 800a944:	f000 fafc 	bl	800af40 <finitef>
 800a948:	2800      	cmp	r0, #0
 800a94a:	f43f af3c 	beq.w	800a7c6 <powf+0xe6>
 800a94e:	2304      	movs	r3, #4
 800a950:	9300      	str	r3, [sp, #0]
 800a952:	4b0e      	ldr	r3, [pc, #56]	; (800a98c <powf+0x2ac>)
 800a954:	9301      	str	r3, [sp, #4]
 800a956:	ee18 0a90 	vmov	r0, s17
 800a95a:	2300      	movs	r3, #0
 800a95c:	9308      	str	r3, [sp, #32]
 800a95e:	f7f5 fdfb 	bl	8000558 <__aeabi_f2d>
 800a962:	e9cd 0102 	strd	r0, r1, [sp, #8]
 800a966:	ee18 0a10 	vmov	r0, s16
 800a96a:	f7f5 fdf5 	bl	8000558 <__aeabi_f2d>
 800a96e:	2200      	movs	r2, #0
 800a970:	e9cd 0104 	strd	r0, r1, [sp, #16]
 800a974:	2300      	movs	r3, #0
 800a976:	e7b7      	b.n	800a8e8 <powf+0x208>
 800a978:	4668      	mov	r0, sp
 800a97a:	f000 fad8 	bl	800af2e <matherr>
 800a97e:	2800      	cmp	r0, #0
 800a980:	f47f af15 	bne.w	800a7ae <powf+0xce>
 800a984:	e7b6      	b.n	800a8f4 <powf+0x214>
 800a986:	bf00      	nop
 800a988:	20000550 	.word	0x20000550
 800a98c:	080fdec0 	.word	0x080fdec0
 800a990:	3ff00000 	.word	0x3ff00000
 800a994:	00000000 	.word	0x00000000
 800a998:	fff00000 	.word	0xfff00000
 800a99c:	47efffff 	.word	0x47efffff
 800a9a0:	c7efffff 	.word	0xc7efffff
 800a9a4:	7ff00000 	.word	0x7ff00000

0800a9a8 <__ieee754_powf>:
 800a9a8:	e92d 41f0 	stmdb	sp!, {r4, r5, r6, r7, r8, lr}
 800a9ac:	ee10 5a90 	vmov	r5, s1
 800a9b0:	f035 4700 	bics.w	r7, r5, #2147483648	; 0x80000000
 800a9b4:	ed2d 8b02 	vpush	{d8}
 800a9b8:	eeb0 8a40 	vmov.f32	s16, s0
 800a9bc:	eef0 8a60 	vmov.f32	s17, s1
 800a9c0:	f000 8293 	beq.w	800aeea <__ieee754_powf+0x542>
 800a9c4:	ee10 8a10 	vmov	r8, s0
 800a9c8:	f028 4400 	bic.w	r4, r8, #2147483648	; 0x80000000
 800a9cc:	f1b4 4fff 	cmp.w	r4, #2139095040	; 0x7f800000
 800a9d0:	dc06      	bgt.n	800a9e0 <__ieee754_powf+0x38>
 800a9d2:	f1b7 4fff 	cmp.w	r7, #2139095040	; 0x7f800000
 800a9d6:	dd0a      	ble.n	800a9ee <__ieee754_powf+0x46>
 800a9d8:	f1b4 5f7e 	cmp.w	r4, #1065353216	; 0x3f800000
 800a9dc:	f000 8285 	beq.w	800aeea <__ieee754_powf+0x542>
 800a9e0:	ecbd 8b02 	vpop	{d8}
 800a9e4:	48d9      	ldr	r0, [pc, #868]	; (800ad4c <__ieee754_powf+0x3a4>)
 800a9e6:	e8bd 41f0 	ldmia.w	sp!, {r4, r5, r6, r7, r8, lr}
 800a9ea:	f000 bab3 	b.w	800af54 <nanf>
 800a9ee:	f1b8 0f00 	cmp.w	r8, #0
 800a9f2:	da1d      	bge.n	800aa30 <__ieee754_powf+0x88>
 800a9f4:	f1b7 4f97 	cmp.w	r7, #1266679808	; 0x4b800000
 800a9f8:	da2c      	bge.n	800aa54 <__ieee754_powf+0xac>
 800a9fa:	f1b7 5f7e 	cmp.w	r7, #1065353216	; 0x3f800000
 800a9fe:	db30      	blt.n	800aa62 <__ieee754_powf+0xba>
 800aa00:	15fb      	asrs	r3, r7, #23
 800aa02:	f1c3 0396 	rsb	r3, r3, #150	; 0x96
 800aa06:	fa47 f603 	asr.w	r6, r7, r3
 800aa0a:	fa06 f303 	lsl.w	r3, r6, r3
 800aa0e:	42bb      	cmp	r3, r7
 800aa10:	d127      	bne.n	800aa62 <__ieee754_powf+0xba>
 800aa12:	f006 0601 	and.w	r6, r6, #1
 800aa16:	f1c6 0602 	rsb	r6, r6, #2
 800aa1a:	f1b7 5f7e 	cmp.w	r7, #1065353216	; 0x3f800000
 800aa1e:	d122      	bne.n	800aa66 <__ieee754_powf+0xbe>
 800aa20:	2d00      	cmp	r5, #0
 800aa22:	f280 8268 	bge.w	800aef6 <__ieee754_powf+0x54e>
 800aa26:	eef7 7a00 	vmov.f32	s15, #112	; 0x3f800000  1.0
 800aa2a:	ee87 0a88 	vdiv.f32	s0, s15, s16
 800aa2e:	e00d      	b.n	800aa4c <__ieee754_powf+0xa4>
 800aa30:	2600      	movs	r6, #0
 800aa32:	f1b7 4fff 	cmp.w	r7, #2139095040	; 0x7f800000
 800aa36:	d1f0      	bne.n	800aa1a <__ieee754_powf+0x72>
 800aa38:	f1b4 5f7e 	cmp.w	r4, #1065353216	; 0x3f800000
 800aa3c:	f000 8255 	beq.w	800aeea <__ieee754_powf+0x542>
 800aa40:	dd0a      	ble.n	800aa58 <__ieee754_powf+0xb0>
 800aa42:	2d00      	cmp	r5, #0
 800aa44:	f280 8254 	bge.w	800aef0 <__ieee754_powf+0x548>
 800aa48:	ed9f 0ac1 	vldr	s0, [pc, #772]	; 800ad50 <__ieee754_powf+0x3a8>
 800aa4c:	ecbd 8b02 	vpop	{d8}
 800aa50:	e8bd 81f0 	ldmia.w	sp!, {r4, r5, r6, r7, r8, pc}
 800aa54:	2602      	movs	r6, #2
 800aa56:	e7ec      	b.n	800aa32 <__ieee754_powf+0x8a>
 800aa58:	2d00      	cmp	r5, #0
 800aa5a:	daf5      	bge.n	800aa48 <__ieee754_powf+0xa0>
 800aa5c:	eeb1 0a68 	vneg.f32	s0, s17
 800aa60:	e7f4      	b.n	800aa4c <__ieee754_powf+0xa4>
 800aa62:	2600      	movs	r6, #0
 800aa64:	e7d9      	b.n	800aa1a <__ieee754_powf+0x72>
 800aa66:	f1b5 4f80 	cmp.w	r5, #1073741824	; 0x40000000
 800aa6a:	d102      	bne.n	800aa72 <__ieee754_powf+0xca>
 800aa6c:	ee28 0a08 	vmul.f32	s0, s16, s16
 800aa70:	e7ec      	b.n	800aa4c <__ieee754_powf+0xa4>
 800aa72:	f1b5 5f7c 	cmp.w	r5, #1056964608	; 0x3f000000
 800aa76:	eeb0 0a48 	vmov.f32	s0, s16
 800aa7a:	d108      	bne.n	800aa8e <__ieee754_powf+0xe6>
 800aa7c:	f1b8 0f00 	cmp.w	r8, #0
 800aa80:	db05      	blt.n	800aa8e <__ieee754_powf+0xe6>
 800aa82:	ecbd 8b02 	vpop	{d8}
 800aa86:	e8bd 41f0 	ldmia.w	sp!, {r4, r5, r6, r7, r8, lr}
 800aa8a:	f000 ba4d 	b.w	800af28 <__ieee754_sqrtf>
 800aa8e:	f000 fa50 	bl	800af32 <fabsf>
 800aa92:	b124      	cbz	r4, 800aa9e <__ieee754_powf+0xf6>
 800aa94:	f028 4340 	bic.w	r3, r8, #3221225472	; 0xc0000000
 800aa98:	f1b3 5f7e 	cmp.w	r3, #1065353216	; 0x3f800000
 800aa9c:	d117      	bne.n	800aace <__ieee754_powf+0x126>
 800aa9e:	2d00      	cmp	r5, #0
 800aaa0:	bfbc      	itt	lt
 800aaa2:	eef7 7a00 	vmovlt.f32	s15, #112	; 0x3f800000  1.0
 800aaa6:	ee87 0a80 	vdivlt.f32	s0, s15, s0
 800aaaa:	f1b8 0f00 	cmp.w	r8, #0
 800aaae:	dacd      	bge.n	800aa4c <__ieee754_powf+0xa4>
 800aab0:	f1a4 547e 	sub.w	r4, r4, #1065353216	; 0x3f800000
 800aab4:	ea54 0306 	orrs.w	r3, r4, r6
 800aab8:	d104      	bne.n	800aac4 <__ieee754_powf+0x11c>
 800aaba:	ee70 7a40 	vsub.f32	s15, s0, s0
 800aabe:	ee87 0aa7 	vdiv.f32	s0, s15, s15
 800aac2:	e7c3      	b.n	800aa4c <__ieee754_powf+0xa4>
 800aac4:	2e01      	cmp	r6, #1
 800aac6:	d1c1      	bne.n	800aa4c <__ieee754_powf+0xa4>
 800aac8:	eeb1 0a40 	vneg.f32	s0, s0
 800aacc:	e7be      	b.n	800aa4c <__ieee754_powf+0xa4>
 800aace:	ea4f 70d8 	mov.w	r0, r8, lsr #31
 800aad2:	3801      	subs	r0, #1
 800aad4:	ea56 0300 	orrs.w	r3, r6, r0
 800aad8:	d104      	bne.n	800aae4 <__ieee754_powf+0x13c>
 800aada:	ee38 8a48 	vsub.f32	s16, s16, s16
 800aade:	ee88 0a08 	vdiv.f32	s0, s16, s16
 800aae2:	e7b3      	b.n	800aa4c <__ieee754_powf+0xa4>
 800aae4:	f1b7 4f9a 	cmp.w	r7, #1291845632	; 0x4d000000
 800aae8:	dd6d      	ble.n	800abc6 <__ieee754_powf+0x21e>
 800aaea:	4b9a      	ldr	r3, [pc, #616]	; (800ad54 <__ieee754_powf+0x3ac>)
 800aaec:	429c      	cmp	r4, r3
 800aaee:	dc06      	bgt.n	800aafe <__ieee754_powf+0x156>
 800aaf0:	2d00      	cmp	r5, #0
 800aaf2:	daa9      	bge.n	800aa48 <__ieee754_powf+0xa0>
 800aaf4:	ed9f 0a98 	vldr	s0, [pc, #608]	; 800ad58 <__ieee754_powf+0x3b0>
 800aaf8:	ee20 0a00 	vmul.f32	s0, s0, s0
 800aafc:	e7a6      	b.n	800aa4c <__ieee754_powf+0xa4>
 800aafe:	4b97      	ldr	r3, [pc, #604]	; (800ad5c <__ieee754_powf+0x3b4>)
 800ab00:	429c      	cmp	r4, r3
 800ab02:	dd02      	ble.n	800ab0a <__ieee754_powf+0x162>
 800ab04:	2d00      	cmp	r5, #0
 800ab06:	dcf5      	bgt.n	800aaf4 <__ieee754_powf+0x14c>
 800ab08:	e79e      	b.n	800aa48 <__ieee754_powf+0xa0>
 800ab0a:	eef7 7a00 	vmov.f32	s15, #112	; 0x3f800000  1.0
 800ab0e:	ee30 0a67 	vsub.f32	s0, s0, s15
 800ab12:	ed9f 7a93 	vldr	s14, [pc, #588]	; 800ad60 <__ieee754_powf+0x3b8>
 800ab16:	eef1 6a40 	vneg.f32	s13, s0
 800ab1a:	eef5 7a00 	vmov.f32	s15, #80	; 0x3e800000  0.250
 800ab1e:	eea6 7aa7 	vfma.f32	s14, s13, s15
 800ab22:	eef6 7a00 	vmov.f32	s15, #96	; 0x3f000000  0.5
 800ab26:	eee7 7a40 	vfms.f32	s15, s14, s0
 800ab2a:	ee60 0a00 	vmul.f32	s1, s0, s0
 800ab2e:	ed9f 7a8d 	vldr	s14, [pc, #564]	; 800ad64 <__ieee754_powf+0x3bc>
 800ab32:	ee67 0aa0 	vmul.f32	s1, s15, s1
 800ab36:	eddf 7a8c 	vldr	s15, [pc, #560]	; 800ad68 <__ieee754_powf+0x3c0>
 800ab3a:	ee67 7ae0 	vnmul.f32	s15, s15, s1
 800ab3e:	eee0 7a07 	vfma.f32	s15, s0, s14
 800ab42:	ed9f 7a8a 	vldr	s14, [pc, #552]	; 800ad6c <__ieee754_powf+0x3c4>
 800ab46:	eeb0 6a67 	vmov.f32	s12, s15
 800ab4a:	eea0 6a07 	vfma.f32	s12, s0, s14
 800ab4e:	ee16 3a10 	vmov	r3, s12
 800ab52:	f423 637f 	bic.w	r3, r3, #4080	; 0xff0
 800ab56:	f023 030f 	bic.w	r3, r3, #15
 800ab5a:	ee00 3a90 	vmov	s1, r3
 800ab5e:	eee6 0a87 	vfma.f32	s1, s13, s14
 800ab62:	ee77 7ae0 	vsub.f32	s15, s15, s1
 800ab66:	f425 657f 	bic.w	r5, r5, #4080	; 0xff0
 800ab6a:	f025 050f 	bic.w	r5, r5, #15
 800ab6e:	ee07 5a10 	vmov	s14, r5
 800ab72:	ee67 0aa8 	vmul.f32	s1, s15, s17
 800ab76:	ee38 7ac7 	vsub.f32	s14, s17, s14
 800ab7a:	ee07 3a90 	vmov	s15, r3
 800ab7e:	eee7 0a27 	vfma.f32	s1, s14, s15
 800ab82:	3e01      	subs	r6, #1
 800ab84:	ea56 0200 	orrs.w	r2, r6, r0
 800ab88:	ee07 5a10 	vmov	s14, r5
 800ab8c:	ee67 7a87 	vmul.f32	s15, s15, s14
 800ab90:	eeb7 8a00 	vmov.f32	s16, #112	; 0x3f800000  1.0
 800ab94:	ee30 7aa7 	vadd.f32	s14, s1, s15
 800ab98:	eebf 0a00 	vmov.f32	s0, #240	; 0xbf800000 -1.0
 800ab9c:	ee17 4a10 	vmov	r4, s14
 800aba0:	bf08      	it	eq
 800aba2:	eeb0 8a40 	vmoveq.f32	s16, s0
 800aba6:	2c00      	cmp	r4, #0
 800aba8:	f024 4300 	bic.w	r3, r4, #2147483648	; 0x80000000
 800abac:	f340 8184 	ble.w	800aeb8 <__ieee754_powf+0x510>
 800abb0:	f1b3 4f86 	cmp.w	r3, #1124073472	; 0x43000000
 800abb4:	f340 80fc 	ble.w	800adb0 <__ieee754_powf+0x408>
 800abb8:	eddf 7a67 	vldr	s15, [pc, #412]	; 800ad58 <__ieee754_powf+0x3b0>
 800abbc:	ee28 0a27 	vmul.f32	s0, s16, s15
 800abc0:	ee20 0a27 	vmul.f32	s0, s0, s15
 800abc4:	e742      	b.n	800aa4c <__ieee754_powf+0xa4>
 800abc6:	f5b4 0f00 	cmp.w	r4, #8388608	; 0x800000
 800abca:	bfbf      	itttt	lt
 800abcc:	eddf 7a68 	vldrlt	s15, [pc, #416]	; 800ad70 <__ieee754_powf+0x3c8>
 800abd0:	ee60 7a27 	vmullt.f32	s15, s0, s15
 800abd4:	f06f 0217 	mvnlt.w	r2, #23
 800abd8:	ee17 4a90 	vmovlt	r4, s15
 800abdc:	ea4f 53e4 	mov.w	r3, r4, asr #23
 800abe0:	bfa8      	it	ge
 800abe2:	2200      	movge	r2, #0
 800abe4:	3b7f      	subs	r3, #127	; 0x7f
 800abe6:	4413      	add	r3, r2
 800abe8:	4a62      	ldr	r2, [pc, #392]	; (800ad74 <__ieee754_powf+0x3cc>)
 800abea:	f3c4 0416 	ubfx	r4, r4, #0, #23
 800abee:	4294      	cmp	r4, r2
 800abf0:	f044 517e 	orr.w	r1, r4, #1065353216	; 0x3f800000
 800abf4:	dd06      	ble.n	800ac04 <__ieee754_powf+0x25c>
 800abf6:	4a60      	ldr	r2, [pc, #384]	; (800ad78 <__ieee754_powf+0x3d0>)
 800abf8:	4294      	cmp	r4, r2
 800abfa:	f340 80a5 	ble.w	800ad48 <__ieee754_powf+0x3a0>
 800abfe:	3301      	adds	r3, #1
 800ac00:	f5a1 0100 	sub.w	r1, r1, #8388608	; 0x800000
 800ac04:	2400      	movs	r4, #0
 800ac06:	4a5d      	ldr	r2, [pc, #372]	; (800ad7c <__ieee754_powf+0x3d4>)
 800ac08:	00a7      	lsls	r7, r4, #2
 800ac0a:	443a      	add	r2, r7
 800ac0c:	ee07 1a90 	vmov	s15, r1
 800ac10:	ed92 7a00 	vldr	s14, [r2]
 800ac14:	4a5a      	ldr	r2, [pc, #360]	; (800ad80 <__ieee754_powf+0x3d8>)
 800ac16:	ee37 6a27 	vadd.f32	s12, s14, s15
 800ac1a:	eeb7 5a00 	vmov.f32	s10, #112	; 0x3f800000  1.0
 800ac1e:	eec5 6a06 	vdiv.f32	s13, s10, s12
 800ac22:	1049      	asrs	r1, r1, #1
 800ac24:	f041 5100 	orr.w	r1, r1, #536870912	; 0x20000000
 800ac28:	f501 2180 	add.w	r1, r1, #262144	; 0x40000
 800ac2c:	eb01 5144 	add.w	r1, r1, r4, lsl #21
 800ac30:	ee77 5ac7 	vsub.f32	s11, s15, s14
 800ac34:	ee06 1a10 	vmov	s12, r1
 800ac38:	ee65 4aa6 	vmul.f32	s9, s11, s13
 800ac3c:	ee14 ca90 	vmov	ip, s9
 800ac40:	ea02 0c0c 	and.w	ip, r2, ip
 800ac44:	ee05 ca10 	vmov	s10, ip
 800ac48:	eeb1 4a45 	vneg.f32	s8, s10
 800ac4c:	eee4 5a06 	vfma.f32	s11, s8, s12
 800ac50:	ee36 6a47 	vsub.f32	s12, s12, s14
 800ac54:	ed9f 7a4b 	vldr	s14, [pc, #300]	; 800ad84 <__ieee754_powf+0x3dc>
 800ac58:	ee37 6ac6 	vsub.f32	s12, s15, s12
 800ac5c:	ee64 7aa4 	vmul.f32	s15, s9, s9
 800ac60:	eee4 5a06 	vfma.f32	s11, s8, s12
 800ac64:	ee67 3aa7 	vmul.f32	s7, s15, s15
 800ac68:	ee25 6aa6 	vmul.f32	s12, s11, s13
 800ac6c:	eddf 5a46 	vldr	s11, [pc, #280]	; 800ad88 <__ieee754_powf+0x3e0>
 800ac70:	eea7 7aa5 	vfma.f32	s14, s15, s11
 800ac74:	eddf 5a45 	vldr	s11, [pc, #276]	; 800ad8c <__ieee754_powf+0x3e4>
 800ac78:	eee7 5a27 	vfma.f32	s11, s14, s15
 800ac7c:	ed9f 7a38 	vldr	s14, [pc, #224]	; 800ad60 <__ieee754_powf+0x3b8>
 800ac80:	eea5 7aa7 	vfma.f32	s14, s11, s15
 800ac84:	eddf 5a42 	vldr	s11, [pc, #264]	; 800ad90 <__ieee754_powf+0x3e8>
 800ac88:	eee7 5a27 	vfma.f32	s11, s14, s15
 800ac8c:	ed9f 7a41 	vldr	s14, [pc, #260]	; 800ad94 <__ieee754_powf+0x3ec>
 800ac90:	ee75 6a24 	vadd.f32	s13, s10, s9
 800ac94:	eea5 7aa7 	vfma.f32	s14, s11, s15
 800ac98:	ee66 6a86 	vmul.f32	s13, s13, s12
 800ac9c:	eef0 5a08 	vmov.f32	s11, #8	; 0x40400000  3.0
 800aca0:	eef0 7a65 	vmov.f32	s15, s11
 800aca4:	eee3 6a87 	vfma.f32	s13, s7, s14
 800aca8:	eee5 7a05 	vfma.f32	s15, s10, s10
 800acac:	ee77 7aa6 	vadd.f32	s15, s15, s13
 800acb0:	ee17 1a90 	vmov	r1, s15
 800acb4:	4011      	ands	r1, r2
 800acb6:	ee07 1a90 	vmov	s15, r1
 800acba:	ee37 7ae5 	vsub.f32	s14, s15, s11
 800acbe:	eddf 5a36 	vldr	s11, [pc, #216]	; 800ad98 <__ieee754_powf+0x3f0>
 800acc2:	eea4 7a05 	vfma.f32	s14, s8, s10
 800acc6:	ee36 7ac7 	vsub.f32	s14, s13, s14
 800acca:	ee27 7a24 	vmul.f32	s14, s14, s9
 800acce:	eea7 7a86 	vfma.f32	s14, s15, s12
 800acd2:	eeb0 6a47 	vmov.f32	s12, s14
 800acd6:	eea5 6a27 	vfma.f32	s12, s10, s15
 800acda:	ee16 1a10 	vmov	r1, s12
 800acde:	4011      	ands	r1, r2
 800ace0:	ee06 1a90 	vmov	s13, r1
 800ace4:	eee4 6a27 	vfma.f32	s13, s8, s15
 800ace8:	eddf 7a2c 	vldr	s15, [pc, #176]	; 800ad9c <__ieee754_powf+0x3f4>
 800acec:	ee37 7a66 	vsub.f32	s14, s14, s13
 800acf0:	ee06 1a10 	vmov	s12, r1
 800acf4:	ee27 7a27 	vmul.f32	s14, s14, s15
 800acf8:	eddf 7a29 	vldr	s15, [pc, #164]	; 800ada0 <__ieee754_powf+0x3f8>
 800acfc:	4929      	ldr	r1, [pc, #164]	; (800ada4 <__ieee754_powf+0x3fc>)
 800acfe:	eea6 7a27 	vfma.f32	s14, s12, s15
 800ad02:	4439      	add	r1, r7
 800ad04:	edd1 7a00 	vldr	s15, [r1]
 800ad08:	ee37 7a27 	vadd.f32	s14, s14, s15
 800ad0c:	ee07 3a90 	vmov	s15, r3
 800ad10:	eef0 0a47 	vmov.f32	s1, s14
 800ad14:	4b24      	ldr	r3, [pc, #144]	; (800ada8 <__ieee754_powf+0x400>)
 800ad16:	eee6 0a25 	vfma.f32	s1, s12, s11
 800ad1a:	443b      	add	r3, r7
 800ad1c:	ed93 5a00 	vldr	s10, [r3]
 800ad20:	eef8 6ae7 	vcvt.f32.s32	s13, s15
 800ad24:	ee70 0a85 	vadd.f32	s1, s1, s10
 800ad28:	ee70 7aa6 	vadd.f32	s15, s1, s13
 800ad2c:	ee17 3a90 	vmov	r3, s15
 800ad30:	4013      	ands	r3, r2
 800ad32:	ee07 3a90 	vmov	s15, r3
 800ad36:	ee77 7ae6 	vsub.f32	s15, s15, s13
 800ad3a:	ee77 7ac5 	vsub.f32	s15, s15, s10
 800ad3e:	eee6 7a65 	vfms.f32	s15, s12, s11
 800ad42:	ee77 7a67 	vsub.f32	s15, s14, s15
 800ad46:	e70e      	b.n	800ab66 <__ieee754_powf+0x1be>
 800ad48:	2401      	movs	r4, #1
 800ad4a:	e75c      	b.n	800ac06 <__ieee754_powf+0x25e>
 800ad4c:	080fde31 	.word	0x080fde31
 800ad50:	00000000 	.word	0x00000000
 800ad54:	3f7ffff7 	.word	0x3f7ffff7
 800ad58:	7149f2ca 	.word	0x7149f2ca
 800ad5c:	3f800007 	.word	0x3f800007
 800ad60:	3eaaaaab 	.word	0x3eaaaaab
 800ad64:	36eca570 	.word	0x36eca570
 800ad68:	3fb8aa3b 	.word	0x3fb8aa3b
 800ad6c:	3fb8aa00 	.word	0x3fb8aa00
 800ad70:	4b800000 	.word	0x4b800000
 800ad74:	001cc471 	.word	0x001cc471
 800ad78:	005db3d6 	.word	0x005db3d6
 800ad7c:	080fdec8 	.word	0x080fdec8
 800ad80:	fffff000 	.word	0xfffff000
 800ad84:	3e6c3255 	.word	0x3e6c3255
 800ad88:	3e53f142 	.word	0x3e53f142
 800ad8c:	3e8ba305 	.word	0x3e8ba305
 800ad90:	3edb6db7 	.word	0x3edb6db7
 800ad94:	3f19999a 	.word	0x3f19999a
 800ad98:	3f763800 	.word	0x3f763800
 800ad9c:	3f76384f 	.word	0x3f76384f
 800ada0:	369dc3a0 	.word	0x369dc3a0
 800ada4:	080fded8 	.word	0x080fded8
 800ada8:	080fded0 	.word	0x080fded0
 800adac:	3338aa3c 	.word	0x3338aa3c
 800adb0:	f040 8092 	bne.w	800aed8 <__ieee754_powf+0x530>
 800adb4:	ed5f 6a03 	vldr	s13, [pc, #-12]	; 800adac <__ieee754_powf+0x404>
 800adb8:	ee37 7a67 	vsub.f32	s14, s14, s15
 800adbc:	ee70 6aa6 	vadd.f32	s13, s1, s13
 800adc0:	eef4 6ac7 	vcmpe.f32	s13, s14
 800adc4:	eef1 fa10 	vmrs	APSR_nzcv, fpscr
 800adc8:	f73f aef6 	bgt.w	800abb8 <__ieee754_powf+0x210>
 800adcc:	15db      	asrs	r3, r3, #23
 800adce:	f1a3 007e 	sub.w	r0, r3, #126	; 0x7e
 800add2:	f44f 0300 	mov.w	r3, #8388608	; 0x800000
 800add6:	4103      	asrs	r3, r0
 800add8:	4423      	add	r3, r4
 800adda:	f3c3 52c7 	ubfx	r2, r3, #23, #8
 800adde:	4947      	ldr	r1, [pc, #284]	; (800aefc <__ieee754_powf+0x554>)
 800ade0:	3a7f      	subs	r2, #127	; 0x7f
 800ade2:	4111      	asrs	r1, r2
 800ade4:	ea23 0101 	bic.w	r1, r3, r1
 800ade8:	f3c3 0016 	ubfx	r0, r3, #0, #23
 800adec:	ee07 1a10 	vmov	s14, r1
 800adf0:	f440 0000 	orr.w	r0, r0, #8388608	; 0x800000
 800adf4:	f1c2 0217 	rsb	r2, r2, #23
 800adf8:	4110      	asrs	r0, r2
 800adfa:	2c00      	cmp	r4, #0
 800adfc:	ee77 7ac7 	vsub.f32	s15, s15, s14
 800ae00:	bfb8      	it	lt
 800ae02:	4240      	neglt	r0, r0
 800ae04:	ee37 7aa0 	vadd.f32	s14, s15, s1
 800ae08:	eddf 6a3d 	vldr	s13, [pc, #244]	; 800af00 <__ieee754_powf+0x558>
 800ae0c:	ee17 3a10 	vmov	r3, s14
 800ae10:	f423 637f 	bic.w	r3, r3, #4080	; 0xff0
 800ae14:	f023 030f 	bic.w	r3, r3, #15
 800ae18:	ee07 3a10 	vmov	s14, r3
 800ae1c:	ee77 7a67 	vsub.f32	s15, s14, s15
 800ae20:	ee70 0ae7 	vsub.f32	s1, s1, s15
 800ae24:	eddf 7a37 	vldr	s15, [pc, #220]	; 800af04 <__ieee754_powf+0x55c>
 800ae28:	ee67 7a27 	vmul.f32	s15, s14, s15
 800ae2c:	eee0 7aa6 	vfma.f32	s15, s1, s13
 800ae30:	eddf 6a35 	vldr	s13, [pc, #212]	; 800af08 <__ieee754_powf+0x560>
 800ae34:	eeb0 0a67 	vmov.f32	s0, s15
 800ae38:	eea7 0a26 	vfma.f32	s0, s14, s13
 800ae3c:	eeb0 6a40 	vmov.f32	s12, s0
 800ae40:	eea7 6a66 	vfms.f32	s12, s14, s13
 800ae44:	ee20 7a00 	vmul.f32	s14, s0, s0
 800ae48:	ee77 7ac6 	vsub.f32	s15, s15, s12
 800ae4c:	eddf 6a2f 	vldr	s13, [pc, #188]	; 800af0c <__ieee754_powf+0x564>
 800ae50:	ed9f 6a2f 	vldr	s12, [pc, #188]	; 800af10 <__ieee754_powf+0x568>
 800ae54:	eea7 6a26 	vfma.f32	s12, s14, s13
 800ae58:	eddf 6a2e 	vldr	s13, [pc, #184]	; 800af14 <__ieee754_powf+0x56c>
 800ae5c:	eee6 6a07 	vfma.f32	s13, s12, s14
 800ae60:	ed9f 6a2d 	vldr	s12, [pc, #180]	; 800af18 <__ieee754_powf+0x570>
 800ae64:	eea6 6a87 	vfma.f32	s12, s13, s14
 800ae68:	eddf 6a2c 	vldr	s13, [pc, #176]	; 800af1c <__ieee754_powf+0x574>
 800ae6c:	eee6 6a07 	vfma.f32	s13, s12, s14
 800ae70:	eeb0 6a40 	vmov.f32	s12, s0
 800ae74:	eea6 6ac7 	vfms.f32	s12, s13, s14
 800ae78:	eef0 6a00 	vmov.f32	s13, #0	; 0x40000000  2.0
 800ae7c:	eeb0 7a46 	vmov.f32	s14, s12
 800ae80:	ee77 6a66 	vsub.f32	s13, s14, s13
 800ae84:	ee20 6a06 	vmul.f32	s12, s0, s12
 800ae88:	eee0 7a27 	vfma.f32	s15, s0, s15
 800ae8c:	ee86 7a26 	vdiv.f32	s14, s12, s13
 800ae90:	ee77 7a67 	vsub.f32	s15, s14, s15
 800ae94:	ee37 0ac0 	vsub.f32	s0, s15, s0
 800ae98:	eef7 7a00 	vmov.f32	s15, #112	; 0x3f800000  1.0
 800ae9c:	ee37 0ac0 	vsub.f32	s0, s15, s0
 800aea0:	ee10 3a10 	vmov	r3, s0
 800aea4:	eb03 53c0 	add.w	r3, r3, r0, lsl #23
 800aea8:	f5b3 0f00 	cmp.w	r3, #8388608	; 0x800000
 800aeac:	da1a      	bge.n	800aee4 <__ieee754_powf+0x53c>
 800aeae:	f000 f8b1 	bl	800b014 <scalbnf>
 800aeb2:	ee20 0a08 	vmul.f32	s0, s0, s16
 800aeb6:	e5c9      	b.n	800aa4c <__ieee754_powf+0xa4>
 800aeb8:	4a19      	ldr	r2, [pc, #100]	; (800af20 <__ieee754_powf+0x578>)
 800aeba:	4293      	cmp	r3, r2
 800aebc:	dd02      	ble.n	800aec4 <__ieee754_powf+0x51c>
 800aebe:	eddf 7a19 	vldr	s15, [pc, #100]	; 800af24 <__ieee754_powf+0x57c>
 800aec2:	e67b      	b.n	800abbc <__ieee754_powf+0x214>
 800aec4:	d108      	bne.n	800aed8 <__ieee754_powf+0x530>
 800aec6:	ee37 7a67 	vsub.f32	s14, s14, s15
 800aeca:	eeb4 7ae0 	vcmpe.f32	s14, s1
 800aece:	eef1 fa10 	vmrs	APSR_nzcv, fpscr
 800aed2:	f6ff af7b 	blt.w	800adcc <__ieee754_powf+0x424>
 800aed6:	e7f2      	b.n	800aebe <__ieee754_powf+0x516>
 800aed8:	f1b3 5f7c 	cmp.w	r3, #1056964608	; 0x3f000000
 800aedc:	f73f af76 	bgt.w	800adcc <__ieee754_powf+0x424>
 800aee0:	2000      	movs	r0, #0
 800aee2:	e78f      	b.n	800ae04 <__ieee754_powf+0x45c>
 800aee4:	ee00 3a10 	vmov	s0, r3
 800aee8:	e7e3      	b.n	800aeb2 <__ieee754_powf+0x50a>
 800aeea:	eeb7 0a00 	vmov.f32	s0, #112	; 0x3f800000  1.0
 800aeee:	e5ad      	b.n	800aa4c <__ieee754_powf+0xa4>
 800aef0:	eeb0 0a68 	vmov.f32	s0, s17
 800aef4:	e5aa      	b.n	800aa4c <__ieee754_powf+0xa4>
 800aef6:	eeb0 0a48 	vmov.f32	s0, s16
 800aefa:	e5a7      	b.n	800aa4c <__ieee754_powf+0xa4>
 800aefc:	007fffff 	.word	0x007fffff
 800af00:	3f317218 	.word	0x3f317218
 800af04:	35bfbe8c 	.word	0x35bfbe8c
 800af08:	3f317200 	.word	0x3f317200
 800af0c:	3331bb4c 	.word	0x3331bb4c
 800af10:	b5ddea0e 	.word	0xb5ddea0e
 800af14:	388ab355 	.word	0x388ab355
 800af18:	bb360b61 	.word	0xbb360b61
 800af1c:	3e2aaaab 	.word	0x3e2aaaab
 800af20:	43160000 	.word	0x43160000
 800af24:	0da24260 	.word	0x0da24260

0800af28 <__ieee754_sqrtf>:
 800af28:	eeb1 0ac0 	vsqrt.f32	s0, s0
 800af2c:	4770      	bx	lr

0800af2e <matherr>:
 800af2e:	2000      	movs	r0, #0
 800af30:	4770      	bx	lr

0800af32 <fabsf>:
 800af32:	ee10 3a10 	vmov	r3, s0
 800af36:	f023 4300 	bic.w	r3, r3, #2147483648	; 0x80000000
 800af3a:	ee00 3a10 	vmov	s0, r3
 800af3e:	4770      	bx	lr

0800af40 <finitef>:
 800af40:	ee10 3a10 	vmov	r3, s0
 800af44:	f023 4000 	bic.w	r0, r3, #2147483648	; 0x80000000
 800af48:	f1b0 4fff 	cmp.w	r0, #2139095040	; 0x7f800000
 800af4c:	bfac      	ite	ge
 800af4e:	2000      	movge	r0, #0
 800af50:	2001      	movlt	r0, #1
 800af52:	4770      	bx	lr

0800af54 <nanf>:
 800af54:	ed9f 0a01 	vldr	s0, [pc, #4]	; 800af5c <nanf+0x8>
 800af58:	4770      	bx	lr
 800af5a:	bf00      	nop
 800af5c:	7fc00000 	.word	0x7fc00000

0800af60 <rintf>:
 800af60:	b513      	push	{r0, r1, r4, lr}
 800af62:	ee10 1a10 	vmov	r1, s0
 800af66:	f021 4300 	bic.w	r3, r1, #2147483648	; 0x80000000
 800af6a:	0ddc      	lsrs	r4, r3, #23
 800af6c:	3c7f      	subs	r4, #127	; 0x7f
 800af6e:	2c16      	cmp	r4, #22
 800af70:	dc46      	bgt.n	800b000 <rintf+0xa0>
 800af72:	b32b      	cbz	r3, 800afc0 <rintf+0x60>
 800af74:	2c00      	cmp	r4, #0
 800af76:	ee10 2a10 	vmov	r2, s0
 800af7a:	ea4f 70d1 	mov.w	r0, r1, lsr #31
 800af7e:	da21      	bge.n	800afc4 <rintf+0x64>
 800af80:	f3c1 0316 	ubfx	r3, r1, #0, #23
 800af84:	425b      	negs	r3, r3
 800af86:	4a21      	ldr	r2, [pc, #132]	; (800b00c <rintf+0xac>)
 800af88:	0a5b      	lsrs	r3, r3, #9
 800af8a:	0d09      	lsrs	r1, r1, #20
 800af8c:	f403 0380 	and.w	r3, r3, #4194304	; 0x400000
 800af90:	0509      	lsls	r1, r1, #20
 800af92:	430b      	orrs	r3, r1
 800af94:	eb02 0280 	add.w	r2, r2, r0, lsl #2
 800af98:	ee07 3a90 	vmov	s15, r3
 800af9c:	edd2 6a00 	vldr	s13, [r2]
 800afa0:	ee36 7aa7 	vadd.f32	s14, s13, s15
 800afa4:	ed8d 7a01 	vstr	s14, [sp, #4]
 800afa8:	eddd 7a01 	vldr	s15, [sp, #4]
 800afac:	ee77 7ae6 	vsub.f32	s15, s15, s13
 800afb0:	ee17 3a90 	vmov	r3, s15
 800afb4:	f023 4300 	bic.w	r3, r3, #2147483648	; 0x80000000
 800afb8:	ea43 73c0 	orr.w	r3, r3, r0, lsl #31
 800afbc:	ee00 3a10 	vmov	s0, r3
 800afc0:	b002      	add	sp, #8
 800afc2:	bd10      	pop	{r4, pc}
 800afc4:	4b12      	ldr	r3, [pc, #72]	; (800b010 <rintf+0xb0>)
 800afc6:	4123      	asrs	r3, r4
 800afc8:	4219      	tst	r1, r3
 800afca:	d0f9      	beq.n	800afc0 <rintf+0x60>
 800afcc:	085b      	lsrs	r3, r3, #1
 800afce:	4219      	tst	r1, r3
 800afd0:	d006      	beq.n	800afe0 <rintf+0x80>
 800afd2:	ea21 0203 	bic.w	r2, r1, r3
 800afd6:	f44f 1300 	mov.w	r3, #2097152	; 0x200000
 800afda:	fa43 f404 	asr.w	r4, r3, r4
 800afde:	4322      	orrs	r2, r4
 800afe0:	4b0a      	ldr	r3, [pc, #40]	; (800b00c <rintf+0xac>)
 800afe2:	eb03 0080 	add.w	r0, r3, r0, lsl #2
 800afe6:	ed90 7a00 	vldr	s14, [r0]
 800afea:	ee07 2a90 	vmov	s15, r2
 800afee:	ee77 7a27 	vadd.f32	s15, s14, s15
 800aff2:	edcd 7a01 	vstr	s15, [sp, #4]
 800aff6:	ed9d 0a01 	vldr	s0, [sp, #4]
 800affa:	ee30 0a47 	vsub.f32	s0, s0, s14
 800affe:	e7df      	b.n	800afc0 <rintf+0x60>
 800b000:	f1b3 4fff 	cmp.w	r3, #2139095040	; 0x7f800000
 800b004:	d3dc      	bcc.n	800afc0 <rintf+0x60>
 800b006:	ee30 0a00 	vadd.f32	s0, s0, s0
 800b00a:	e7d9      	b.n	800afc0 <rintf+0x60>
 800b00c:	080fdee0 	.word	0x080fdee0
 800b010:	007fffff 	.word	0x007fffff

0800b014 <scalbnf>:
 800b014:	b508      	push	{r3, lr}
 800b016:	ee10 2a10 	vmov	r2, s0
 800b01a:	f032 4300 	bics.w	r3, r2, #2147483648	; 0x80000000
 800b01e:	ed2d 8b02 	vpush	{d8}
 800b022:	eef0 0a40 	vmov.f32	s1, s0
 800b026:	d004      	beq.n	800b032 <scalbnf+0x1e>
 800b028:	f1b3 4fff 	cmp.w	r3, #2139095040	; 0x7f800000
 800b02c:	d306      	bcc.n	800b03c <scalbnf+0x28>
 800b02e:	ee70 0a00 	vadd.f32	s1, s0, s0
 800b032:	ecbd 8b02 	vpop	{d8}
 800b036:	eeb0 0a60 	vmov.f32	s0, s1
 800b03a:	bd08      	pop	{r3, pc}
 800b03c:	f5b3 0f00 	cmp.w	r3, #8388608	; 0x800000
 800b040:	d21c      	bcs.n	800b07c <scalbnf+0x68>
 800b042:	4b1f      	ldr	r3, [pc, #124]	; (800b0c0 <scalbnf+0xac>)
 800b044:	eddf 7a1f 	vldr	s15, [pc, #124]	; 800b0c4 <scalbnf+0xb0>
 800b048:	4298      	cmp	r0, r3
 800b04a:	ee60 0a27 	vmul.f32	s1, s0, s15
 800b04e:	db10      	blt.n	800b072 <scalbnf+0x5e>
 800b050:	ee10 2a90 	vmov	r2, s1
 800b054:	f3c2 53c7 	ubfx	r3, r2, #23, #8
 800b058:	3b19      	subs	r3, #25
 800b05a:	4403      	add	r3, r0
 800b05c:	2bfe      	cmp	r3, #254	; 0xfe
 800b05e:	dd0f      	ble.n	800b080 <scalbnf+0x6c>
 800b060:	ed9f 8a19 	vldr	s16, [pc, #100]	; 800b0c8 <scalbnf+0xb4>
 800b064:	eeb0 0a48 	vmov.f32	s0, s16
 800b068:	f000 f834 	bl	800b0d4 <copysignf>
 800b06c:	ee60 0a08 	vmul.f32	s1, s0, s16
 800b070:	e7df      	b.n	800b032 <scalbnf+0x1e>
 800b072:	eddf 7a16 	vldr	s15, [pc, #88]	; 800b0cc <scalbnf+0xb8>
 800b076:	ee60 0aa7 	vmul.f32	s1, s1, s15
 800b07a:	e7da      	b.n	800b032 <scalbnf+0x1e>
 800b07c:	0ddb      	lsrs	r3, r3, #23
 800b07e:	e7ec      	b.n	800b05a <scalbnf+0x46>
 800b080:	2b00      	cmp	r3, #0
 800b082:	dd06      	ble.n	800b092 <scalbnf+0x7e>
 800b084:	f022 42ff 	bic.w	r2, r2, #2139095040	; 0x7f800000
 800b088:	ea42 53c3 	orr.w	r3, r2, r3, lsl #23
 800b08c:	ee00 3a90 	vmov	s1, r3
 800b090:	e7cf      	b.n	800b032 <scalbnf+0x1e>
 800b092:	f113 0f16 	cmn.w	r3, #22
 800b096:	da06      	bge.n	800b0a6 <scalbnf+0x92>
 800b098:	f24c 3350 	movw	r3, #50000	; 0xc350
 800b09c:	4298      	cmp	r0, r3
 800b09e:	dcdf      	bgt.n	800b060 <scalbnf+0x4c>
 800b0a0:	ed9f 8a0a 	vldr	s16, [pc, #40]	; 800b0cc <scalbnf+0xb8>
 800b0a4:	e7de      	b.n	800b064 <scalbnf+0x50>
 800b0a6:	3319      	adds	r3, #25
 800b0a8:	f022 42ff 	bic.w	r2, r2, #2139095040	; 0x7f800000
 800b0ac:	ea42 53c3 	orr.w	r3, r2, r3, lsl #23
 800b0b0:	eddf 7a07 	vldr	s15, [pc, #28]	; 800b0d0 <scalbnf+0xbc>
 800b0b4:	ee07 3a10 	vmov	s14, r3
 800b0b8:	ee67 0a27 	vmul.f32	s1, s14, s15
 800b0bc:	e7b9      	b.n	800b032 <scalbnf+0x1e>
 800b0be:	bf00      	nop
 800b0c0:	ffff3cb0 	.word	0xffff3cb0
 800b0c4:	4c000000 	.word	0x4c000000
 800b0c8:	7149f2ca 	.word	0x7149f2ca
 800b0cc:	0da24260 	.word	0x0da24260
 800b0d0:	33000000 	.word	0x33000000

0800b0d4 <copysignf>:
 800b0d4:	ee10 3a10 	vmov	r3, s0
 800b0d8:	ee10 2a90 	vmov	r2, s1
 800b0dc:	f023 4300 	bic.w	r3, r3, #2147483648	; 0x80000000
 800b0e0:	f002 4200 	and.w	r2, r2, #2147483648	; 0x80000000
 800b0e4:	4313      	orrs	r3, r2
 800b0e6:	ee00 3a10 	vmov	s0, r3
 800b0ea:	4770      	bx	lr

0800b0ec <_gettimeofday>:
 800b0ec:	4b02      	ldr	r3, [pc, #8]	; (800b0f8 <_gettimeofday+0xc>)
 800b0ee:	2258      	movs	r2, #88	; 0x58
 800b0f0:	601a      	str	r2, [r3, #0]
 800b0f2:	f04f 30ff 	mov.w	r0, #4294967295	; 0xffffffff
 800b0f6:	4770      	bx	lr
 800b0f8:	20006250 	.word	0x20006250

0800b0fc <_init>:
 800b0fc:	b5f8      	push	{r3, r4, r5, r6, r7, lr}
 800b0fe:	bf00      	nop
 800b100:	bcf8      	pop	{r3, r4, r5, r6, r7}
 800b102:	bc08      	pop	{r3}
 800b104:	469e      	mov	lr, r3
 800b106:	4770      	bx	lr

0800b108 <_fini>:
 800b108:	b5f8      	push	{r3, r4, r5, r6, r7, lr}
 800b10a:	bf00      	nop
 800b10c:	bcf8      	pop	{r3, r4, r5, r6, r7}
 800b10e:	bc08      	pop	{r3}
 800b110:	469e      	mov	lr, r3
 800b112:	4770      	bx	lr
